(dp1
S'plant_type'
p2
(dp3
S'length'
p4
I512
sS'unique'
p5
I00
sS'sortable'
p6
I6
sS'sql'
p7
S'CHAR(512)'
p8
sS'notnull'
p9
I00
sS'type'
p10
S'string'
p11
ssS'cell_type'
p12
(dp13
g4
I512
sg5
I00
sg6
I13
sg7
S'CHAR(512) NOT NULL'
p14
sg9
I01
sg10
g11
ssS'species_name'
p15
(dp16
g4
I512
sg5
I00
sg6
I3
sg7
S'CHAR(512) NOT NULL'
p17
sg9
I01
sg10
g11
ssS'organ'
p18
(dp19
g4
I512
sg5
I00
sg6
I11
sg7
S'CHAR(512) NOT NULL'
p20
sg9
I01
sg10
g11
ssS'sample_name'
p21
(dp22
g4
I512
sg5
I00
sg6
I2
sg7
S'INTEGER REFERENCES sample (id) ON DELETE CASCADE'
p23
sg9
I00
sg10
S'reference sample'
p24
ssS'bio_source_amount'
p25
(dp26
g4
I512
sg5
I00
sg6
I15
sg7
S'CHAR(512) NOT NULL'
p27
sg9
I01
sg10
g11
ssS'organ_spec'
p28
(dp29
g4
I512
sg5
I00
sg6
I12
sg7
S'CHAR(512) NOT NULL'
p30
sg9
I01
sg10
g11
ssS'genotype_gene_names'
p31
(dp32
g4
I512
sg5
I00
sg6
I10
sg7
S'CHAR(512) NOT NULL'
p33
sg9
I01
sg10
g11
ssS'genotype_plant_type'
p34
(dp35
g4
I512
sg5
I00
sg6
I9
sg7
S'CHAR(512) NOT NULL'
p36
sg9
I01
sg10
g11
ssS'phenotype'
p37
(dp38
g4
I512
sg5
I00
sg6
I5
sg7
S'CHAR(512)'
p39
sg9
I00
sg10
g11
ssS'genotype_pedigree_information'
p40
(dp41
g4
I512
sg5
I00
sg6
I8
sg7
S'CHAR(512) NOT NULL'
p42
sg9
I01
sg10
g11
ssS'sub_cell_location'
p43
(dp44
g4
I512
sg5
I00
sg6
I14
sg7
S'CHAR(512) NOT NULL'
p45
sg9
I01
sg10
g11
ssS'genotype_echotype'
p46
(dp47
g4
I512
sg5
I00
sg6
I4
sg7
S'CHAR(512) NOT NULL'
p48
sg9
I01
sg10
g11
ssS'source_of_germplasm'
p49
(dp50
g4
I512
sg5
I00
sg6
I7
sg7
S'CHAR(512) NOT NULL'
p51
sg9
I01
sg10
g11
ssS'id'
p52
(dp53
g4
I512
sg5
I00
sg6
I1
sg7
S'INTEGER PRIMARY KEY AUTOINCREMENT'
p54
sg9
I00
sg10
S'id'
p55
ss.