(dp1
S'output'
p2
S"<type 'exceptions.IndentationError'> unexpected indent (default.py, line 924)"
p3
sS'layer'
p4
S'/home/anil/Downloads/web2py/applications/DEV_bootstrap_ch/controllers/default.py'
p5
sS'code'
p6
S'# -*- coding: utf-8 -*-\n# this file is released under public domain and you can use without limitations\n\n########################## Tips\n#http://stackoverflow.com/questions/12354353/duplicate-a-record-and-its-references-in-web2py\n\n\n#########################################################################\n## This is a samples controller\n## - index is the default action of any application\n## - user is required for authentication and authorization\n## - download is for downloading files uploaded in the db (does streaming)\n## - call exposes all registered services (none by default)\n#########################################################################\n\ndef index():\n    """\n    example action using the internationalization operator T and flash\n    rendered by views/default/index.html or views/generic.html\n    """\n    redirect(URL(\'default\',\'list_all_projects\'))\n    #redirect(URL(\'plugin_wiki\',\'page/home\'))\n\ndef user():\n    """\n    exposes:\n    http://..../[app]/default/user/login\n    http://..../[app]/default/user/logout\n    http://..../[app]/default/user/register\n    http://..../[app]/default/user/profile\n    http://..../[app]/default/user/retrieve_password\n    http://..../[app]/default/user/change_password\n    use @auth.requires_login()\n        @auth.requires_membership(\'group name\')\n        @auth.requires_permission(\'read\',\'table name\',record_id)\n    to decorate functions that need access control\n    """\n    return dict(form=auth())\n\ndef download():\n    """\n    allows downloading of uploaded files\n    http://..../[app]/default/download/[filename]\n    """\n    return response.download(request,db)\n\n\ndef call():\n    """\n    exposes services. for example:\n    http://..../[app]/default/call/jsonrpc\n    decorate with @services.jsonrpc the functions to expose\n    supports xml, json, xmlrpc, jsonrpc, amfrpc, rss, csv\n    """\n    return service()\n\n\ndef authenticate(uid,pid,func):   \n   result = db(db.role.user == uid)(db.role.approval_status==1)(db.role.project == pid).select(db.role.ALL)\n   myroles = [role_list[int(k.role)] for k in result]\n   is_coordinator = db(db.project.project_coordinator == uid).select(db.project.ALL)\n   if func == \'roles\':\n\tif len(is_coordinator):\n\t  error = \'\'\n\telse:\n\t   error = \'You must be a project co-ordinator to manage roles\'\n\treturn error  \n   if func == \'add_project\':\n\tif len(is_coordinator):\n\t  error = \'\'\n\telse:\n\t   error = \'\'\n        return error\n   if func == \'add_sample\':\n\tif \'experimentalist\' in myroles:\n\t  error = \'\'\n\telse:\n\t   error = \'SignUp for  "Experimentalist Role" in this project to add a sample. Use Browser back button to navigate to Project View.\'\n        return error\n   if func == \'experimentalist\':\n\tif \'experimentalist\' in myroles:\n\t  error = \'\'\n\telse:\n\t   error = \'You must be an experimentalist to add the biosource information of a sample\'\n        return error\n   if func == \'my_samples\':\n\tif  \'experimentalist\' in myroles:\n\t  error = \'\'\n\telse:\n\t   error = \'You are not authorized to view this page\'\n        return error\n\ndef basic_groups(pid):\n    """ creates the basic groups on general basis or id basis """\n    if not pid:\n        for i in role_list:\n\t   auth.add_group(i,i) \n    else:\n        pid_groups = [str(pid)+\'#\'+i for i in role_list]\n\tfor k in pid_groups:\n\t   auth.add_group(k,k)\n    return locals()\t   \n\n\n@auth.requires_login()\ndef add_project():\n    error = authenticate(auth.user.id,\'\',\'add_project\')\n    form = SQLFORM(db.project,fields=[\'name\',\'code\',\'start_date\',\'project_description\',\'project_literature_reference\',\'project_journal_name\'],showid=False)\n    form.vars.project_coordinator = auth.user.id\n    if form.process().accepted:\n       response.flash =\'accepted\'\n       result = db(db.project.name == form.vars.name).select(db.project.ALL).first()\n       basic_groups(result.id)\n       db.role.insert(user=auth.user.id,project=result.id,role=6,approval_status=1,member_since=now)\n       redirect(URL(\'project_viewer\',args = form.vars.id))\n    elif form.errors:\n       response.flash = \'errors\'\n    return locals()\n\n@auth.requires_login()\ndef remove_project():\n    response.menu = [\n    (T(\'Home\'), False, URL(\'default\',\'list_all_projects\'), [])\n    ]\n    """takes an id and removes the project """ \n    pid  = request.args(0)\n    pid_groups = [str(pid)+\'#\'+i for i in role_list]\n    for z in pid_groups:\n\tpgid = auth.id_group(z)\n\tauth.del_group(pgid)\n    del db.project[pid]\n    return locals()\n\ndef add_experiment():\n    grid = SQLFORM.grid(db.experiment)\n    return locals()\n\ndef new_affiliation():\n    form = SQLFORM(db.affiliation)\n    return locals()\n\ndef edit_project():\n    response.menu = [\n    (T(\'Home\'), False, URL(\'default\',\'list_all_projects\'), []),\n    (T(\'Project\'), False, URL(\'default\',\'project_viewer\',args=request.args),[])\n    ]\n    crud.settings.update_next = URL(\'project_viewer\',args=request.args)\n    form=crud.update(db.project,request.args(0),deletable=False)\n    return locals();\n \n@auth.requires_login()\ndef project_viewer():\n    pid = request.args[-1]\n    project=db(db.project.id==pid).select(db.project.ALL).first()\n    cord = db(db.auth_user.id==project.project_coordinator).select(db.auth_user.ALL).first()\n    \n    if authenticate(auth.user.id,\'\',\'roles\') == \'\':\n      response.menu = [\n      (T(\'Home\'), False, URL(\'default\',\'list_all_projects\'), []),\n      (T(\'Project\'), False, URL(\'default\',\'project_viewer\',args=request.args[-1]),[\n      (T(\'Grant Role\'),False,URL(\'roles\',args=project.id)),\n      (T(\'Edit Project\'),False,URL(\'edit_project\',args=project.id)),\n      (T(\'SignUP\'),False,URL(\'reg_project\',args=project.id))]\n      )\n      ]\n    else :\n      response.menu = [\n      (T(\'Home\'), False, URL(\'default\',\'list_all_projects\'), []),\n      (T(\'Project\'), False, URL(\'default\',\'project_viewer\',args=request.args[-1]),[\n      (T(\'SignUP\'),False,URL(\'reg_project\',args=project.id))]\n      )\n      ]\n      \n    if project.project_status == \'1\':\n      response.menu+= [\n      (T(\'Published Samples\'), False,URL(\'list_all_pub_samples\',args=(pid)),[])\n      ]\n    elif authenticate(auth.user.id,pid,\'add_sample\')==\'\':\n        response.menu+= [\n        (T(\'Samples\'), False,URL(\'my_samples\',args=(pid)),[\n        (T(\'My Samples\'), False,URL(\'my_samples\',args=(pid))),\n        ])\n        ]\n    if len(request.args) == 2:\n        response.flash = \'Project Succesfully \' + request.args[-2]\n       \n    users=db(db.role.approval_status==1)(db.role.project==pid)(db.role.project == db.project.id)(db.role.user==db.auth_user.id).select(db.role.ALL,db.auth_user.ALL)\n    is_coordinator = \'\'\n    myroles = \'\'\n    if auth.user:\n      is_coordinator = db(db.project.id == pid)(db.project.project_coordinator == auth.user.id).select(db.project.ALL).first()\n      result = db(db.role.user == auth.user.id)(db.role.project == pid).select(db.role.ALL)\n      myroles = [role_list[int(k.role)] for k in result]\n      \n    return locals()\n\n\ndef add_sample():\n  """ creates a exp on an project basis and should continue to fill the bio source data """\n  """ available to the experimentalist """ \n  response.menu = [\n  (T(\'Home\'), False, URL(\'default\',\'list_all_projects\'), [])\n  ]\n  if \'new\' in request.args:\n   pid = request.args[-3]\n  else:\n   pid = request.args(0)\n  error = authenticate(auth.user.id,pid,\'add_sample\') \n  form = SQLFORM(db.sample,fields=[\'name\',\'code\',\'description\',\'scientific_name\'],showid=False)\n#added a field project in sample table\n#added two more fields in form insert root/replica etc and scientific name\n  if form.validate():\n      i = db.sample.insert(experimentalist=auth.user.id,name=form.vars.name,code=form.vars.code ,description=form.vars.description,experiment=pid,scientific_name=form.vars.scientific_name,working_status=1,publication_status=0)\n      response.flash = \'sample has been created\'\n      redirect(URL(\'list_all_dev_projects\',args=[\'project\',\'sample.project\',pid])) \n      # redirect to the sample creation \n  elif form.errors:\n      response.flash = \'Form has errors\'\n  return locals()\n\ndef sample_viewer():\n   response.menu = [\n   (T(\'Home\'), False, URL(\'default\',\'list_all_projects\'), [])\n   ]\n   i = request.args[-1]\n   if \'view\' in request.args: \n\tform = SQLFORM(db.sample, i,readonly =True,showid=False)\n   if \'edit\' in request.args: \n\tform = SQLFORM(db.sample, i,showid=False)\n   if form.process().accepted:\n\tresponse.flash = \'form accepted\'\n\tredirect(URL(\'list_all_dev_projects\',args = request.args[0:-3])) \n   elif form.errors:\n\tresponse.flash = \'form has errors\'\n   return dict(form=form)\n\n@auth.requires_login()\ndef list_all_projects():\n    response.menu = [\n    (T(\'Home\'), False, URL(\'default\',\'index\'), [])\n    #(T(\'Home\'), False, URL(\'default\',\'list_all_projects\'), []),\n    #(T(\'Project\'), False, URL(\'default\',\'list_all_projects\'), [(T(\'Add Project\'),False,URL(\'default\',\'add_project\'))])\n    ]\n    form=FORM(\n              INPUT(_name=\'name\', requires=IS_NOT_EMPTY()),\n              INPUT(_type=\'submit\'))\n    form.elements(\'input[type=submit]\')[0]["_value"] = "Search"\n    if form.accepts(request,session):\n      redirect(URL(\'grid?keywords=tomato\')) \n    \n    #form=FORM(\'\',INPUT(_name=\'name\') ,INPUT(_type=\'submit\'))\n    #if form.process().accepted:\n      #redirect(URL(\'grid\')) \n    pub_projects = db(db.project.project_status == 1)(db.project.project_coordinator==db.auth_user.id).select(db.project.ALL,db.auth_user.ALL)\n    dev_projects = db(db.project.project_status == 0)(db.project.project_coordinator==db.auth_user.id).select(db.project.ALL,db.auth_user.ALL)\n    authenticated = \'no\'\n    if auth.user:\n     authenticated = authenticate(auth.user.id,\'\',\'add_project\')\n    return locals()\n\ndef grid():\n  # query=((db.project.project_status==0)&(db.experiment.project==db.project.id)&(db.sample.experiment==db.experiment.id)&(db.biosource.sample_name==db.sample.id))\n   query=((db.project.project_status==0)&(db.experiment.project==db.project.id)&(db.sample.experiment==db.experiment.id)&(db.sample.id==db.biosource.sample_name))\n   #query=((db.project.project_status==0))\n#   query=((db.sample.experiment==db.experiment.id)&((db.sample.id==db.biosource.sample_name)|(db.sample.id==db.plant_growth_condition.sample_name)))\n   grid = SQLFORM.grid(query)\n   return locals() \n\ndef temp():\n   q1 = (db.project.project_status ==  0)\n   q2 = (db.sample.publication_status == True)\n   ck = {}\n   fi = [db.project.name,db.project.project_coordinator,db.project.start_date,db.project.project_status,db.experiment.code,db.sample.name,db.sample.code,db.biosource.sample_name,db.plant_growth_condition.sample_name,db.treatments.sample_name,db.harvests.sample_name,db.extraction_preparation.sample_name,db.gas_chromatography.sample_name,db.liquid_chromatography.sample_name,db.mass_spectroscopy.sample_name,db.raw_data_storage_information.sample_name]\n   l1=[lambda row: A(\'View Post\',_href=URL("default","view",args=[row.id]))]\n   links={\'project\':l1}\n   grid = SQLFORM.smartgrid(db.project,ck,fields=fi,links=links,linked_tables=[\'experiment\',\'sample\',\'biosource\',\'plant_growth_condition\',\'treatments\',\'harvests\',\'extraction_preparation\',\'gas_chromatography\',\'liquid_chromatography\',\'mass_spectroscopy\',\'raw_data_storage_information\']) \n   return locals() \n\ndef list_all_pub_projects():\n    response.menu = [\n    (T(\'Home\'), False, URL(\'default\',\'list_all_projects\'), [])\n    ]\n    q1 = (db.project.project_status ==  1)\n    q2 = (db.sample.publication_status == True)\n    ck = {\'project\':q1,\'sample\':q2}\n    fi = [db.project.name,db.project.project_coordinator,db.project.start_date,db.project.project_status,db.experiment.code,db.sample.name,db.sample.code,db.sample.replica,db.biosource.sample_name,db.plant_growth_condition.sample_name,db.treatments.sample_name,db.harvests.sample_name,db.extraction_preparation.sample_name,db.gas_chromatography.sample_name,db.liquid_chromatography.sample_name,db.mass_spectroscopy.sample_name,db.raw_data_storage_information.sample_name]\n    if \'view\' in request.args or \'edit\' in request.args or \'new\' in request.args:\n    \trouter()\n    grid = SQLFORM.smartgrid(db.project,ck,fields=fi,editable=False,deletable=False,create = False,linked_tables=[\'experiment\',\'sample\',\'biosource\',\'plant_growth_condition\',\'treatments\',\'harvests\',\'extraction_preparation\',\'gas_chromatography\',\'liquid_chromatography\',\'mass_spectroscopy\',\'raw_data_storage_information\']) \n    \n    return locals()\n\n@auth.requires_login()\ndef list_all_dev_projects():\n    response.menu = [\n    (T(\'Home\'), False, URL(\'default\',\'list_all_projects\'), [])\n    ]\n    db.sample.experimentalist.default=auth.user.id\n    db.experiment.experimentalist.default=auth.user.id\n    db.sample.experiment.writable = False\n    db.sample.parent.readable = False\n    db.sample.experiment.readable = False\n    db.experiment.experimentalist.writable = False\n    q1 = (db.project.project_status ==  0)\n    q2 = (db.sample.experimentalist == auth.user.id)\n    ck = {\'project\':q1,\'sample\':q2}\n    fi = [db.project.name,db.project.project_coordinator,db.project.start_date,db.project.project_status,db.experiment.code,db.sample.name,db.sample.code,db.sample.replica,db.sample.publication_status,db.biosource.sample_name,db.plant_growth_condition.sample_name,db.treatments.sample_name,db.harvests.sample_name,db.extraction_preparation.sample_name,db.gas_chromatography.sample_name,db.liquid_chromatography.sample_name,db.mass_spectroscopy.sample_name,db.spectrophotometry.sample_name,db.raw_data_storage_information.sample_name]\n    edit_dict = {\'project\':False}\n    delete_dict = {\'project\':False}\n#Allow only one original sample to be added in an experiment others are replicates\n    addsample = True\n   # if \'sample\' in request.args and \'new\' in request.args:\n   #      count = db(db.sample.experiment==request.args[-3]).count()\n   #      if(count>0):\n   #        db.sample.replica.default = \'replicate\'\n   #       # db.sample.replica.requires=IS_IN_SET([\'replicate\',\'alicot\'])\n   #      else:\n   #        db.sample.replica.default = \'Original\'\n   #        db.sample.replica.writable = False\n           \n    create_dict = {\'project\':False,\'sample\':addsample}\n    orderby_dict ={\'sample\':db.sample.name} \n#Links for replicating samples  \n    args= request.args[0:5]\n    #args1=[\'project\',request.args[1],request.args[2],request.args[3],request.args[4],"biosource.sample_name","edit","biosource"]\n    l1=[lambda row: A(\'copy\',_href=URL("default","copy",args=request.args[:]+[row.id])),\\\n           lambda row: A(\'replicate\',_href=URL("default","duplicate",args=request.args[:]+["replicate"]+[row.id])), \\\n           lambda row: A(\'aliqout\',_href=URL("default","duplicate",args=request.args[:]+["aliqout"]+[row.id])), \\\n           lambda row: A(\'biosource_\'+tes(row.id,\'biosource\'),_href=URL("default","router",args=getargs(row.id,args,"biosource"))), \\\n           lambda row: A(\'PGC_\'+tes(row.id,\'plant_growth_condition\'),_href=URL("default","router",args=getargs(row.id,args,"plant_growth_condition"))), \\\n           lambda row: A(\'treatment_\'+tes(row.id,\'treatments\'),_href=URL("default","router",args=getargs(row.id,args,"treatments"))), \\\n           lambda row: A(\'harvest_\'+tes(row.id,\'harvests\'),_href=URL("default","router",args=getargs(row.id,args,"harvests"))), \\\n           lambda row: A(\'Ext_\'+tes(row.id,\'extraction_preparation\'),_href=URL("default","router",args=getargs(row.id,args,"extraction_preparation"))), \\\n           lambda row: A(\'GC_\'+tes(row.id,\'gas_chromatography\'),_href=URL("default","router",args=getargs(row.id,args,"gas_chromatography"))), \\\n           lambda row: A(\'LC_\'+tes(row.id,\'liquid_chromatography\'),_href=URL("default","router",args=getargs(row.id,args,"liquid_chromatography"))), \\\n           lambda row: A(\'MS_\'+tes(row.id,\'mass_spectroscopy\'),_href=URL("default","router",args=getargs(row.id,args,"mass_spectroscopy"))), \\\n           lambda row: A(\'spectrophotometry_\'+tes(row.id,\'spectrophotometry\'),_href=URL("default","router",args=getargs(row.id,args,"spectrophotometry")))]\n    links={\'sample\':l1}\n#customized Views for certain forms using router   \n    if \'view\' in request.args or \'edit\' in request.args or \'new\' in request.args:\n     \trouter()\n    s={\'sample\':lambda ids : redirect(URL(\'default\', \'mapping_multiple\', vars=dict(id=ids)))}\n    \n    grid = SQLFORM.smartgrid(db.project,ck,fields=fi,editable=edit_dict,orderby=orderby_dict,create=create_dict,deletable=delete_dict,links=links,linked_tables=[\'experiment\',\'sample\',\'raw_data_storage_information\'],selectable = s) \n    return locals()\n\n#gets table name and rowid as input and creates another row with same details as rowid recod has\ndef tes(a,table):\n    if db(db[table].sample_name==a).count()==0:\n     return "add"\n    else:\n        return "edit"\n    return "add"\ndef getargs(a,args,table):\n    row = db(db[table].sample_name==a).select(db[table].id).first()\n    if row:\n        args=args+[table+".sample_name",a,"edit",table,row.id]\n        return args\n    else:\n        args = args+[table+".sample_name",a,"new",table]\n        return args\n\ndef copy():\n    if db(db.template.user==auth.user.id).count() == 0:\n       db.template.insert(user=auth.user.id, sample=request.args[-1])\n    else:   \n       db(db.template.user == auth.user.id).update(sample=request.args[-1])\n    #redirect(URL(\'list_all_dev_projects\',args=request.args[0:-1]))\n    #Unique fields take care\n    #product.update(sampleid=\'temp\')\n    return() \ndef duplicate():\n    if True:\n        rec = db(db.sample.id==request.args[-1]).select(db.sample.ALL).first()\n        rec.update(parent=rec.id,replica=str(request.args[-2]))\n        in_row = db.sample.insert(**db.sample._filter_fields(rec))\n        for tb in [\'biosource\',\'plant_growth_condition\',\'treatments\',\'harvests\',\'extraction_preparation\',\'gas_chromatography\',\'liquid_chromatography\',\'mass_spectroscopy\',\'spectrophotometry\']:\n            row = db(db[tb].sample_name==request.args[-1]).select(db[tb].ALL).first()\n            if row:\n                row.update(sample_name = in_row.id)\n                db[tb].insert(**db[tb]._filter_fields(row)) \n        redirect(URL(\'list_all_dev_projects\',args=request.args[0:-2]))\n    redirect(URL(\'list_all_dev_projects\',args=[]))\n\n\ndef my_samples():\n    response.menu = [\n    (T(\'Home\'), False, URL(\'default\',\'list_all_projects\'), [])\n    ]\n    """ all my samples in the project with permissions to edit delete publish/unpublish samples """\n    error = authenticate(auth.user.id,request.args(0),\'add_sample\') \n    l =  [\'project\',\'experiment.project\',request.args(0)]\n    if error == \'\':\n      redirect(URL(\'list_all_dev_projects\',args=l))\n    return locals()\n\ndef list_all_samples1():\n    proj_id = request.args(0)\n    pub_samples = db((db.sample.working_status == 1)&(db.sample.project == proj_id)).select(db.sample.ALL)\n    dev_samples = db((db.sample.working_status == 0)&(db.sample.project == proj_id)).select(db.sample.ALL)\n    return locals()\n\ndef view_published_samples():\n    proj_id = request.args(0)\n    return locals() \n\ndef router():\n    l=request.args\n    if \'biosource\' in l:\n      redirect(URL(\'insert_biosource\',args = l))\n    elif \'plant_growth_condition\' in l:\n      redirect(URL(\'insert_pgc\',args = l))\n    elif \'treatments\' in l:\n      redirect(URL(\'insert_treatments\',args = l))\n    elif \'harvests\' in l:\n      redirect(URL(\'insert_harvests\',args = l))\n    elif \'extraction_preparation\' in l:\n      redirect(URL(\'insert_ep\',args = l))\n    elif \'gas_chromatography\' in l:\n        redirect(URL(\'insert_gc\',args = l))\n    elif \'liquid_chromatography\' in l:\n        redirect(URL(\'insert_lc\',args = l))\n    elif \'mass_spectroscopy\' in l:\n        redirect(URL(\'insert_ms\',args = l))\n    elif \'raw_data_storage_information\' in l:\n          redirect(URL(\'insert_raw_data\',args = l))\n    elif \'spectrophotometry\' in l:\n          redirect(URL(\'insert_spectrophotometry\',args = l))\n    elif \'sample\' in l and \'view\' in l:\t\t\n        redirect(URL(\'sample\',args=l))\n    elif \'project\' in l and \'view\' in l and \'experiment\' not in l:\n        redirect(URL(\'project_viewer\',args=l[-1]))\n        \n    else:\n        return()\n\n\'\'\'\telif \'sample\' in l and \'new\' in l:\t\t\n\t  redirect(URL(\'add_sample\',args = l))\n\telif \'sample\' in l:\t\t\n\t  redirect(URL(\'sample_viewer\',args = l))\n\telif \'project\' in l:\n\t  redirect(URL(\'project_viewer\',args=l))\n\telse : \n\t  redirect(URL(\'index\'))\'\'\'\n\ndef list_all_pub_samples():\n#    proj_id = request.args(0)\n#    pub = request.args(1) # if pub == 1 show published samples otherwise non published samples\n#   pub_query = (db.sample.working_status == 1 and db.sample.project == proj_id)\n#   unpub_query = (db.sample.working_status == 0 and db.sample.project == proj_id)\n#   pquery_dict = {\'sample\':pub_query}\n#   nquery_dict = {\'sample\':unpub_query}\n#    if \'view\' in request.args or \'edit\' in request.args or \'new\' in request.args:\n#       router(request.args)\n#    if \'view\' in request.args or \'edit\' in request.args or \'new\' in request.args:\n#     \trouter(request.args)\n    \n    """an argument to display published and non-published samples"""\n    """ request.args(0) - project  , request.args(1) published"""\n\n    redirect(URL(\'list_all_pub_projects\',args=[\'project\',\'experiment.project\',request.args(0)]))\n    \ndef list_all_dev_samples():\n   \n    redirect(URL(\'list_all_dev_projects\',args=[\'project\',\'sample.project\',request.args(0)]))\n    return locals()\n\ndef ajx_role():\n    """ an ajax call back which takes care of insert , update and delete in the roles table """\n    rid = request.args(1)\n    if request.args(0) == \'accept\':\n       row = db(db.role.id == rid).update(approval_status = 1)\n       result = db(db.role.id == rid).select(db.role.ALL).first()\n       gid = auth.id_group(role_list[int(result.role)])\n       auth.add_membership(gid,result.user)\n    if request.args(0) == \'unblock\':\n       del db.role[rid] \n    if request.args(0) == \'block\':\n       row = db(db.role.id == rid).update(approval_status = 2)\n    if request.args(0) == \'delete\' or request.args(0) == \'deny\':\n       result = db(db.role.id == rid).select(db.role.ALL).first()\n       gid = auth.id_group(role_list[int(result.role)])\n       auth.del_membership(gid,result.user)\n       del db.role[rid] \n    return locals()\n\ndef reg_project():\n    response.menu = [\n    (T(\'Home\'), False, URL(\'default\',\'list_all_projects\'), []),\n    (T(\'Project\'), False, URL(\'default\',\'project_viewer\',args=request.args),[])\n    ]\n    """ takes an id for the project and registers """\n    import datetime\n    now = datetime.datetime.now()\n    """ already requested """\n    pid = request.args(0)\n    ptitle = db(db.project.id == pid).select(db.project.ALL).first()\n    form = SQLFORM(db.role,fields=[\'role\'],showid=False)\n    if form.validate():\n       requested = db(db.role.user == auth.user.id)(db.role.project == pid)(db.role.approval_status == 0)(db.role.role==form.vars.role).count()\n       if requested == 0: \n        db.role.insert(user=auth.user.id,approval_status=0,project=pid,member_since=now,role=form.vars.role)\n        response.flash = \'wait for Coordinator\\\'s approval\'\n       else:\n        response.flash = \'You already hold the applied role\' \n    return locals() \n\ndef ajx_publish():\n    """ an ajax call back which takes care of publication status """\n    eid = request.args(1)\n    if request.args(0) == \'publish\':\n     row = db(db.project.id == eid).update(project_status = "1",project_publication_date = now)\n     redirect(URL(\'project_viewer\',args = [\'Published\',eid]))\n    elif request.args(0) == \'unpublish\':\n     row = db(db.project.id == eid).update(project_status = "0",project_publication_date= None)\n     redirect(URL(\'project_viewer\',args = [\'Unpublished\',eid]))\n    return locals() \n\ndef roles():\n    response.menu = [\n    (T(\'Home\'), False, URL(\'default\',\'list_all_projects\'), []),\n    (T(\'Project\'), False, URL(\'default\',\'project_viewer\',args=request.args),[])\n    ]\n    """ complete interface for managing roles for a particular project"""\n    """ should be accessible to only project co-ordinators """\n    pid = request.args(0)\n    error = authenticate(auth.user.id,pid,\'roles\')\n    accepted = db(db.auth_user.id == db.role.user)(db.role.approval_status == 1)(db.role.project == pid).select(db.role.ALL,db.auth_user.ALL)\n    pending = db(db.auth_user.id == db.role.user)(db.role.approval_status == 0)(db.role.project == pid).select(db.role.ALL,db.auth_user.ALL)\n    blocked = db(db.auth_user.id == db.role.user)(db.role.approval_status == 2)(db.role.project == pid).select(db.role.ALL,db.auth_user.ALL)\n    return locals()\n   \ndef home_page():\n    """ home page for a user , shows list of projects he is working on and his past work """\n    uid = request.args(0)\n    #my roles \n    \n    roles = db(db.role.user == uid)(db.role.project == db.project.id).select(db.role.ALL,db.project.name) \n    myroles = [role_list[int(p.role.role)] for p in roles]\n    k = {}\n    """\n    is_coordinator = db(db.project.project_coordinator==uid).select(db.project.ALL)\n    coordinating_projects = [row.name for row in is_coordinator]\n    value=\'\'\n    for p in coordinating_projects:\n       value = value + \',\'+ p\n\t  \n    k[6] = value[1:] """\n    for row in roles:\n       if row.role.role not in k:\n          k[row.role.role] = row.project.name\n       else:\n          k[row.role.role] = k[row.role.role] + \',\' + row.project.name\n    com_exps = db(db.sample.working_status == 1)(db.sample.experimentalist == uid)(db.sample.project == db.project.id).select(db.sample.ALL,db.project.id,db.project.name,orderby=db.sample.code)\n    incom_exps = db(db.sample.working_status == 1)(db.sample.experimentalist == uid)(db.sample.project == db.project.id).select(db.sample.ALL,db.project.id,db.project.name,orderby=db.sample.code)\n    pub_exps = db(db.sample.working_status == 0)(db.sample.publication_status == True)(db.sample.experimentalist == uid)(db.sample.project == db.project.id).select(db.sample.ALL,db.project.id,db.project.name,orderby=db.sample.code)\n    unpub_exps = db(db.sample.working_status == 0)(db.sample.publication_status == False) (db.sample.experimentalist == uid)(db.sample.project == db.project.id).select(db.sample.ALL,db.project.id,db.project.name,orderby=db.sample.code)\n    for p in k:\n       list_projects = k[p].split(\',\')\n       proj = \'\' \n       for d in list_projects:\n          res = db(db.project.name == d).select(db.project.ALL).first()\n          cat = \'\'\n          if res:\n             cat = A(res.name,_href=URL(\'project_viewer\',args=res.id))\n          if proj == \'\':\n             proj=SPAN(cat)\n          else:\n           proj = SPAN(proj,\',\',cat)\n       k[p] = proj \n    return locals()\n\ndef download():\n    return response.download(request, db)\n\ndef insert_biosource():\n#prepopulating records  \n   if \'clear\' not in request.args and \'new\' in request.args:    \n    trows = db(db.template.user==auth.user.id).select()\n    count = db(db.template.user==auth.user.id).count()\n    if count > 0:\n     rows = db(db.biosource.sample_name==trows[0].sample).select()\n     count1 = db(db.biosource.sample_name==trows[0].sample).count()\n     if count1 > 0:\n      row = rows[0]      \n      for fieldname in db.biosource.fields:\n       if fieldname!=\'id\': \n        db.biosource[fieldname].default=row[fieldname]\n   elif \'clear\' in request.args: \n    request.args.pop()\n   #result = db(db.sample.id == request.args[-3]).select(db.sample.ALL).first()\n#  error = authenticate(auth.user.id,result.project,\'insert_biosource\')\n   response.menu = [\n   (T(\'Home\'), False, URL(\'default\',\'list_all_projects\'), [])\n   ]\n   redirect_args = request.args[0:-3]\n   form = SQLFORM(db.biosource)\n   if \'view\' in request.args: \n\t       form=SQLFORM(db.biosource,request.args[-1],readonly = True,showid=False)\t  \n   elif \'edit\' in request.args: \n\t       form=SQLFORM(db.biosource,request.args[-1],showid=False)\n   elif \'new\' in request.args:\n               db.biosource.sample_name.readable = False \n               hid = {}   \n\t       form=SQLFORM(db.biosource,showid=False)\n\t       form.vars.sample_name = request.args[-3]\n \t       redirect_args = request.args[0:-4]\n   i=1\n   f1=form[0][:i+2]\n   fs1=form[0][i+2:i+7]\n   f2=form[0][i+7:]\n   form[0]=TABLE(TABLE(f1),\n      FIELDSET(TAG.legend("Genotype"),TABLE(fs1)),TABLE(f2))\n   if form.process().accepted:\n     redirect(URL(\'list_all_dev_projects\',args=redirect_args)) \n     response.flash="Inserted entry"\n   return locals()\n\ndef insert_pgc():\n#prepopulating records  \n  if \'clear\' not in request.args and \'new\' in request.args:    \n   trows = db(db.template.user==auth.user.id).select()\n   count = db(db.template.user==auth.user.id).count()\n   if count > 0:\n    rows = db(db.plant_growth_condition.sample_name==trows[0].sample).select()\n    count1 = db(db.plant_growth_condition.sample_name==trows[0].sample).count()\n    if count1 > 0:\n     row = rows[0]\n     for fieldname in db.plant_growth_condition.fields:\n      if fieldname!=\'id\': \n       db.plant_growth_condition[fieldname].default=row[fieldname]\n  elif \'clear\' in request.args: \n    request.args.pop()\n  #result = db(db.sample.id == request.args[-1]).select(db.sample.ALL).first()\n  response.menu = [\n  (T(\'Home\'), False, URL(\'default\',\'list_all_projects\'), [])\n  ]\n  redirect_args = request.args[0:-3]\t \n  form = SQLFORM(db.plant_growth_condition) \n  if \'view\' in request.args: \n\tform=SQLFORM(db.plant_growth_condition,request.args[-1],readonly = True,upload=URL(\'download\'),showid=False)\n  elif \'edit\' in request.args: \n\tform=SQLFORM(db.plant_growth_condition,request.args[-1],upload=URL(\'download\'),showid=False)\n  elif \'new\' in request.args:\n        db.plant_growth_condition.sample_name.readable = False \n\tform=SQLFORM(db.plant_growth_condition,showid=False)\n        form.vars.sample_name = request.args[-3]\n\tredirect_args = request.args[0:-2]\t \n  i=1\n  fs1=form[0][:i+5]\n  fss1=form[0][i+5:i+9]\n  fss2=form[0][i+9:i+10]\n  fss3=form[0][i+10:i+15]\n  f2=form[0][i+15:i+18]\n  fs2=form[0][i+18:i+21]\n  fs3=form[0][i+21:i+27]\n  f3=form[0][i+27:]\n  t2=TABLE(FIELDSET(TAG.legend("Growth Support"),TABLE(fs1)))\n  t3=TABLE(FIELDSET(TAG.legend("Location"),TABLE(FIELDSET(TAG.legend("Field trail"),TABLE(fss1))),TABLE(fss2),TABLE(FIELDSET(TAG.legend("Green house"),TABLE(fss3)))))\n  t4=TABLE(FIELDSET(TAG.legend("Nutritional Regime"),TABLE(fs2)))\n  t5=TABLE(FIELDSET(TAG.legend("Date of Plant Establishment(YYYY-MM-DD)"),TABLE(fs3)))\n  form[0]=TABLE(FIELDSET(t2,t3,TABLE(f2),t4,t5,TABLE(f3)))\n  if form.process().accepted:\n    redirect(URL(\'list_all_dev_projects\',args=redirect_args)) \n    response.flash="form accepted"\n# redirect(URL(\'list_all_samples\',args=[\'sample\'])) \n  else:\n    response.flsh="form has some errors"\n  return locals()\n\ndef insert_ep():\n#prepopulating records  \n  if \'clear\' not in request.args and \'new\' in request.args:    \n   trows = db(db.template.user==auth.user.id).select()\n   count = db(db.template.user==auth.user.id).count()\n   if count > 0:\n    rows = db(db.extraction_preparation.sample_name==trows[0].sample).select()\n    count1 = db(db.extraction_preparation.sample_name==trows[0].sample).count()\n    if count1 > 0:\n     row = rows[0]\n     for fieldname in db.extraction_preparation.fields:\n      if fieldname!=\'id\': \n       db.extraction_preparation[fieldname].default=row[fieldname]\n  elif \'clear\' in request.args: \n    request.args.pop()\n  #result = db(db.sample.id == request.args[-1]).select(db.sample.ALL).first()\n  response.menu = [\n  (T(\'Home\'), False, URL(\'default\',\'list_all_projects\'), [])\n  ]\n  redirect_args = request.args[0:-3]\t \n  if \'view\' in request.args: \n       form=SQLFORM(db.extraction_preparation,request.args[-1],readonly = True,upload=URL(\'download\'),showid=False)\n  if \'edit\' in request.args: \n       form=SQLFORM(db.extraction_preparation,request.args[-1],upload=URL(\'download\'),showid=False)\n  if \'new\' in request.args:\n       db.extraction_preparation.sample_name.readable=False\n       form=SQLFORM(db.extraction_preparation,showid=False)\n       form.vars.sample_name = request.args[-3]\n       redirect_args = request.args[0:-2]\t \n  i=1\n  t1=TABLE(FIELDSET(TAG.legend("SAMPLE EXTRACTION"),TABLE(form[0][:i+8]),TABLE(FIELDSET(TAG.legend("Extract Storage:"),TABLE(form[0][i+8:i+12])))))\n  t2=TABLE(FIELDSET(TAG.legend("SAMPLE PREPARATION"),TABLE(form[0][i+12:])))\n  form[0]=TABLE(FIELDSET(t1,t2))\n  if form.process().accepted:\n       response.flash="Inserted entry"\n       redirect(URL(\'list_all_dev_projects\',args=redirect_args)) \n  return locals()\n\ndef insert_treatments():\n#prepopulating records  \n  if \'clear\' not in request.args and \'new\' in request.args:    \n   trows = db(db.template.user==auth.user.id).select()\n   count = db(db.template.user==auth.user.id).count()\n   if count > 0:\n    rows = db(db.treatments.sample_name==trows[0].sample).select()\n    count1 = db(db.treatments.sample_name==trows[0].sample).count()\n    if count1 > 0:\n     row = rows[0]\n     for fieldname in db.treatments.fields:\n      if fieldname!=\'id\': \n       db.treatments[fieldname].default=row[fieldname]\n  elif \'clear\' in request.args: \n    request.args.pop()\n  #result = db(db.sample.id == request.args[-1]).select(db.sample.ALL).first()\n  response.menu = [\n  (T(\'Home\'), False, URL(\'default\',\'list_all_projects\'), [])\n  ]\n  redirect_args = request.args[0:-3]\t \n  if \'view\' in request.args: \n       form=SQLFORM(db.treatments,request.args[-1],readonly = True,upload=URL(\'download\'),showid=False)\n  if \'edit\' in request.args: \n       form=SQLFORM(db.treatments,request.args[-1],upload=URL(\'download\'),showid=False)\n  if \'new\' in request.args:\n       db.treatments.sample_name.readable=False\n       form=SQLFORM(db.treatments,showid=False)\n       form.vars.sample_name = request.args[-3] \n       redirect_args = request.args[0:-2]\t \n  i=1\n  t1=TABLE(FIELDSET(TAG.legend("Treatment Factor"),TABLE(form[0][:i+3])))\n  form[0]=TABLE(FIELDSET(t1,TABLE(form[0][i+3:])))\n  if form.process().accepted:\n      response.flash="Inserted entry"\n      redirect(URL(\'list_all_dev_projects\',args=redirect_args)) \n  return locals()\n\ndef insert_harvests():\n#prepopulating records  \n  if \'clear\' not in request.args and \'new\' in request.args:    \n   trows = db(db.template.user==auth.user.id).select()\n   count = db(db.template.user==auth.user.id).count()\n   if count > 0:\n    rows = db(db.harvests.sample_name==trows[0].sample).select()\n    count1 = db(db.harvests.sample_name==trows[0].sample).count()\n    if count1 > 0:\n     row = rows[0]\n     for fieldname in db.harvests.fields:\n      if fieldname!=\'id\': \n       db.harvests[fieldname].default=row[fieldname]\n  elif \'clear\' in request.args: \n    request.args.pop()\n  #result = db(db.sample.id == request.args[-1]).select(db.sample.ALL).first()\n  response.menu = [\n  (T(\'Home\'), False, URL(\'default\',\'list_all_projects\'), [])\n  ]\n  redirect_args = request.args[0:-3]\t \n  if \'view\' in request.args: \n       form=SQLFORM(db.harvests,request.args[-1],readonly = True,upload=URL(\'download\'),showid=False)\n  if \'edit\' in request.args: \n       form=SQLFORM(db.harvests,request.args[-1],upload=URL(\'download\'),showid=False)\n  if \'new\' in request.args:\n       db.harvests.sample_name.readable=False\n       form=SQLFORM(db.harvests,showid=False)\n       form.vars.sample_name = request.args[-3]\n       redirect_args = request.args[0:-2]\n  i=1\t \n  t1=TABLE(FIELDSET(TAG.legend("Sample Storage"),TABLE(form[0][i+7:])))\n  form[0]=TABLE(FIELDSET(TABLE(form[0][:i+7]),t1))\n  if form.process().accepted:\n      response.flash="Inserted entry"\n      redirect(URL(\'list_all_dev_projects\',args=redirect_args)) \n  return locals()\n\t  \t\ndef insert_gc():\n#prepopulating records  \n  if \'clear\' not in request.args and \'new\' in request.args:    \n   trows = db(db.template.user==auth.user.id).select()\n   count = db(db.template.user==auth.user.id).count()\n   if count > 0:\n    rows = db(db.gas_chromatography.sample_name==trows[0].sample).select()\n    count1 = db(db.gas_chromatography.sample_name==trows[0].sample).count()\n    if count1 > 0:\n     row = rows[0]\n     for fieldname in db.gas_chromatography.fields:\n      if fieldname!=\'id\': \n       db.gas_chromatography[fieldname].default=row[fieldname]\n  elif \'clear\' in request.args: \n    request.args.pop()\n  #result = db(db.sample.id == request.args[-1]).select(db.sample.ALL).first()\n  response.menu = [\n  (T(\'Home\'), False, URL(\'default\',\'list_all_projects\'), [])\n  ]\n  redirect_args = request.args[0:-3]\t \n  if \'view\' in request.args: \n\tform=SQLFORM(db.gas_chromatography,request.args[-1],readonly = True,pload=URL(\'download\'),showid=False)\n  elif \'edit\' in request.args: \n        form=SQLFORM(db.gas_chromatography,request.args[-1],upload=URL(\'download\'),showid=False)\n  elif \'new\' in request.args:\n        db.gas_chromatography.sample_name.readable=False\n        redirect_args = request.args[0:-2]\t \n        form=SQLFORM(db.gas_chromatography,showid=False)\n        form.vars.sample_name = request.args[-3]\n  j=1\n  t_ep_1=TABLE(FIELDSET(TAG.legend("SAMPLE EXTRACTION"),TABLE(form[0][:j+7]),TABLE(FIELDSET(TAG.legend("Extract Storage:"),TABLE(form[0][j+7:j+11])))))\n  t_ep_2=TABLE(FIELDSET(TAG.legend("SAMPLE PREPARATION"),TABLE(form[0][j+11:15])))\n  i=15\n  t1=TABLE(FIELDSET(TAG.legend("CHROMATOGRAPHY INSTRUMENTAL"),TABLE(form[0][15:i+4])))\n  t2=TABLE(FIELDSET(TAG.legend("DERIVATIZATION"),TABLE(form[0][i+4:i+8])))\n  t3=TABLE(FIELDSET(TAG.legend("AUTO-INJECTOR DETAILS"),TABLE(form[0][i+8:i+15])))\n  t4=TABLE(FIELDSET(TAG.legend("SEPERATION COLUMN AND PRE/GUARD COLUMN"),TABLE(form[0][i+15:i+23])))\n  t5=TABLE(FIELDSET(TAG.legend("SEPERATION PARAMETERS"),TABLE(form[0][i+23:i+30])))\n  t6=TABLE(FIELDSET(TAG.legend("QUALITY CONTROL"),TABLE(form[0][i+30:i+33]),TABLE(FIELDSET(TAG.legend("Cycle per"),TABLE(form[0][i+33:i+37])))))\n  t7=TABLE(FIELDSET(TAG.legend("DATA ACQUISITION"),TABLE(form[0][i+37:])))\n  form[0]=TABLE(FIELDSET(t_ep_1,t_ep_2,t1,t2,t3,t4,t5,t6,t7))\n  if form.process().accepted:\n\tresponse.flash="Inserted entry"\n\tredirect(URL(\'list_all_dev_projects\',args=redirect_args)) \n#       redirect(URL(\'list_all_samples\',args=[\'sample\'])) \n  return locals()\n\ndef insert_lc():\n#prepopulating records  \n  if \'clear\' not in request.args and \'new\' in request.args:    \n   trows = db(db.template.user==auth.user.id).select()\n   count = db(db.template.user==auth.user.id).count()\n   if count > 0:\n    rows = db(db.liquid_chromatography.sample_name==trows[0].sample).select()\n    count1 = db(db.liquid_chromatography.sample_name==trows[0].sample).count()\n    if count1 > 0:\n     row = rows[0]\n     for fieldname in db.liquid_chromatography.fields:\n      if fieldname!=\'id\': \n       db.liquid_chromatography[fieldname].default=row[fieldname]\n  elif \'clear\' in request.args: \n    request.args.pop()\n  #result = db(db.sample.id == request.args[-1]).select(db.sample.ALL).first()\n  response.menu = [\n  (T(\'Home\'), False, URL(\'default\',\'list_all_projects\'), [])\n  ]\n  redirect_args = request.args[0:-3]\t \n  form = SQLFORM(db.liquid_chromatography)\n  if \'view\' in request.args: \n      form=SQLFORM(db.liquid_chromatography,request.args[-1],readonly = True,upload=URL(\'download\'),showid=False)\n  if \'edit\' in request.args: \n      form=SQLFORM(db.liquid_chromatography,request.args[-1],upload=URL(\'download\'),showid=False)\n  if \'new\' in request.args:\n      db.liquid_chromatography.sample_name.readable=False\n      redirect_args = request.args[0:-2]\t \n      form=SQLFORM(db.liquid_chromatography,showid=False)\n      form.vars.sample_name = request.args[-3] \n  j=1\n  t_ep_1=TABLE(FIELDSET(TAG.legend("SAMPLE EXTRACTION"),TABLE(form[0][:j+7]),TABLE(FIELDSET(TAG.legend("Extract Storage:"),TABLE(form[0][j+7:j+11])))))\n  t_ep_2=TABLE(FIELDSET(TAG.legend("SAMPLE PREPARATION"),TABLE(form[0][j+11:15])))\n  i=15\n  t1=TABLE(FIELDSET(TAG.legend("CHROMATOGRAPHY INSTRUMENTAL"),TABLE(form[0][15:i+4])))\n  t3=TABLE(FIELDSET(TAG.legend("AUTO-INJECTOR DETAILS"),TABLE(form[0][i+4:i+11])))\n  t4=TABLE(FIELDSET(TAG.legend("SEPERATION COLUMN AND PRE/GUARD COLUMN"),TABLE(form[0][i+11:i+19])))\n  t5=TABLE(FIELDSET(TAG.legend("SEPERATION PARAMETERS"),TABLE(form[0][i+19:i+26])))\n  t6=TABLE(FIELDSET(TAG.legend("QUALITY CONTROL"),TABLE(form[0][i+26:i+29]),TABLE(FIELDSET(TAG.legend("Cycle per"),TABLE(form[0][i+29:i+33])))))\n  t7=TABLE(FIELDSET(TAG.legend("DATA ACQUISITION"),TABLE(form[0][i+33:])))\n  form[0]=TABLE(FIELDSET(t_ep_1,t_ep_2,t1,t3,t4,t5,t6,t7))\n  if form.process().accepted:\n      response.flash="Inserted entry"\n      redirect(URL(\'list_all_dev_projects\',args=redirect_args)) \n#     redirect(URL(\'list_all_samples\',args=[\'sample\'])) \n  return locals()\n\ndef insert_ms():\n#prepopulating records  \n  if \'clear\' not in request.args and \'new\' in request.args:    \n   trows = db(db.template.user==auth.user.id).select()\n   count = db(db.template.user==auth.user.id).count()\n   if count > 0:\n    rows = db(db.mass_spectroscopy.sample_name==trows[0].sample).select()\n    count1 = db(db.mass_spectroscopy.sample_name==trows[0].sample).count()\n    if count1 > 0:\n     row = rows[0]\n     for fieldname in db.mass_spectroscopy.fields:\n      if fieldname!=\'id\': \n       db.mass_spectroscopy[fieldname].default=row[fieldname]\n  elif \'clear\' in request.args: \n    request.args.pop()\n  #result = db(db.sample.id == request.args[-1]).select(db.sample.ALL).first()\n  response.menu = [\n  (T(\'Home\'), False, URL(\'default\',\'list_all_projects\'), [])\n  ]\n  redirect_args = request.args[0:-3]\t \n  if \'view\' in request.args: \n    form=SQLFORM(db.mass_spectroscopy,request.args[-1],readonly = True,upload=URL(\'download\'),showid=False)\n  elif \'edit\' in request.args: \n    form=SQLFORM(db.mass_spectroscopy,request.args[-1],upload=URL(\'download\'),showid=False)\n  elif \'new\' in request.args:\n    db.mass_spectroscopy.sample_name.readable=False\n    redirect_args = request.args[0:-2]\t \n    form=SQLFORM(db.mass_spectroscopy,showid=False)\n    form.vars.sample_name = request.args[-3]\n  i=1\n  t1=TABLE(FIELDSET(TAG.legend("INSTRUMENTAL DETAILS"),TABLE(form[0][:i+4])))\n  t2=TABLE(FIELDSET(TAG.legend("IONISATION SOURCE"),TABLE(form[0][i+4:i+10])))\n  t3=TABLE(FIELDSET(TAG.legend("MASS ANALYZER"),TABLE(form[0][i+10:i+18]),TABLE(FIELDSET(TAG.legend("Lock spray"),TABLE(form[0][i+18:i+22]))),TABLE(form[0][i+22:i+23])))\n  t4=TABLE(FIELDSET(TAG.legend("QUALITY CONTROL"),TABLE(form[0][i+23:i+27])))\n  t5=TABLE(FIELDSET(TAG.legend("DATA ACQUISITION"),TABLE(form[0][i+27:])))\n  form[0]=TABLE(FIELDSET(t1,t2,t3,t4,t5))\n  if form.process().accepted:\n      \tresponse.flash="Inserted entry"\n        redirect(URL(\'list_all_dev_projects\',args=redirect_args)) \n#     \tredirect(URL(\'list_all_samples\'),args=[\'sample\']) \n  return locals()\n\ndef insert_raw_data():\n#prepopulating records  \n  if False:    \n    trows = db(db.template.user==auth.user.id).select()\n    count = db(db.template.user==auth.user.id).count()\n     if count > 0:\n      rows = db(db.raw_data_storage_information.sample_name==trows[0].sample).select()\n      count1 = db(db.raw_data_storage_information.sample_name==trows[0].sample).count()\n      if count1 > 0:\n       row = rows[0]\n       for fieldname in db.raw_data_storage_information.fields:\n        if fieldname!=\'id\': \n         db.raw_data_storage_information[fieldname].default=row[fieldname]\n  elif \'clear\' in request.args: \n    request.args.pop()\n  response.menu = [\n  (T(\'Home\'), False, URL(\'default\',\'list_all_projects\'), [])\n  ]\n  redirect_args = request.args[0:-3]\t \n  if \'view\' in request.args: \n    form=SQLFORM(db.raw_data_storage_information,request.args[-1],readonly = True,upload=URL(\'download\'),showid=False)\n  elif \'edit\' in request.args: \n    form=SQLFORM(db.raw_data_storage_information,request.args[-1],upload=URL(\'download\'),showid=False)\n  elif \'new\' in request.args:\n    db.raw_data_storage_information.sample_name.readable=False\n    redirect_args = request.args[0:-2]\t \n    form=SQLFORM(db.raw_data_storage_information,showid=False)\n    form.vars.sample_name = request.args[-3]\n    form.vars.email_id_of_person=auth.user.email \n  if form.process().accepted:\n      \tresponse.flash="Inserted entry"\n        redirect(URL(\'list_all_dev_projects\',args=redirect_args)) \n#     \tredirect(URL(\'list_all_samples\'),args=[\'sample\']) \n  return locals()\n\ndef insert_spectrophotometry():\n#prepopulating records  \n   if \'clear\' not in request.args and \'new\' in request.args:    \n  trows = db(db.template.user==auth.user.id).select()\n  count = db(db.template.user==auth.user.id).count()\n  if count > 0:\n    rows = db(db.spectrophotometry.sample_name==trows[0].sample).select()\n    count1 = db(db.spectrophotometry.sample_name==trows[0].sample).count()\n    if count1 > 0:\n     row = rows[0]\n     for fieldname in db.spectrophotometry.fields:\n      if fieldname!=\'id\': \n       db.spectrophotometry[fieldname].default=row[fieldname]\n   elif \'clear\' in request.args: \n    request.args.pop()\n  response.menu = [\n  (T(\'Home\'), False, URL(\'default\',\'list_all_projects\'), [])\n  ]\n  redirect_args = request.args[0:-3]\t \n  if \'view\' in request.args: \n    form=SQLFORM(db.spectrophotometry,request.args[-1],readonly = True,upload=URL(\'download\'),showid=False)\n  elif \'edit\' in request.args: \n    form=SQLFORM(db.spectrophotometry,request.args[-1],upload=URL(\'download\'),showid=False)\n  elif \'new\' in request.args:\n    db.spectrophotometry.sample_name.readable=False\n    redirect_args = request.args[0:-2]\t \n    form=SQLFORM(db.spectrophotometry,showid=False)\n    form.vars.sample_name = request.args[-3]\n  if form.process().accepted:\n      \tresponse.flash="Inserted entry"\n        redirect(URL(\'list_all_dev_projects\',args=redirect_args)) \n#     \tredirect(URL(\'list_all_samples\'),args=[\'sample\']) \n  return locals()\n\n\n@auth.requires_signature()\ndef data():\n    """\n    http://..../[app]/default/data/tables\n    http://..../[app]/default/data/create/[table]\n    http://..../[app]/default/data/read/[table]/[id]\n    http://..../[app]/default/data/update/[table]/[id]\n    http://..../[app]/default/data/delete/[table]/[id]\n    http://..../[app]/default/data/select/[table]\n    http://..../[app]/default/data/search/[table]\n    but URLs must be signed, i.e. linked with\n      A(\'table\',_href=URL(\'data/tables\',user_signature=True))\n    or with the signed load operator\n      LOAD(\'default\',\'data.load\',args=\'tables\',ajax=True,user_signature=True)\n    """\n    return dict(form=crud())\n\n#def drop_tables():\n    #are you sure you want to do this?\n    #for t in [\'auth_user\',\'auth_group\', \'auth_membership\', \'auth_permission\', \'auth_event\',\'sample\',\'biosource\',\'affiliation\',\'project\',\'role\',\'template\',\'experiment\',\'project_meta\',\'plant_growth_condition\',\'treatments\',\'harvests\',\'extraction_preparation\',\'gas_chromatography\',\'liquid_chromatography\',\'mass_spectroscopy\',\'spectrophotometry\',\'feedback\',\'sample_files\']:\n    #    db[t].drop()\n    # pass\n    #return \n\ndef show_feedback():\n    grid = SQLFORM.smartgrid(db.feedback)\n    return locals()\n\n \ndef post_feedback():\n    """ allows to post feedback to the table feedback """ \n    past_feeds = db(db.feedback.feedback_on == request.env.http_referer).select(db.feedback.feedback_body,db.feedback.id)\n    form = SQLFORM(db.feedback,fields=[\'feedback_body\'],labels={\'feedback_body\':\'Your feedback about this page\'})\n    feedback_by = \'\'\n    if form.validate():\n\tif auth.user:\n            feedback_by = auth.user.id\n        else:\n\t   feedback_by = \'\'\n\tdb.feedback.insert(feedback_on=request.env.http_referer,feedback_body=form.vars.feedback_body,feedback_by=feedback_by)\n\tresponse.flash = "feedback has been duly noted and will be taken care of "\n    return locals()\n\n\ndef user_viewer():\n   """shows the user details """\n   uid = request.args(0)\n   record = db.auth_user(uid)\n   form = SQLFORM(db.auth_user,record,readonly=True,showid=False,fields=[\'first_name\',\'last_name\',\'email\',\'affiliated_to\',\'phone\',\'mobile\',\'city\'])\n   return locals()\n\n\ndef dict_dump(obj,inp):\n  ans = \'<dl class="dl-horizontal">\'\n  for key in inp.keys():\n     add = \'<dt>\'+str(inp[key])+\'</dt>\'+\'<dd>\'+str(obj[key])+\'</dd>\'\n     ans = ans+add\n  return ans\t\n\n\ndef sample():\n  """gets all the information regarding a sample in a single page """\n  sid = request.args[-1]\n  sample = db(db.sample.id == sid).select(db.sample.ALL).first()\n  user = db(db.auth_user.id == sample.experimentalist).select(db.auth_user.ALL).first()\n  experiment = db(db.experiment.id == sample.experiment).select(db.experiment.ALL).first()\n  biosource = db(db.biosource.sample_name == sid).select(db.biosource.ALL)\n  plant_growth = db(db.plant_growth_condition.sample_name == sid).select(db.plant_growth_condition.ALL)\n  treatment = db(db.treatments.sample_name == sid).select(db.treatments.ALL)\n  harvest = db(db.harvests.sample_name == sid).select(db.harvests.ALL)\n  extraction_preparation = db(db.extraction_preparation.sample_name == sid).select(db.extraction_preparation.ALL)\n  gc = db(db.gas_chromatography.sample_name == sid).select(db.gas_chromatography.ALL)\n  lc = db(db.liquid_chromatography.sample_name == sid).select(db.liquid_chromatography.ALL)\n  ms = db(db.mass_spectroscopy.sample_name == sid).select(db.mass_spectroscopy.ALL)\n  raw_storage = db(db.raw_data_storage_information.sample_name == sid).select(db.raw_data_storage_information.ALL)\n  biosource_forms = [] #a list of forms\n  for each in biosource:\n\tform = SQLFORM(db.biosource,each.id,showid=False,readonly=True)\n\ti=1\n\tf1=form[0][:i+2]\n\tfs1=form[0][i+2:i+7]\n\tf2=form[0][i+7:]\n\tform[0]=TABLE(TABLE(f1),FIELDSET(TAG.legend("Genotype"),TABLE(fs1)),TABLE(f2))\n\tbiosource_forms.append(form[0])\n        \n  pgc_forms = []\n  for each in plant_growth:\n     form = SQLFORM(db.plant_growth_condition,each.id,showid=False,readonly=True)\n     i=1\n     fs1=form[0][:i+5]\n     fss1=form[0][i+5:i+9]\n     fss2=form[0][i+9:i+10]\n     fss3=form[0][i+10:i+15]\n     f2=form[0][i+15:i+18]\n     fs2=form[0][i+18:i+21]\n     fs3=form[0][i+21:i+27]\n     f3=form[0][i+27:]\n     t2=TABLE(FIELDSET(TAG.legend("Growth Support"),TABLE(fs1)))\n     t3=TABLE(FIELDSET(TAG.legend("Location"),TABLE(FIELDSET(TAG.legend("Field trail"),TABLE(fss1))),TABLE(fss2),TABLE(FIELDSET(TAG.legend("Green house"),TABLE(fss3)))))\n     t4=TABLE(FIELDSET(TAG.legend("Nutritional Regime"),TABLE(fs2)))\n     t5=TABLE(FIELDSET(TAG.legend("Date of Plant Establishment(YYYY-MM-DD)"),TABLE(fs3)))\n     form[0]=TABLE(FIELDSET(t2,t3,TABLE(f2),t4,t5,TABLE(f3)))\n     pgc_forms.append(form[0])\n  \n  treatment_forms = []\n  for each in treatment:\n     form = SQLFORM(db.treatments,each.id,showid=False,readonly=True)\n     i=1\n     t1=TABLE(FIELDSET(TAG.legend("Treatment Factor"),TABLE(form[0][:i+3])))\n     form[0]=TABLE(FIELDSET(t1,TABLE(form[0][i+3:])))\n\n\n  harvest_forms = []\n  for each in harvest:\n     form = SQLFORM(db.harvests,each.id,showid=False,readonly=True)\n     i=1\n     t1=TABLE(FIELDSET(TAG.legend("Sample Storage"),TABLE(form[0][i+7:])))\n     form[0]=TABLE(FIELDSET(TABLE(form[0][:i+7]),t1))\n     harvest_forms.append(form[0])\n\n  gc_forms = []\n  for each in gc:\n     form = SQLFORM(db.gas_chromatography,each.id,showid=False,readonly=True)\n     j=1\n     t_ep_1=TABLE(FIELDSET(TAG.legend("SAMPLE EXTRACTION"),TABLE(form[0][:j+7]),TABLE(FIELDSET(TAG.legend("Extract Storage:"),TABLE(form[0][j+7:j+11])))))\n     t_ep_2=TABLE(FIELDSET(TAG.legend("SAMPLE PREPARATION"),TABLE(form[0][j+11:15])))\n     i=15\n     t1=TABLE(FIELDSET(TAG.legend("CHROMATOGRAPHY INSTRUMENTAL"),TABLE(form[0][15:i+4])))\n     t2=TABLE(FIELDSET(TAG.legend("DERIVATIZATION"),TABLE(form[0][i+4:i+8])))\n     t3=TABLE(FIELDSET(TAG.legend("AUTO-INJECTOR DETAILS"),TABLE(form[0][i+8:i+15])))\n     t4=TABLE(FIELDSET(TAG.legend("SEPERATION COLUMN AND PRE/GUARD COLUMN"),TABLE(form[0][i+15:i+23])))\n     t5=TABLE(FIELDSET(TAG.legend("SEPERATION PARAMETERS"),TABLE(form[0][i+23:i+30])))\n     t6=TABLE(FIELDSET(TAG.legend("QUALITY CONTROL"),TABLE(form[0][i+30:i+33]),TABLE(FIELDSET(TAG.legend("Cycle per"),TABLE(form[0][i+33:i+37])))))\n     t7=TABLE(FIELDSET(TAG.legend("DATA ACQUISITION"),TABLE(form[0][i+37:])))\n     form[0]=TABLE(FIELDSET(t_ep_1,t_ep_2,t1,t2,t3,t4,t5,t6,t7))\n\n     gc_forms.append(form[0])\n \n  lc_forms = []\n  \n  for each in lc:\n    form = SQLFORM(db.gas_chromatography,each.id,showid=False,readonly=True)\n    j=1\n    t_ep_1=TABLE(FIELDSET(TAG.legend("SAMPLE EXTRACTION"),TABLE(form[0][:j+7]),TABLE(FIELDSET(TAG.legend("Extract Storage:"),TABLE(form[0][j+7:j+11])))))\n    t_ep_2=TABLE(FIELDSET(TAG.legend("SAMPLE PREPARATION"),TABLE(form[0][j+11:15])))\n    i=15\n    t1=TABLE(FIELDSET(TAG.legend("CHROMATOGRAPHY INSTRUMENTAL"),TABLE(form[0][15:i+4])))\n    t3=TABLE(FIELDSET(TAG.legend("AUTO-INJECTOR DETAILS"),TABLE(form[0][i+4:i+11])))\n    t4=TABLE(FIELDSET(TAG.legend("SEPERATION COLUMN AND PRE/GUARD COLUMN"),TABLE(form[0][i+11:i+19])))\n    t5=TABLE(FIELDSET(TAG.legend("SEPERATION PARAMETERS"),TABLE(form[0][i+19:i+26])))\n    t6=TABLE(FIELDSET(TAG.legend("QUALITY CONTROL"),TABLE(form[0][i+26:i+29]),TABLE(FIELDSET(TAG.legend("Cycle per"),TABLE(form[0][i+29:i+33])))))\n    t7=TABLE(FIELDSET(TAG.legend("DATA ACQUISITION"),TABLE(form[0][i+33:])))\n    form[0]=TABLE(FIELDSET(t_ep_1,t_ep_2,t1,t3,t4,t5,t6,t7))\n    lc_forms.append(form[0])\n \n  ms_forms = []\n  for each in ms:\n    form = SQLFORM(db.mass_spectroscopy,each.id,showid=False,readonly=True)\n    i=1\n    t1=TABLE(FIELDSET(TAG.legend("INSTRUMENTAL DETAILS"),TABLE(form[0][:i+4])))\n    t2=TABLE(FIELDSET(TAG.legend("IONISATION SOURCE"),TABLE(form[0][i+4:i+10])))\n    t3=TABLE(FIELDSET(TAG.legend("MASS ANALYZER"),TABLE(form[0][i+10:i+18]),TABLE(FIELDSET(TAG.legend("Lock spray"),TABLE(form[0][i+18:i+22]))),TABLE(form[0][i+22:i+23])))\n    t4=TABLE(FIELDSET(TAG.legend("QUALITY CONTROL"),TABLE(form[0][i+23:i+27])))\n    t5=TABLE(FIELDSET(TAG.legend("DATA ACQUISITION"),TABLE(form[0][i+27:])))\n    form[0]=TABLE(FIELDSET(t1,t2,t3,t4,t5))  \n    ms_forms.append(form[0])\n\n  raw_forms = []\n  for each in raw_storage:\n     form = SQLFORM(db.raw_data_storage_information,each.id,showid=False,readonly=True)\n     raw_forms.append(form[0])\n\n\n  return locals() \n\n#def grid():\n  # query=((db.project.project_status==0)&(db.experiment.project==db.project.id)&(db.sample.experiment==db.experiment.id)&(db.biosource.sample_name==db.sample.id))\n   #query=((db.sample.project==db.project.id)&(db.project.id>0))\n   #query=((db.project.id>0)&(db.sample.project==db.project.id)&((db.sample.id==db.biosource.sample_name)&(db.sample.id==db.plant_growth_condition.sample_name)))\n#   query=((db.sample.experiment==db.experiment.id)&((db.sample.id==db.biosource.sample_name)|(db.sample.id==db.plant_growth_condition.sample_name)))\n#   grid = SQLFORM.grid(query)\n#   return locals()\n\n\ndef search():\n    form=FORM(\'Your name:\',\n              INPUT(_name=\'name\', requires=IS_NOT_EMPTY()),\n              INPUT(_type=\'submit\'))\n    if form.accepts(request,session):\n      redirect(URL(\'sample\',args=form.vars.name)) \n    return locals()\n    \ndef multiple_files():\n   """allows an experimentalist to add multiple images and files and displays it in the consolidated sample view form """\n   """ per sample . takes id of the sample as the input """\n   sid = request.args(0)\n   sample = db(db.sample.id == sid).select().first() \n   old = db(db.sample_files.sample == sid).select(db.sample_files.ALL)\n   form = SQLFORM(db.sample_files)\n   form.vars.sample = sid\n   return locals()\n\n\n\nresponse._vars=response._caller(insert_spectrophotometry)\n'
p7
sS'snapshot'
p8
(dp9
S'exception'
p10
(dp11
S'__getslice__'
p12
S"<method-wrapper '__getslice__' of exceptions.IndentationError object>"
p13
sS'text'
p14
S"'     if count > 0:\\n'"
p15
sS'__str__'
p16
S"<method-wrapper '__str__' of exceptions.IndentationError object>"
p17
sS'__reduce__'
p18
S'<built-in method __reduce__ of exceptions.IndentationError object>'
p19
sS'__dict__'
p20
S'{}'
p21
sS'__sizeof__'
p22
S'<built-in method __sizeof__ of exceptions.IndentationError object>'
p23
sS'__init__'
p24
S"<method-wrapper '__init__' of exceptions.IndentationError object>"
p25
sS'__setattr__'
p26
S"<method-wrapper '__setattr__' of exceptions.IndentationError object>"
p27
sS'__reduce_ex__'
p28
S'<built-in method __reduce_ex__ of exceptions.IndentationError object>'
p29
sS'__new__'
p30
S'<built-in method __new__ of type object>'
p31
sS'__format__'
p32
S'<built-in method __format__ of exceptions.IndentationError object>'
p33
sS'__class__'
p34
S"<type 'exceptions.IndentationError'>"
p35
sS'filename'
p36
S"'/home/anil/Downloads/web2py/applications/DEV_bootstrap_ch/controllers/default.py'"
p37
sS'lineno'
p38
S'924'
p39
sS'msg'
p40
S"'unexpected indent'"
p41
sS'__doc__'
p42
S"'Improper indentation.'"
p43
sS'__getitem__'
p44
S"<method-wrapper '__getitem__' of exceptions.IndentationError object>"
p45
sS'__setstate__'
p46
S'<built-in method __setstate__ of exceptions.IndentationError object>'
p47
sS'__getattribute__'
p48
S"<method-wrapper '__getattribute__' of exceptions.IndentationError object>"
p49
sS'print_file_and_line'
p50
S'None'
p51
sS'args'
p52
S"('unexpected indent', ('/home/anil/Downloads/web2py/applications/DEV_bootstrap_ch/controllers/default.py', 924, 5, '     if count > 0:\\n'))"
p53
sS'__subclasshook__'
p54
S'<built-in method __subclasshook__ of type object>'
p55
sS'offset'
p56
S'5'
sS'__unicode__'
p57
S'<built-in method __unicode__ of exceptions.IndentationError object>'
p58
sS'__delattr__'
p59
S"<method-wrapper '__delattr__' of exceptions.IndentationError object>"
p60
sS'__repr__'
p61
S"<method-wrapper '__repr__' of exceptions.IndentationError object>"
p62
sS'__hash__'
p63
S"<method-wrapper '__hash__' of exceptions.IndentationError object>"
p64
ssS'evalue'
p65
S'unexpected indent (default.py, line 924)'
p66
sS'request'
p67
ccopy_reg
_reconstructor
p68
(cgluon.html
BEAUTIFY
p69
c__builtin__
object
p70
NtRp71
(dp72
S'attributes'
p73
(dp74
sS'components'
p75
(lp76
g68
(cgluon.html
TABLE
p77
g70
NtRp78
(dp79
g73
(dp80
S'level'
p81
I5
ssS'parent'
p82
Nsg75
(lp83
g68
(cgluon.html
TR
p84
g70
NtRp85
(dp86
g73
(dp87
sg82
g78
sg75
(lp88
g68
(cgluon.html
TD
p89
g70
NtRp90
(dp91
g73
(dp92
S'_style'
p93
S'font-weight:bold;vertical-align:top'
p94
ssg82
g85
sg75
(lp95
S'ajax'
p96
asbag68
(g89
g70
NtRp97
(dp98
g73
(dp99
S'_valign'
p100
S'top'
p101
ssg82
g85
sg75
(lp102
S':'
asbag68
(g89
g70
NtRp103
(dp104
g73
(dp105
sg82
g85
sg75
(lp106
g68
(g69
g70
NtRp107
(dp108
g73
(dp109
g81
I5
ssg82
g103
sg75
(lp110
S'False'
p111
asbasbasbag68
(g84
g70
NtRp112
(dp113
g73
(dp114
sg82
g78
sg75
(lp115
g68
(g89
g70
NtRp116
(dp117
g73
(dp118
g93
g94
ssg82
g112
sg75
(lp119
S'application'
p120
asbag68
(g89
g70
NtRp121
(dp122
g73
(dp123
g100
g101
ssg82
g112
sg75
(lp124
S':'
asbag68
(g89
g70
NtRp125
(dp126
g73
(dp127
sg82
g112
sg75
(lp128
g68
(g69
g70
NtRp129
(dp130
g73
(dp131
g81
I5
ssg82
g125
sg75
(lp132
S'DEV_bootstrap_ch'
p133
asbasbasbag68
(g84
g70
NtRp134
(dp135
g73
(dp136
sg82
g78
sg75
(lp137
g68
(g89
g70
NtRp138
(dp139
g73
(dp140
g93
g94
ssg82
g134
sg75
(lp141
g52
asbag68
(g89
g70
NtRp142
(dp143
g73
(dp144
g100
g101
ssg82
g134
sg75
(lp145
S':'
asbag68
(g89
g70
NtRp146
(dp147
g73
(dp148
sg82
g134
sg75
(lp149
g68
(g69
g70
NtRp150
(dp151
g73
(dp152
g81
I5
ssg82
g146
sg75
(lp153
g68
(g77
g70
NtRp154
(dp155
g73
(dp156
g81
I4
ssg82
Nsg75
(lp157
g68
(g84
g70
NtRp158
(dp159
g73
(dp160
sg82
g154
sg75
(lp161
g68
(g89
g70
NtRp162
(dp163
g73
(dp164
sg82
g158
sg75
(lp165
g68
(g69
g70
NtRp166
(dp167
g73
(dp168
g81
I4
ssg82
g162
sg75
(lp169
S'project'
p170
asbasbasbag68
(g84
g70
NtRp171
(dp172
g73
(dp173
sg82
g154
sg75
(lp174
g68
(g89
g70
NtRp175
(dp176
g73
(dp177
sg82
g171
sg75
(lp178
g68
(g69
g70
NtRp179
(dp180
g73
(dp181
g81
I4
ssg82
g175
sg75
(lp182
S'experiment.project'
p183
asbasbasbag68
(g84
g70
NtRp184
(dp185
g73
(dp186
sg82
g154
sg75
(lp187
g68
(g89
g70
NtRp188
(dp189
g73
(dp190
sg82
g184
sg75
(lp191
g68
(g69
g70
NtRp192
(dp193
g73
(dp194
g81
I4
ssg82
g188
sg75
(lp195
S'1'
asbasbasbag68
(g84
g70
NtRp196
(dp197
g73
(dp198
sg82
g154
sg75
(lp199
g68
(g89
g70
NtRp200
(dp201
g73
(dp202
sg82
g196
sg75
(lp203
g68
(g69
g70
NtRp204
(dp205
g73
(dp206
g81
I4
ssg82
g200
sg75
(lp207
S'sample.experiment'
p208
asbasbasbag68
(g84
g70
NtRp209
(dp210
g73
(dp211
sg82
g154
sg75
(lp212
g68
(g89
g70
NtRp213
(dp214
g73
(dp215
sg82
g209
sg75
(lp216
g68
(g69
g70
NtRp217
(dp218
g73
(dp219
g81
I4
ssg82
g213
sg75
(lp220
S'1'
asbasbasbag68
(g84
g70
NtRp221
(dp222
g73
(dp223
sg82
g154
sg75
(lp224
g68
(g89
g70
NtRp225
(dp226
g73
(dp227
sg82
g221
sg75
(lp228
g68
(g69
g70
NtRp229
(dp230
g73
(dp231
g81
I4
ssg82
g225
sg75
(lp232
S'spectrophotometry.sample_name'
p233
asbasbasbag68
(g84
g70
NtRp234
(dp235
g73
(dp236
sg82
g154
sg75
(lp237
g68
(g89
g70
NtRp238
(dp239
g73
(dp240
sg82
g234
sg75
(lp241
g68
(g69
g70
NtRp242
(dp243
g73
(dp244
g81
I4
ssg82
g238
sg75
(lp245
S'1'
asbasbasbag68
(g84
g70
NtRp246
(dp247
g73
(dp248
sg82
g154
sg75
(lp249
g68
(g89
g70
NtRp250
(dp251
g73
(dp252
sg82
g246
sg75
(lp253
g68
(g69
g70
NtRp254
(dp255
g73
(dp256
g81
I4
ssg82
g250
sg75
(lp257
S'new'
p258
asbasbasbag68
(g84
g70
NtRp259
(dp260
g73
(dp261
sg82
g154
sg75
(lp262
g68
(g89
g70
NtRp263
(dp264
g73
(dp265
sg82
g259
sg75
(lp266
g68
(g69
g70
NtRp267
(dp268
g73
(dp269
g81
I4
ssg82
g263
sg75
(lp270
S'spectrophotometry'
p271
asbasbasbag68
(g84
g70
NtRp272
(dp273
g73
(dp274
sg82
g154
sg75
(lp275
g68
(g89
g70
NtRp276
(dp277
g73
(dp278
sg82
g272
sg75
(lp279
g68
(g69
g70
NtRp280
(dp281
g73
(dp282
g81
I4
ssg82
g276
sg75
(lp283
S'clear'
p284
asbasbasbag68
(g84
g70
NtRp285
(dp286
g73
(dp287
sg82
g154
sg75
(lp288
g68
(g89
g70
NtRp289
(dp290
g73
(dp291
sg82
g285
sg75
(lp292
g68
(g69
g70
NtRp293
(dp294
g73
(dp295
g81
I4
ssg82
g289
sg75
(lp296
S'clear'
p297
asbasbasbag68
(g84
g70
NtRp298
(dp299
g73
(dp300
sg82
g154
sg75
(lp301
g68
(g89
g70
NtRp302
(dp303
g73
(dp304
sg82
g298
sg75
(lp305
g68
(g69
g70
NtRp306
(dp307
g73
(dp308
g81
I4
ssg82
g302
sg75
(lp309
S'clear'
p310
asbasbasbag68
(g84
g70
NtRp311
(dp312
g73
(dp313
sg82
g154
sg75
(lp314
g68
(g89
g70
NtRp315
(dp316
g73
(dp317
sg82
g311
sg75
(lp318
g68
(g69
g70
NtRp319
(dp320
g73
(dp321
g81
I4
ssg82
g315
sg75
(lp322
S'clear'
p323
asbasbasbasbasbasbasbag68
(g84
g70
NtRp324
(dp325
g73
(dp326
sg82
g78
sg75
(lp327
g68
(g89
g70
NtRp328
(dp329
g73
(dp330
g93
g94
ssg82
g324
sg75
(lp331
S'body'
p332
asbag68
(g89
g70
NtRp333
(dp334
g73
(dp335
g100
g101
ssg82
g324
sg75
(lp336
S':'
asbag68
(g89
g70
NtRp337
(dp338
g73
(dp339
sg82
g324
sg75
(lp340
g68
(g69
g70
NtRp341
(dp342
g73
(dp343
g81
I5
ssg82
g337
sg75
(lp344
S'<cStringIO.StringO object at 0xae82b580>'
p345
asbasbasbag68
(g84
g70
NtRp346
(dp347
g73
(dp348
sg82
g78
sg75
(lp349
g68
(g89
g70
NtRp350
(dp351
g73
(dp352
g93
g94
ssg82
g346
sg75
(lp353
S'cid'
p354
asbag68
(g89
g70
NtRp355
(dp356
g73
(dp357
g100
g101
ssg82
g346
sg75
(lp358
S':'
asbag68
(g89
g70
NtRp359
(dp360
g73
(dp361
sg82
g346
sg75
(lp362
g68
(g69
g70
NtRp363
(dp364
g73
(dp365
g81
I5
ssg82
g359
sg75
(lp366
S'None'
p367
asbasbasbag68
(g84
g70
NtRp368
(dp369
g73
(dp370
sg82
g78
sg75
(lp371
g68
(g89
g70
NtRp372
(dp373
g73
(dp374
g93
g94
ssg82
g368
sg75
(lp375
S'client'
p376
asbag68
(g89
g70
NtRp377
(dp378
g73
(dp379
g100
g101
ssg82
g368
sg75
(lp380
S':'
asbag68
(g89
g70
NtRp381
(dp382
g73
(dp383
sg82
g368
sg75
(lp384
g68
(g69
g70
NtRp385
(dp386
g73
(dp387
g81
I5
ssg82
g381
sg75
(lp388
S'127.0.0.1'
p389
asbasbasbag68
(g84
g70
NtRp390
(dp391
g73
(dp392
sg82
g78
sg75
(lp393
g68
(g89
g70
NtRp394
(dp395
g73
(dp396
g93
g94
ssg82
g390
sg75
(lp397
S'controller'
p398
asbag68
(g89
g70
NtRp399
(dp400
g73
(dp401
g100
g101
ssg82
g390
sg75
(lp402
S':'
asbag68
(g89
g70
NtRp403
(dp404
g73
(dp405
sg82
g390
sg75
(lp406
g68
(g69
g70
NtRp407
(dp408
g73
(dp409
g81
I5
ssg82
g403
sg75
(lp410
S'default'
p411
asbasbasbag68
(g84
g70
NtRp412
(dp413
g73
(dp414
sg82
g78
sg75
(lp415
g68
(g89
g70
NtRp416
(dp417
g73
(dp418
g93
g94
ssg82
g412
sg75
(lp419
S'cookies'
p420
asbag68
(g89
g70
NtRp421
(dp422
g73
(dp423
g100
g101
ssg82
g412
sg75
(lp424
S':'
asbag68
(g89
g70
NtRp425
(dp426
g73
(dp427
sg82
g412
sg75
(lp428
g68
(g69
g70
NtRp429
(dp430
g73
(dp431
g81
I5
ssg82
g425
sg75
(lp432
g68
(g77
g70
NtRp433
(dp434
g73
(dp435
g81
I4
ssg82
Nsg75
(lp436
g68
(g84
g70
NtRp437
(dp438
g73
(dp439
sg82
g433
sg75
(lp440
g68
(g89
g70
NtRp441
(dp442
g73
(dp443
g93
g94
ssg82
g437
sg75
(lp444
S'session_id_admin'
p445
asbag68
(g89
g70
NtRp446
(dp447
g73
(dp448
g100
g101
ssg82
g437
sg75
(lp449
S':'
asbag68
(g89
g70
NtRp450
(dp451
g73
(dp452
sg82
g437
sg75
(lp453
g68
(g69
g70
NtRp454
(dp455
g73
(dp456
g81
I4
ssg82
g450
sg75
(lp457
S'127.0.0.1-b525fb61-ea08-4c78-87c0-51b0a39c8fc3'
p458
ag68
(g77
g70
NtRp459
(dp460
g73
(dp461
g81
I3
ssg82
Nsg75
(lp462
g68
(g84
g70
NtRp463
(dp464
g73
(dp465
sg82
g459
sg75
(lp466
g68
(g89
g70
NtRp467
(dp468
g73
(dp469
g93
g94
ssg82
g463
sg75
(lp470
S'comment'
p471
asbag68
(g89
g70
NtRp472
(dp473
g73
(dp474
g100
g101
ssg82
g463
sg75
(lp475
S':'
asbag68
(g89
g70
NtRp476
(dp477
g73
(dp478
sg82
g463
sg75
(lp479
g68
(g69
g70
NtRp480
(dp481
g73
(dp482
g81
I3
ssg82
g476
sg75
(lp483
S''
asbasbasbag68
(g84
g70
NtRp484
(dp485
g73
(dp486
sg82
g459
sg75
(lp487
g68
(g89
g70
NtRp488
(dp489
g73
(dp490
g93
g94
ssg82
g484
sg75
(lp491
S'domain'
p492
asbag68
(g89
g70
NtRp493
(dp494
g73
(dp495
g100
g101
ssg82
g484
sg75
(lp496
S':'
asbag68
(g89
g70
NtRp497
(dp498
g73
(dp499
sg82
g484
sg75
(lp500
g68
(g69
g70
NtRp501
(dp502
g73
(dp503
g81
I3
ssg82
g497
sg75
(lp504
S''
asbasbasbag68
(g84
g70
NtRp505
(dp506
g73
(dp507
sg82
g459
sg75
(lp508
g68
(g89
g70
NtRp509
(dp510
g73
(dp511
g93
g94
ssg82
g505
sg75
(lp512
S'expires'
p513
asbag68
(g89
g70
NtRp514
(dp515
g73
(dp516
g100
g101
ssg82
g505
sg75
(lp517
S':'
asbag68
(g89
g70
NtRp518
(dp519
g73
(dp520
sg82
g505
sg75
(lp521
g68
(g69
g70
NtRp522
(dp523
g73
(dp524
g81
I3
ssg82
g518
sg75
(lp525
S''
asbasbasbag68
(g84
g70
NtRp526
(dp527
g73
(dp528
sg82
g459
sg75
(lp529
g68
(g89
g70
NtRp530
(dp531
g73
(dp532
g93
g94
ssg82
g526
sg75
(lp533
S'httponly'
p534
asbag68
(g89
g70
NtRp535
(dp536
g73
(dp537
g100
g101
ssg82
g526
sg75
(lp538
S':'
asbag68
(g89
g70
NtRp539
(dp540
g73
(dp541
sg82
g526
sg75
(lp542
g68
(g69
g70
NtRp543
(dp544
g73
(dp545
g81
I3
ssg82
g539
sg75
(lp546
S''
asbasbasbag68
(g84
g70
NtRp547
(dp548
g73
(dp549
sg82
g459
sg75
(lp550
g68
(g89
g70
NtRp551
(dp552
g73
(dp553
g93
g94
ssg82
g547
sg75
(lp554
S'max-age'
p555
asbag68
(g89
g70
NtRp556
(dp557
g73
(dp558
g100
g101
ssg82
g547
sg75
(lp559
S':'
asbag68
(g89
g70
NtRp560
(dp561
g73
(dp562
sg82
g547
sg75
(lp563
g68
(g69
g70
NtRp564
(dp565
g73
(dp566
g81
I3
ssg82
g560
sg75
(lp567
S''
asbasbasbag68
(g84
g70
NtRp568
(dp569
g73
(dp570
sg82
g459
sg75
(lp571
g68
(g89
g70
NtRp572
(dp573
g73
(dp574
g93
g94
ssg82
g568
sg75
(lp575
S'path'
p576
asbag68
(g89
g70
NtRp577
(dp578
g73
(dp579
g100
g101
ssg82
g568
sg75
(lp580
S':'
asbag68
(g89
g70
NtRp581
(dp582
g73
(dp583
sg82
g568
sg75
(lp584
g68
(g69
g70
NtRp585
(dp586
g73
(dp587
g81
I3
ssg82
g581
sg75
(lp588
S''
asbasbasbag68
(g84
g70
NtRp589
(dp590
g73
(dp591
sg82
g459
sg75
(lp592
g68
(g89
g70
NtRp593
(dp594
g73
(dp595
g93
g94
ssg82
g589
sg75
(lp596
S'secure'
p597
asbag68
(g89
g70
NtRp598
(dp599
g73
(dp600
g100
g101
ssg82
g589
sg75
(lp601
S':'
asbag68
(g89
g70
NtRp602
(dp603
g73
(dp604
sg82
g589
sg75
(lp605
g68
(g69
g70
NtRp606
(dp607
g73
(dp608
g81
I3
ssg82
g602
sg75
(lp609
S''
asbasbasbag68
(g84
g70
NtRp610
(dp611
g73
(dp612
sg82
g459
sg75
(lp613
g68
(g89
g70
NtRp614
(dp615
g73
(dp616
g93
g94
ssg82
g610
sg75
(lp617
S'version'
p618
asbag68
(g89
g70
NtRp619
(dp620
g73
(dp621
g100
g101
ssg82
g610
sg75
(lp622
S':'
asbag68
(g89
g70
NtRp623
(dp624
g73
(dp625
sg82
g610
sg75
(lp626
g68
(g69
g70
NtRp627
(dp628
g73
(dp629
g81
I3
ssg82
g623
sg75
(lp630
S''
asbasbasbasbasbasbasbag68
(g84
g70
NtRp631
(dp632
g73
(dp633
sg82
g433
sg75
(lp634
g68
(g89
g70
NtRp635
(dp636
g73
(dp637
g93
g94
ssg82
g631
sg75
(lp638
S'session_id_dev_bootstrap_ch'
p639
asbag68
(g89
g70
NtRp640
(dp641
g73
(dp642
g100
g101
ssg82
g631
sg75
(lp643
S':'
asbag68
(g89
g70
NtRp644
(dp645
g73
(dp646
sg82
g631
sg75
(lp647
g68
(g69
g70
NtRp648
(dp649
g73
(dp650
g81
I4
ssg82
g644
sg75
(lp651
S'127.0.0.1-0786449f-0f57-4893-b642-5d65efb22480'
p652
ag68
(g77
g70
NtRp653
(dp654
g73
(dp655
g81
I3
ssg82
Nsg75
(lp656
g68
(g84
g70
NtRp657
(dp658
g73
(dp659
sg82
g653
sg75
(lp660
g68
(g89
g70
NtRp661
(dp662
g73
(dp663
g93
g94
ssg82
g657
sg75
(lp664
g471
asbag68
(g89
g70
NtRp665
(dp666
g73
(dp667
g100
g101
ssg82
g657
sg75
(lp668
S':'
asbag68
(g89
g70
NtRp669
(dp670
g73
(dp671
sg82
g657
sg75
(lp672
g68
(g69
g70
NtRp673
(dp674
g73
(dp675
g81
I3
ssg82
g669
sg75
(lp676
S''
asbasbasbag68
(g84
g70
NtRp677
(dp678
g73
(dp679
sg82
g653
sg75
(lp680
g68
(g89
g70
NtRp681
(dp682
g73
(dp683
g93
g94
ssg82
g677
sg75
(lp684
g492
asbag68
(g89
g70
NtRp685
(dp686
g73
(dp687
g100
g101
ssg82
g677
sg75
(lp688
S':'
asbag68
(g89
g70
NtRp689
(dp690
g73
(dp691
sg82
g677
sg75
(lp692
g68
(g69
g70
NtRp693
(dp694
g73
(dp695
g81
I3
ssg82
g689
sg75
(lp696
S''
asbasbasbag68
(g84
g70
NtRp697
(dp698
g73
(dp699
sg82
g653
sg75
(lp700
g68
(g89
g70
NtRp701
(dp702
g73
(dp703
g93
g94
ssg82
g697
sg75
(lp704
g513
asbag68
(g89
g70
NtRp705
(dp706
g73
(dp707
g100
g101
ssg82
g697
sg75
(lp708
S':'
asbag68
(g89
g70
NtRp709
(dp710
g73
(dp711
sg82
g697
sg75
(lp712
g68
(g69
g70
NtRp713
(dp714
g73
(dp715
g81
I3
ssg82
g709
sg75
(lp716
S''
asbasbasbag68
(g84
g70
NtRp717
(dp718
g73
(dp719
sg82
g653
sg75
(lp720
g68
(g89
g70
NtRp721
(dp722
g73
(dp723
g93
g94
ssg82
g717
sg75
(lp724
g534
asbag68
(g89
g70
NtRp725
(dp726
g73
(dp727
g100
g101
ssg82
g717
sg75
(lp728
S':'
asbag68
(g89
g70
NtRp729
(dp730
g73
(dp731
sg82
g717
sg75
(lp732
g68
(g69
g70
NtRp733
(dp734
g73
(dp735
g81
I3
ssg82
g729
sg75
(lp736
S''
asbasbasbag68
(g84
g70
NtRp737
(dp738
g73
(dp739
sg82
g653
sg75
(lp740
g68
(g89
g70
NtRp741
(dp742
g73
(dp743
g93
g94
ssg82
g737
sg75
(lp744
g555
asbag68
(g89
g70
NtRp745
(dp746
g73
(dp747
g100
g101
ssg82
g737
sg75
(lp748
S':'
asbag68
(g89
g70
NtRp749
(dp750
g73
(dp751
sg82
g737
sg75
(lp752
g68
(g69
g70
NtRp753
(dp754
g73
(dp755
g81
I3
ssg82
g749
sg75
(lp756
S''
asbasbasbag68
(g84
g70
NtRp757
(dp758
g73
(dp759
sg82
g653
sg75
(lp760
g68
(g89
g70
NtRp761
(dp762
g73
(dp763
g93
g94
ssg82
g757
sg75
(lp764
g576
asbag68
(g89
g70
NtRp765
(dp766
g73
(dp767
g100
g101
ssg82
g757
sg75
(lp768
S':'
asbag68
(g89
g70
NtRp769
(dp770
g73
(dp771
sg82
g757
sg75
(lp772
g68
(g69
g70
NtRp773
(dp774
g73
(dp775
g81
I3
ssg82
g769
sg75
(lp776
S''
asbasbasbag68
(g84
g70
NtRp777
(dp778
g73
(dp779
sg82
g653
sg75
(lp780
g68
(g89
g70
NtRp781
(dp782
g73
(dp783
g93
g94
ssg82
g777
sg75
(lp784
g597
asbag68
(g89
g70
NtRp785
(dp786
g73
(dp787
g100
g101
ssg82
g777
sg75
(lp788
S':'
asbag68
(g89
g70
NtRp789
(dp790
g73
(dp791
sg82
g777
sg75
(lp792
g68
(g69
g70
NtRp793
(dp794
g73
(dp795
g81
I3
ssg82
g789
sg75
(lp796
S''
asbasbasbag68
(g84
g70
NtRp797
(dp798
g73
(dp799
sg82
g653
sg75
(lp800
g68
(g89
g70
NtRp801
(dp802
g73
(dp803
g93
g94
ssg82
g797
sg75
(lp804
g618
asbag68
(g89
g70
NtRp805
(dp806
g73
(dp807
g100
g101
ssg82
g797
sg75
(lp808
S':'
asbag68
(g89
g70
NtRp809
(dp810
g73
(dp811
sg82
g797
sg75
(lp812
g68
(g69
g70
NtRp813
(dp814
g73
(dp815
g81
I3
ssg82
g809
sg75
(lp816
S''
asbasbasbasbasbasbasbasbasbasbasbag68
(g84
g70
NtRp817
(dp818
g73
(dp819
sg82
g78
sg75
(lp820
g68
(g89
g70
NtRp821
(dp822
g73
(dp823
g93
g94
ssg82
g817
sg75
(lp824
S'env'
p825
asbag68
(g89
g70
NtRp826
(dp827
g73
(dp828
g100
g101
ssg82
g817
sg75
(lp829
S':'
asbag68
(g89
g70
NtRp830
(dp831
g73
(dp832
sg82
g817
sg75
(lp833
g68
(g69
g70
NtRp834
(dp835
g73
(dp836
g81
I5
ssg82
g830
sg75
(lp837
g68
(g77
g70
NtRp838
(dp839
g73
(dp840
g81
I4
ssg82
Nsg75
(lp841
g68
(g84
g70
NtRp842
(dp843
g73
(dp844
sg82
g838
sg75
(lp845
g68
(g89
g70
NtRp846
(dp847
g73
(dp848
g93
g94
ssg82
g842
sg75
(lp849
S'app_folders'
p850
asbag68
(g89
g70
NtRp851
(dp852
g73
(dp853
g100
g101
ssg82
g842
sg75
(lp854
S':'
asbag68
(g89
g70
NtRp855
(dp856
g73
(dp857
sg82
g842
sg75
(lp858
g68
(g69
g70
NtRp859
(dp860
g73
(dp861
g81
I4
ssg82
g855
sg75
(lp862
S"set(['/home/anil/Downloads/web2py/applications/DEV_bootstrap_ch/', '/home/anil/Downloads/web2py/applications/admin/'])"
p863
asbasbasbag68
(g84
g70
NtRp864
(dp865
g73
(dp866
sg82
g838
sg75
(lp867
g68
(g89
g70
NtRp868
(dp869
g73
(dp870
g93
g94
ssg82
g864
sg75
(lp871
S'applications_parent'
p872
asbag68
(g89
g70
NtRp873
(dp874
g73
(dp875
g100
g101
ssg82
g864
sg75
(lp876
S':'
asbag68
(g89
g70
NtRp877
(dp878
g73
(dp879
sg82
g864
sg75
(lp880
g68
(g69
g70
NtRp881
(dp882
g73
(dp883
g81
I4
ssg82
g877
sg75
(lp884
S'/home/anil/Downloads/web2py'
p885
asbasbasbag68
(g84
g70
NtRp886
(dp887
g73
(dp888
sg82
g838
sg75
(lp889
g68
(g89
g70
NtRp890
(dp891
g73
(dp892
g93
g94
ssg82
g886
sg75
(lp893
S'cmd_args'
p894
asbag68
(g89
g70
NtRp895
(dp896
g73
(dp897
g100
g101
ssg82
g886
sg75
(lp898
S':'
asbag68
(g89
g70
NtRp899
(dp900
g73
(dp901
sg82
g886
sg75
(lp902
g68
(g69
g70
NtRp903
(dp904
g73
(dp905
g81
I4
ssg82
g899
sg75
(lp906
g68
(g77
g70
NtRp907
(dp908
g73
(dp909
g81
I3
ssg82
Nsg75
(lp910
sbasbasbasbag68
(g84
g70
NtRp911
(dp912
g73
(dp913
sg82
g838
sg75
(lp914
g68
(g89
g70
NtRp915
(dp916
g73
(dp917
g93
g94
ssg82
g911
sg75
(lp918
S'cmd_options'
p919
asbag68
(g89
g70
NtRp920
(dp921
g73
(dp922
g100
g101
ssg82
g911
sg75
(lp923
S':'
asbag68
(g89
g70
NtRp924
(dp925
g73
(dp926
sg82
g911
sg75
(lp927
g68
(g69
g70
NtRp928
(dp929
g73
(dp930
g81
I4
ssg82
g924
sg75
(lp931
S"<Values at 0x8c650cc: {'verbose': False, 'ip': '127.0.0.1', 'with_scheduler': False, 'ips': [], 'shutdown_timeout': 5, 'taskbar': False, 'port': 8000, 'maxthreads': None, 'softcron': False, 'server_name': 'anil-Inspiron-1525', 'bpython': False, 'nogui': False, 'pid_filename': 'httpserver.pid', 'extcron': False, 'runcron': False, 'run_system_tests': False, 'test': None, 'folder': '/home/anil/Downloads/web2py', 'config': '', 'import_models': False, 'winservice': '', 'shell': None, 'run': '', 'log_filename': 'httpserver.log', 'debuglevel': 30, 'args': [''], 'socket_timeout': 5, 'ssl_ca_certificate': None, 'scheduler': None, 'profiler_filename': None, 'ssl_private_key': '', 'scheduler_groups': None, 'password': '123', 'request_queue_size': 5, 'ssl_certificate': '', 'cronjob': False, 'numthreads': None, 'quiet': False, 'interfaces': None, 'minthreads': None, 'timeout': 10, 'plain': False, 'nobanner': False}>"
p932
asbasbasbag68
(g84
g70
NtRp933
(dp934
g73
(dp935
sg82
g838
sg75
(lp936
g68
(g89
g70
NtRp937
(dp938
g73
(dp939
g93
g94
ssg82
g933
sg75
(lp940
S'db_sessions'
p941
asbag68
(g89
g70
NtRp942
(dp943
g73
(dp944
g100
g101
ssg82
g933
sg75
(lp945
S':'
asbag68
(g89
g70
NtRp946
(dp947
g73
(dp948
sg82
g933
sg75
(lp949
g68
(g69
g70
NtRp950
(dp951
g73
(dp952
g81
I4
ssg82
g946
sg75
(lp953
S'set([])'
p954
asbasbasbag68
(g84
g70
NtRp955
(dp956
g73
(dp957
sg82
g838
sg75
(lp958
g68
(g89
g70
NtRp959
(dp960
g73
(dp961
g93
g94
ssg82
g955
sg75
(lp962
S'debugging'
p963
asbag68
(g89
g70
NtRp964
(dp965
g73
(dp966
g100
g101
ssg82
g955
sg75
(lp967
S':'
asbag68
(g89
g70
NtRp968
(dp969
g73
(dp970
sg82
g955
sg75
(lp971
g68
(g69
g70
NtRp972
(dp973
g73
(dp974
g81
I4
ssg82
g968
sg75
(lp975
g111
asbasbasbag68
(g84
g70
NtRp976
(dp977
g73
(dp978
sg82
g838
sg75
(lp979
g68
(g89
g70
NtRp980
(dp981
g73
(dp982
g93
g94
ssg82
g976
sg75
(lp983
S'gluon_parent'
p984
asbag68
(g89
g70
NtRp985
(dp986
g73
(dp987
g100
g101
ssg82
g976
sg75
(lp988
S':'
asbag68
(g89
g70
NtRp989
(dp990
g73
(dp991
sg82
g976
sg75
(lp992
g68
(g69
g70
NtRp993
(dp994
g73
(dp995
g81
I4
ssg82
g989
sg75
(lp996
S'/home/anil/Downloads/web2py'
p997
asbasbasbag68
(g84
g70
NtRp998
(dp999
g73
(dp1000
sg82
g838
sg75
(lp1001
g68
(g89
g70
NtRp1002
(dp1003
g73
(dp1004
g93
g94
ssg82
g998
sg75
(lp1005
S'http_accept'
p1006
asbag68
(g89
g70
NtRp1007
(dp1008
g73
(dp1009
g100
g101
ssg82
g998
sg75
(lp1010
S':'
asbag68
(g89
g70
NtRp1011
(dp1012
g73
(dp1013
sg82
g998
sg75
(lp1014
g68
(g69
g70
NtRp1015
(dp1016
g73
(dp1017
g81
I4
ssg82
g1011
sg75
(lp1018
S'text/html,application/xhtml+xml,application/xml;q=0.9,*/*;q=0.8'
p1019
asbasbasbag68
(g84
g70
NtRp1020
(dp1021
g73
(dp1022
sg82
g838
sg75
(lp1023
g68
(g89
g70
NtRp1024
(dp1025
g73
(dp1026
g93
g94
ssg82
g1020
sg75
(lp1027
S'http_accept_charset'
p1028
asbag68
(g89
g70
NtRp1029
(dp1030
g73
(dp1031
g100
g101
ssg82
g1020
sg75
(lp1032
S':'
asbag68
(g89
g70
NtRp1033
(dp1034
g73
(dp1035
sg82
g1020
sg75
(lp1036
g68
(g69
g70
NtRp1037
(dp1038
g73
(dp1039
g81
I4
ssg82
g1033
sg75
(lp1040
S'ISO-8859-1,utf-8;q=0.7,*;q=0.3'
p1041
asbasbasbag68
(g84
g70
NtRp1042
(dp1043
g73
(dp1044
sg82
g838
sg75
(lp1045
g68
(g89
g70
NtRp1046
(dp1047
g73
(dp1048
g93
g94
ssg82
g1042
sg75
(lp1049
S'http_accept_encoding'
p1050
asbag68
(g89
g70
NtRp1051
(dp1052
g73
(dp1053
g100
g101
ssg82
g1042
sg75
(lp1054
S':'
asbag68
(g89
g70
NtRp1055
(dp1056
g73
(dp1057
sg82
g1042
sg75
(lp1058
g68
(g69
g70
NtRp1059
(dp1060
g73
(dp1061
g81
I4
ssg82
g1055
sg75
(lp1062
S'gzip,deflate,sdch'
p1063
asbasbasbag68
(g84
g70
NtRp1064
(dp1065
g73
(dp1066
sg82
g838
sg75
(lp1067
g68
(g89
g70
NtRp1068
(dp1069
g73
(dp1070
g93
g94
ssg82
g1064
sg75
(lp1071
S'http_accept_language'
p1072
asbag68
(g89
g70
NtRp1073
(dp1074
g73
(dp1075
g100
g101
ssg82
g1064
sg75
(lp1076
S':'
asbag68
(g89
g70
NtRp1077
(dp1078
g73
(dp1079
sg82
g1064
sg75
(lp1080
g68
(g69
g70
NtRp1081
(dp1082
g73
(dp1083
g81
I4
ssg82
g1077
sg75
(lp1084
S'en-US,en;q=0.8'
p1085
asbasbasbag68
(g84
g70
NtRp1086
(dp1087
g73
(dp1088
sg82
g838
sg75
(lp1089
g68
(g89
g70
NtRp1090
(dp1091
g73
(dp1092
g93
g94
ssg82
g1086
sg75
(lp1093
S'http_cache_control'
p1094
asbag68
(g89
g70
NtRp1095
(dp1096
g73
(dp1097
g100
g101
ssg82
g1086
sg75
(lp1098
S':'
asbag68
(g89
g70
NtRp1099
(dp1100
g73
(dp1101
sg82
g1086
sg75
(lp1102
g68
(g69
g70
NtRp1103
(dp1104
g73
(dp1105
g81
I4
ssg82
g1099
sg75
(lp1106
S'max-age=0'
p1107
asbasbasbag68
(g84
g70
NtRp1108
(dp1109
g73
(dp1110
sg82
g838
sg75
(lp1111
g68
(g89
g70
NtRp1112
(dp1113
g73
(dp1114
g93
g94
ssg82
g1108
sg75
(lp1115
S'http_connection'
p1116
asbag68
(g89
g70
NtRp1117
(dp1118
g73
(dp1119
g100
g101
ssg82
g1108
sg75
(lp1120
S':'
asbag68
(g89
g70
NtRp1121
(dp1122
g73
(dp1123
sg82
g1108
sg75
(lp1124
g68
(g69
g70
NtRp1125
(dp1126
g73
(dp1127
g81
I4
ssg82
g1121
sg75
(lp1128
S'keep-alive'
p1129
asbasbasbag68
(g84
g70
NtRp1130
(dp1131
g73
(dp1132
sg82
g838
sg75
(lp1133
g68
(g89
g70
NtRp1134
(dp1135
g73
(dp1136
g93
g94
ssg82
g1130
sg75
(lp1137
S'http_cookie'
p1138
asbag68
(g89
g70
NtRp1139
(dp1140
g73
(dp1141
g100
g101
ssg82
g1130
sg75
(lp1142
S':'
asbag68
(g89
g70
NtRp1143
(dp1144
g73
(dp1145
sg82
g1130
sg75
(lp1146
g68
(g69
g70
NtRp1147
(dp1148
g73
(dp1149
g81
I4
ssg82
g1143
sg75
(lp1150
S'session_id_dev_bootstrap_ch=127.0.0.1-0786449f-0f57-4893-b642-5d65efb22480; session_id_admin=127.0.0.1-b525fb61-ea08-4c78-87c0-51b0a39c8fc3'
p1151
asbasbasbag68
(g84
g70
NtRp1152
(dp1153
g73
(dp1154
sg82
g838
sg75
(lp1155
g68
(g89
g70
NtRp1156
(dp1157
g73
(dp1158
g93
g94
ssg82
g1152
sg75
(lp1159
S'http_host'
p1160
asbag68
(g89
g70
NtRp1161
(dp1162
g73
(dp1163
g100
g101
ssg82
g1152
sg75
(lp1164
S':'
asbag68
(g89
g70
NtRp1165
(dp1166
g73
(dp1167
sg82
g1152
sg75
(lp1168
g68
(g69
g70
NtRp1169
(dp1170
g73
(dp1171
g81
I4
ssg82
g1165
sg75
(lp1172
S'127.0.0.1:8000'
p1173
asbasbasbag68
(g84
g70
NtRp1174
(dp1175
g73
(dp1176
sg82
g838
sg75
(lp1177
g68
(g89
g70
NtRp1178
(dp1179
g73
(dp1180
g93
g94
ssg82
g1174
sg75
(lp1181
S'http_referer'
p1182
asbag68
(g89
g70
NtRp1183
(dp1184
g73
(dp1185
g100
g101
ssg82
g1174
sg75
(lp1186
S':'
asbag68
(g89
g70
NtRp1187
(dp1188
g73
(dp1189
sg82
g1174
sg75
(lp1190
g68
(g69
g70
NtRp1191
(dp1192
g73
(dp1193
g81
I4
ssg82
g1187
sg75
(lp1194
S'http://127.0.0.1:8000/DEV_bootstrap_ch/default/insert_spectrophotometry/project/experiment.project/1/sample.experiment/1/spectrophotometry.sample_name/1/new/spectrophotometry/clear/clear/clear'
p1195
asbasbasbag68
(g84
g70
NtRp1196
(dp1197
g73
(dp1198
sg82
g838
sg75
(lp1199
g68
(g89
g70
NtRp1200
(dp1201
g73
(dp1202
g93
g94
ssg82
g1196
sg75
(lp1203
S'http_user_agent'
p1204
asbag68
(g89
g70
NtRp1205
(dp1206
g73
(dp1207
g100
g101
ssg82
g1196
sg75
(lp1208
S':'
asbag68
(g89
g70
NtRp1209
(dp1210
g73
(dp1211
sg82
g1196
sg75
(lp1212
g68
(g69
g70
NtRp1213
(dp1214
g73
(dp1215
g81
I4
ssg82
g1209
sg75
(lp1216
S'Mozilla/5.0 (X11; Linux i686) AppleWebKit/537.31 (KHTML, like Gecko) Chrome/26.0.1410.10 Safari/537.31'
p1217
asbasbasbag68
(g84
g70
NtRp1218
(dp1219
g73
(dp1220
sg82
g838
sg75
(lp1221
g68
(g89
g70
NtRp1222
(dp1223
g73
(dp1224
g93
g94
ssg82
g1218
sg75
(lp1225
S'is_jython'
p1226
asbag68
(g89
g70
NtRp1227
(dp1228
g73
(dp1229
g100
g101
ssg82
g1218
sg75
(lp1230
S':'
asbag68
(g89
g70
NtRp1231
(dp1232
g73
(dp1233
sg82
g1218
sg75
(lp1234
g68
(g69
g70
NtRp1235
(dp1236
g73
(dp1237
g81
I4
ssg82
g1231
sg75
(lp1238
g111
asbasbasbag68
(g84
g70
NtRp1239
(dp1240
g73
(dp1241
sg82
g838
sg75
(lp1242
g68
(g89
g70
NtRp1243
(dp1244
g73
(dp1245
g93
g94
ssg82
g1239
sg75
(lp1246
S'is_pypy'
p1247
asbag68
(g89
g70
NtRp1248
(dp1249
g73
(dp1250
g100
g101
ssg82
g1239
sg75
(lp1251
S':'
asbag68
(g89
g70
NtRp1252
(dp1253
g73
(dp1254
sg82
g1239
sg75
(lp1255
g68
(g69
g70
NtRp1256
(dp1257
g73
(dp1258
g81
I4
ssg82
g1252
sg75
(lp1259
g111
asbasbasbag68
(g84
g70
NtRp1260
(dp1261
g73
(dp1262
sg82
g838
sg75
(lp1263
g68
(g89
g70
NtRp1264
(dp1265
g73
(dp1266
g93
g94
ssg82
g1260
sg75
(lp1267
S'local_hosts'
p1268
asbag68
(g89
g70
NtRp1269
(dp1270
g73
(dp1271
g100
g101
ssg82
g1260
sg75
(lp1272
S':'
asbag68
(g89
g70
NtRp1273
(dp1274
g73
(dp1275
sg82
g1260
sg75
(lp1276
g68
(g69
g70
NtRp1277
(dp1278
g73
(dp1279
g81
I4
ssg82
g1273
sg75
(lp1280
g68
(g77
g70
NtRp1281
(dp1282
g73
(dp1283
g81
I3
ssg82
Nsg75
(lp1284
g68
(g84
g70
NtRp1285
(dp1286
g73
(dp1287
sg82
g1281
sg75
(lp1288
g68
(g89
g70
NtRp1289
(dp1290
g73
(dp1291
sg82
g1285
sg75
(lp1292
g68
(g69
g70
NtRp1293
(dp1294
g73
(dp1295
g81
I3
ssg82
g1289
sg75
(lp1296
S'::1'
p1297
asbasbasbag68
(g84
g70
NtRp1298
(dp1299
g73
(dp1300
sg82
g1281
sg75
(lp1301
g68
(g89
g70
NtRp1302
(dp1303
g73
(dp1304
sg82
g1298
sg75
(lp1305
g68
(g69
g70
NtRp1306
(dp1307
g73
(dp1308
g81
I3
ssg82
g1302
sg75
(lp1309
S'127.0.1.1'
p1310
asbasbasbag68
(g84
g70
NtRp1311
(dp1312
g73
(dp1313
sg82
g1281
sg75
(lp1314
g68
(g89
g70
NtRp1315
(dp1316
g73
(dp1317
sg82
g1311
sg75
(lp1318
g68
(g69
g70
NtRp1319
(dp1320
g73
(dp1321
g81
I3
ssg82
g1315
sg75
(lp1322
S'::ffff:127.0.0.1'
p1323
asbasbasbag68
(g84
g70
NtRp1324
(dp1325
g73
(dp1326
sg82
g1281
sg75
(lp1327
g68
(g89
g70
NtRp1328
(dp1329
g73
(dp1330
sg82
g1324
sg75
(lp1331
g68
(g69
g70
NtRp1332
(dp1333
g73
(dp1334
g81
I3
ssg82
g1328
sg75
(lp1335
S'127.0.0.1'
p1336
asbasbasbag68
(g84
g70
NtRp1337
(dp1338
g73
(dp1339
sg82
g1281
sg75
(lp1340
g68
(g89
g70
NtRp1341
(dp1342
g73
(dp1343
sg82
g1337
sg75
(lp1344
g68
(g69
g70
NtRp1345
(dp1346
g73
(dp1347
g81
I3
ssg82
g1341
sg75
(lp1348
S'anil-Inspiron-1525'
p1349
asbasbasbasbasbasbasbag68
(g84
g70
NtRp1350
(dp1351
g73
(dp1352
sg82
g838
sg75
(lp1353
g68
(g89
g70
NtRp1354
(dp1355
g73
(dp1356
g93
g94
ssg82
g1350
sg75
(lp1357
S'path_info'
p1358
asbag68
(g89
g70
NtRp1359
(dp1360
g73
(dp1361
g100
g101
ssg82
g1350
sg75
(lp1362
S':'
asbag68
(g89
g70
NtRp1363
(dp1364
g73
(dp1365
sg82
g1350
sg75
(lp1366
g68
(g69
g70
NtRp1367
(dp1368
g73
(dp1369
g81
I4
ssg82
g1363
sg75
(lp1370
S'/DEV_bootstrap_ch/default/insert_spectrophotometry/project/experiment.project/1/sample.experiment/1/spectrophotometry.sample_name/1/new/spectrophotometry/clear/clear/clear/clear'
p1371
asbasbasbag68
(g84
g70
NtRp1372
(dp1373
g73
(dp1374
sg82
g838
sg75
(lp1375
g68
(g89
g70
NtRp1376
(dp1377
g73
(dp1378
g93
g94
ssg82
g1372
sg75
(lp1379
S'query_string'
p1380
asbag68
(g89
g70
NtRp1381
(dp1382
g73
(dp1383
g100
g101
ssg82
g1372
sg75
(lp1384
S':'
asbag68
(g89
g70
NtRp1385
(dp1386
g73
(dp1387
sg82
g1372
sg75
(lp1388
g68
(g69
g70
NtRp1389
(dp1390
g73
(dp1391
g81
I4
ssg82
g1385
sg75
(lp1392
S''
asbasbasbag68
(g84
g70
NtRp1393
(dp1394
g73
(dp1395
sg82
g838
sg75
(lp1396
g68
(g89
g70
NtRp1397
(dp1398
g73
(dp1399
g93
g94
ssg82
g1393
sg75
(lp1400
S'remote_addr'
p1401
asbag68
(g89
g70
NtRp1402
(dp1403
g73
(dp1404
g100
g101
ssg82
g1393
sg75
(lp1405
S':'
asbag68
(g89
g70
NtRp1406
(dp1407
g73
(dp1408
sg82
g1393
sg75
(lp1409
g68
(g69
g70
NtRp1410
(dp1411
g73
(dp1412
g81
I4
ssg82
g1406
sg75
(lp1413
g389
asbasbasbag68
(g84
g70
NtRp1414
(dp1415
g73
(dp1416
sg82
g838
sg75
(lp1417
g68
(g89
g70
NtRp1418
(dp1419
g73
(dp1420
g93
g94
ssg82
g1414
sg75
(lp1421
S'remote_port'
p1422
asbag68
(g89
g70
NtRp1423
(dp1424
g73
(dp1425
g100
g101
ssg82
g1414
sg75
(lp1426
S':'
asbag68
(g89
g70
NtRp1427
(dp1428
g73
(dp1429
sg82
g1414
sg75
(lp1430
g68
(g69
g70
NtRp1431
(dp1432
g73
(dp1433
g81
I4
ssg82
g1427
sg75
(lp1434
S'35152'
p1435
asbasbasbag68
(g84
g70
NtRp1436
(dp1437
g73
(dp1438
sg82
g838
sg75
(lp1439
g68
(g89
g70
NtRp1440
(dp1441
g73
(dp1442
g93
g94
ssg82
g1436
sg75
(lp1443
S'request_method'
p1444
asbag68
(g89
g70
NtRp1445
(dp1446
g73
(dp1447
g100
g101
ssg82
g1436
sg75
(lp1448
S':'
asbag68
(g89
g70
NtRp1449
(dp1450
g73
(dp1451
sg82
g1436
sg75
(lp1452
g68
(g69
g70
NtRp1453
(dp1454
g73
(dp1455
g81
I4
ssg82
g1449
sg75
(lp1456
S'GET'
p1457
asbasbasbag68
(g84
g70
NtRp1458
(dp1459
g73
(dp1460
sg82
g838
sg75
(lp1461
g68
(g89
g70
NtRp1462
(dp1463
g73
(dp1464
g93
g94
ssg82
g1458
sg75
(lp1465
S'request_uri'
p1466
asbag68
(g89
g70
NtRp1467
(dp1468
g73
(dp1469
g100
g101
ssg82
g1458
sg75
(lp1470
S':'
asbag68
(g89
g70
NtRp1471
(dp1472
g73
(dp1473
sg82
g1458
sg75
(lp1474
g68
(g69
g70
NtRp1475
(dp1476
g73
(dp1477
g81
I4
ssg82
g1471
sg75
(lp1478
g1371
asbasbasbag68
(g84
g70
NtRp1479
(dp1480
g73
(dp1481
sg82
g838
sg75
(lp1482
g68
(g89
g70
NtRp1483
(dp1484
g73
(dp1485
g93
g94
ssg82
g1479
sg75
(lp1486
S'script_name'
p1487
asbag68
(g89
g70
NtRp1488
(dp1489
g73
(dp1490
g100
g101
ssg82
g1479
sg75
(lp1491
S':'
asbag68
(g89
g70
NtRp1492
(dp1493
g73
(dp1494
sg82
g1479
sg75
(lp1495
g68
(g69
g70
NtRp1496
(dp1497
g73
(dp1498
g81
I4
ssg82
g1492
sg75
(lp1499
S''
asbasbasbag68
(g84
g70
NtRp1500
(dp1501
g73
(dp1502
sg82
g838
sg75
(lp1503
g68
(g89
g70
NtRp1504
(dp1505
g73
(dp1506
g93
g94
ssg82
g1500
sg75
(lp1507
S'server_name'
p1508
asbag68
(g89
g70
NtRp1509
(dp1510
g73
(dp1511
g100
g101
ssg82
g1500
sg75
(lp1512
S':'
asbag68
(g89
g70
NtRp1513
(dp1514
g73
(dp1515
sg82
g1500
sg75
(lp1516
g68
(g69
g70
NtRp1517
(dp1518
g73
(dp1519
g81
I4
ssg82
g1513
sg75
(lp1520
S'anil-Inspiron-1525'
p1521
asbasbasbag68
(g84
g70
NtRp1522
(dp1523
g73
(dp1524
sg82
g838
sg75
(lp1525
g68
(g89
g70
NtRp1526
(dp1527
g73
(dp1528
g93
g94
ssg82
g1522
sg75
(lp1529
S'server_port'
p1530
asbag68
(g89
g70
NtRp1531
(dp1532
g73
(dp1533
g100
g101
ssg82
g1522
sg75
(lp1534
S':'
asbag68
(g89
g70
NtRp1535
(dp1536
g73
(dp1537
sg82
g1522
sg75
(lp1538
g68
(g69
g70
NtRp1539
(dp1540
g73
(dp1541
g81
I4
ssg82
g1535
sg75
(lp1542
S'8000'
p1543
asbasbasbag68
(g84
g70
NtRp1544
(dp1545
g73
(dp1546
sg82
g838
sg75
(lp1547
g68
(g89
g70
NtRp1548
(dp1549
g73
(dp1550
g93
g94
ssg82
g1544
sg75
(lp1551
S'server_protocol'
p1552
asbag68
(g89
g70
NtRp1553
(dp1554
g73
(dp1555
g100
g101
ssg82
g1544
sg75
(lp1556
S':'
asbag68
(g89
g70
NtRp1557
(dp1558
g73
(dp1559
sg82
g1544
sg75
(lp1560
g68
(g69
g70
NtRp1561
(dp1562
g73
(dp1563
g81
I4
ssg82
g1557
sg75
(lp1564
S'HTTP/1.1'
p1565
asbasbasbag68
(g84
g70
NtRp1566
(dp1567
g73
(dp1568
sg82
g838
sg75
(lp1569
g68
(g89
g70
NtRp1570
(dp1571
g73
(dp1572
g93
g94
ssg82
g1566
sg75
(lp1573
S'server_software'
p1574
asbag68
(g89
g70
NtRp1575
(dp1576
g73
(dp1577
g100
g101
ssg82
g1566
sg75
(lp1578
S':'
asbag68
(g89
g70
NtRp1579
(dp1580
g73
(dp1581
sg82
g1566
sg75
(lp1582
g68
(g69
g70
NtRp1583
(dp1584
g73
(dp1585
g81
I4
ssg82
g1579
sg75
(lp1586
S'Rocket 1.2.6'
p1587
asbasbasbag68
(g84
g70
NtRp1588
(dp1589
g73
(dp1590
sg82
g838
sg75
(lp1591
g68
(g89
g70
NtRp1592
(dp1593
g73
(dp1594
g93
g94
ssg82
g1588
sg75
(lp1595
S'web2py_path'
p1596
asbag68
(g89
g70
NtRp1597
(dp1598
g73
(dp1599
g100
g101
ssg82
g1588
sg75
(lp1600
S':'
asbag68
(g89
g70
NtRp1601
(dp1602
g73
(dp1603
sg82
g1588
sg75
(lp1604
g68
(g69
g70
NtRp1605
(dp1606
g73
(dp1607
g81
I4
ssg82
g1601
sg75
(lp1608
g885
asbasbasbag68
(g84
g70
NtRp1609
(dp1610
g73
(dp1611
sg82
g838
sg75
(lp1612
g68
(g89
g70
NtRp1613
(dp1614
g73
(dp1615
g93
g94
ssg82
g1609
sg75
(lp1616
S'web2py_version'
p1617
asbag68
(g89
g70
NtRp1618
(dp1619
g73
(dp1620
g100
g101
ssg82
g1609
sg75
(lp1621
S':'
asbag68
(g89
g70
NtRp1622
(dp1623
g73
(dp1624
sg82
g1609
sg75
(lp1625
g68
(g69
g70
NtRp1626
(dp1627
g73
(dp1628
g81
I4
ssg82
g1622
sg75
(lp1629
g68
(g77
g70
NtRp1630
(dp1631
g73
(dp1632
g81
I3
ssg82
Nsg75
(lp1633
g68
(g84
g70
NtRp1634
(dp1635
g73
(dp1636
sg82
g1630
sg75
(lp1637
g68
(g89
g70
NtRp1638
(dp1639
g73
(dp1640
sg82
g1634
sg75
(lp1641
g68
(g69
g70
NtRp1642
(dp1643
g73
(dp1644
g81
I3
ssg82
g1638
sg75
(lp1645
S'2'
asbasbasbag68
(g84
g70
NtRp1646
(dp1647
g73
(dp1648
sg82
g1630
sg75
(lp1649
g68
(g89
g70
NtRp1650
(dp1651
g73
(dp1652
sg82
g1646
sg75
(lp1653
g68
(g69
g70
NtRp1654
(dp1655
g73
(dp1656
g81
I3
ssg82
g1650
sg75
(lp1657
S'3'
asbasbasbag68
(g84
g70
NtRp1658
(dp1659
g73
(dp1660
sg82
g1630
sg75
(lp1661
g68
(g89
g70
NtRp1662
(dp1663
g73
(dp1664
sg82
g1658
sg75
(lp1665
g68
(g69
g70
NtRp1666
(dp1667
g73
(dp1668
g81
I3
ssg82
g1662
sg75
(lp1669
S'2'
asbasbasbag68
(g84
g70
NtRp1670
(dp1671
g73
(dp1672
sg82
g1630
sg75
(lp1673
g68
(g89
g70
NtRp1674
(dp1675
g73
(dp1676
sg82
g1670
sg75
(lp1677
g68
(g69
g70
NtRp1678
(dp1679
g73
(dp1680
g81
I3
ssg82
g1674
sg75
(lp1681
S'datetime.datetime(2012, 12, 17, 15, 3, 30)'
p1682
asbasbasbag68
(g84
g70
NtRp1683
(dp1684
g73
(dp1685
sg82
g1630
sg75
(lp1686
g68
(g89
g70
NtRp1687
(dp1688
g73
(dp1689
sg82
g1683
sg75
(lp1690
g68
(g69
g70
NtRp1691
(dp1692
g73
(dp1693
g81
I3
ssg82
g1687
sg75
(lp1694
S'stable'
p1695
asbasbasbasbasbasbasbag68
(g84
g70
NtRp1696
(dp1697
g73
(dp1698
sg82
g838
sg75
(lp1699
g68
(g89
g70
NtRp1700
(dp1701
g73
(dp1702
g93
g94
ssg82
g1696
sg75
(lp1703
S'wsgi_errors'
p1704
asbag68
(g89
g70
NtRp1705
(dp1706
g73
(dp1707
g100
g101
ssg82
g1696
sg75
(lp1708
S':'
asbag68
(g89
g70
NtRp1709
(dp1710
g73
(dp1711
sg82
g1696
sg75
(lp1712
g68
(g69
g70
NtRp1713
(dp1714
g73
(dp1715
g81
I4
ssg82
g1709
sg75
(lp1716
S"<open file '<stderr>', mode 'w' at 0xb732a0d0>"
p1717
asbasbasbag68
(g84
g70
NtRp1718
(dp1719
g73
(dp1720
sg82
g838
sg75
(lp1721
g68
(g89
g70
NtRp1722
(dp1723
g73
(dp1724
g93
g94
ssg82
g1718
sg75
(lp1725
S'wsgi_file_wrapper'
p1726
asbag68
(g89
g70
NtRp1727
(dp1728
g73
(dp1729
g100
g101
ssg82
g1718
sg75
(lp1730
S':'
asbag68
(g89
g70
NtRp1731
(dp1732
g73
(dp1733
sg82
g1718
sg75
(lp1734
g68
(g69
g70
NtRp1735
(dp1736
g73
(dp1737
g81
I4
ssg82
g1731
sg75
(lp1738
S'<class wsgiref.util.FileWrapper at 0x8beeb9c>'
p1739
asbasbasbag68
(g84
g70
NtRp1740
(dp1741
g73
(dp1742
sg82
g838
sg75
(lp1743
g68
(g89
g70
NtRp1744
(dp1745
g73
(dp1746
g93
g94
ssg82
g1740
sg75
(lp1747
S'wsgi_input'
p1748
asbag68
(g89
g70
NtRp1749
(dp1750
g73
(dp1751
g100
g101
ssg82
g1740
sg75
(lp1752
S':'
asbag68
(g89
g70
NtRp1753
(dp1754
g73
(dp1755
sg82
g1740
sg75
(lp1756
g68
(g69
g70
NtRp1757
(dp1758
g73
(dp1759
g81
I4
ssg82
g1753
sg75
(lp1760
S'<socket._fileobject object at 0x8fadd6c>'
p1761
asbasbasbag68
(g84
g70
NtRp1762
(dp1763
g73
(dp1764
sg82
g838
sg75
(lp1765
g68
(g89
g70
NtRp1766
(dp1767
g73
(dp1768
g93
g94
ssg82
g1762
sg75
(lp1769
S'wsgi_multiprocess'
p1770
asbag68
(g89
g70
NtRp1771
(dp1772
g73
(dp1773
g100
g101
ssg82
g1762
sg75
(lp1774
S':'
asbag68
(g89
g70
NtRp1775
(dp1776
g73
(dp1777
sg82
g1762
sg75
(lp1778
g68
(g69
g70
NtRp1779
(dp1780
g73
(dp1781
g81
I4
ssg82
g1775
sg75
(lp1782
g111
asbasbasbag68
(g84
g70
NtRp1783
(dp1784
g73
(dp1785
sg82
g838
sg75
(lp1786
g68
(g89
g70
NtRp1787
(dp1788
g73
(dp1789
g93
g94
ssg82
g1783
sg75
(lp1790
S'wsgi_multithread'
p1791
asbag68
(g89
g70
NtRp1792
(dp1793
g73
(dp1794
g100
g101
ssg82
g1783
sg75
(lp1795
S':'
asbag68
(g89
g70
NtRp1796
(dp1797
g73
(dp1798
sg82
g1783
sg75
(lp1799
g68
(g69
g70
NtRp1800
(dp1801
g73
(dp1802
g81
I4
ssg82
g1796
sg75
(lp1803
S'True'
p1804
asbasbasbag68
(g84
g70
NtRp1805
(dp1806
g73
(dp1807
sg82
g838
sg75
(lp1808
g68
(g89
g70
NtRp1809
(dp1810
g73
(dp1811
g93
g94
ssg82
g1805
sg75
(lp1812
S'wsgi_run_once'
p1813
asbag68
(g89
g70
NtRp1814
(dp1815
g73
(dp1816
g100
g101
ssg82
g1805
sg75
(lp1817
S':'
asbag68
(g89
g70
NtRp1818
(dp1819
g73
(dp1820
sg82
g1805
sg75
(lp1821
g68
(g69
g70
NtRp1822
(dp1823
g73
(dp1824
g81
I4
ssg82
g1818
sg75
(lp1825
g111
asbasbasbag68
(g84
g70
NtRp1826
(dp1827
g73
(dp1828
sg82
g838
sg75
(lp1829
g68
(g89
g70
NtRp1830
(dp1831
g73
(dp1832
g93
g94
ssg82
g1826
sg75
(lp1833
S'wsgi_url_scheme'
p1834
asbag68
(g89
g70
NtRp1835
(dp1836
g73
(dp1837
g100
g101
ssg82
g1826
sg75
(lp1838
S':'
asbag68
(g89
g70
NtRp1839
(dp1840
g73
(dp1841
sg82
g1826
sg75
(lp1842
g68
(g69
g70
NtRp1843
(dp1844
g73
(dp1845
g81
I4
ssg82
g1839
sg75
(lp1846
S'http'
p1847
asbasbasbag68
(g84
g70
NtRp1848
(dp1849
g73
(dp1850
sg82
g838
sg75
(lp1851
g68
(g89
g70
NtRp1852
(dp1853
g73
(dp1854
g93
g94
ssg82
g1848
sg75
(lp1855
S'wsgi_version'
p1856
asbag68
(g89
g70
NtRp1857
(dp1858
g73
(dp1859
g100
g101
ssg82
g1848
sg75
(lp1860
S':'
asbag68
(g89
g70
NtRp1861
(dp1862
g73
(dp1863
sg82
g1848
sg75
(lp1864
g68
(g69
g70
NtRp1865
(dp1866
g73
(dp1867
g81
I4
ssg82
g1861
sg75
(lp1868
g68
(g77
g70
NtRp1869
(dp1870
g73
(dp1871
g81
I3
ssg82
Nsg75
(lp1872
g68
(g84
g70
NtRp1873
(dp1874
g73
(dp1875
sg82
g1869
sg75
(lp1876
g68
(g89
g70
NtRp1877
(dp1878
g73
(dp1879
sg82
g1873
sg75
(lp1880
g68
(g69
g70
NtRp1881
(dp1882
g73
(dp1883
g81
I3
ssg82
g1877
sg75
(lp1884
S'1'
asbasbasbag68
(g84
g70
NtRp1885
(dp1886
g73
(dp1887
sg82
g1869
sg75
(lp1888
g68
(g89
g70
NtRp1889
(dp1890
g73
(dp1891
sg82
g1885
sg75
(lp1892
g68
(g69
g70
NtRp1893
(dp1894
g73
(dp1895
g81
I3
ssg82
g1889
sg75
(lp1896
S'0'
asbasbasbasbasbasbasbasbasbasbasbag68
(g84
g70
NtRp1897
(dp1898
g73
(dp1899
sg82
g78
sg75
(lp1900
g68
(g89
g70
NtRp1901
(dp1902
g73
(dp1903
g93
g94
ssg82
g1897
sg75
(lp1904
S'extension'
p1905
asbag68
(g89
g70
NtRp1906
(dp1907
g73
(dp1908
g100
g101
ssg82
g1897
sg75
(lp1909
S':'
asbag68
(g89
g70
NtRp1910
(dp1911
g73
(dp1912
sg82
g1897
sg75
(lp1913
g68
(g69
g70
NtRp1914
(dp1915
g73
(dp1916
g81
I5
ssg82
g1910
sg75
(lp1917
S'html'
p1918
asbasbasbag68
(g84
g70
NtRp1919
(dp1920
g73
(dp1921
sg82
g78
sg75
(lp1922
g68
(g89
g70
NtRp1923
(dp1924
g73
(dp1925
g93
g94
ssg82
g1919
sg75
(lp1926
S'folder'
p1927
asbag68
(g89
g70
NtRp1928
(dp1929
g73
(dp1930
g100
g101
ssg82
g1919
sg75
(lp1931
S':'
asbag68
(g89
g70
NtRp1932
(dp1933
g73
(dp1934
sg82
g1919
sg75
(lp1935
g68
(g69
g70
NtRp1936
(dp1937
g73
(dp1938
g81
I5
ssg82
g1932
sg75
(lp1939
S'/home/anil/Downloads/web2py/applications/DEV_bootstrap_ch/'
p1940
asbasbasbag68
(g84
g70
NtRp1941
(dp1942
g73
(dp1943
sg82
g78
sg75
(lp1944
g68
(g89
g70
NtRp1945
(dp1946
g73
(dp1947
g93
g94
ssg82
g1941
sg75
(lp1948
S'function'
p1949
asbag68
(g89
g70
NtRp1950
(dp1951
g73
(dp1952
g100
g101
ssg82
g1941
sg75
(lp1953
S':'
asbag68
(g89
g70
NtRp1954
(dp1955
g73
(dp1956
sg82
g1941
sg75
(lp1957
g68
(g69
g70
NtRp1958
(dp1959
g73
(dp1960
g81
I5
ssg82
g1954
sg75
(lp1961
S'insert_spectrophotometry'
p1962
asbasbasbag68
(g84
g70
NtRp1963
(dp1964
g73
(dp1965
sg82
g78
sg75
(lp1966
g68
(g89
g70
NtRp1967
(dp1968
g73
(dp1969
g93
g94
ssg82
g1963
sg75
(lp1970
S'get_vars'
p1971
asbag68
(g89
g70
NtRp1972
(dp1973
g73
(dp1974
g100
g101
ssg82
g1963
sg75
(lp1975
S':'
asbag68
(g89
g70
NtRp1976
(dp1977
g73
(dp1978
sg82
g1963
sg75
(lp1979
g68
(g69
g70
NtRp1980
(dp1981
g73
(dp1982
g81
I5
ssg82
g1976
sg75
(lp1983
g68
(g77
g70
NtRp1984
(dp1985
g73
(dp1986
g81
I4
ssg82
Nsg75
(lp1987
sbasbasbasbag68
(g84
g70
NtRp1988
(dp1989
g73
(dp1990
sg82
g78
sg75
(lp1991
g68
(g89
g70
NtRp1992
(dp1993
g73
(dp1994
g93
g94
ssg82
g1988
sg75
(lp1995
S'global_settings'
p1996
asbag68
(g89
g70
NtRp1997
(dp1998
g73
(dp1999
g100
g101
ssg82
g1988
sg75
(lp2000
S':'
asbag68
(g89
g70
NtRp2001
(dp2002
g73
(dp2003
sg82
g1988
sg75
(lp2004
g68
(g69
g70
NtRp2005
(dp2006
g73
(dp2007
g81
I5
ssg82
g2001
sg75
(lp2008
g68
(g77
g70
NtRp2009
(dp2010
g73
(dp2011
g81
I4
ssg82
Nsg75
(lp2012
g68
(g84
g70
NtRp2013
(dp2014
g73
(dp2015
sg82
g2009
sg75
(lp2016
g68
(g89
g70
NtRp2017
(dp2018
g73
(dp2019
g93
g94
ssg82
g2013
sg75
(lp2020
g850
asbag68
(g89
g70
NtRp2021
(dp2022
g73
(dp2023
g100
g101
ssg82
g2013
sg75
(lp2024
S':'
asbag68
(g89
g70
NtRp2025
(dp2026
g73
(dp2027
sg82
g2013
sg75
(lp2028
g68
(g69
g70
NtRp2029
(dp2030
g73
(dp2031
g81
I4
ssg82
g2025
sg75
(lp2032
S"set(['/home/anil/Downloads/web2py/applications/DEV_bootstrap_ch/', '/home/anil/Downloads/web2py/applications/admin/'])"
p2033
asbasbasbag68
(g84
g70
NtRp2034
(dp2035
g73
(dp2036
sg82
g2009
sg75
(lp2037
g68
(g89
g70
NtRp2038
(dp2039
g73
(dp2040
g93
g94
ssg82
g2034
sg75
(lp2041
g872
asbag68
(g89
g70
NtRp2042
(dp2043
g73
(dp2044
g100
g101
ssg82
g2034
sg75
(lp2045
S':'
asbag68
(g89
g70
NtRp2046
(dp2047
g73
(dp2048
sg82
g2034
sg75
(lp2049
g68
(g69
g70
NtRp2050
(dp2051
g73
(dp2052
g81
I4
ssg82
g2046
sg75
(lp2053
g885
asbasbasbag68
(g84
g70
NtRp2054
(dp2055
g73
(dp2056
sg82
g2009
sg75
(lp2057
g68
(g89
g70
NtRp2058
(dp2059
g73
(dp2060
g93
g94
ssg82
g2054
sg75
(lp2061
g894
asbag68
(g89
g70
NtRp2062
(dp2063
g73
(dp2064
g100
g101
ssg82
g2054
sg75
(lp2065
S':'
asbag68
(g89
g70
NtRp2066
(dp2067
g73
(dp2068
sg82
g2054
sg75
(lp2069
g68
(g69
g70
NtRp2070
(dp2071
g73
(dp2072
g81
I4
ssg82
g2066
sg75
(lp2073
g68
(g77
g70
NtRp2074
(dp2075
g73
(dp2076
g81
I3
ssg82
Nsg75
(lp2077
sbasbasbasbag68
(g84
g70
NtRp2078
(dp2079
g73
(dp2080
sg82
g2009
sg75
(lp2081
g68
(g89
g70
NtRp2082
(dp2083
g73
(dp2084
g93
g94
ssg82
g2078
sg75
(lp2085
g919
asbag68
(g89
g70
NtRp2086
(dp2087
g73
(dp2088
g100
g101
ssg82
g2078
sg75
(lp2089
S':'
asbag68
(g89
g70
NtRp2090
(dp2091
g73
(dp2092
sg82
g2078
sg75
(lp2093
g68
(g69
g70
NtRp2094
(dp2095
g73
(dp2096
g81
I4
ssg82
g2090
sg75
(lp2097
S"<Values at 0x8c650cc: {'verbose': False, 'ip': '127.0.0.1', 'with_scheduler': False, 'ips': [], 'shutdown_timeout': 5, 'taskbar': False, 'port': 8000, 'maxthreads': None, 'softcron': False, 'server_name': 'anil-Inspiron-1525', 'bpython': False, 'nogui': False, 'pid_filename': 'httpserver.pid', 'extcron': False, 'runcron': False, 'run_system_tests': False, 'test': None, 'folder': '/home/anil/Downloads/web2py', 'config': '', 'import_models': False, 'winservice': '', 'shell': None, 'run': '', 'log_filename': 'httpserver.log', 'debuglevel': 30, 'args': [''], 'socket_timeout': 5, 'ssl_ca_certificate': None, 'scheduler': None, 'profiler_filename': None, 'ssl_private_key': '', 'scheduler_groups': None, 'password': '123', 'request_queue_size': 5, 'ssl_certificate': '', 'cronjob': False, 'numthreads': None, 'quiet': False, 'interfaces': None, 'minthreads': None, 'timeout': 10, 'plain': False, 'nobanner': False}>"
p2098
asbasbasbag68
(g84
g70
NtRp2099
(dp2100
g73
(dp2101
sg82
g2009
sg75
(lp2102
g68
(g89
g70
NtRp2103
(dp2104
g73
(dp2105
g93
g94
ssg82
g2099
sg75
(lp2106
g941
asbag68
(g89
g70
NtRp2107
(dp2108
g73
(dp2109
g100
g101
ssg82
g2099
sg75
(lp2110
S':'
asbag68
(g89
g70
NtRp2111
(dp2112
g73
(dp2113
sg82
g2099
sg75
(lp2114
g68
(g69
g70
NtRp2115
(dp2116
g73
(dp2117
g81
I4
ssg82
g2111
sg75
(lp2118
S'set([])'
p2119
asbasbasbag68
(g84
g70
NtRp2120
(dp2121
g73
(dp2122
sg82
g2009
sg75
(lp2123
g68
(g89
g70
NtRp2124
(dp2125
g73
(dp2126
g93
g94
ssg82
g2120
sg75
(lp2127
g963
asbag68
(g89
g70
NtRp2128
(dp2129
g73
(dp2130
g100
g101
ssg82
g2120
sg75
(lp2131
S':'
asbag68
(g89
g70
NtRp2132
(dp2133
g73
(dp2134
sg82
g2120
sg75
(lp2135
g68
(g69
g70
NtRp2136
(dp2137
g73
(dp2138
g81
I4
ssg82
g2132
sg75
(lp2139
g111
asbasbasbag68
(g84
g70
NtRp2140
(dp2141
g73
(dp2142
sg82
g2009
sg75
(lp2143
g68
(g89
g70
NtRp2144
(dp2145
g73
(dp2146
g93
g94
ssg82
g2140
sg75
(lp2147
g984
asbag68
(g89
g70
NtRp2148
(dp2149
g73
(dp2150
g100
g101
ssg82
g2140
sg75
(lp2151
S':'
asbag68
(g89
g70
NtRp2152
(dp2153
g73
(dp2154
sg82
g2140
sg75
(lp2155
g68
(g69
g70
NtRp2156
(dp2157
g73
(dp2158
g81
I4
ssg82
g2152
sg75
(lp2159
g997
asbasbasbag68
(g84
g70
NtRp2160
(dp2161
g73
(dp2162
sg82
g2009
sg75
(lp2163
g68
(g89
g70
NtRp2164
(dp2165
g73
(dp2166
g93
g94
ssg82
g2160
sg75
(lp2167
g1226
asbag68
(g89
g70
NtRp2168
(dp2169
g73
(dp2170
g100
g101
ssg82
g2160
sg75
(lp2171
S':'
asbag68
(g89
g70
NtRp2172
(dp2173
g73
(dp2174
sg82
g2160
sg75
(lp2175
g68
(g69
g70
NtRp2176
(dp2177
g73
(dp2178
g81
I4
ssg82
g2172
sg75
(lp2179
g111
asbasbasbag68
(g84
g70
NtRp2180
(dp2181
g73
(dp2182
sg82
g2009
sg75
(lp2183
g68
(g89
g70
NtRp2184
(dp2185
g73
(dp2186
g93
g94
ssg82
g2180
sg75
(lp2187
g1247
asbag68
(g89
g70
NtRp2188
(dp2189
g73
(dp2190
g100
g101
ssg82
g2180
sg75
(lp2191
S':'
asbag68
(g89
g70
NtRp2192
(dp2193
g73
(dp2194
sg82
g2180
sg75
(lp2195
g68
(g69
g70
NtRp2196
(dp2197
g73
(dp2198
g81
I4
ssg82
g2192
sg75
(lp2199
g111
asbasbasbag68
(g84
g70
NtRp2200
(dp2201
g73
(dp2202
sg82
g2009
sg75
(lp2203
g68
(g89
g70
NtRp2204
(dp2205
g73
(dp2206
g93
g94
ssg82
g2200
sg75
(lp2207
g1268
asbag68
(g89
g70
NtRp2208
(dp2209
g73
(dp2210
g100
g101
ssg82
g2200
sg75
(lp2211
S':'
asbag68
(g89
g70
NtRp2212
(dp2213
g73
(dp2214
sg82
g2200
sg75
(lp2215
g68
(g69
g70
NtRp2216
(dp2217
g73
(dp2218
g81
I4
ssg82
g2212
sg75
(lp2219
g68
(g77
g70
NtRp2220
(dp2221
g73
(dp2222
g81
I3
ssg82
Nsg75
(lp2223
g68
(g84
g70
NtRp2224
(dp2225
g73
(dp2226
sg82
g2220
sg75
(lp2227
g68
(g89
g70
NtRp2228
(dp2229
g73
(dp2230
sg82
g2224
sg75
(lp2231
g68
(g69
g70
NtRp2232
(dp2233
g73
(dp2234
g81
I3
ssg82
g2228
sg75
(lp2235
g1297
asbasbasbag68
(g84
g70
NtRp2236
(dp2237
g73
(dp2238
sg82
g2220
sg75
(lp2239
g68
(g89
g70
NtRp2240
(dp2241
g73
(dp2242
sg82
g2236
sg75
(lp2243
g68
(g69
g70
NtRp2244
(dp2245
g73
(dp2246
g81
I3
ssg82
g2240
sg75
(lp2247
g1310
asbasbasbag68
(g84
g70
NtRp2248
(dp2249
g73
(dp2250
sg82
g2220
sg75
(lp2251
g68
(g89
g70
NtRp2252
(dp2253
g73
(dp2254
sg82
g2248
sg75
(lp2255
g68
(g69
g70
NtRp2256
(dp2257
g73
(dp2258
g81
I3
ssg82
g2252
sg75
(lp2259
g1323
asbasbasbag68
(g84
g70
NtRp2260
(dp2261
g73
(dp2262
sg82
g2220
sg75
(lp2263
g68
(g89
g70
NtRp2264
(dp2265
g73
(dp2266
sg82
g2260
sg75
(lp2267
g68
(g69
g70
NtRp2268
(dp2269
g73
(dp2270
g81
I3
ssg82
g2264
sg75
(lp2271
g1336
asbasbasbag68
(g84
g70
NtRp2272
(dp2273
g73
(dp2274
sg82
g2220
sg75
(lp2275
g68
(g89
g70
NtRp2276
(dp2277
g73
(dp2278
sg82
g2272
sg75
(lp2279
g68
(g69
g70
NtRp2280
(dp2281
g73
(dp2282
g81
I3
ssg82
g2276
sg75
(lp2283
g1349
asbasbasbasbasbasbasbag68
(g84
g70
NtRp2284
(dp2285
g73
(dp2286
sg82
g2009
sg75
(lp2287
g68
(g89
g70
NtRp2288
(dp2289
g73
(dp2290
g93
g94
ssg82
g2284
sg75
(lp2291
g1617
asbag68
(g89
g70
NtRp2292
(dp2293
g73
(dp2294
g100
g101
ssg82
g2284
sg75
(lp2295
S':'
asbag68
(g89
g70
NtRp2296
(dp2297
g73
(dp2298
sg82
g2284
sg75
(lp2299
g68
(g69
g70
NtRp2300
(dp2301
g73
(dp2302
g81
I4
ssg82
g2296
sg75
(lp2303
g68
(g77
g70
NtRp2304
(dp2305
g73
(dp2306
g81
I3
ssg82
Nsg75
(lp2307
g68
(g84
g70
NtRp2308
(dp2309
g73
(dp2310
sg82
g2304
sg75
(lp2311
g68
(g89
g70
NtRp2312
(dp2313
g73
(dp2314
sg82
g2308
sg75
(lp2315
g68
(g69
g70
NtRp2316
(dp2317
g73
(dp2318
g81
I3
ssg82
g2312
sg75
(lp2319
S'2'
asbasbasbag68
(g84
g70
NtRp2320
(dp2321
g73
(dp2322
sg82
g2304
sg75
(lp2323
g68
(g89
g70
NtRp2324
(dp2325
g73
(dp2326
sg82
g2320
sg75
(lp2327
g68
(g69
g70
NtRp2328
(dp2329
g73
(dp2330
g81
I3
ssg82
g2324
sg75
(lp2331
S'3'
asbasbasbag68
(g84
g70
NtRp2332
(dp2333
g73
(dp2334
sg82
g2304
sg75
(lp2335
g68
(g89
g70
NtRp2336
(dp2337
g73
(dp2338
sg82
g2332
sg75
(lp2339
g68
(g69
g70
NtRp2340
(dp2341
g73
(dp2342
g81
I3
ssg82
g2336
sg75
(lp2343
S'2'
asbasbasbag68
(g84
g70
NtRp2344
(dp2345
g73
(dp2346
sg82
g2304
sg75
(lp2347
g68
(g89
g70
NtRp2348
(dp2349
g73
(dp2350
sg82
g2344
sg75
(lp2351
g68
(g69
g70
NtRp2352
(dp2353
g73
(dp2354
g81
I3
ssg82
g2348
sg75
(lp2355
S'datetime.datetime(2012, 12, 17, 15, 3, 30)'
p2356
asbasbasbag68
(g84
g70
NtRp2357
(dp2358
g73
(dp2359
sg82
g2304
sg75
(lp2360
g68
(g89
g70
NtRp2361
(dp2362
g73
(dp2363
sg82
g2357
sg75
(lp2364
g68
(g69
g70
NtRp2365
(dp2366
g73
(dp2367
g81
I3
ssg82
g2361
sg75
(lp2368
g1695
asbasbasbasbasbasbasbasbasbasbasbag68
(g84
g70
NtRp2369
(dp2370
g73
(dp2371
sg82
g78
sg75
(lp2372
g68
(g89
g70
NtRp2373
(dp2374
g73
(dp2375
g93
g94
ssg82
g2369
sg75
(lp2376
S'is_https'
p2377
asbag68
(g89
g70
NtRp2378
(dp2379
g73
(dp2380
g100
g101
ssg82
g2369
sg75
(lp2381
S':'
asbag68
(g89
g70
NtRp2382
(dp2383
g73
(dp2384
sg82
g2369
sg75
(lp2385
g68
(g69
g70
NtRp2386
(dp2387
g73
(dp2388
g81
I5
ssg82
g2382
sg75
(lp2389
g111
asbasbasbag68
(g84
g70
NtRp2390
(dp2391
g73
(dp2392
sg82
g78
sg75
(lp2393
g68
(g89
g70
NtRp2394
(dp2395
g73
(dp2396
g93
g94
ssg82
g2390
sg75
(lp2397
S'is_local'
p2398
asbag68
(g89
g70
NtRp2399
(dp2400
g73
(dp2401
g100
g101
ssg82
g2390
sg75
(lp2402
S':'
asbag68
(g89
g70
NtRp2403
(dp2404
g73
(dp2405
sg82
g2390
sg75
(lp2406
g68
(g69
g70
NtRp2407
(dp2408
g73
(dp2409
g81
I5
ssg82
g2403
sg75
(lp2410
g1804
asbasbasbag68
(g84
g70
NtRp2411
(dp2412
g73
(dp2413
sg82
g78
sg75
(lp2414
g68
(g89
g70
NtRp2415
(dp2416
g73
(dp2417
g93
g94
ssg82
g2411
sg75
(lp2418
S'is_restful'
p2419
asbag68
(g89
g70
NtRp2420
(dp2421
g73
(dp2422
g100
g101
ssg82
g2411
sg75
(lp2423
S':'
asbag68
(g89
g70
NtRp2424
(dp2425
g73
(dp2426
sg82
g2411
sg75
(lp2427
g68
(g69
g70
NtRp2428
(dp2429
g73
(dp2430
g81
I5
ssg82
g2424
sg75
(lp2431
g111
asbasbasbag68
(g84
g70
NtRp2432
(dp2433
g73
(dp2434
sg82
g78
sg75
(lp2435
g68
(g89
g70
NtRp2436
(dp2437
g73
(dp2438
g93
g94
ssg82
g2432
sg75
(lp2439
S'now'
p2440
asbag68
(g89
g70
NtRp2441
(dp2442
g73
(dp2443
g100
g101
ssg82
g2432
sg75
(lp2444
S':'
asbag68
(g89
g70
NtRp2445
(dp2446
g73
(dp2447
sg82
g2432
sg75
(lp2448
g68
(g69
g70
NtRp2449
(dp2450
g73
(dp2451
g81
I5
ssg82
g2445
sg75
(lp2452
S'datetime.datetime(2013, 3, 9, 10, 35, 7, 694115)'
p2453
asbasbasbag68
(g84
g70
NtRp2454
(dp2455
g73
(dp2456
sg82
g78
sg75
(lp2457
g68
(g89
g70
NtRp2458
(dp2459
g73
(dp2460
g93
g94
ssg82
g2454
sg75
(lp2461
S'post_vars'
p2462
asbag68
(g89
g70
NtRp2463
(dp2464
g73
(dp2465
g100
g101
ssg82
g2454
sg75
(lp2466
S':'
asbag68
(g89
g70
NtRp2467
(dp2468
g73
(dp2469
sg82
g2454
sg75
(lp2470
g68
(g69
g70
NtRp2471
(dp2472
g73
(dp2473
g81
I5
ssg82
g2467
sg75
(lp2474
g68
(g77
g70
NtRp2475
(dp2476
g73
(dp2477
g81
I4
ssg82
Nsg75
(lp2478
sbasbasbasbag68
(g84
g70
NtRp2479
(dp2480
g73
(dp2481
sg82
g78
sg75
(lp2482
g68
(g89
g70
NtRp2483
(dp2484
g73
(dp2485
g93
g94
ssg82
g2479
sg75
(lp2486
S'raw_args'
p2487
asbag68
(g89
g70
NtRp2488
(dp2489
g73
(dp2490
g100
g101
ssg82
g2479
sg75
(lp2491
S':'
asbag68
(g89
g70
NtRp2492
(dp2493
g73
(dp2494
sg82
g2479
sg75
(lp2495
g68
(g69
g70
NtRp2496
(dp2497
g73
(dp2498
g81
I5
ssg82
g2492
sg75
(lp2499
S'project/experiment.project/1/sample.experiment/1/spectrophotometry.sample_name/1/new/spectrophotometry/clear/clear/clear/clear'
p2500
asbasbasbag68
(g84
g70
NtRp2501
(dp2502
g73
(dp2503
sg82
g78
sg75
(lp2504
g68
(g89
g70
NtRp2505
(dp2506
g73
(dp2507
g93
g94
ssg82
g2501
sg75
(lp2508
S'raw_extension'
p2509
asbag68
(g89
g70
NtRp2510
(dp2511
g73
(dp2512
g100
g101
ssg82
g2501
sg75
(lp2513
S':'
asbag68
(g89
g70
NtRp2514
(dp2515
g73
(dp2516
sg82
g2501
sg75
(lp2517
g68
(g69
g70
NtRp2518
(dp2519
g73
(dp2520
g81
I5
ssg82
g2514
sg75
(lp2521
S'None'
p2522
asbasbasbag68
(g84
g70
NtRp2523
(dp2524
g73
(dp2525
sg82
g78
sg75
(lp2526
g68
(g89
g70
NtRp2527
(dp2528
g73
(dp2529
g93
g94
ssg82
g2523
sg75
(lp2530
S'url'
p2531
asbag68
(g89
g70
NtRp2532
(dp2533
g73
(dp2534
g100
g101
ssg82
g2523
sg75
(lp2535
S':'
asbag68
(g89
g70
NtRp2536
(dp2537
g73
(dp2538
sg82
g2523
sg75
(lp2539
g68
(g69
g70
NtRp2540
(dp2541
g73
(dp2542
g81
I5
ssg82
g2536
sg75
(lp2543
g1371
asbasbasbag68
(g84
g70
NtRp2544
(dp2545
g73
(dp2546
sg82
g78
sg75
(lp2547
g68
(g89
g70
NtRp2548
(dp2549
g73
(dp2550
g93
g94
ssg82
g2544
sg75
(lp2551
S'utcnow'
p2552
asbag68
(g89
g70
NtRp2553
(dp2554
g73
(dp2555
g100
g101
ssg82
g2544
sg75
(lp2556
S':'
asbag68
(g89
g70
NtRp2557
(dp2558
g73
(dp2559
sg82
g2544
sg75
(lp2560
g68
(g69
g70
NtRp2561
(dp2562
g73
(dp2563
g81
I5
ssg82
g2557
sg75
(lp2564
S'datetime.datetime(2013, 3, 9, 5, 5, 7, 694162)'
p2565
asbasbasbag68
(g84
g70
NtRp2566
(dp2567
g73
(dp2568
sg82
g78
sg75
(lp2569
g68
(g89
g70
NtRp2570
(dp2571
g73
(dp2572
g93
g94
ssg82
g2566
sg75
(lp2573
S'uuid'
p2574
asbag68
(g89
g70
NtRp2575
(dp2576
g73
(dp2577
g100
g101
ssg82
g2566
sg75
(lp2578
S':'
asbag68
(g89
g70
NtRp2579
(dp2580
g73
(dp2581
sg82
g2566
sg75
(lp2582
g68
(g69
g70
NtRp2583
(dp2584
g73
(dp2585
g81
I5
ssg82
g2579
sg75
(lp2586
S'DEV_bootstrap_ch/127.0.0.1.2013-03-09.10-35-07.34523e83-0bbf-4a31-b987-490aa001b7b9'
p2587
asbasbasbag68
(g84
g70
NtRp2588
(dp2589
g73
(dp2590
sg82
g78
sg75
(lp2591
g68
(g89
g70
NtRp2592
(dp2593
g73
(dp2594
g93
g94
ssg82
g2588
sg75
(lp2595
S'vars'
p2596
asbag68
(g89
g70
NtRp2597
(dp2598
g73
(dp2599
g100
g101
ssg82
g2588
sg75
(lp2600
S':'
asbag68
(g89
g70
NtRp2601
(dp2602
g73
(dp2603
sg82
g2588
sg75
(lp2604
g68
(g69
g70
NtRp2605
(dp2606
g73
(dp2607
g81
I5
ssg82
g2601
sg75
(lp2608
g68
(g77
g70
NtRp2609
(dp2610
g73
(dp2611
g81
I4
ssg82
Nsg75
(lp2612
sbasbasbasbag68
(g84
g70
NtRp2613
(dp2614
g73
(dp2615
sg82
g78
sg75
(lp2616
g68
(g89
g70
NtRp2617
(dp2618
g73
(dp2619
g93
g94
ssg82
g2613
sg75
(lp2620
S'wsgi'
p2621
asbag68
(g89
g70
NtRp2622
(dp2623
g73
(dp2624
g100
g101
ssg82
g2613
sg75
(lp2625
S':'
asbag68
(g89
g70
NtRp2626
(dp2627
g73
(dp2628
sg82
g2613
sg75
(lp2629
g68
(g69
g70
NtRp2630
(dp2631
g73
(dp2632
g81
I5
ssg82
g2626
sg75
(lp2633
g68
(g77
g70
NtRp2634
(dp2635
g73
(dp2636
g81
I4
ssg82
Nsg75
(lp2637
g68
(g84
g70
NtRp2638
(dp2639
g73
(dp2640
sg82
g2634
sg75
(lp2641
g68
(g89
g70
NtRp2642
(dp2643
g73
(dp2644
g93
g94
ssg82
g2638
sg75
(lp2645
S'environ'
p2646
asbag68
(g89
g70
NtRp2647
(dp2648
g73
(dp2649
g100
g101
ssg82
g2638
sg75
(lp2650
S':'
asbag68
(g89
g70
NtRp2651
(dp2652
g73
(dp2653
sg82
g2638
sg75
(lp2654
g68
(g69
g70
NtRp2655
(dp2656
g73
(dp2657
g81
I4
ssg82
g2651
sg75
(lp2658
g68
(g77
g70
NtRp2659
(dp2660
g73
(dp2661
g81
I3
ssg82
Nsg75
(lp2662
g68
(g84
g70
NtRp2663
(dp2664
g73
(dp2665
sg82
g2659
sg75
(lp2666
g68
(g89
g70
NtRp2667
(dp2668
g73
(dp2669
g93
g94
ssg82
g2663
sg75
(lp2670
S'HTTP_ACCEPT'
p2671
asbag68
(g89
g70
NtRp2672
(dp2673
g73
(dp2674
g100
g101
ssg82
g2663
sg75
(lp2675
S':'
asbag68
(g89
g70
NtRp2676
(dp2677
g73
(dp2678
sg82
g2663
sg75
(lp2679
g68
(g69
g70
NtRp2680
(dp2681
g73
(dp2682
g81
I3
ssg82
g2676
sg75
(lp2683
g1019
asbasbasbag68
(g84
g70
NtRp2684
(dp2685
g73
(dp2686
sg82
g2659
sg75
(lp2687
g68
(g89
g70
NtRp2688
(dp2689
g73
(dp2690
g93
g94
ssg82
g2684
sg75
(lp2691
S'HTTP_ACCEPT_CHARSET'
p2692
asbag68
(g89
g70
NtRp2693
(dp2694
g73
(dp2695
g100
g101
ssg82
g2684
sg75
(lp2696
S':'
asbag68
(g89
g70
NtRp2697
(dp2698
g73
(dp2699
sg82
g2684
sg75
(lp2700
g68
(g69
g70
NtRp2701
(dp2702
g73
(dp2703
g81
I3
ssg82
g2697
sg75
(lp2704
g1041
asbasbasbag68
(g84
g70
NtRp2705
(dp2706
g73
(dp2707
sg82
g2659
sg75
(lp2708
g68
(g89
g70
NtRp2709
(dp2710
g73
(dp2711
g93
g94
ssg82
g2705
sg75
(lp2712
S'HTTP_ACCEPT_ENCODING'
p2713
asbag68
(g89
g70
NtRp2714
(dp2715
g73
(dp2716
g100
g101
ssg82
g2705
sg75
(lp2717
S':'
asbag68
(g89
g70
NtRp2718
(dp2719
g73
(dp2720
sg82
g2705
sg75
(lp2721
g68
(g69
g70
NtRp2722
(dp2723
g73
(dp2724
g81
I3
ssg82
g2718
sg75
(lp2725
g1063
asbasbasbag68
(g84
g70
NtRp2726
(dp2727
g73
(dp2728
sg82
g2659
sg75
(lp2729
g68
(g89
g70
NtRp2730
(dp2731
g73
(dp2732
g93
g94
ssg82
g2726
sg75
(lp2733
S'HTTP_ACCEPT_LANGUAGE'
p2734
asbag68
(g89
g70
NtRp2735
(dp2736
g73
(dp2737
g100
g101
ssg82
g2726
sg75
(lp2738
S':'
asbag68
(g89
g70
NtRp2739
(dp2740
g73
(dp2741
sg82
g2726
sg75
(lp2742
g68
(g69
g70
NtRp2743
(dp2744
g73
(dp2745
g81
I3
ssg82
g2739
sg75
(lp2746
g1085
asbasbasbag68
(g84
g70
NtRp2747
(dp2748
g73
(dp2749
sg82
g2659
sg75
(lp2750
g68
(g89
g70
NtRp2751
(dp2752
g73
(dp2753
g93
g94
ssg82
g2747
sg75
(lp2754
S'HTTP_CACHE_CONTROL'
p2755
asbag68
(g89
g70
NtRp2756
(dp2757
g73
(dp2758
g100
g101
ssg82
g2747
sg75
(lp2759
S':'
asbag68
(g89
g70
NtRp2760
(dp2761
g73
(dp2762
sg82
g2747
sg75
(lp2763
g68
(g69
g70
NtRp2764
(dp2765
g73
(dp2766
g81
I3
ssg82
g2760
sg75
(lp2767
g1107
asbasbasbag68
(g84
g70
NtRp2768
(dp2769
g73
(dp2770
sg82
g2659
sg75
(lp2771
g68
(g89
g70
NtRp2772
(dp2773
g73
(dp2774
g93
g94
ssg82
g2768
sg75
(lp2775
S'HTTP_CONNECTION'
p2776
asbag68
(g89
g70
NtRp2777
(dp2778
g73
(dp2779
g100
g101
ssg82
g2768
sg75
(lp2780
S':'
asbag68
(g89
g70
NtRp2781
(dp2782
g73
(dp2783
sg82
g2768
sg75
(lp2784
g68
(g69
g70
NtRp2785
(dp2786
g73
(dp2787
g81
I3
ssg82
g2781
sg75
(lp2788
g1129
asbasbasbag68
(g84
g70
NtRp2789
(dp2790
g73
(dp2791
sg82
g2659
sg75
(lp2792
g68
(g89
g70
NtRp2793
(dp2794
g73
(dp2795
g93
g94
ssg82
g2789
sg75
(lp2796
S'HTTP_COOKIE'
p2797
asbag68
(g89
g70
NtRp2798
(dp2799
g73
(dp2800
g100
g101
ssg82
g2789
sg75
(lp2801
S':'
asbag68
(g89
g70
NtRp2802
(dp2803
g73
(dp2804
sg82
g2789
sg75
(lp2805
g68
(g69
g70
NtRp2806
(dp2807
g73
(dp2808
g81
I3
ssg82
g2802
sg75
(lp2809
g1151
asbasbasbag68
(g84
g70
NtRp2810
(dp2811
g73
(dp2812
sg82
g2659
sg75
(lp2813
g68
(g89
g70
NtRp2814
(dp2815
g73
(dp2816
g93
g94
ssg82
g2810
sg75
(lp2817
S'HTTP_HOST'
p2818
asbag68
(g89
g70
NtRp2819
(dp2820
g73
(dp2821
g100
g101
ssg82
g2810
sg75
(lp2822
S':'
asbag68
(g89
g70
NtRp2823
(dp2824
g73
(dp2825
sg82
g2810
sg75
(lp2826
g68
(g69
g70
NtRp2827
(dp2828
g73
(dp2829
g81
I3
ssg82
g2823
sg75
(lp2830
g1173
asbasbasbag68
(g84
g70
NtRp2831
(dp2832
g73
(dp2833
sg82
g2659
sg75
(lp2834
g68
(g89
g70
NtRp2835
(dp2836
g73
(dp2837
g93
g94
ssg82
g2831
sg75
(lp2838
S'HTTP_REFERER'
p2839
asbag68
(g89
g70
NtRp2840
(dp2841
g73
(dp2842
g100
g101
ssg82
g2831
sg75
(lp2843
S':'
asbag68
(g89
g70
NtRp2844
(dp2845
g73
(dp2846
sg82
g2831
sg75
(lp2847
g68
(g69
g70
NtRp2848
(dp2849
g73
(dp2850
g81
I3
ssg82
g2844
sg75
(lp2851
g1195
asbasbasbag68
(g84
g70
NtRp2852
(dp2853
g73
(dp2854
sg82
g2659
sg75
(lp2855
g68
(g89
g70
NtRp2856
(dp2857
g73
(dp2858
g93
g94
ssg82
g2852
sg75
(lp2859
S'HTTP_USER_AGENT'
p2860
asbag68
(g89
g70
NtRp2861
(dp2862
g73
(dp2863
g100
g101
ssg82
g2852
sg75
(lp2864
S':'
asbag68
(g89
g70
NtRp2865
(dp2866
g73
(dp2867
sg82
g2852
sg75
(lp2868
g68
(g69
g70
NtRp2869
(dp2870
g73
(dp2871
g81
I3
ssg82
g2865
sg75
(lp2872
g1217
asbasbasbag68
(g84
g70
NtRp2873
(dp2874
g73
(dp2875
sg82
g2659
sg75
(lp2876
g68
(g89
g70
NtRp2877
(dp2878
g73
(dp2879
g93
g94
ssg82
g2873
sg75
(lp2880
S'PATH_INFO'
p2881
asbag68
(g89
g70
NtRp2882
(dp2883
g73
(dp2884
g100
g101
ssg82
g2873
sg75
(lp2885
S':'
asbag68
(g89
g70
NtRp2886
(dp2887
g73
(dp2888
sg82
g2873
sg75
(lp2889
g68
(g69
g70
NtRp2890
(dp2891
g73
(dp2892
g81
I3
ssg82
g2886
sg75
(lp2893
g1371
asbasbasbag68
(g84
g70
NtRp2894
(dp2895
g73
(dp2896
sg82
g2659
sg75
(lp2897
g68
(g89
g70
NtRp2898
(dp2899
g73
(dp2900
g93
g94
ssg82
g2894
sg75
(lp2901
S'QUERY_STRING'
p2902
asbag68
(g89
g70
NtRp2903
(dp2904
g73
(dp2905
g100
g101
ssg82
g2894
sg75
(lp2906
S':'
asbag68
(g89
g70
NtRp2907
(dp2908
g73
(dp2909
sg82
g2894
sg75
(lp2910
g68
(g69
g70
NtRp2911
(dp2912
g73
(dp2913
g81
I3
ssg82
g2907
sg75
(lp2914
S''
asbasbasbag68
(g84
g70
NtRp2915
(dp2916
g73
(dp2917
sg82
g2659
sg75
(lp2918
g68
(g89
g70
NtRp2919
(dp2920
g73
(dp2921
g93
g94
ssg82
g2915
sg75
(lp2922
S'REMOTE_ADDR'
p2923
asbag68
(g89
g70
NtRp2924
(dp2925
g73
(dp2926
g100
g101
ssg82
g2915
sg75
(lp2927
S':'
asbag68
(g89
g70
NtRp2928
(dp2929
g73
(dp2930
sg82
g2915
sg75
(lp2931
g68
(g69
g70
NtRp2932
(dp2933
g73
(dp2934
g81
I3
ssg82
g2928
sg75
(lp2935
g389
asbasbasbag68
(g84
g70
NtRp2936
(dp2937
g73
(dp2938
sg82
g2659
sg75
(lp2939
g68
(g89
g70
NtRp2940
(dp2941
g73
(dp2942
g93
g94
ssg82
g2936
sg75
(lp2943
S'REMOTE_PORT'
p2944
asbag68
(g89
g70
NtRp2945
(dp2946
g73
(dp2947
g100
g101
ssg82
g2936
sg75
(lp2948
S':'
asbag68
(g89
g70
NtRp2949
(dp2950
g73
(dp2951
sg82
g2936
sg75
(lp2952
g68
(g69
g70
NtRp2953
(dp2954
g73
(dp2955
g81
I3
ssg82
g2949
sg75
(lp2956
g1435
asbasbasbag68
(g84
g70
NtRp2957
(dp2958
g73
(dp2959
sg82
g2659
sg75
(lp2960
g68
(g89
g70
NtRp2961
(dp2962
g73
(dp2963
g93
g94
ssg82
g2957
sg75
(lp2964
S'REQUEST_METHOD'
p2965
asbag68
(g89
g70
NtRp2966
(dp2967
g73
(dp2968
g100
g101
ssg82
g2957
sg75
(lp2969
S':'
asbag68
(g89
g70
NtRp2970
(dp2971
g73
(dp2972
sg82
g2957
sg75
(lp2973
g68
(g69
g70
NtRp2974
(dp2975
g73
(dp2976
g81
I3
ssg82
g2970
sg75
(lp2977
g1457
asbasbasbag68
(g84
g70
NtRp2978
(dp2979
g73
(dp2980
sg82
g2659
sg75
(lp2981
g68
(g89
g70
NtRp2982
(dp2983
g73
(dp2984
g93
g94
ssg82
g2978
sg75
(lp2985
S'REQUEST_URI'
p2986
asbag68
(g89
g70
NtRp2987
(dp2988
g73
(dp2989
g100
g101
ssg82
g2978
sg75
(lp2990
S':'
asbag68
(g89
g70
NtRp2991
(dp2992
g73
(dp2993
sg82
g2978
sg75
(lp2994
g68
(g69
g70
NtRp2995
(dp2996
g73
(dp2997
g81
I3
ssg82
g2991
sg75
(lp2998
g1371
asbasbasbag68
(g84
g70
NtRp2999
(dp3000
g73
(dp3001
sg82
g2659
sg75
(lp3002
g68
(g89
g70
NtRp3003
(dp3004
g73
(dp3005
g93
g94
ssg82
g2999
sg75
(lp3006
S'SCRIPT_NAME'
p3007
asbag68
(g89
g70
NtRp3008
(dp3009
g73
(dp3010
g100
g101
ssg82
g2999
sg75
(lp3011
S':'
asbag68
(g89
g70
NtRp3012
(dp3013
g73
(dp3014
sg82
g2999
sg75
(lp3015
g68
(g69
g70
NtRp3016
(dp3017
g73
(dp3018
g81
I3
ssg82
g3012
sg75
(lp3019
S''
asbasbasbag68
(g84
g70
NtRp3020
(dp3021
g73
(dp3022
sg82
g2659
sg75
(lp3023
g68
(g89
g70
NtRp3024
(dp3025
g73
(dp3026
g93
g94
ssg82
g3020
sg75
(lp3027
S'SERVER_NAME'
p3028
asbag68
(g89
g70
NtRp3029
(dp3030
g73
(dp3031
g100
g101
ssg82
g3020
sg75
(lp3032
S':'
asbag68
(g89
g70
NtRp3033
(dp3034
g73
(dp3035
sg82
g3020
sg75
(lp3036
g68
(g69
g70
NtRp3037
(dp3038
g73
(dp3039
g81
I3
ssg82
g3033
sg75
(lp3040
g1521
asbasbasbag68
(g84
g70
NtRp3041
(dp3042
g73
(dp3043
sg82
g2659
sg75
(lp3044
g68
(g89
g70
NtRp3045
(dp3046
g73
(dp3047
g93
g94
ssg82
g3041
sg75
(lp3048
S'SERVER_PORT'
p3049
asbag68
(g89
g70
NtRp3050
(dp3051
g73
(dp3052
g100
g101
ssg82
g3041
sg75
(lp3053
S':'
asbag68
(g89
g70
NtRp3054
(dp3055
g73
(dp3056
sg82
g3041
sg75
(lp3057
g68
(g69
g70
NtRp3058
(dp3059
g73
(dp3060
g81
I3
ssg82
g3054
sg75
(lp3061
g1543
asbasbasbag68
(g84
g70
NtRp3062
(dp3063
g73
(dp3064
sg82
g2659
sg75
(lp3065
g68
(g89
g70
NtRp3066
(dp3067
g73
(dp3068
g93
g94
ssg82
g3062
sg75
(lp3069
S'SERVER_PROTOCOL'
p3070
asbag68
(g89
g70
NtRp3071
(dp3072
g73
(dp3073
g100
g101
ssg82
g3062
sg75
(lp3074
S':'
asbag68
(g89
g70
NtRp3075
(dp3076
g73
(dp3077
sg82
g3062
sg75
(lp3078
g68
(g69
g70
NtRp3079
(dp3080
g73
(dp3081
g81
I3
ssg82
g3075
sg75
(lp3082
g1565
asbasbasbag68
(g84
g70
NtRp3083
(dp3084
g73
(dp3085
sg82
g2659
sg75
(lp3086
g68
(g89
g70
NtRp3087
(dp3088
g73
(dp3089
g93
g94
ssg82
g3083
sg75
(lp3090
S'SERVER_SOFTWARE'
p3091
asbag68
(g89
g70
NtRp3092
(dp3093
g73
(dp3094
g100
g101
ssg82
g3083
sg75
(lp3095
S':'
asbag68
(g89
g70
NtRp3096
(dp3097
g73
(dp3098
sg82
g3083
sg75
(lp3099
g68
(g69
g70
NtRp3100
(dp3101
g73
(dp3102
g81
I3
ssg82
g3096
sg75
(lp3103
g1587
asbasbasbag68
(g84
g70
NtRp3104
(dp3105
g73
(dp3106
sg82
g2659
sg75
(lp3107
g68
(g89
g70
NtRp3108
(dp3109
g73
(dp3110
g93
g94
ssg82
g3104
sg75
(lp3111
S'wsgi.errors'
p3112
asbag68
(g89
g70
NtRp3113
(dp3114
g73
(dp3115
g100
g101
ssg82
g3104
sg75
(lp3116
S':'
asbag68
(g89
g70
NtRp3117
(dp3118
g73
(dp3119
sg82
g3104
sg75
(lp3120
g68
(g69
g70
NtRp3121
(dp3122
g73
(dp3123
g81
I3
ssg82
g3117
sg75
(lp3124
S"<open file '<stderr>', mode 'w' at 0xb732a0d0>"
p3125
asbasbasbag68
(g84
g70
NtRp3126
(dp3127
g73
(dp3128
sg82
g2659
sg75
(lp3129
g68
(g89
g70
NtRp3130
(dp3131
g73
(dp3132
g93
g94
ssg82
g3126
sg75
(lp3133
S'wsgi.file_wrapper'
p3134
asbag68
(g89
g70
NtRp3135
(dp3136
g73
(dp3137
g100
g101
ssg82
g3126
sg75
(lp3138
S':'
asbag68
(g89
g70
NtRp3139
(dp3140
g73
(dp3141
sg82
g3126
sg75
(lp3142
g68
(g69
g70
NtRp3143
(dp3144
g73
(dp3145
g81
I3
ssg82
g3139
sg75
(lp3146
S'<class wsgiref.util.FileWrapper at 0x8beeb9c>'
p3147
asbasbasbag68
(g84
g70
NtRp3148
(dp3149
g73
(dp3150
sg82
g2659
sg75
(lp3151
g68
(g89
g70
NtRp3152
(dp3153
g73
(dp3154
g93
g94
ssg82
g3148
sg75
(lp3155
S'wsgi.input'
p3156
asbag68
(g89
g70
NtRp3157
(dp3158
g73
(dp3159
g100
g101
ssg82
g3148
sg75
(lp3160
S':'
asbag68
(g89
g70
NtRp3161
(dp3162
g73
(dp3163
sg82
g3148
sg75
(lp3164
g68
(g69
g70
NtRp3165
(dp3166
g73
(dp3167
g81
I3
ssg82
g3161
sg75
(lp3168
S'<cStringIO.StringO object at 0xae82b580>'
p3169
asbasbasbag68
(g84
g70
NtRp3170
(dp3171
g73
(dp3172
sg82
g2659
sg75
(lp3173
g68
(g89
g70
NtRp3174
(dp3175
g73
(dp3176
g93
g94
ssg82
g3170
sg75
(lp3177
S'wsgi.multiprocess'
p3178
asbag68
(g89
g70
NtRp3179
(dp3180
g73
(dp3181
g100
g101
ssg82
g3170
sg75
(lp3182
S':'
asbag68
(g89
g70
NtRp3183
(dp3184
g73
(dp3185
sg82
g3170
sg75
(lp3186
g68
(g69
g70
NtRp3187
(dp3188
g73
(dp3189
g81
I3
ssg82
g3183
sg75
(lp3190
g111
asbasbasbag68
(g84
g70
NtRp3191
(dp3192
g73
(dp3193
sg82
g2659
sg75
(lp3194
g68
(g89
g70
NtRp3195
(dp3196
g73
(dp3197
g93
g94
ssg82
g3191
sg75
(lp3198
S'wsgi.multithread'
p3199
asbag68
(g89
g70
NtRp3200
(dp3201
g73
(dp3202
g100
g101
ssg82
g3191
sg75
(lp3203
S':'
asbag68
(g89
g70
NtRp3204
(dp3205
g73
(dp3206
sg82
g3191
sg75
(lp3207
g68
(g69
g70
NtRp3208
(dp3209
g73
(dp3210
g81
I3
ssg82
g3204
sg75
(lp3211
g1804
asbasbasbag68
(g84
g70
NtRp3212
(dp3213
g73
(dp3214
sg82
g2659
sg75
(lp3215
g68
(g89
g70
NtRp3216
(dp3217
g73
(dp3218
g93
g94
ssg82
g3212
sg75
(lp3219
S'wsgi.run_once'
p3220
asbag68
(g89
g70
NtRp3221
(dp3222
g73
(dp3223
g100
g101
ssg82
g3212
sg75
(lp3224
S':'
asbag68
(g89
g70
NtRp3225
(dp3226
g73
(dp3227
sg82
g3212
sg75
(lp3228
g68
(g69
g70
NtRp3229
(dp3230
g73
(dp3231
g81
I3
ssg82
g3225
sg75
(lp3232
g111
asbasbasbag68
(g84
g70
NtRp3233
(dp3234
g73
(dp3235
sg82
g2659
sg75
(lp3236
g68
(g89
g70
NtRp3237
(dp3238
g73
(dp3239
g93
g94
ssg82
g3233
sg75
(lp3240
S'wsgi.url_scheme'
p3241
asbag68
(g89
g70
NtRp3242
(dp3243
g73
(dp3244
g100
g101
ssg82
g3233
sg75
(lp3245
S':'
asbag68
(g89
g70
NtRp3246
(dp3247
g73
(dp3248
sg82
g3233
sg75
(lp3249
g68
(g69
g70
NtRp3250
(dp3251
g73
(dp3252
g81
I3
ssg82
g3246
sg75
(lp3253
g1847
asbasbasbag68
(g84
g70
NtRp3254
(dp3255
g73
(dp3256
sg82
g2659
sg75
(lp3257
g68
(g89
g70
NtRp3258
(dp3259
g73
(dp3260
g93
g94
ssg82
g3254
sg75
(lp3261
S'wsgi.version'
p3262
asbag68
(g89
g70
NtRp3263
(dp3264
g73
(dp3265
g100
g101
ssg82
g3254
sg75
(lp3266
S':'
asbag68
(g89
g70
NtRp3267
(dp3268
g73
(dp3269
sg82
g3254
sg75
(lp3270
g68
(g69
g70
NtRp3271
(dp3272
g73
(dp3273
g81
I3
ssg82
g3267
sg75
(lp3274
S'1'
asbasbasbasbasbasbasbasbasbasbasbasbasbsS'frames'
p3275
(lp3276
(dp3277
S'file'
p3278
S'/home/anil/Downloads/web2py/gluon/restricted.py'
p3279
sS'dump'
p3280
(dp3281
S'code'
p3282
S"'# -*- coding: utf-8 -*-\\n# this file is released ..._vars=response._caller(insert_spectrophotometry)\\n'"
p3283
sS'layer'
p3284
S"'/home/anil/Downloads/web2py/applications/DEV_bootstrap_ch/controllers/default.py'"
p3285
sS'global compile2'
p3286
S'<function compile2>'
p3287
sS'ccode'
p3288
S'undefined'
p3289
ssS'lnum'
p3290
I211
sS'lines'
p3291
(dp3292
I206
S"    environment['__name__'] = '__restricted__'"
p3293
sI207
S'    try:'
p3294
sI208
S'        if isinstance(code, types.CodeType):'
p3295
sI209
S'            ccode = code'
p3296
sI210
S'        else:'
p3297
sI211
S'            ccode = compile2(code, layer)'
p3298
sI212
S'        exec ccode in environment'
p3299
sI213
S'    except HTTP:'
p3300
sI214
S'        raise'
p3301
sI215
S'    except RestrictedError:'
p3302
ssS'call'
p3303
S"(code='# -*- coding: utf-8 -*-\\n# this file is released ..._vars=response._caller(insert_spectrophotometry)\\n', environment={'A': <class 'gluon.html.A'>, 'Auth': <class 'gluon.tools.Auth'>, 'B': <class 'gluon.html.B'>, 'BEAUTIFY': <class 'gluon.html.BEAUTIFY'>, 'BODY': <class 'gluon.html.BODY'>, 'BR': <class 'gluon.html.BR'>, 'BUTTON': <class 'gluon.html.BUTTON'>, 'CAT': <class 'gluon.html.CAT'>, 'CENTER': <class 'gluon.html.CENTER'>, 'CLEANUP': <class 'gluon.validators.CLEANUP'>, ...}, layer='/home/anil/Downloads/web2py/applications/DEV_bootstrap_ch/controllers/default.py')"
p3304
sS'func'
p3305
S'restricted'
p3306
sa(dp3307
g3278
S'/home/anil/Downloads/web2py/gluon/restricted.py'
p3308
sg3280
(dp3309
S'builtincompile'
p3310
S'<built-in function compile>'
p3311
sS'code'
p3312
S"'# -*- coding: utf-8 -*-\\n# this file is released ..._vars=response._caller(insert_spectrophotometry)\\n'"
p3313
sS'code.rstrip'
p3314
S'<built-in method rstrip of str object>'
p3315
sS').replace'
p3316
g3289
sS'layer'
p3317
S"'/home/anil/Downloads/web2py/applications/DEV_bootstrap_ch/controllers/default.py'"
p3318
ssg3290
I194
sg3291
(dp3319
I192
S"    The +'\\n' is necessary else compile fails when code ends in a comment."
p3320
sI193
S'    """'
p3321
sI194
S"    return compile(code.rstrip().replace('\\r\\n', '\\n') + '\\n', layer, 'exec')"
p3322
sI195
S''
sI196
S''
sI197
S"def restricted(code, environment=None, layer='Unknown'):"
p3323
sI198
S'    """'
p3324
sI189
S''
sI190
S'def compile2(code, layer):'
p3325
sI191
S'    """'
p3326
ssg3303
S"(code='# -*- coding: utf-8 -*-\\n# this file is released ..._vars=response._caller(insert_spectrophotometry)\\n', layer='/home/anil/Downloads/web2py/applications/DEV_bootstrap_ch/controllers/default.py')"
p3327
sg3305
S'compile2'
p3328
sasS'pyver'
p3329
S'Python 2.7.3: /usr/bin/python'
p3330
sS'session'
p3331
g68
(g69
g70
NtRp3332
(dp3333
g73
(dp3334
sg75
(lp3335
g68
(g77
g70
NtRp3336
(dp3337
g73
(dp3338
g81
I5
ssg82
Nsg75
(lp3339
g68
(g84
g70
NtRp3340
(dp3341
g73
(dp3342
sg82
g3336
sg75
(lp3343
g68
(g89
g70
NtRp3344
(dp3345
g73
(dp3346
g93
g94
ssg82
g3340
sg75
(lp3347
S'auth'
p3348
asbag68
(g89
g70
NtRp3349
(dp3350
g73
(dp3351
g100
g101
ssg82
g3340
sg75
(lp3352
S':'
asbag68
(g89
g70
NtRp3353
(dp3354
g73
(dp3355
sg82
g3340
sg75
(lp3356
g68
(g69
g70
NtRp3357
(dp3358
g73
(dp3359
g81
I5
ssg82
g3353
sg75
(lp3360
g68
(g77
g70
NtRp3361
(dp3362
g73
(dp3363
g81
I4
ssg82
Nsg75
(lp3364
g68
(g84
g70
NtRp3365
(dp3366
g73
(dp3367
sg82
g3361
sg75
(lp3368
g68
(g89
g70
NtRp3369
(dp3370
g73
(dp3371
g93
g94
ssg82
g3365
sg75
(lp3372
S'expiration'
p3373
asbag68
(g89
g70
NtRp3374
(dp3375
g73
(dp3376
g100
g101
ssg82
g3365
sg75
(lp3377
S':'
asbag68
(g89
g70
NtRp3378
(dp3379
g73
(dp3380
sg82
g3365
sg75
(lp3381
g68
(g69
g70
NtRp3382
(dp3383
g73
(dp3384
g81
I4
ssg82
g3378
sg75
(lp3385
S'3600'
p3386
asbasbasbag68
(g84
g70
NtRp3387
(dp3388
g73
(dp3389
sg82
g3361
sg75
(lp3390
g68
(g89
g70
NtRp3391
(dp3392
g73
(dp3393
g93
g94
ssg82
g3387
sg75
(lp3394
S'hmac_key'
p3395
asbag68
(g89
g70
NtRp3396
(dp3397
g73
(dp3398
g100
g101
ssg82
g3387
sg75
(lp3399
S':'
asbag68
(g89
g70
NtRp3400
(dp3401
g73
(dp3402
sg82
g3387
sg75
(lp3403
g68
(g69
g70
NtRp3404
(dp3405
g73
(dp3406
g81
I4
ssg82
g3400
sg75
(lp3407
S'6c35128a-18fa-4feb-a366-3688728d62e7'
p3408
asbasbasbag68
(g84
g70
NtRp3409
(dp3410
g73
(dp3411
sg82
g3361
sg75
(lp3412
g68
(g89
g70
NtRp3413
(dp3414
g73
(dp3415
g93
g94
ssg82
g3409
sg75
(lp3416
S'last_visit'
p3417
asbag68
(g89
g70
NtRp3418
(dp3419
g73
(dp3420
g100
g101
ssg82
g3409
sg75
(lp3421
S':'
asbag68
(g89
g70
NtRp3422
(dp3423
g73
(dp3424
sg82
g3409
sg75
(lp3425
g68
(g69
g70
NtRp3426
(dp3427
g73
(dp3428
g81
I4
ssg82
g3422
sg75
(lp3429
S'datetime.datetime(2013, 3, 9, 10, 35, 7, 694115)'
p3430
asbasbasbag68
(g84
g70
NtRp3431
(dp3432
g73
(dp3433
sg82
g3361
sg75
(lp3434
g68
(g89
g70
NtRp3435
(dp3436
g73
(dp3437
g93
g94
ssg82
g3431
sg75
(lp3438
S'remember'
p3439
asbag68
(g89
g70
NtRp3440
(dp3441
g73
(dp3442
g100
g101
ssg82
g3431
sg75
(lp3443
S':'
asbag68
(g89
g70
NtRp3444
(dp3445
g73
(dp3446
sg82
g3431
sg75
(lp3447
g68
(g69
g70
NtRp3448
(dp3449
g73
(dp3450
g81
I4
ssg82
g3444
sg75
(lp3451
g111
asbasbasbag68
(g84
g70
NtRp3452
(dp3453
g73
(dp3454
sg82
g3361
sg75
(lp3455
g68
(g89
g70
NtRp3456
(dp3457
g73
(dp3458
g93
g94
ssg82
g3452
sg75
(lp3459
S'user'
p3460
asbag68
(g89
g70
NtRp3461
(dp3462
g73
(dp3463
g100
g101
ssg82
g3452
sg75
(lp3464
S':'
asbag68
(g89
g70
NtRp3465
(dp3466
g73
(dp3467
sg82
g3452
sg75
(lp3468
g68
(g69
g70
NtRp3469
(dp3470
g73
(dp3471
g81
I4
ssg82
g3465
sg75
(lp3472
g68
(g77
g70
NtRp3473
(dp3474
g73
(dp3475
g81
I3
ssg82
Nsg75
(lp3476
g68
(g84
g70
NtRp3477
(dp3478
g73
(dp3479
sg82
g3473
sg75
(lp3480
g68
(g89
g70
NtRp3481
(dp3482
g73
(dp3483
g93
g94
ssg82
g3477
sg75
(lp3484
S'address'
p3485
asbag68
(g89
g70
NtRp3486
(dp3487
g73
(dp3488
g100
g101
ssg82
g3477
sg75
(lp3489
S':'
asbag68
(g89
g70
NtRp3490
(dp3491
g73
(dp3492
sg82
g3477
sg75
(lp3493
g68
(g69
g70
NtRp3494
(dp3495
g73
(dp3496
g81
I3
ssg82
g3490
sg75
(lp3497
S'dsaf'
p3498
asbasbasbag68
(g84
g70
NtRp3499
(dp3500
g73
(dp3501
sg82
g3473
sg75
(lp3502
g68
(g89
g70
NtRp3503
(dp3504
g73
(dp3505
g93
g94
ssg82
g3499
sg75
(lp3506
S'affiliated_to'
p3507
asbag68
(g89
g70
NtRp3508
(dp3509
g73
(dp3510
g100
g101
ssg82
g3499
sg75
(lp3511
S':'
asbag68
(g89
g70
NtRp3512
(dp3513
g73
(dp3514
sg82
g3499
sg75
(lp3515
g68
(g69
g70
NtRp3516
(dp3517
g73
(dp3518
g81
I3
ssg82
g3512
sg75
(lp3519
S'fdsa'
p3520
asbasbasbag68
(g84
g70
NtRp3521
(dp3522
g73
(dp3523
sg82
g3473
sg75
(lp3524
g68
(g89
g70
NtRp3525
(dp3526
g73
(dp3527
g93
g94
ssg82
g3521
sg75
(lp3528
S'city'
p3529
asbag68
(g89
g70
NtRp3530
(dp3531
g73
(dp3532
g100
g101
ssg82
g3521
sg75
(lp3533
S':'
asbag68
(g89
g70
NtRp3534
(dp3535
g73
(dp3536
sg82
g3521
sg75
(lp3537
g68
(g69
g70
NtRp3538
(dp3539
g73
(dp3540
g81
I3
ssg82
g3534
sg75
(lp3541
S'ongole'
p3542
asbasbasbag68
(g84
g70
NtRp3543
(dp3544
g73
(dp3545
sg82
g3473
sg75
(lp3546
g68
(g89
g70
NtRp3547
(dp3548
g73
(dp3549
g93
g94
ssg82
g3543
sg75
(lp3550
S'country'
p3551
asbag68
(g89
g70
NtRp3552
(dp3553
g73
(dp3554
g100
g101
ssg82
g3543
sg75
(lp3555
S':'
asbag68
(g89
g70
NtRp3556
(dp3557
g73
(dp3558
sg82
g3543
sg75
(lp3559
g68
(g69
g70
NtRp3560
(dp3561
g73
(dp3562
g81
I3
ssg82
g3556
sg75
(lp3563
S'India'
p3564
asbasbasbag68
(g84
g70
NtRp3565
(dp3566
g73
(dp3567
sg82
g3473
sg75
(lp3568
g68
(g89
g70
NtRp3569
(dp3570
g73
(dp3571
g93
g94
ssg82
g3565
sg75
(lp3572
S'email'
p3573
asbag68
(g89
g70
NtRp3574
(dp3575
g73
(dp3576
g100
g101
ssg82
g3565
sg75
(lp3577
S':'
asbag68
(g89
g70
NtRp3578
(dp3579
g73
(dp3580
sg82
g3565
sg75
(lp3581
g68
(g69
g70
NtRp3582
(dp3583
g73
(dp3584
g81
I3
ssg82
g3578
sg75
(lp3585
S'anil1in7@gmail.com'
p3586
asbasbasbag68
(g84
g70
NtRp3587
(dp3588
g73
(dp3589
sg82
g3473
sg75
(lp3590
g68
(g89
g70
NtRp3591
(dp3592
g73
(dp3593
g93
g94
ssg82
g3587
sg75
(lp3594
S'first_name'
p3595
asbag68
(g89
g70
NtRp3596
(dp3597
g73
(dp3598
g100
g101
ssg82
g3587
sg75
(lp3599
S':'
asbag68
(g89
g70
NtRp3600
(dp3601
g73
(dp3602
sg82
g3587
sg75
(lp3603
g68
(g69
g70
NtRp3604
(dp3605
g73
(dp3606
g81
I3
ssg82
g3600
sg75
(lp3607
S'Anil Kumar'
p3608
asbasbasbag68
(g84
g70
NtRp3609
(dp3610
g73
(dp3611
sg82
g3473
sg75
(lp3612
g68
(g89
g70
NtRp3613
(dp3614
g73
(dp3615
g93
g94
ssg82
g3609
sg75
(lp3616
S'id'
p3617
asbag68
(g89
g70
NtRp3618
(dp3619
g73
(dp3620
g100
g101
ssg82
g3609
sg75
(lp3621
S':'
asbag68
(g89
g70
NtRp3622
(dp3623
g73
(dp3624
sg82
g3609
sg75
(lp3625
g68
(g69
g70
NtRp3626
(dp3627
g73
(dp3628
g81
I3
ssg82
g3622
sg75
(lp3629
S'1'
asbasbasbag68
(g84
g70
NtRp3630
(dp3631
g73
(dp3632
sg82
g3473
sg75
(lp3633
g68
(g89
g70
NtRp3634
(dp3635
g73
(dp3636
g93
g94
ssg82
g3630
sg75
(lp3637
S'last_name'
p3638
asbag68
(g89
g70
NtRp3639
(dp3640
g73
(dp3641
g100
g101
ssg82
g3630
sg75
(lp3642
S':'
asbag68
(g89
g70
NtRp3643
(dp3644
g73
(dp3645
sg82
g3630
sg75
(lp3646
g68
(g69
g70
NtRp3647
(dp3648
g73
(dp3649
g81
I3
ssg82
g3643
sg75
(lp3650
S'Nalamalapu'
p3651
asbasbasbag68
(g84
g70
NtRp3652
(dp3653
g73
(dp3654
sg82
g3473
sg75
(lp3655
g68
(g89
g70
NtRp3656
(dp3657
g73
(dp3658
g93
g94
ssg82
g3652
sg75
(lp3659
S'mobile'
p3660
asbag68
(g89
g70
NtRp3661
(dp3662
g73
(dp3663
g100
g101
ssg82
g3652
sg75
(lp3664
S':'
asbag68
(g89
g70
NtRp3665
(dp3666
g73
(dp3667
sg82
g3652
sg75
(lp3668
g68
(g69
g70
NtRp3669
(dp3670
g73
(dp3671
g81
I3
ssg82
g3665
sg75
(lp3672
S'918885334113'
p3673
asbasbasbag68
(g84
g70
NtRp3674
(dp3675
g73
(dp3676
sg82
g3473
sg75
(lp3677
g68
(g89
g70
NtRp3678
(dp3679
g73
(dp3680
g93
g94
ssg82
g3674
sg75
(lp3681
S'phone'
p3682
asbag68
(g89
g70
NtRp3683
(dp3684
g73
(dp3685
g100
g101
ssg82
g3674
sg75
(lp3686
S':'
asbag68
(g89
g70
NtRp3687
(dp3688
g73
(dp3689
sg82
g3674
sg75
(lp3690
g68
(g69
g70
NtRp3691
(dp3692
g73
(dp3693
g81
I3
ssg82
g3687
sg75
(lp3694
S'918885334113'
p3695
asbasbasbag68
(g84
g70
NtRp3696
(dp3697
g73
(dp3698
sg82
g3473
sg75
(lp3699
g68
(g89
g70
NtRp3700
(dp3701
g73
(dp3702
g93
g94
ssg82
g3696
sg75
(lp3703
S'position'
p3704
asbag68
(g89
g70
NtRp3705
(dp3706
g73
(dp3707
g100
g101
ssg82
g3696
sg75
(lp3708
S':'
asbag68
(g89
g70
NtRp3709
(dp3710
g73
(dp3711
sg82
g3696
sg75
(lp3712
g68
(g69
g70
NtRp3713
(dp3714
g73
(dp3715
g81
I3
ssg82
g3709
sg75
(lp3716
S'2'
asbasbasbag68
(g84
g70
NtRp3717
(dp3718
g73
(dp3719
sg82
g3473
sg75
(lp3720
g68
(g89
g70
NtRp3721
(dp3722
g73
(dp3723
g93
g94
ssg82
g3717
sg75
(lp3724
S'postal_code'
p3725
asbag68
(g89
g70
NtRp3726
(dp3727
g73
(dp3728
g100
g101
ssg82
g3717
sg75
(lp3729
S':'
asbag68
(g89
g70
NtRp3730
(dp3731
g73
(dp3732
sg82
g3717
sg75
(lp3733
g68
(g69
g70
NtRp3734
(dp3735
g73
(dp3736
g81
I3
ssg82
g3730
sg75
(lp3737
S'523182'
p3738
asbasbasbag68
(g84
g70
NtRp3739
(dp3740
g73
(dp3741
sg82
g3473
sg75
(lp3742
g68
(g89
g70
NtRp3743
(dp3744
g73
(dp3745
g93
g94
ssg82
g3739
sg75
(lp3746
S'registration_id'
p3747
asbag68
(g89
g70
NtRp3748
(dp3749
g73
(dp3750
g100
g101
ssg82
g3739
sg75
(lp3751
S':'
asbag68
(g89
g70
NtRp3752
(dp3753
g73
(dp3754
sg82
g3739
sg75
(lp3755
g68
(g69
g70
NtRp3756
(dp3757
g73
(dp3758
g81
I3
ssg82
g3752
sg75
(lp3759
S''
asbasbasbag68
(g84
g70
NtRp3760
(dp3761
g73
(dp3762
sg82
g3473
sg75
(lp3763
g68
(g89
g70
NtRp3764
(dp3765
g73
(dp3766
g93
g94
ssg82
g3760
sg75
(lp3767
S'registration_key'
p3768
asbag68
(g89
g70
NtRp3769
(dp3770
g73
(dp3771
g100
g101
ssg82
g3760
sg75
(lp3772
S':'
asbag68
(g89
g70
NtRp3773
(dp3774
g73
(dp3775
sg82
g3760
sg75
(lp3776
g68
(g69
g70
NtRp3777
(dp3778
g73
(dp3779
g81
I3
ssg82
g3773
sg75
(lp3780
S''
asbasbasbag68
(g84
g70
NtRp3781
(dp3782
g73
(dp3783
sg82
g3473
sg75
(lp3784
g68
(g89
g70
NtRp3785
(dp3786
g73
(dp3787
g93
g94
ssg82
g3781
sg75
(lp3788
S'reset_password_key'
p3789
asbag68
(g89
g70
NtRp3790
(dp3791
g73
(dp3792
g100
g101
ssg82
g3781
sg75
(lp3793
S':'
asbag68
(g89
g70
NtRp3794
(dp3795
g73
(dp3796
sg82
g3781
sg75
(lp3797
g68
(g69
g70
NtRp3798
(dp3799
g73
(dp3800
g81
I3
ssg82
g3794
sg75
(lp3801
S''
asbasbasbag68
(g84
g70
NtRp3802
(dp3803
g73
(dp3804
sg82
g3473
sg75
(lp3805
g68
(g89
g70
NtRp3806
(dp3807
g73
(dp3808
g93
g94
ssg82
g3802
sg75
(lp3809
S'title'
p3810
asbag68
(g89
g70
NtRp3811
(dp3812
g73
(dp3813
g100
g101
ssg82
g3802
sg75
(lp3814
S':'
asbag68
(g89
g70
NtRp3815
(dp3816
g73
(dp3817
sg82
g3802
sg75
(lp3818
g68
(g69
g70
NtRp3819
(dp3820
g73
(dp3821
g81
I3
ssg82
g3815
sg75
(lp3822
S'0'
asbasbasbasbasbasbasbag68
(g84
g70
NtRp3823
(dp3824
g73
(dp3825
sg82
g3361
sg75
(lp3826
g68
(g89
g70
NtRp3827
(dp3828
g73
(dp3829
g93
g94
ssg82
g3823
sg75
(lp3830
S'user_groups'
p3831
asbag68
(g89
g70
NtRp3832
(dp3833
g73
(dp3834
g100
g101
ssg82
g3823
sg75
(lp3835
S':'
asbag68
(g89
g70
NtRp3836
(dp3837
g73
(dp3838
sg82
g3823
sg75
(lp3839
g68
(g69
g70
NtRp3840
(dp3841
g73
(dp3842
g81
I4
ssg82
g3836
sg75
(lp3843
g68
(g77
g70
NtRp3844
(dp3845
g73
(dp3846
g81
I3
ssg82
Nsg75
(lp3847
g68
(g84
g70
NtRp3848
(dp3849
g73
(dp3850
sg82
g3844
sg75
(lp3851
g68
(g89
g70
NtRp3852
(dp3853
g73
(dp3854
g93
g94
ssg82
g3848
sg75
(lp3855
S'1'
asbag68
(g89
g70
NtRp3856
(dp3857
g73
(dp3858
g100
g101
ssg82
g3848
sg75
(lp3859
S':'
asbag68
(g89
g70
NtRp3860
(dp3861
g73
(dp3862
sg82
g3848
sg75
(lp3863
g68
(g69
g70
NtRp3864
(dp3865
g73
(dp3866
g81
I3
ssg82
g3860
sg75
(lp3867
S'user_1'
p3868
asbasbasbasbasbasbasbasbasbasbasbag68
(g84
g70
NtRp3869
(dp3870
g73
(dp3871
sg82
g3336
sg75
(lp3872
g68
(g89
g70
NtRp3873
(dp3874
g73
(dp3875
g93
g94
ssg82
g3869
sg75
(lp3876
S'flash'
p3877
asbag68
(g89
g70
NtRp3878
(dp3879
g73
(dp3880
g100
g101
ssg82
g3869
sg75
(lp3881
S':'
asbag68
(g89
g70
NtRp3882
(dp3883
g73
(dp3884
sg82
g3869
sg75
(lp3885
g68
(g69
g70
NtRp3886
(dp3887
g73
(dp3888
g81
I5
ssg82
g3882
sg75
(lp3889
S'None'
p3890
asbasbasbag68
(g84
g70
NtRp3891
(dp3892
g73
(dp3893
sg82
g3336
sg75
(lp3894
g68
(g89
g70
NtRp3895
(dp3896
g73
(dp3897
g93
g94
ssg82
g3891
sg75
(lp3898
S'last_orderby'
p3899
asbag68
(g89
g70
NtRp3900
(dp3901
g73
(dp3902
g100
g101
ssg82
g3891
sg75
(lp3903
S':'
asbag68
(g89
g70
NtRp3904
(dp3905
g73
(dp3906
sg82
g3891
sg75
(lp3907
g68
(g69
g70
NtRp3908
(dp3909
g73
(dp3910
g81
I5
ssg82
g3904
sg75
(lp3911
S'None'
p3912
asbasbasbag68
(g84
g70
NtRp3913
(dp3914
g73
(dp3915
sg82
g3336
sg75
(lp3916
g68
(g89
g70
NtRp3917
(dp3918
g73
(dp3919
g93
g94
ssg82
g3913
sg75
(lp3920
S'last_query'
p3921
asbag68
(g89
g70
NtRp3922
(dp3923
g73
(dp3924
g100
g101
ssg82
g3913
sg75
(lp3925
S':'
asbag68
(g89
g70
NtRp3926
(dp3927
g73
(dp3928
sg82
g3913
sg75
(lp3929
g68
(g69
g70
NtRp3930
(dp3931
g73
(dp3932
g81
I5
ssg82
g3926
sg75
(lp3933
S'db.project.id>0'
p3934
asbasbasbasbasbsS'etype'
p3935
S"<type 'exceptions.IndentationError'>"
p3936
sS'date'
p3937
S'Sat Mar  9 10:35:07 2013'
p3938
sS'response'
p3939
g68
(g69
g70
NtRp3940
(dp3941
g73
(dp3942
sg75
(lp3943
g68
(g77
g70
NtRp3944
(dp3945
g73
(dp3946
g81
I5
ssg82
Nsg75
(lp3947
g68
(g84
g70
NtRp3948
(dp3949
g73
(dp3950
sg82
g3944
sg75
(lp3951
g68
(g89
g70
NtRp3952
(dp3953
g73
(dp3954
g93
g94
ssg82
g3948
sg75
(lp3955
g332
asbag68
(g89
g70
NtRp3956
(dp3957
g73
(dp3958
g100
g101
ssg82
g3948
sg75
(lp3959
S':'
asbag68
(g89
g70
NtRp3960
(dp3961
g73
(dp3962
sg82
g3948
sg75
(lp3963
g68
(g69
g70
NtRp3964
(dp3965
g73
(dp3966
g81
I5
ssg82
g3960
sg75
(lp3967
S'<cStringIO.StringO object at 0xb0138620>'
p3968
asbasbasbag68
(g84
g70
NtRp3969
(dp3970
g73
(dp3971
sg82
g3944
sg75
(lp3972
g68
(g89
g70
NtRp3973
(dp3974
g73
(dp3975
g93
g94
ssg82
g3969
sg75
(lp3976
g420
asbag68
(g89
g70
NtRp3977
(dp3978
g73
(dp3979
g100
g101
ssg82
g3969
sg75
(lp3980
S':'
asbag68
(g89
g70
NtRp3981
(dp3982
g73
(dp3983
sg82
g3969
sg75
(lp3984
g68
(g69
g70
NtRp3985
(dp3986
g73
(dp3987
g81
I5
ssg82
g3981
sg75
(lp3988
g68
(g77
g70
NtRp3989
(dp3990
g73
(dp3991
g81
I4
ssg82
Nsg75
(lp3992
g68
(g84
g70
NtRp3993
(dp3994
g73
(dp3995
sg82
g3989
sg75
(lp3996
g68
(g89
g70
NtRp3997
(dp3998
g73
(dp3999
g93
g94
ssg82
g3993
sg75
(lp4000
S'session_id_dev_bootstrap_ch'
p4001
asbag68
(g89
g70
NtRp4002
(dp4003
g73
(dp4004
g100
g101
ssg82
g3993
sg75
(lp4005
S':'
asbag68
(g89
g70
NtRp4006
(dp4007
g73
(dp4008
sg82
g3993
sg75
(lp4009
g68
(g69
g70
NtRp4010
(dp4011
g73
(dp4012
g81
I4
ssg82
g4006
sg75
(lp4013
g652
ag68
(g77
g70
NtRp4014
(dp4015
g73
(dp4016
g81
I3
ssg82
Nsg75
(lp4017
g68
(g84
g70
NtRp4018
(dp4019
g73
(dp4020
sg82
g4014
sg75
(lp4021
g68
(g89
g70
NtRp4022
(dp4023
g73
(dp4024
g93
g94
ssg82
g4018
sg75
(lp4025
g471
asbag68
(g89
g70
NtRp4026
(dp4027
g73
(dp4028
g100
g101
ssg82
g4018
sg75
(lp4029
S':'
asbag68
(g89
g70
NtRp4030
(dp4031
g73
(dp4032
sg82
g4018
sg75
(lp4033
g68
(g69
g70
NtRp4034
(dp4035
g73
(dp4036
g81
I3
ssg82
g4030
sg75
(lp4037
S''
asbasbasbag68
(g84
g70
NtRp4038
(dp4039
g73
(dp4040
sg82
g4014
sg75
(lp4041
g68
(g89
g70
NtRp4042
(dp4043
g73
(dp4044
g93
g94
ssg82
g4038
sg75
(lp4045
g492
asbag68
(g89
g70
NtRp4046
(dp4047
g73
(dp4048
g100
g101
ssg82
g4038
sg75
(lp4049
S':'
asbag68
(g89
g70
NtRp4050
(dp4051
g73
(dp4052
sg82
g4038
sg75
(lp4053
g68
(g69
g70
NtRp4054
(dp4055
g73
(dp4056
g81
I3
ssg82
g4050
sg75
(lp4057
S''
asbasbasbag68
(g84
g70
NtRp4058
(dp4059
g73
(dp4060
sg82
g4014
sg75
(lp4061
g68
(g89
g70
NtRp4062
(dp4063
g73
(dp4064
g93
g94
ssg82
g4058
sg75
(lp4065
g513
asbag68
(g89
g70
NtRp4066
(dp4067
g73
(dp4068
g100
g101
ssg82
g4058
sg75
(lp4069
S':'
asbag68
(g89
g70
NtRp4070
(dp4071
g73
(dp4072
sg82
g4058
sg75
(lp4073
g68
(g69
g70
NtRp4074
(dp4075
g73
(dp4076
g81
I3
ssg82
g4070
sg75
(lp4077
S''
asbasbasbag68
(g84
g70
NtRp4078
(dp4079
g73
(dp4080
sg82
g4014
sg75
(lp4081
g68
(g89
g70
NtRp4082
(dp4083
g73
(dp4084
g93
g94
ssg82
g4078
sg75
(lp4085
g534
asbag68
(g89
g70
NtRp4086
(dp4087
g73
(dp4088
g100
g101
ssg82
g4078
sg75
(lp4089
S':'
asbag68
(g89
g70
NtRp4090
(dp4091
g73
(dp4092
sg82
g4078
sg75
(lp4093
g68
(g69
g70
NtRp4094
(dp4095
g73
(dp4096
g81
I3
ssg82
g4090
sg75
(lp4097
S''
asbasbasbag68
(g84
g70
NtRp4098
(dp4099
g73
(dp4100
sg82
g4014
sg75
(lp4101
g68
(g89
g70
NtRp4102
(dp4103
g73
(dp4104
g93
g94
ssg82
g4098
sg75
(lp4105
g555
asbag68
(g89
g70
NtRp4106
(dp4107
g73
(dp4108
g100
g101
ssg82
g4098
sg75
(lp4109
S':'
asbag68
(g89
g70
NtRp4110
(dp4111
g73
(dp4112
sg82
g4098
sg75
(lp4113
g68
(g69
g70
NtRp4114
(dp4115
g73
(dp4116
g81
I3
ssg82
g4110
sg75
(lp4117
S''
asbasbasbag68
(g84
g70
NtRp4118
(dp4119
g73
(dp4120
sg82
g4014
sg75
(lp4121
g68
(g89
g70
NtRp4122
(dp4123
g73
(dp4124
g93
g94
ssg82
g4118
sg75
(lp4125
g576
asbag68
(g89
g70
NtRp4126
(dp4127
g73
(dp4128
g100
g101
ssg82
g4118
sg75
(lp4129
S':'
asbag68
(g89
g70
NtRp4130
(dp4131
g73
(dp4132
sg82
g4118
sg75
(lp4133
g68
(g69
g70
NtRp4134
(dp4135
g73
(dp4136
g81
I3
ssg82
g4130
sg75
(lp4137
S'/'
asbasbasbag68
(g84
g70
NtRp4138
(dp4139
g73
(dp4140
sg82
g4014
sg75
(lp4141
g68
(g89
g70
NtRp4142
(dp4143
g73
(dp4144
g93
g94
ssg82
g4138
sg75
(lp4145
g597
asbag68
(g89
g70
NtRp4146
(dp4147
g73
(dp4148
g100
g101
ssg82
g4138
sg75
(lp4149
S':'
asbag68
(g89
g70
NtRp4150
(dp4151
g73
(dp4152
sg82
g4138
sg75
(lp4153
g68
(g69
g70
NtRp4154
(dp4155
g73
(dp4156
g81
I3
ssg82
g4150
sg75
(lp4157
S''
asbasbasbag68
(g84
g70
NtRp4158
(dp4159
g73
(dp4160
sg82
g4014
sg75
(lp4161
g68
(g89
g70
NtRp4162
(dp4163
g73
(dp4164
g93
g94
ssg82
g4158
sg75
(lp4165
g618
asbag68
(g89
g70
NtRp4166
(dp4167
g73
(dp4168
g100
g101
ssg82
g4158
sg75
(lp4169
S':'
asbag68
(g89
g70
NtRp4170
(dp4171
g73
(dp4172
sg82
g4158
sg75
(lp4173
g68
(g69
g70
NtRp4174
(dp4175
g73
(dp4176
g81
I3
ssg82
g4170
sg75
(lp4177
S''
asbasbasbasbasbasbasbasbasbasbasbag68
(g84
g70
NtRp4178
(dp4179
g73
(dp4180
sg82
g3944
sg75
(lp4181
g68
(g89
g70
NtRp4182
(dp4183
g73
(dp4184
g93
g94
ssg82
g4178
sg75
(lp4185
S'delimiters'
p4186
asbag68
(g89
g70
NtRp4187
(dp4188
g73
(dp4189
g100
g101
ssg82
g4178
sg75
(lp4190
S':'
asbag68
(g89
g70
NtRp4191
(dp4192
g73
(dp4193
sg82
g4178
sg75
(lp4194
g68
(g69
g70
NtRp4195
(dp4196
g73
(dp4197
g81
I5
ssg82
g4191
sg75
(lp4198
g68
(g77
g70
NtRp4199
(dp4200
g73
(dp4201
g81
I4
ssg82
Nsg75
(lp4202
g68
(g84
g70
NtRp4203
(dp4204
g73
(dp4205
sg82
g4199
sg75
(lp4206
g68
(g89
g70
NtRp4207
(dp4208
g73
(dp4209
sg82
g4203
sg75
(lp4210
g68
(g69
g70
NtRp4211
(dp4212
g73
(dp4213
g81
I4
ssg82
g4207
sg75
(lp4214
S'{{'
p4215
asbasbasbag68
(g84
g70
NtRp4216
(dp4217
g73
(dp4218
sg82
g4199
sg75
(lp4219
g68
(g89
g70
NtRp4220
(dp4221
g73
(dp4222
sg82
g4216
sg75
(lp4223
g68
(g69
g70
NtRp4224
(dp4225
g73
(dp4226
g81
I4
ssg82
g4220
sg75
(lp4227
S'}}'
p4228
asbasbasbasbasbasbasbag68
(g84
g70
NtRp4229
(dp4230
g73
(dp4231
sg82
g3944
sg75
(lp4232
g68
(g89
g70
NtRp4233
(dp4234
g73
(dp4235
g93
g94
ssg82
g4229
sg75
(lp4236
S'files'
p4237
asbag68
(g89
g70
NtRp4238
(dp4239
g73
(dp4240
g100
g101
ssg82
g4229
sg75
(lp4241
S':'
asbag68
(g89
g70
NtRp4242
(dp4243
g73
(dp4244
sg82
g4229
sg75
(lp4245
g68
(g69
g70
NtRp4246
(dp4247
g73
(dp4248
g81
I5
ssg82
g4242
sg75
(lp4249
g68
(g77
g70
NtRp4250
(dp4251
g73
(dp4252
g81
I4
ssg82
Nsg75
(lp4253
g68
(g84
g70
NtRp4254
(dp4255
g73
(dp4256
sg82
g4250
sg75
(lp4257
g68
(g89
g70
NtRp4258
(dp4259
g73
(dp4260
sg82
g4254
sg75
(lp4261
g68
(g69
g70
NtRp4262
(dp4263
g73
(dp4264
g81
I4
ssg82
g4258
sg75
(lp4265
S'/DEV_bootstrap_ch/static/plugin_wiki/ui/css/redmond/jquery-ui-1.8.5.custom.css'
p4266
asbasbasbag68
(g84
g70
NtRp4267
(dp4268
g73
(dp4269
sg82
g4250
sg75
(lp4270
g68
(g89
g70
NtRp4271
(dp4272
g73
(dp4273
sg82
g4267
sg75
(lp4274
g68
(g69
g70
NtRp4275
(dp4276
g73
(dp4277
g81
I4
ssg82
g4271
sg75
(lp4278
S'/DEV_bootstrap_ch/static/plugin_wiki/ui/js/jquery-ui-1.8.5.custom.min.js'
p4279
asbasbasbag68
(g84
g70
NtRp4280
(dp4281
g73
(dp4282
sg82
g4250
sg75
(lp4283
g68
(g89
g70
NtRp4284
(dp4285
g73
(dp4286
sg82
g4280
sg75
(lp4287
g68
(g69
g70
NtRp4288
(dp4289
g73
(dp4290
g81
I4
ssg82
g4284
sg75
(lp4291
S'/DEV_bootstrap_ch/static/plugin_wiki/jqgrid/ui.jqgrid.css'
p4292
asbasbasbag68
(g84
g70
NtRp4293
(dp4294
g73
(dp4295
sg82
g4250
sg75
(lp4296
g68
(g89
g70
NtRp4297
(dp4298
g73
(dp4299
sg82
g4293
sg75
(lp4300
g68
(g69
g70
NtRp4301
(dp4302
g73
(dp4303
g81
I4
ssg82
g4297
sg75
(lp4304
S'/DEV_bootstrap_ch/static/plugin_wiki/jqgrid/i18n/grid.locale-en.js'
p4305
asbasbasbag68
(g84
g70
NtRp4306
(dp4307
g73
(dp4308
sg82
g4250
sg75
(lp4309
g68
(g89
g70
NtRp4310
(dp4311
g73
(dp4312
sg82
g4306
sg75
(lp4313
g68
(g69
g70
NtRp4314
(dp4315
g73
(dp4316
g81
I4
ssg82
g4310
sg75
(lp4317
S'/DEV_bootstrap_ch/static/plugin_wiki/jqgrid/jquery.jqGrid.min.js'
p4318
asbasbasbag68
(g84
g70
NtRp4319
(dp4320
g73
(dp4321
sg82
g4250
sg75
(lp4322
g68
(g89
g70
NtRp4323
(dp4324
g73
(dp4325
sg82
g4319
sg75
(lp4326
g68
(g69
g70
NtRp4327
(dp4328
g73
(dp4329
g81
I4
ssg82
g4323
sg75
(lp4330
S'/DEV_bootstrap_ch/static/plugin_wiki/slideshow/jquery.cycle.min.js'
p4331
asbasbasbag68
(g84
g70
NtRp4332
(dp4333
g73
(dp4334
sg82
g4250
sg75
(lp4335
g68
(g89
g70
NtRp4336
(dp4337
g73
(dp4338
sg82
g4332
sg75
(lp4339
g68
(g69
g70
NtRp4340
(dp4341
g73
(dp4342
g81
I4
ssg82
g4336
sg75
(lp4343
S'/DEV_bootstrap_ch/static/plugin_wiki/multiselect/jquery.multiselect.css'
p4344
asbasbasbag68
(g84
g70
NtRp4345
(dp4346
g73
(dp4347
sg82
g4250
sg75
(lp4348
g68
(g89
g70
NtRp4349
(dp4350
g73
(dp4351
sg82
g4345
sg75
(lp4352
g68
(g69
g70
NtRp4353
(dp4354
g73
(dp4355
g81
I4
ssg82
g4349
sg75
(lp4356
S'/DEV_bootstrap_ch/static/plugin_wiki/multiselect/jquery.multiselect.js'
p4357
asbasbasbag68
(g84
g70
NtRp4358
(dp4359
g73
(dp4360
sg82
g4250
sg75
(lp4361
g68
(g89
g70
NtRp4362
(dp4363
g73
(dp4364
sg82
g4358
sg75
(lp4365
g68
(g69
g70
NtRp4366
(dp4367
g73
(dp4368
g81
I4
ssg82
g4362
sg75
(lp4369
S'/DEV_bootstrap_ch/static/plugin_wiki/rating/jquery.rating.css'
p4370
asbasbasbag68
(g84
g70
NtRp4371
(dp4372
g73
(dp4373
sg82
g4250
sg75
(lp4374
g68
(g89
g70
NtRp4375
(dp4376
g73
(dp4377
sg82
g4371
sg75
(lp4378
g68
(g69
g70
NtRp4379
(dp4380
g73
(dp4381
g81
I4
ssg82
g4375
sg75
(lp4382
S'/DEV_bootstrap_ch/static/plugin_wiki/rating/jquery.rating.js'
p4383
asbasbasbasbasbasbasbag68
(g84
g70
NtRp4384
(dp4385
g73
(dp4386
sg82
g3944
sg75
(lp4387
g68
(g89
g70
NtRp4388
(dp4389
g73
(dp4390
g93
g94
ssg82
g4384
sg75
(lp4391
S'flash'
p4392
asbag68
(g89
g70
NtRp4393
(dp4394
g73
(dp4395
g100
g101
ssg82
g4384
sg75
(lp4396
S':'
asbag68
(g89
g70
NtRp4397
(dp4398
g73
(dp4399
sg82
g4384
sg75
(lp4400
g68
(g69
g70
NtRp4401
(dp4402
g73
(dp4403
g81
I5
ssg82
g4397
sg75
(lp4404
S''
asbasbasbag68
(g84
g70
NtRp4405
(dp4406
g73
(dp4407
sg82
g3944
sg75
(lp4408
g68
(g89
g70
NtRp4409
(dp4410
g73
(dp4411
g93
g94
ssg82
g4405
sg75
(lp4412
S'generic_patterns'
p4413
asbag68
(g89
g70
NtRp4414
(dp4415
g73
(dp4416
g100
g101
ssg82
g4405
sg75
(lp4417
S':'
asbag68
(g89
g70
NtRp4418
(dp4419
g73
(dp4420
sg82
g4405
sg75
(lp4421
g68
(g69
g70
NtRp4422
(dp4423
g73
(dp4424
g81
I5
ssg82
g4418
sg75
(lp4425
g68
(g77
g70
NtRp4426
(dp4427
g73
(dp4428
g81
I4
ssg82
Nsg75
(lp4429
g68
(g84
g70
NtRp4430
(dp4431
g73
(dp4432
sg82
g4426
sg75
(lp4433
g68
(g89
g70
NtRp4434
(dp4435
g73
(dp4436
sg82
g4430
sg75
(lp4437
g68
(g69
g70
NtRp4438
(dp4439
g73
(dp4440
g81
I4
ssg82
g4434
sg75
(lp4441
S'*'
asbasbasbasbasbasbasbag68
(g84
g70
NtRp4442
(dp4443
g73
(dp4444
sg82
g3944
sg75
(lp4445
g68
(g89
g70
NtRp4446
(dp4447
g73
(dp4448
g93
g94
ssg82
g4442
sg75
(lp4449
S'google_analytics_id'
p4450
asbag68
(g89
g70
NtRp4451
(dp4452
g73
(dp4453
g100
g101
ssg82
g4442
sg75
(lp4454
S':'
asbag68
(g89
g70
NtRp4455
(dp4456
g73
(dp4457
sg82
g4442
sg75
(lp4458
g68
(g69
g70
NtRp4459
(dp4460
g73
(dp4461
g81
I5
ssg82
g4455
sg75
(lp4462
S'None'
p4463
asbasbasbag68
(g84
g70
NtRp4464
(dp4465
g73
(dp4466
sg82
g3944
sg75
(lp4467
g68
(g89
g70
NtRp4468
(dp4469
g73
(dp4470
g93
g94
ssg82
g4464
sg75
(lp4471
S'headers'
p4472
asbag68
(g89
g70
NtRp4473
(dp4474
g73
(dp4475
g100
g101
ssg82
g4464
sg75
(lp4476
S':'
asbag68
(g89
g70
NtRp4477
(dp4478
g73
(dp4479
sg82
g4464
sg75
(lp4480
g68
(g69
g70
NtRp4481
(dp4482
g73
(dp4483
g81
I5
ssg82
g4477
sg75
(lp4484
g68
(g77
g70
NtRp4485
(dp4486
g73
(dp4487
g81
I4
ssg82
Nsg75
(lp4488
g68
(g84
g70
NtRp4489
(dp4490
g73
(dp4491
sg82
g4485
sg75
(lp4492
g68
(g89
g70
NtRp4493
(dp4494
g73
(dp4495
g93
g94
ssg82
g4489
sg75
(lp4496
S'X-Powered-By'
p4497
asbag68
(g89
g70
NtRp4498
(dp4499
g73
(dp4500
g100
g101
ssg82
g4489
sg75
(lp4501
S':'
asbag68
(g89
g70
NtRp4502
(dp4503
g73
(dp4504
sg82
g4489
sg75
(lp4505
g68
(g69
g70
NtRp4506
(dp4507
g73
(dp4508
g81
I4
ssg82
g4502
sg75
(lp4509
S'web2py'
p4510
asbasbasbasbasbasbasbag68
(g84
g70
NtRp4511
(dp4512
g73
(dp4513
sg82
g3944
sg75
(lp4514
g68
(g89
g70
NtRp4515
(dp4516
g73
(dp4517
g93
g94
ssg82
g4511
sg75
(lp4518
S'menu'
p4519
asbag68
(g89
g70
NtRp4520
(dp4521
g73
(dp4522
g100
g101
ssg82
g4511
sg75
(lp4523
S':'
asbag68
(g89
g70
NtRp4524
(dp4525
g73
(dp4526
sg82
g4511
sg75
(lp4527
g68
(g69
g70
NtRp4528
(dp4529
g73
(dp4530
g81
I5
ssg82
g4524
sg75
(lp4531
g68
(g77
g70
NtRp4532
(dp4533
g73
(dp4534
g81
I4
ssg82
Nsg75
(lp4535
g68
(g84
g70
NtRp4536
(dp4537
g73
(dp4538
sg82
g4532
sg75
(lp4539
g68
(g89
g70
NtRp4540
(dp4541
g73
(dp4542
sg82
g4536
sg75
(lp4543
g68
(g69
g70
NtRp4544
(dp4545
g73
(dp4546
g81
I4
ssg82
g4540
sg75
(lp4547
g68
(g77
g70
NtRp4548
(dp4549
g73
(dp4550
g81
I3
ssg82
Nsg75
(lp4551
g68
(g84
g70
NtRp4552
(dp4553
g73
(dp4554
sg82
g4548
sg75
(lp4555
g68
(g89
g70
NtRp4556
(dp4557
g73
(dp4558
sg82
g4552
sg75
(lp4559
g68
(g69
g70
NtRp4560
(dp4561
g73
(dp4562
g81
I3
ssg82
g4556
sg75
(lp4563
cgluon.languages
lazyT_unpickle
p4564
(S't\x04\x00\x00\x00Home'
tRp4565
asbasbasbag68
(g84
g70
NtRp4566
(dp4567
g73
(dp4568
sg82
g4548
sg75
(lp4569
g68
(g89
g70
NtRp4570
(dp4571
g73
(dp4572
sg82
g4566
sg75
(lp4573
g68
(g69
g70
NtRp4574
(dp4575
g73
(dp4576
g81
I3
ssg82
g4570
sg75
(lp4577
g111
asbasbasbag68
(g84
g70
NtRp4578
(dp4579
g73
(dp4580
sg82
g4548
sg75
(lp4581
g68
(g89
g70
NtRp4582
(dp4583
g73
(dp4584
sg82
g4578
sg75
(lp4585
g68
(g69
g70
NtRp4586
(dp4587
g73
(dp4588
g81
I3
ssg82
g4582
sg75
(lp4589
S'/DEV_bootstrap_ch/default/list_all_projects'
p4590
asbasbasbag68
(g84
g70
NtRp4591
(dp4592
g73
(dp4593
sg82
g4548
sg75
(lp4594
g68
(g89
g70
NtRp4595
(dp4596
g73
(dp4597
sg82
g4591
sg75
(lp4598
g68
(g69
g70
NtRp4599
(dp4600
g73
(dp4601
g81
I3
ssg82
g4595
sg75
(lp4602
g68
(g77
g70
NtRp4603
(dp4604
g73
(dp4605
g81
I2
ssg82
Nsg75
(lp4606
sbasbasbasbasbasbasbasbag68
(g84
g70
NtRp4607
(dp4608
g73
(dp4609
sg82
g4532
sg75
(lp4610
g68
(g89
g70
NtRp4611
(dp4612
g73
(dp4613
sg82
g4607
sg75
(lp4614
g68
(g69
g70
NtRp4615
(dp4616
g73
(dp4617
g81
I4
ssg82
g4611
sg75
(lp4618
g68
(g77
g70
NtRp4619
(dp4620
g73
(dp4621
g81
I3
ssg82
Nsg75
(lp4622
g68
(g84
g70
NtRp4623
(dp4624
g73
(dp4625
sg82
g4619
sg75
(lp4626
g68
(g89
g70
NtRp4627
(dp4628
g73
(dp4629
sg82
g4623
sg75
(lp4630
g68
(g69
g70
NtRp4631
(dp4632
g73
(dp4633
g81
I3
ssg82
g4627
sg75
(lp4634
g4564
(S't\x08\x00\x00\x00Projects'
tRp4635
asbasbasbag68
(g84
g70
NtRp4636
(dp4637
g73
(dp4638
sg82
g4619
sg75
(lp4639
g68
(g89
g70
NtRp4640
(dp4641
g73
(dp4642
sg82
g4636
sg75
(lp4643
g68
(g69
g70
NtRp4644
(dp4645
g73
(dp4646
g81
I3
ssg82
g4640
sg75
(lp4647
g111
asbasbasbag68
(g84
g70
NtRp4648
(dp4649
g73
(dp4650
sg82
g4619
sg75
(lp4651
g68
(g89
g70
NtRp4652
(dp4653
g73
(dp4654
sg82
g4648
sg75
(lp4655
g68
(g69
g70
NtRp4656
(dp4657
g73
(dp4658
g81
I3
ssg82
g4652
sg75
(lp4659
S'/DEV_bootstrap_ch/default/list_all_projects'
p4660
asbasbasbag68
(g84
g70
NtRp4661
(dp4662
g73
(dp4663
sg82
g4619
sg75
(lp4664
g68
(g89
g70
NtRp4665
(dp4666
g73
(dp4667
sg82
g4661
sg75
(lp4668
g68
(g69
g70
NtRp4669
(dp4670
g73
(dp4671
g81
I3
ssg82
g4665
sg75
(lp4672
g68
(g77
g70
NtRp4673
(dp4674
g73
(dp4675
g81
I2
ssg82
Nsg75
(lp4676
sbasbasbasbasbasbasbasbag68
(g84
g70
NtRp4677
(dp4678
g73
(dp4679
sg82
g4532
sg75
(lp4680
g68
(g89
g70
NtRp4681
(dp4682
g73
(dp4683
sg82
g4677
sg75
(lp4684
g68
(g69
g70
NtRp4685
(dp4686
g73
(dp4687
g81
I4
ssg82
g4681
sg75
(lp4688
g68
(g77
g70
NtRp4689
(dp4690
g73
(dp4691
g81
I3
ssg82
Nsg75
(lp4692
g68
(g84
g70
NtRp4693
(dp4694
g73
(dp4695
sg82
g4689
sg75
(lp4696
g68
(g89
g70
NtRp4697
(dp4698
g73
(dp4699
sg82
g4693
sg75
(lp4700
g68
(g69
g70
NtRp4701
(dp4702
g73
(dp4703
g81
I3
ssg82
g4697
sg75
(lp4704
S'Pages'
p4705
asbasbasbag68
(g84
g70
NtRp4706
(dp4707
g73
(dp4708
sg82
g4689
sg75
(lp4709
g68
(g89
g70
NtRp4710
(dp4711
g73
(dp4712
sg82
g4706
sg75
(lp4713
g68
(g69
g70
NtRp4714
(dp4715
g73
(dp4716
g81
I3
ssg82
g4710
sg75
(lp4717
g111
asbasbasbag68
(g84
g70
NtRp4718
(dp4719
g73
(dp4720
sg82
g4689
sg75
(lp4721
g68
(g89
g70
NtRp4722
(dp4723
g73
(dp4724
sg82
g4718
sg75
(lp4725
g68
(g69
g70
NtRp4726
(dp4727
g73
(dp4728
g81
I3
ssg82
g4722
sg75
(lp4729
S'/DEV_bootstrap_ch/plugin_wiki/index'
p4730
asbasbasbasbasbasbasbasbasbasbasbag68
(g84
g70
NtRp4731
(dp4732
g73
(dp4733
sg82
g3944
sg75
(lp4734
g68
(g89
g70
NtRp4735
(dp4736
g73
(dp4737
g93
g94
ssg82
g4731
sg75
(lp4738
S'meta'
p4739
asbag68
(g89
g70
NtRp4740
(dp4741
g73
(dp4742
g100
g101
ssg82
g4731
sg75
(lp4743
S':'
asbag68
(g89
g70
NtRp4744
(dp4745
g73
(dp4746
sg82
g4731
sg75
(lp4747
g68
(g69
g70
NtRp4748
(dp4749
g73
(dp4750
g81
I5
ssg82
g4744
sg75
(lp4751
g68
(g77
g70
NtRp4752
(dp4753
g73
(dp4754
g81
I4
ssg82
Nsg75
(lp4755
g68
(g84
g70
NtRp4756
(dp4757
g73
(dp4758
sg82
g4752
sg75
(lp4759
g68
(g89
g70
NtRp4760
(dp4761
g73
(dp4762
g93
g94
ssg82
g4756
sg75
(lp4763
S'author'
p4764
asbag68
(g89
g70
NtRp4765
(dp4766
g73
(dp4767
g100
g101
ssg82
g4756
sg75
(lp4768
S':'
asbag68
(g89
g70
NtRp4769
(dp4770
g73
(dp4771
sg82
g4756
sg75
(lp4772
g68
(g69
g70
NtRp4773
(dp4774
g73
(dp4775
g81
I4
ssg82
g4769
sg75
(lp4776
S'Vikram Pudi <vikram@iiit.ac.in>'
p4777
asbasbasbag68
(g84
g70
NtRp4778
(dp4779
g73
(dp4780
sg82
g4752
sg75
(lp4781
g68
(g89
g70
NtRp4782
(dp4783
g73
(dp4784
g93
g94
ssg82
g4778
sg75
(lp4785
S'copyright'
p4786
asbag68
(g89
g70
NtRp4787
(dp4788
g73
(dp4789
g100
g101
ssg82
g4778
sg75
(lp4790
S':'
asbag68
(g89
g70
NtRp4791
(dp4792
g73
(dp4793
sg82
g4778
sg75
(lp4794
g68
(g69
g70
NtRp4795
(dp4796
g73
(dp4797
g81
I4
ssg82
g4791
sg75
(lp4798
S'Copyright 2011'
p4799
asbasbasbag68
(g84
g70
NtRp4800
(dp4801
g73
(dp4802
sg82
g4752
sg75
(lp4803
g68
(g89
g70
NtRp4804
(dp4805
g73
(dp4806
g93
g94
ssg82
g4800
sg75
(lp4807
S'description'
p4808
asbag68
(g89
g70
NtRp4809
(dp4810
g73
(dp4811
g100
g101
ssg82
g4800
sg75
(lp4812
S':'
asbag68
(g89
g70
NtRp4813
(dp4814
g73
(dp4815
sg82
g4800
sg75
(lp4816
g68
(g69
g70
NtRp4817
(dp4818
g73
(dp4819
g81
I4
ssg82
g4813
sg75
(lp4820
S'Computational Core for Plant Metabolomics -- A project sanctioned by DBT, Govt. of India'
p4821
asbasbasbag68
(g84
g70
NtRp4822
(dp4823
g73
(dp4824
sg82
g4752
sg75
(lp4825
g68
(g89
g70
NtRp4826
(dp4827
g73
(dp4828
g93
g94
ssg82
g4822
sg75
(lp4829
S'generator'
p4830
asbag68
(g89
g70
NtRp4831
(dp4832
g73
(dp4833
g100
g101
ssg82
g4822
sg75
(lp4834
S':'
asbag68
(g89
g70
NtRp4835
(dp4836
g73
(dp4837
sg82
g4822
sg75
(lp4838
g68
(g69
g70
NtRp4839
(dp4840
g73
(dp4841
g81
I4
ssg82
g4835
sg75
(lp4842
S'Web2py Web Framework'
p4843
asbasbasbag68
(g84
g70
NtRp4844
(dp4845
g73
(dp4846
sg82
g4752
sg75
(lp4847
g68
(g89
g70
NtRp4848
(dp4849
g73
(dp4850
g93
g94
ssg82
g4844
sg75
(lp4851
S'keywords'
p4852
asbag68
(g89
g70
NtRp4853
(dp4854
g73
(dp4855
g100
g101
ssg82
g4844
sg75
(lp4856
S':'
asbag68
(g89
g70
NtRp4857
(dp4858
g73
(dp4859
sg82
g4844
sg75
(lp4860
g68
(g69
g70
NtRp4861
(dp4862
g73
(dp4863
g81
I4
ssg82
g4857
sg75
(lp4864
S'web2py, python, metabolome, metabolomics'
p4865
asbasbasbasbasbasbasbag68
(g84
g70
NtRp4866
(dp4867
g73
(dp4868
sg82
g3944
sg75
(lp4869
g68
(g89
g70
NtRp4870
(dp4871
g73
(dp4872
g93
g94
ssg82
g4866
sg75
(lp4873
S'models_to_run'
p4874
asbag68
(g89
g70
NtRp4875
(dp4876
g73
(dp4877
g100
g101
ssg82
g4866
sg75
(lp4878
S':'
asbag68
(g89
g70
NtRp4879
(dp4880
g73
(dp4881
sg82
g4866
sg75
(lp4882
g68
(g69
g70
NtRp4883
(dp4884
g73
(dp4885
g81
I5
ssg82
g4879
sg75
(lp4886
g68
(g77
g70
NtRp4887
(dp4888
g73
(dp4889
g81
I4
ssg82
Nsg75
(lp4890
g68
(g84
g70
NtRp4891
(dp4892
g73
(dp4893
sg82
g4887
sg75
(lp4894
g68
(g89
g70
NtRp4895
(dp4896
g73
(dp4897
sg82
g4891
sg75
(lp4898
g68
(g69
g70
NtRp4899
(dp4900
g73
(dp4901
g81
I4
ssg82
g4895
sg75
(lp4902
S'^\\w+\\.py$'
p4903
asbasbasbag68
(g84
g70
NtRp4904
(dp4905
g73
(dp4906
sg82
g4887
sg75
(lp4907
g68
(g89
g70
NtRp4908
(dp4909
g73
(dp4910
sg82
g4904
sg75
(lp4911
g68
(g69
g70
NtRp4912
(dp4913
g73
(dp4914
g81
I4
ssg82
g4908
sg75
(lp4915
S'^default/\\w+\\.py$'
p4916
asbasbasbag68
(g84
g70
NtRp4917
(dp4918
g73
(dp4919
sg82
g4887
sg75
(lp4920
g68
(g89
g70
NtRp4921
(dp4922
g73
(dp4923
sg82
g4917
sg75
(lp4924
g68
(g69
g70
NtRp4925
(dp4926
g73
(dp4927
g81
I4
ssg82
g4921
sg75
(lp4928
S'^default/insert_spectrophotometry/\\w+\\.py$'
p4929
asbasbasbasbasbasbasbag68
(g84
g70
NtRp4930
(dp4931
g73
(dp4932
sg82
g3944
sg75
(lp4933
g68
(g89
g70
NtRp4934
(dp4935
g73
(dp4936
g93
g94
ssg82
g4930
sg75
(lp4937
S'postprocessing'
p4938
asbag68
(g89
g70
NtRp4939
(dp4940
g73
(dp4941
g100
g101
ssg82
g4930
sg75
(lp4942
S':'
asbag68
(g89
g70
NtRp4943
(dp4944
g73
(dp4945
sg82
g4930
sg75
(lp4946
g68
(g69
g70
NtRp4947
(dp4948
g73
(dp4949
g81
I5
ssg82
g4943
sg75
(lp4950
g68
(g77
g70
NtRp4951
(dp4952
g73
(dp4953
g81
I4
ssg82
Nsg75
(lp4954
sbasbasbasbag68
(g84
g70
NtRp4955
(dp4956
g73
(dp4957
sg82
g3944
sg75
(lp4958
g68
(g89
g70
NtRp4959
(dp4960
g73
(dp4961
g93
g94
ssg82
g4955
sg75
(lp4962
S'session_cookie_expires'
p4963
asbag68
(g89
g70
NtRp4964
(dp4965
g73
(dp4966
g100
g101
ssg82
g4955
sg75
(lp4967
S':'
asbag68
(g89
g70
NtRp4968
(dp4969
g73
(dp4970
sg82
g4955
sg75
(lp4971
g68
(g69
g70
NtRp4972
(dp4973
g73
(dp4974
g81
I5
ssg82
g4968
sg75
(lp4975
S'None'
p4976
asbasbasbag68
(g84
g70
NtRp4977
(dp4978
g73
(dp4979
sg82
g3944
sg75
(lp4980
g68
(g89
g70
NtRp4981
(dp4982
g73
(dp4983
g93
g94
ssg82
g4977
sg75
(lp4984
S'session_data_name'
p4985
asbag68
(g89
g70
NtRp4986
(dp4987
g73
(dp4988
g100
g101
ssg82
g4977
sg75
(lp4989
S':'
asbag68
(g89
g70
NtRp4990
(dp4991
g73
(dp4992
sg82
g4977
sg75
(lp4993
g68
(g69
g70
NtRp4994
(dp4995
g73
(dp4996
g81
I5
ssg82
g4990
sg75
(lp4997
S'session_data_dev_bootstrap_ch'
p4998
asbasbasbag68
(g84
g70
NtRp4999
(dp5000
g73
(dp5001
sg82
g3944
sg75
(lp5002
g68
(g89
g70
NtRp5003
(dp5004
g73
(dp5005
g93
g94
ssg82
g4999
sg75
(lp5006
S'session_file'
p5007
asbag68
(g89
g70
NtRp5008
(dp5009
g73
(dp5010
g100
g101
ssg82
g4999
sg75
(lp5011
S':'
asbag68
(g89
g70
NtRp5012
(dp5013
g73
(dp5014
sg82
g4999
sg75
(lp5015
g68
(g69
g70
NtRp5016
(dp5017
g73
(dp5018
g81
I5
ssg82
g5012
sg75
(lp5019
S"<open file '/home/anil/Downloads/web2py/applications/DEV_bootstrap_ch/sessions/127.0.0.1-0786449f-0f57-4893-b642-5d65efb22480', mode 'rb+' at 0xafe5f0d0>"
p5020
asbasbasbag68
(g84
g70
NtRp5021
(dp5022
g73
(dp5023
sg82
g3944
sg75
(lp5024
g68
(g89
g70
NtRp5025
(dp5026
g73
(dp5027
g93
g94
ssg82
g5021
sg75
(lp5028
S'session_filename'
p5029
asbag68
(g89
g70
NtRp5030
(dp5031
g73
(dp5032
g100
g101
ssg82
g5021
sg75
(lp5033
S':'
asbag68
(g89
g70
NtRp5034
(dp5035
g73
(dp5036
sg82
g5021
sg75
(lp5037
g68
(g69
g70
NtRp5038
(dp5039
g73
(dp5040
g81
I5
ssg82
g5034
sg75
(lp5041
S'/home/anil/Downloads/web2py/applications/DEV_bootstrap_ch/sessions/127.0.0.1-0786449f-0f57-4893-b642-5d65efb22480'
p5042
asbasbasbag68
(g84
g70
NtRp5043
(dp5044
g73
(dp5045
sg82
g3944
sg75
(lp5046
g68
(g89
g70
NtRp5047
(dp5048
g73
(dp5049
g93
g94
ssg82
g5043
sg75
(lp5050
S'session_id'
p5051
asbag68
(g89
g70
NtRp5052
(dp5053
g73
(dp5054
g100
g101
ssg82
g5043
sg75
(lp5055
S':'
asbag68
(g89
g70
NtRp5056
(dp5057
g73
(dp5058
sg82
g5043
sg75
(lp5059
g68
(g69
g70
NtRp5060
(dp5061
g73
(dp5062
g81
I5
ssg82
g5056
sg75
(lp5063
g652
asbasbasbag68
(g84
g70
NtRp5064
(dp5065
g73
(dp5066
sg82
g3944
sg75
(lp5067
g68
(g89
g70
NtRp5068
(dp5069
g73
(dp5070
g93
g94
ssg82
g5064
sg75
(lp5071
S'session_id_name'
p5072
asbag68
(g89
g70
NtRp5073
(dp5074
g73
(dp5075
g100
g101
ssg82
g5064
sg75
(lp5076
S':'
asbag68
(g89
g70
NtRp5077
(dp5078
g73
(dp5079
sg82
g5064
sg75
(lp5080
g68
(g69
g70
NtRp5081
(dp5082
g73
(dp5083
g81
I5
ssg82
g5077
sg75
(lp5084
g4001
asbasbasbag68
(g84
g70
NtRp5085
(dp5086
g73
(dp5087
sg82
g3944
sg75
(lp5088
g68
(g89
g70
NtRp5089
(dp5090
g73
(dp5091
g93
g94
ssg82
g5085
sg75
(lp5092
S'session_locked'
p5093
asbag68
(g89
g70
NtRp5094
(dp5095
g73
(dp5096
g100
g101
ssg82
g5085
sg75
(lp5097
S':'
asbag68
(g89
g70
NtRp5098
(dp5099
g73
(dp5100
sg82
g5085
sg75
(lp5101
g68
(g69
g70
NtRp5102
(dp5103
g73
(dp5104
g81
I5
ssg82
g5098
sg75
(lp5105
g1804
asbasbasbag68
(g84
g70
NtRp5106
(dp5107
g73
(dp5108
sg82
g3944
sg75
(lp5109
g68
(g89
g70
NtRp5110
(dp5111
g73
(dp5112
g93
g94
ssg82
g5106
sg75
(lp5113
S'session_new'
p5114
asbag68
(g89
g70
NtRp5115
(dp5116
g73
(dp5117
g100
g101
ssg82
g5106
sg75
(lp5118
S':'
asbag68
(g89
g70
NtRp5119
(dp5120
g73
(dp5121
sg82
g5106
sg75
(lp5122
g68
(g69
g70
NtRp5123
(dp5124
g73
(dp5125
g81
I5
ssg82
g5119
sg75
(lp5126
g111
asbasbasbag68
(g84
g70
NtRp5127
(dp5128
g73
(dp5129
sg82
g3944
sg75
(lp5130
g68
(g89
g70
NtRp5131
(dp5132
g73
(dp5133
g93
g94
ssg82
g5127
sg75
(lp5134
S'session_storage_type'
p5135
asbag68
(g89
g70
NtRp5136
(dp5137
g73
(dp5138
g100
g101
ssg82
g5127
sg75
(lp5139
S':'
asbag68
(g89
g70
NtRp5140
(dp5141
g73
(dp5142
sg82
g5127
sg75
(lp5143
g68
(g69
g70
NtRp5144
(dp5145
g73
(dp5146
g81
I5
ssg82
g5140
sg75
(lp5147
g3278
asbasbasbag68
(g84
g70
NtRp5148
(dp5149
g73
(dp5150
sg82
g3944
sg75
(lp5151
g68
(g89
g70
NtRp5152
(dp5153
g73
(dp5154
g93
g94
ssg82
g5148
sg75
(lp5155
S'status'
p5156
asbag68
(g89
g70
NtRp5157
(dp5158
g73
(dp5159
g100
g101
ssg82
g5148
sg75
(lp5160
S':'
asbag68
(g89
g70
NtRp5161
(dp5162
g73
(dp5163
sg82
g5148
sg75
(lp5164
g68
(g69
g70
NtRp5165
(dp5166
g73
(dp5167
g81
I5
ssg82
g5161
sg75
(lp5168
S'200'
p5169
asbasbasbag68
(g84
g70
NtRp5170
(dp5171
g73
(dp5172
sg82
g3944
sg75
(lp5173
g68
(g89
g70
NtRp5174
(dp5175
g73
(dp5176
g93
g94
ssg82
g5170
sg75
(lp5177
S'subtitle'
p5178
asbag68
(g89
g70
NtRp5179
(dp5180
g73
(dp5181
g100
g101
ssg82
g5170
sg75
(lp5182
S':'
asbag68
(g89
g70
NtRp5183
(dp5184
g73
(dp5185
sg82
g5170
sg75
(lp5186
g68
(g69
g70
NtRp5187
(dp5188
g73
(dp5189
g81
I5
ssg82
g5183
sg75
(lp5190
g4564
(S's)\x00\x00\x00Computational Core for Plant Metabolomics'
tRp5191
asbasbasbag68
(g84
g70
NtRp5192
(dp5193
g73
(dp5194
sg82
g3944
sg75
(lp5195
g68
(g89
g70
NtRp5196
(dp5197
g73
(dp5198
g93
g94
ssg82
g5192
sg75
(lp5199
g3810
asbag68
(g89
g70
NtRp5200
(dp5201
g73
(dp5202
g100
g101
ssg82
g5192
sg75
(lp5203
S':'
asbag68
(g89
g70
NtRp5204
(dp5205
g73
(dp5206
sg82
g5192
sg75
(lp5207
g68
(g69
g70
NtRp5208
(dp5209
g73
(dp5210
g81
I5
ssg82
g5204
sg75
(lp5211
g133
asbasbasbag68
(g84
g70
NtRp5212
(dp5213
g73
(dp5214
sg82
g3944
sg75
(lp5215
g68
(g89
g70
NtRp5216
(dp5217
g73
(dp5218
g93
g94
ssg82
g5212
sg75
(lp5219
S'view'
p5220
asbag68
(g89
g70
NtRp5221
(dp5222
g73
(dp5223
g100
g101
ssg82
g5212
sg75
(lp5224
S':'
asbag68
(g89
g70
NtRp5225
(dp5226
g73
(dp5227
sg82
g5212
sg75
(lp5228
g68
(g69
g70
NtRp5229
(dp5230
g73
(dp5231
g81
I5
ssg82
g5225
sg75
(lp5232
S'default/insert_spectrophotometry.html'
p5233
asbasbasbasbasbsS'locals'
p5234
(dp5235
g4
S"'/home/anil/Downloads/web2py/applications/DEV_bootstrap_ch/controllers/default.py'"
p5236
sg6
S"'# -*- coding: utf-8 -*-\\n# this file is released ..._vars=response._caller(insert_spectrophotometry)\\n'"
p5237
sssS'traceback'
p5238
S'Traceback (most recent call last):\n  File "/home/anil/Downloads/web2py/gluon/restricted.py", line 211, in restricted\n    ccode = compile2(code, layer)\n  File "/home/anil/Downloads/web2py/gluon/restricted.py", line 194, in compile2\n    return compile(code.rstrip().replace(\'\\r\\n\', \'\\n\') + \'\\n\', layer, \'exec\')\n  File "/home/anil/Downloads/web2py/applications/DEV_bootstrap_ch/controllers/default.py", line 924\n    if count > 0:\n   ^\nIndentationError: unexpected indent\n'
p5239
s.