(dp1
S'output'
p2
S"<type 'exceptions.SyntaxError'> invalid syntax (default.py, line 337)"
p3
sS'layer'
p4
S'/home/anil/Downloads/web2py/applications/DEV_bootstrap_ch/controllers/default.py'
p5
sS'code'
p6
S'# -*- coding: utf-8 -*-\n# this file is released under public domain and you can use without limitations\n\n########################## Tips\n#http://stackoverflow.com/questions/12354353/duplicate-a-record-and-its-references-in-web2py\n\n\n#########################################################################\n## This is a samples controller\n## - index is the default action of any application\n## - user is required for authentication and authorization\n## - download is for downloading files uploaded in the db (does streaming)\n## - call exposes all registered services (none by default)\n#########################################################################\n\ndef index():\n    """\n    example action using the internationalization operator T and flash\n    rendered by views/default/index.html or views/generic.html\n    """\n    redirect(URL(\'default\',\'list_all_projects\'))\n    #redirect(URL(\'plugin_wiki\',\'page/home\'))\n\ndef user():\n    """\n    exposes:\n    http://..../[app]/default/user/login\n    http://..../[app]/default/user/logout\n    http://..../[app]/default/user/register\n    http://..../[app]/default/user/profile\n    http://..../[app]/default/user/retrieve_password\n    http://..../[app]/default/user/change_password\n    use @auth.requires_login()\n        @auth.requires_membership(\'group name\')\n        @auth.requires_permission(\'read\',\'table name\',record_id)\n    to decorate functions that need access control\n    """\n    return dict(form=auth())\n\ndef download():\n    """\n    allows downloading of uploaded files\n    http://..../[app]/default/download/[filename]\n    """\n    return response.download(request,db)\n\n\ndef call():\n    """\n    exposes services. for example:\n    http://..../[app]/default/call/jsonrpc\n    decorate with @services.jsonrpc the functions to expose\n    supports xml, json, xmlrpc, jsonrpc, amfrpc, rss, csv\n    """\n    return service()\n\n\ndef authenticate(uid,pid,func):   \n   result = db(db.role.user == uid)(db.role.approval_status==1)(db.role.project == pid).select(db.role.ALL)\n   myroles = [role_list[int(k.role)] for k in result]\n   is_coordinator = db(db.project.project_coordinator == uid).select(db.project.ALL)\n   if func == \'roles\':\n\tif len(is_coordinator):\n\t  error = \'\'\n\telse:\n\t   error = \'You must be a project co-ordinator to manage roles\'\n\treturn error  \n   if func == \'add_project\':\n\tif len(is_coordinator):\n\t  error = \'\'\n\telse:\n\t   error = \'\'\n        return error\n   if func == \'add_sample\':\n\tif \'experimentalist\' in myroles:\n\t  error = \'\'\n\telse:\n\t   error = \'SignUp for  "Experimentalist Role" in this project to add a sample. Use Browser back button to navigate to Project View.\'\n        return error\n   if func == \'experimentalist\':\n\tif \'experimentalist\' in myroles:\n\t  error = \'\'\n\telse:\n\t   error = \'You must be an experimentalist to add the biosource information of a sample\'\n        return error\n   if func == \'my_samples\':\n\tif  \'experimentalist\' in myroles:\n\t  error = \'\'\n\telse:\n\t   error = \'You are not authorized to view this page\'\n        return error\n\ndef basic_groups(pid):\n    """ creates the basic groups on general basis or id basis """\n    if not pid:\n        for i in role_list:\n\t   auth.add_group(i,i) \n    else:\n        pid_groups = [str(pid)+\'#\'+i for i in role_list]\n\tfor k in pid_groups:\n\t   auth.add_group(k,k)\n    return locals()\t   \n\n\n@auth.requires_login()\ndef add_project():\n    error = authenticate(auth.user.id,\'\',\'add_project\')\n    form = SQLFORM(db.project,fields=[\'name\',\'code\',\'start_date\',\'project_description\',\'project_literature_reference\',\'project_journal_name\'],showid=False)\n    form.vars.project_coordinator = auth.user.id\n    if form.process().accepted:\n       response.flash =\'accepted\'\n       result = db(db.project.name == form.vars.name).select(db.project.ALL).first()\n       basic_groups(result.id)\n       db.role.insert(user=auth.user.id,project=result.id,role=6,approval_status=1,member_since=now)\n       redirect(URL(\'project_viewer\',args = form.vars.id))\n    elif form.errors:\n       response.flash = \'errors\'\n    return locals()\n\n@auth.requires_login()\ndef remove_project():\n    response.menu = [\n    (T(\'Home\'), False, URL(\'default\',\'list_all_projects\'), [])\n    ]\n    """takes an id and removes the project """ \n    pid  = request.args(0)\n    pid_groups = [str(pid)+\'#\'+i for i in role_list]\n    for z in pid_groups:\n\tpgid = auth.id_group(z)\n\tauth.del_group(pgid)\n    del db.project[pid]\n    return locals()\n\ndef add_experiment():\n    grid = SQLFORM.grid(db.experiment)\n    return locals()\n\ndef new_affiliation():\n    form = SQLFORM(db.affiliation)\n    return locals()\n\ndef edit_project():\n    response.menu = [\n    (T(\'Home\'), False, URL(\'default\',\'list_all_projects\'), []),\n    (T(\'Project\'), False, URL(\'default\',\'project_viewer\',args=request.args),[])\n    ]\n    crud.settings.update_next = URL(\'project_viewer\',args=request.args)\n    form=crud.update(db.project,request.args(0),deletable=False)\n    return locals();\n \n@auth.requires_login()\ndef project_viewer():\n    pid = request.args[-1]\n    project=db(db.project.id==pid).select(db.project.ALL).first()\n    cord = db(db.auth_user.id==project.project_coordinator).select(db.auth_user.ALL).first()\n    \n    if authenticate(auth.user.id,\'\',\'roles\') == \'\':\n      response.menu = [\n      (T(\'Home\'), False, URL(\'default\',\'list_all_projects\'), []),\n      (T(\'Project\'), False, URL(\'default\',\'project_viewer\',args=request.args[-1]),[\n      (T(\'Grant Role\'),False,URL(\'roles\',args=project.id)),\n      (T(\'Edit Project\'),False,URL(\'edit_project\',args=project.id)),\n      (T(\'SignUP\'),False,URL(\'reg_project\',args=project.id))]\n      )\n      ]\n    else :\n      response.menu = [\n      (T(\'Home\'), False, URL(\'default\',\'list_all_projects\'), []),\n      (T(\'Project\'), False, URL(\'default\',\'project_viewer\',args=request.args[-1]),[\n      (T(\'SignUP\'),False,URL(\'reg_project\',args=project.id))]\n      )\n      ]\n      \n    if project.project_status == \'1\':\n      response.menu+= [\n      (T(\'Published Samples\'), False,URL(\'list_all_pub_samples\',args=(pid)),[])\n      ]\n    elif authenticate(auth.user.id,pid,\'add_sample\')==\'\':\n        response.menu+= [\n        (T(\'Samples\'), False,URL(\'my_samples\',args=(pid)),[\n        (T(\'My Samples\'), False,URL(\'my_samples\',args=(pid))),\n        ])\n        ]\n    if len(request.args) == 2:\n        response.flash = \'Project Succesfully \' + request.args[-2]\n       \n    users=db(db.role.approval_status==1)(db.role.project==pid)(db.role.project == db.project.id)(db.role.user==db.auth_user.id).select(db.role.ALL,db.auth_user.ALL)\n    is_coordinator = \'\'\n    myroles = \'\'\n    if auth.user:\n      is_coordinator = db(db.project.id == pid)(db.project.project_coordinator == auth.user.id).select(db.project.ALL).first()\n      result = db(db.role.user == auth.user.id)(db.role.project == pid).select(db.role.ALL)\n      myroles = [role_list[int(k.role)] for k in result]\n      \n    return locals()\n\n\ndef add_sample():\n  """ creates a exp on an project basis and should continue to fill the bio source data """\n  """ available to the experimentalist """ \n  response.menu = [\n  (T(\'Home\'), False, URL(\'default\',\'list_all_projects\'), [])\n  ]\n  if \'new\' in request.args:\n   pid = request.args[-3]\n  else:\n   pid = request.args(0)\n  error = authenticate(auth.user.id,pid,\'add_sample\') \n  form = SQLFORM(db.sample,fields=[\'name\',\'code\',\'description\',\'scientific_name\'],showid=False)\n#added a field project in sample table\n#added two more fields in form insert root/replica etc and scientific name\n  if form.validate():\n      i = db.sample.insert(experimentalist=auth.user.id,name=form.vars.name,code=form.vars.code ,description=form.vars.description,experiment=pid,scientific_name=form.vars.scientific_name,working_status=1,publication_status=0)\n      response.flash = \'sample has been created\'\n      redirect(URL(\'list_all_dev_projects\',args=[\'project\',\'sample.project\',pid])) \n      # redirect to the sample creation \n  elif form.errors:\n      response.flash = \'Form has errors\'\n  return locals()\n\ndef sample_viewer():\n   response.menu = [\n   (T(\'Home\'), False, URL(\'default\',\'list_all_projects\'), [])\n   ]\n   i = request.args[-1]\n   if \'view\' in request.args: \n\tform = SQLFORM(db.sample, i,readonly =True,showid=False)\n   if \'edit\' in request.args: \n\tform = SQLFORM(db.sample, i,showid=False)\n   if form.process().accepted:\n\tresponse.flash = \'form accepted\'\n\tredirect(URL(\'list_all_dev_projects\',args = request.args[0:-3])) \n   elif form.errors:\n\tresponse.flash = \'form has errors\'\n   return dict(form=form)\n\n@auth.requires_login()\ndef list_all_projects():\n    response.menu = [\n    (T(\'Home\'), False, URL(\'default\',\'index\'), [])\n    #(T(\'Home\'), False, URL(\'default\',\'list_all_projects\'), []),\n    #(T(\'Project\'), False, URL(\'default\',\'list_all_projects\'), [(T(\'Add Project\'),False,URL(\'default\',\'add_project\'))])\n    ]\n    form=FORM(\n              INPUT(_name=\'name\', requires=IS_NOT_EMPTY()),\n              INPUT(_type=\'submit\'))\n    form.elements(\'input[type=submit]\')[0]["_value"] = "Search"\n    if form.accepts(request,session):\n      redirect(URL(\'grid?keywords=tomato\')) \n    \n    #form=FORM(\'\',INPUT(_name=\'name\') ,INPUT(_type=\'submit\'))\n    #if form.process().accepted:\n      #redirect(URL(\'grid\')) \n    pub_projects = db(db.project.project_status == 1)(db.project.project_coordinator==db.auth_user.id).select(db.project.ALL,db.auth_user.ALL)\n    dev_projects = db(db.project.project_status == 0)(db.project.project_coordinator==db.auth_user.id).select(db.project.ALL,db.auth_user.ALL)\n    authenticated = \'no\'\n    if auth.user:\n     authenticated = authenticate(auth.user.id,\'\',\'add_project\')\n    return locals()\n\ndef grid():\n  # query=((db.project.project_status==0)&(db.experiment.project==db.project.id)&(db.sample.experiment==db.experiment.id)&(db.biosource.sample_name==db.sample.id))\n   query=((db.project.project_status==0)&(db.experiment.project==db.project.id)&(db.sample.experiment==db.experiment.id)&(db.sample.id==db.biosource.sample_name))\n   #query=((db.project.project_status==0))\n#   query=((db.sample.experiment==db.experiment.id)&((db.sample.id==db.biosource.sample_name)|(db.sample.id==db.plant_growth_condition.sample_name)))\n   grid = SQLFORM.grid(query)\n   return locals() \n\ndef temp():\n   q1 = (db.project.project_status ==  0)\n   q2 = (db.sample.publication_status == True)\n   ck = {}\n   fi = [db.project.name,db.project.project_coordinator,db.project.start_date,db.project.project_status,db.experiment.code,db.sample.name,db.sample.code,db.biosource.sample_name,db.plant_growth_condition.sample_name,db.treatments.sample_name,db.harvests.sample_name,db.extraction_preparation.sample_name,db.gas_chromatography.sample_name,db.liquid_chromatography.sample_name,db.mass_spectroscopy.sample_name,db.raw_data_storage_information.sample_name]\n   l1=[lambda row: A(\'View Post\',_href=URL("default","view",args=[row.id]))]\n   links={\'project\':l1}\n   grid = SQLFORM.smartgrid(db.project,ck,fields=fi,links=links,linked_tables=[\'experiment\',\'sample\',\'biosource\',\'plant_growth_condition\',\'treatments\',\'harvests\',\'extraction_preparation\',\'gas_chromatography\',\'liquid_chromatography\',\'mass_spectroscopy\',\'raw_data_storage_information\']) \n   return locals() \n\ndef list_all_pub_projects():\n    response.menu = [\n    (T(\'Home\'), False, URL(\'default\',\'list_all_projects\'), [])\n    ]\n    q1 = (db.project.project_status ==  1)\n    q2 = (db.sample.publication_status == True)\n    ck = {\'project\':q1,\'sample\':q2}\n    fi = [db.project.name,db.project.project_coordinator,db.project.start_date,db.project.project_status,db.experiment.code,db.sample.name,db.sample.code,db.sample.replica,db.biosource.sample_name,db.plant_growth_condition.sample_name,db.treatments.sample_name,db.harvests.sample_name,db.extraction_preparation.sample_name,db.gas_chromatography.sample_name,db.liquid_chromatography.sample_name,db.mass_spectroscopy.sample_name,db.raw_data_storage_information.sample_name]\n    if \'view\' in request.args or \'edit\' in request.args or \'new\' in request.args:\n    \trouter()\n    grid = SQLFORM.smartgrid(db.project,ck,fields=fi,editable=False,deletable=False,create = False,linked_tables=[\'experiment\',\'sample\',\'biosource\',\'plant_growth_condition\',\'treatments\',\'harvests\',\'extraction_preparation\',\'gas_chromatography\',\'liquid_chromatography\',\'mass_spectroscopy\',\'raw_data_storage_information\']) \n    \n    return locals()\n\n@auth.requires_login()\ndef list_all_dev_projects():\n    response.menu = [\n    (T(\'Home\'), False, URL(\'default\',\'list_all_projects\'), [])\n    ]\n    db.sample.experimentalist.default=auth.user.id\n    db.experiment.experimentalist.default=auth.user.id\n    db.sample.experiment.writable = False\n    db.sample.parent.readable = False\n    db.sample.experiment.readable = False\n    db.experiment.experimentalist.writable = False\n    q1 = (db.project.project_status ==  0)\n    q2 = (db.sample.experimentalist == auth.user.id)\n    ck = {\'project\':q1,\'sample\':q2}\n    fi = [db.project.name,db.project.project_coordinator,db.project.start_date,db.project.project_status,db.experiment.code,db.sample.name,db.sample.code,db.sample.replica,db.sample.publication_status,db.biosource.sample_name,db.plant_growth_condition.sample_name,db.treatments.sample_name,db.harvests.sample_name,db.extraction_preparation.sample_name,db.gas_chromatography.sample_name,db.liquid_chromatography.sample_name,db.mass_spectroscopy.sample_name,db.spectrophotometry.sample_name,db.raw_data_storage_information.sample_name]\n    edit_dict = {\'project\':False}\n    delete_dict = {\'project\':False}\n#Allow only one original sample to be added in an experiment others are replicates\n    addsample = True\n   # if \'sample\' in request.args and \'new\' in request.args:\n   #      count = db(db.sample.experiment==request.args[-3]).count()\n   #      if(count>0):\n   #        db.sample.replica.default = \'replicate\'\n   #       # db.sample.replica.requires=IS_IN_SET([\'replicate\',\'alicot\'])\n   #      else:\n   #        db.sample.replica.default = \'Original\'\n   #        db.sample.replica.writable = False\n           \n    create_dict = {\'project\':False,\'sample\':addsample}\n    orderby_dict ={\'sample\':db.sample.name} \n#Links for replicating samples  \n    args= request.args[0:5]\n    #args1=[\'project\',request.args[1],request.args[2],request.args[3],request.args[4],"biosource.sample_name","edit","biosource"]\n    l1=[lambda row: A(\'replicate\',_href=URL("default","duplicate",args=request.args[:]+["replicate"]+[row.id])), \\\n           lambda row: A(\'aliqout\',_href=URL("default","duplicate",args=request.args[:]+["aliqout"]+[row.id])), \\\n           dict(header=\'Biosource\',body=lambda row: A(\'\'+tes(row.id,\'biosource\'),_href=URL("default","router",args=getargs(row.id,args,"biosource")))), \\\n           dict(header=\'PGC\',body=lambda row: A(\'\'+tes(row.id,\'plant_growth_condition\'),_href=URL("default","router",args=getargs(row.id,args,"plant_growth_condition")))), \\\n           dict(header=\'Treatment\',body=lambda row: A(\'\'+tes(row.id,\'treatments\'),_href=URL("default","router",args=getargs(row.id,args,"treatments")))), \\\n           dict(header=\'Harvest\',body=lambda row: A(\'\'+tes(row.id,\'harvests\'),_href=URL("default","router",args=getargs(row.id,args,"harvests"))), \\\n           dict(header=\'Extraction\',body =lambda row: A(\'\'+tes(row.id,\'extraction_preparation\'),_href=URL("default","router",args=getargs(row.id,args,"extraction_preparation")))), \\\n           dict(header=\'GC\',body=lambda row: A(\'\'+tes(row.id,\'gas_chromatography\'),_href=URL("default","router",args=getargs(row.id,args,"gas_chromatography")))), \\\n           dict(header=\'LC\',body=lambda row: A(\'\'+tes(row.id,\'liquid_chromatography\'),_href=URL("default","router",args=getargs(row.id,args,"liquid_chromatography")))), \\\n           dict(header=\'MS\',body=lambda row: A(\'\'+tes(row.id,\'mass_spectroscopy\'),_href=URL("default","router",args=getargs(row.id,args,"mass_spectroscopy")))), \\\n           dict(header=\'SPmetry\',body=lambda row: A(\'\'+tes(row.id,\'spectrophotometry\'),_href=URL("default","router",args=getargs(row.id,args,"spectrophotometry"))))\\\n       ]\n    links={\'sample\':l1}\n#customized Views for certain forms using router   \n    if \'view\' in request.args or \'edit\' in request.args or \'new\' in request.args:\n     \trouter()\n    s={\'sample\':lambda ids : redirect(URL(\'default\', \'mapping_multiple\', vars=dict(id=ids)))}\n    \n    grid = SQLFORM.smartgrid(db.project,ck,fields=fi,editable=edit_dict,orderby=orderby_dict,create=create_dict,deletable=delete_dict,links=links,linked_tables=[\'experiment\',\'sample\',\'raw_data_storage_information\'],selectable = s) \n    return locals()\n\n#gets table name and rowid as input and creates another row with same details as rowid recod has\ndef tes(a,table):\n    if db(db[table].sample_name==a).count()==0:\n     return "add"\n    else:\n        return "edit"\n    return "add"\ndef getargs(a,args,table):\n    row = db(db[table].sample_name==a).select(db[table].id).first()\n    if row:\n        args=args+[table+".sample_name",a,"edit",table,row.id]\n        return args\n    else:\n        args = args+[table+".sample_name",a,"new",table]\n        return args\n\ndef copy(sid):\n    if db(db.template.user==auth.user.id).count() == 0:\n       db.template.insert(user=auth.user.id, sample=sid)\n    else:   \n       db(db.template.user == auth.user.id).update(sample=sid)\n    #redirect(URL(\'list_all_dev_projects\',args=request.args[0:-1]))\n    #Unique fields take care\n    #product.update(sampleid=\'temp\')\n    return() \ndef duplicate():\n    if True:\n        rec = db(db.sample.id==request.args[-1]).select(db.sample.ALL).first()\n        rec.update(parent=rec.id,replica=str(request.args[-2]))\n        in_row = db.sample.insert(**db.sample._filter_fields(rec))\n        for tb in [\'biosource\',\'plant_growth_condition\',\'treatments\',\'harvests\',\'extraction_preparation\',\'gas_chromatography\',\'liquid_chromatography\',\'mass_spectroscopy\',\'spectrophotometry\']:\n            row = db(db[tb].sample_name==request.args[-1]).select(db[tb].ALL).first()\n            if row:\n                row.update(sample_name = in_row.id)\n                db[tb].insert(**db[tb]._filter_fields(row)) \n        redirect(URL(\'list_all_dev_projects\',args=request.args[0:-2]))\n    redirect(URL(\'list_all_dev_projects\',args=[]))\n\n\ndef my_samples():\n    response.menu = [\n    (T(\'Home\'), False, URL(\'default\',\'list_all_projects\'), [])\n    ]\n    """ all my samples in the project with permissions to edit delete publish/unpublish samples """\n    error = authenticate(auth.user.id,request.args(0),\'add_sample\') \n    l =  [\'project\',\'experiment.project\',request.args(0)]\n    if error == \'\':\n      redirect(URL(\'list_all_dev_projects\',args=l))\n    return locals()\n\ndef list_all_samples1():\n    proj_id = request.args(0)\n    pub_samples = db((db.sample.working_status == 1)&(db.sample.project == proj_id)).select(db.sample.ALL)\n    dev_samples = db((db.sample.working_status == 0)&(db.sample.project == proj_id)).select(db.sample.ALL)\n    return locals()\n\ndef view_published_samples():\n    proj_id = request.args(0)\n    return locals() \n\ndef router():\n    l=request.args\n    if \'biosource\' in l:\n      redirect(URL(\'insert_biosource\',args = l))\n    elif \'plant_growth_condition\' in l:\n      redirect(URL(\'insert_pgc\',args = l))\n    elif \'treatments\' in l:\n      redirect(URL(\'insert_treatments\',args = l))\n    elif \'harvests\' in l:\n      redirect(URL(\'insert_harvests\',args = l))\n    elif \'extraction_preparation\' in l:\n      redirect(URL(\'insert_ep\',args = l))\n    elif \'gas_chromatography\' in l:\n        redirect(URL(\'insert_gc\',args = l))\n    elif \'liquid_chromatography\' in l:\n        redirect(URL(\'insert_lc\',args = l))\n    elif \'mass_spectroscopy\' in l:\n        redirect(URL(\'insert_ms\',args = l))\n    elif \'raw_data_storage_information\' in l:\n          redirect(URL(\'insert_raw_data\',args = l))\n    elif \'spectrophotometry\' in l:\n          redirect(URL(\'insert_spectrophotometry\',args = l))\n    elif \'sample\' in l and \'new\' in l:\n          samp = db(db.sample.experimentalist==auth.user.id).select().last()\n          if samp:\n           copy(samp.id)\n           return()\n          else: \n           return() \n    elif \'sample\' in l and \'view\' in l:\t\t\n        redirect(URL(\'sample\',args=l))\n    elif \'project\' in l and \'view\' in l and \'experiment\' not in l:\n        redirect(URL(\'project_viewer\',args=l[-1]))\n        \n    else:\n        return()\n\n\'\'\'\telif \'sample\' in l and \'new\' in l:\t\t\n\t  redirect(URL(\'add_sample\',args = l))\n\telif \'sample\' in l:\t\t\n\t  redirect(URL(\'sample_viewer\',args = l))\n\telif \'project\' in l:\n\t  redirect(URL(\'project_viewer\',args=l))\n\telse : \n\t  redirect(URL(\'index\'))\'\'\'\n\ndef list_all_pub_samples():\n#    proj_id = request.args(0)\n#    pub = request.args(1) # if pub == 1 show published samples otherwise non published samples\n#   pub_query = (db.sample.working_status == 1 and db.sample.project == proj_id)\n#   unpub_query = (db.sample.working_status == 0 and db.sample.project == proj_id)\n#   pquery_dict = {\'sample\':pub_query}\n#   nquery_dict = {\'sample\':unpub_query}\n#    if \'view\' in request.args or \'edit\' in request.args or \'new\' in request.args:\n#       router(request.args)\n#    if \'view\' in request.args or \'edit\' in request.args or \'new\' in request.args:\n#     \trouter(request.args)\n    \n    """an argument to display published and non-published samples"""\n    """ request.args(0) - project  , request.args(1) published"""\n\n    redirect(URL(\'list_all_pub_projects\',args=[\'project\',\'experiment.project\',request.args(0)]))\n    \ndef list_all_dev_samples():\n   \n    redirect(URL(\'list_all_dev_projects\',args=[\'project\',\'sample.project\',request.args(0)]))\n    return locals()\n\ndef ajx_role():\n    """ an ajax call back which takes care of insert , update and delete in the roles table """\n    rid = request.args(1)\n    if request.args(0) == \'accept\':\n       row = db(db.role.id == rid).update(approval_status = 1)\n       result = db(db.role.id == rid).select(db.role.ALL).first()\n       gid = auth.id_group(role_list[int(result.role)])\n       auth.add_membership(gid,result.user)\n    if request.args(0) == \'unblock\':\n       del db.role[rid] \n    if request.args(0) == \'block\':\n       row = db(db.role.id == rid).update(approval_status = 2)\n    if request.args(0) == \'delete\' or request.args(0) == \'deny\':\n       result = db(db.role.id == rid).select(db.role.ALL).first()\n       gid = auth.id_group(role_list[int(result.role)])\n       auth.del_membership(gid,result.user)\n       del db.role[rid] \n    return locals()\n\ndef reg_project():\n    response.menu = [\n    (T(\'Home\'), False, URL(\'default\',\'list_all_projects\'), []),\n    (T(\'Project\'), False, URL(\'default\',\'project_viewer\',args=request.args),[])\n    ]\n    """ takes an id for the project and registers """\n    import datetime\n    now = datetime.datetime.now()\n    """ already requested """\n    pid = request.args(0)\n    ptitle = db(db.project.id == pid).select(db.project.ALL).first()\n    form = SQLFORM(db.role,fields=[\'role\'],showid=False)\n    if form.validate():\n       requested = db(db.role.user == auth.user.id)(db.role.project == pid)(db.role.approval_status == 0)(db.role.role==form.vars.role).count()\n       if requested == 0: \n        db.role.insert(user=auth.user.id,approval_status=0,project=pid,member_since=now,role=form.vars.role)\n        response.flash = \'wait for Coordinator\\\'s approval\'\n       else:\n        response.flash = \'You already hold the applied role\' \n    return locals() \n\ndef ajx_publish():\n    """ an ajax call back which takes care of publication status """\n    eid = request.args(1)\n    if request.args(0) == \'publish\':\n     row = db(db.project.id == eid).update(project_status = "1",project_publication_date = now)\n     redirect(URL(\'project_viewer\',args = [\'Published\',eid]))\n    elif request.args(0) == \'unpublish\':\n     row = db(db.project.id == eid).update(project_status = "0",project_publication_date= None)\n     redirect(URL(\'project_viewer\',args = [\'Unpublished\',eid]))\n    return locals() \n\ndef roles():\n    response.menu = [\n    (T(\'Home\'), False, URL(\'default\',\'list_all_projects\'), []),\n    (T(\'Project\'), False, URL(\'default\',\'project_viewer\',args=request.args),[])\n    ]\n    """ complete interface for managing roles for a particular project"""\n    """ should be accessible to only project co-ordinators """\n    pid = request.args(0)\n    error = authenticate(auth.user.id,pid,\'roles\')\n    accepted = db(db.auth_user.id == db.role.user)(db.role.approval_status == 1)(db.role.project == pid).select(db.role.ALL,db.auth_user.ALL)\n    pending = db(db.auth_user.id == db.role.user)(db.role.approval_status == 0)(db.role.project == pid).select(db.role.ALL,db.auth_user.ALL)\n    blocked = db(db.auth_user.id == db.role.user)(db.role.approval_status == 2)(db.role.project == pid).select(db.role.ALL,db.auth_user.ALL)\n    return locals()\n   \ndef home_page():\n    """ home page for a user , shows list of projects he is working on and his past work """\n    uid = request.args(0)\n    #my roles \n    \n    roles = db(db.role.user == uid)(db.role.project == db.project.id).select(db.role.ALL,db.project.name) \n    myroles = [role_list[int(p.role.role)] for p in roles]\n    k = {}\n    """\n    is_coordinator = db(db.project.project_coordinator==uid).select(db.project.ALL)\n    coordinating_projects = [row.name for row in is_coordinator]\n    value=\'\'\n    for p in coordinating_projects:\n       value = value + \',\'+ p\n\t  \n    k[6] = value[1:] """\n    for row in roles:\n       if row.role.role not in k:\n          k[row.role.role] = row.project.name\n       else:\n          k[row.role.role] = k[row.role.role] + \',\' + row.project.name\n    com_exps = db(db.sample.working_status == 1)(db.sample.experimentalist == uid)(db.sample.project == db.project.id).select(db.sample.ALL,db.project.id,db.project.name,orderby=db.sample.code)\n    incom_exps = db(db.sample.working_status == 1)(db.sample.experimentalist == uid)(db.sample.project == db.project.id).select(db.sample.ALL,db.project.id,db.project.name,orderby=db.sample.code)\n    pub_exps = db(db.sample.working_status == 0)(db.sample.publication_status == True)(db.sample.experimentalist == uid)(db.sample.project == db.project.id).select(db.sample.ALL,db.project.id,db.project.name,orderby=db.sample.code)\n    unpub_exps = db(db.sample.working_status == 0)(db.sample.publication_status == False) (db.sample.experimentalist == uid)(db.sample.project == db.project.id).select(db.sample.ALL,db.project.id,db.project.name,orderby=db.sample.code)\n    for p in k:\n       list_projects = k[p].split(\',\')\n       proj = \'\' \n       for d in list_projects:\n          res = db(db.project.name == d).select(db.project.ALL).first()\n          cat = \'\'\n          if res:\n             cat = A(res.name,_href=URL(\'project_viewer\',args=res.id))\n          if proj == \'\':\n             proj=SPAN(cat)\n          else:\n           proj = SPAN(proj,\',\',cat)\n       k[p] = proj \n    return locals()\n\ndef download():\n    return response.download(request, db)\n\ndef insert_biosource():\n#prepopulating records  \n   if \'clear\' not in request.args and \'new\' in request.args:    \n    trows = db(db.template.user==auth.user.id).select()\n    count = db(db.template.user==auth.user.id).count()\n    if count > 0:\n     rows = db(db.biosource.sample_name==trows[0].sample).select()\n     count1 = db(db.biosource.sample_name==trows[0].sample).count()\n     if count1 > 0:\n      row = rows[0]      \n      for fieldname in db.biosource.fields:\n       if fieldname!=\'id\': \n        db.biosource[fieldname].default=row[fieldname]\n   elif \'clear\' in request.args: \n    request.args.pop()\n   #result = db(db.sample.id == request.args[-3]).select(db.sample.ALL).first()\n#  error = authenticate(auth.user.id,result.project,\'insert_biosource\')\n   response.menu = [\n   (T(\'Home\'), False, URL(\'default\',\'list_all_projects\'), [])\n   ]\n   redirect_args = request.args[0:-3]\n   form = SQLFORM(db.biosource)\n   if \'view\' in request.args: \n\t       form=SQLFORM(db.biosource,request.args[-1],readonly = True,showid=False)\t  \n   elif \'edit\' in request.args: \n\t       form=SQLFORM(db.biosource,request.args[-1],showid=False)\n   elif \'new\' in request.args:\n               db.biosource.sample_name.readable = False \n               hid = {}   \n\t       form=SQLFORM(db.biosource,showid=False)\n\t       form.vars.sample_name = request.args[-3]\n \t       redirect_args = request.args[0:-4]\n   i=1\n   f1=form[0][:i+2]\n   fs1=form[0][i+2:i+7]\n   f2=form[0][i+7:]\n   form[0]=TABLE(TABLE(f1),\n      FIELDSET(TAG.legend("Genotype"),TABLE(fs1)),TABLE(f2))\n   if form.process().accepted:\n     redirect(URL(\'list_all_dev_projects\',args=redirect_args)) \n     response.flash="Inserted entry"\n   return locals()\n\ndef insert_pgc():\n#prepopulating records  \n  if \'clear\' not in request.args and \'new\' in request.args:    \n   trows = db(db.template.user==auth.user.id).select()\n   count = db(db.template.user==auth.user.id).count()\n   if count > 0:\n    rows = db(db.plant_growth_condition.sample_name==trows[0].sample).select()\n    count1 = db(db.plant_growth_condition.sample_name==trows[0].sample).count()\n    if count1 > 0:\n     row = rows[0]\n     for fieldname in db.plant_growth_condition.fields:\n      if fieldname!=\'id\': \n       db.plant_growth_condition[fieldname].default=row[fieldname]\n  elif \'clear\' in request.args: \n    request.args.pop()\n  #result = db(db.sample.id == request.args[-1]).select(db.sample.ALL).first()\n  response.menu = [\n  (T(\'Home\'), False, URL(\'default\',\'list_all_projects\'), [])\n  ]\n  redirect_args = request.args[0:-3]\t \n  form = SQLFORM(db.plant_growth_condition) \n  if \'view\' in request.args: \n\tform=SQLFORM(db.plant_growth_condition,request.args[-1],readonly = True,upload=URL(\'download\'),showid=False)\n  elif \'edit\' in request.args: \n\tform=SQLFORM(db.plant_growth_condition,request.args[-1],upload=URL(\'download\'),showid=False)\n  elif \'new\' in request.args:\n        db.plant_growth_condition.sample_name.readable = False \n\tform=SQLFORM(db.plant_growth_condition,showid=False)\n        form.vars.sample_name = request.args[-3]\n\tredirect_args = request.args[0:-2]\t \n  i=1\n  fs1=form[0][:i+5]\n  fss1=form[0][i+5:i+9]\n  fss2=form[0][i+9:i+10]\n  fss3=form[0][i+10:i+15]\n  f2=form[0][i+15:i+18]\n  fs2=form[0][i+18:i+21]\n  fs3=form[0][i+21:i+27]\n  f3=form[0][i+27:]\n  t2=TABLE(FIELDSET(TAG.legend("Growth Support"),TABLE(fs1)))\n  t3=TABLE(FIELDSET(TAG.legend("Location"),TABLE(FIELDSET(TAG.legend("Field trail"),TABLE(fss1))),TABLE(fss2),TABLE(FIELDSET(TAG.legend("Green house"),TABLE(fss3)))))\n  t4=TABLE(FIELDSET(TAG.legend("Nutritional Regime"),TABLE(fs2)))\n  t5=TABLE(FIELDSET(TAG.legend("Date of Plant Establishment(YYYY-MM-DD)"),TABLE(fs3)))\n  form[0]=TABLE(FIELDSET(t2,t3,TABLE(f2),t4,t5,TABLE(f3)))\n  if form.process().accepted:\n    redirect(URL(\'list_all_dev_projects\',args=redirect_args)) \n    response.flash="form accepted"\n# redirect(URL(\'list_all_samples\',args=[\'sample\'])) \n  else:\n    response.flsh="form has some errors"\n  return locals()\n\ndef insert_ep():\n#prepopulating records  \n  if \'clear\' not in request.args and \'new\' in request.args:    \n   trows = db(db.template.user==auth.user.id).select()\n   count = db(db.template.user==auth.user.id).count()\n   if count > 0:\n    rows = db(db.extraction_preparation.sample_name==trows[0].sample).select()\n    count1 = db(db.extraction_preparation.sample_name==trows[0].sample).count()\n    if count1 > 0:\n     row = rows[0]\n     for fieldname in db.extraction_preparation.fields:\n      if fieldname!=\'id\': \n       db.extraction_preparation[fieldname].default=row[fieldname]\n  elif \'clear\' in request.args: \n    request.args.pop()\n  #result = db(db.sample.id == request.args[-1]).select(db.sample.ALL).first()\n  response.menu = [\n  (T(\'Home\'), False, URL(\'default\',\'list_all_projects\'), [])\n  ]\n  redirect_args = request.args[0:-3]\t \n  if \'view\' in request.args: \n       form=SQLFORM(db.extraction_preparation,request.args[-1],readonly = True,upload=URL(\'download\'),showid=False)\n  if \'edit\' in request.args: \n       form=SQLFORM(db.extraction_preparation,request.args[-1],upload=URL(\'download\'),showid=False)\n  if \'new\' in request.args:\n       db.extraction_preparation.sample_name.readable=False\n       form=SQLFORM(db.extraction_preparation,showid=False)\n       form.vars.sample_name = request.args[-3]\n       redirect_args = request.args[0:-2]\t \n  i=1\n  t1=TABLE(FIELDSET(TAG.legend("SAMPLE EXTRACTION"),TABLE(form[0][:i+8]),TABLE(FIELDSET(TAG.legend("Extract Storage:"),TABLE(form[0][i+8:i+12])))))\n  t2=TABLE(FIELDSET(TAG.legend("SAMPLE PREPARATION"),TABLE(form[0][i+12:])))\n  form[0]=TABLE(FIELDSET(t1,t2))\n  if form.process().accepted:\n       response.flash="Inserted entry"\n       redirect(URL(\'list_all_dev_projects\',args=redirect_args)) \n  return locals()\n\ndef insert_treatments():\n#prepopulating records  \n  if \'clear\' not in request.args and \'new\' in request.args:    \n   trows = db(db.template.user==auth.user.id).select()\n   count = db(db.template.user==auth.user.id).count()\n   if count > 0:\n    rows = db(db.treatments.sample_name==trows[0].sample).select()\n    count1 = db(db.treatments.sample_name==trows[0].sample).count()\n    if count1 > 0:\n     row = rows[0]\n     for fieldname in db.treatments.fields:\n      if fieldname!=\'id\': \n       db.treatments[fieldname].default=row[fieldname]\n  elif \'clear\' in request.args: \n    request.args.pop()\n  #result = db(db.sample.id == request.args[-1]).select(db.sample.ALL).first()\n  response.menu = [\n  (T(\'Home\'), False, URL(\'default\',\'list_all_projects\'), [])\n  ]\n  redirect_args = request.args[0:-3]\t \n  if \'view\' in request.args: \n       form=SQLFORM(db.treatments,request.args[-1],readonly = True,upload=URL(\'download\'),showid=False)\n  if \'edit\' in request.args: \n       form=SQLFORM(db.treatments,request.args[-1],upload=URL(\'download\'),showid=False)\n  if \'new\' in request.args:\n       db.treatments.sample_name.readable=False\n       form=SQLFORM(db.treatments,showid=False)\n       form.vars.sample_name = request.args[-3] \n       redirect_args = request.args[0:-2]\t \n  i=1\n  t1=TABLE(FIELDSET(TAG.legend("Treatment Factor"),TABLE(form[0][:i+3])))\n  form[0]=TABLE(FIELDSET(t1,TABLE(form[0][i+3:])))\n  if form.process().accepted:\n      response.flash="Inserted entry"\n      redirect(URL(\'list_all_dev_projects\',args=redirect_args)) \n  return locals()\n\ndef insert_harvests():\n#prepopulating records  \n  if \'clear\' not in request.args and \'new\' in request.args:    \n   trows = db(db.template.user==auth.user.id).select()\n   count = db(db.template.user==auth.user.id).count()\n   if count > 0:\n    rows = db(db.harvests.sample_name==trows[0].sample).select()\n    count1 = db(db.harvests.sample_name==trows[0].sample).count()\n    if count1 > 0:\n     row = rows[0]\n     for fieldname in db.harvests.fields:\n      if fieldname!=\'id\': \n       db.harvests[fieldname].default=row[fieldname]\n  elif \'clear\' in request.args: \n    request.args.pop()\n  #result = db(db.sample.id == request.args[-1]).select(db.sample.ALL).first()\n  response.menu = [\n  (T(\'Home\'), False, URL(\'default\',\'list_all_projects\'), [])\n  ]\n  redirect_args = request.args[0:-3]\t \n  if \'view\' in request.args: \n       form=SQLFORM(db.harvests,request.args[-1],readonly = True,upload=URL(\'download\'),showid=False)\n  if \'edit\' in request.args: \n       form=SQLFORM(db.harvests,request.args[-1],upload=URL(\'download\'),showid=False)\n  if \'new\' in request.args:\n       db.harvests.sample_name.readable=False\n       form=SQLFORM(db.harvests,showid=False)\n       form.vars.sample_name = request.args[-3]\n       redirect_args = request.args[0:-2]\n  i=1\t \n  t1=TABLE(FIELDSET(TAG.legend("Sample Storage"),TABLE(form[0][i+7:])))\n  form[0]=TABLE(FIELDSET(TABLE(form[0][:i+7]),t1))\n  if form.process().accepted:\n      response.flash="Inserted entry"\n      redirect(URL(\'list_all_dev_projects\',args=redirect_args)) \n  return locals()\n\t  \t\ndef insert_gc():\n#prepopulating records  \n  if \'clear\' not in request.args and \'new\' in request.args:    \n   trows = db(db.template.user==auth.user.id).select()\n   count = db(db.template.user==auth.user.id).count()\n   if count > 0:\n    rows = db(db.gas_chromatography.sample_name==trows[0].sample).select()\n    count1 = db(db.gas_chromatography.sample_name==trows[0].sample).count()\n    if count1 > 0:\n     row = rows[0]\n     for fieldname in db.gas_chromatography.fields:\n      if fieldname!=\'id\': \n       db.gas_chromatography[fieldname].default=row[fieldname]\n  elif \'clear\' in request.args: \n    request.args.pop()\n  #result = db(db.sample.id == request.args[-1]).select(db.sample.ALL).first()\n  response.menu = [\n  (T(\'Home\'), False, URL(\'default\',\'list_all_projects\'), [])\n  ]\n  redirect_args = request.args[0:-3]\t \n  if \'view\' in request.args: \n\tform=SQLFORM(db.gas_chromatography,request.args[-1],readonly = True,pload=URL(\'download\'),showid=False)\n  elif \'edit\' in request.args: \n        form=SQLFORM(db.gas_chromatography,request.args[-1],upload=URL(\'download\'),showid=False)\n  elif \'new\' in request.args:\n        db.gas_chromatography.sample_name.readable=False\n        redirect_args = request.args[0:-2]\t \n        form=SQLFORM(db.gas_chromatography,showid=False)\n        form.vars.sample_name = request.args[-3]\n  j=1\n  t_ep_1=TABLE(FIELDSET(TAG.legend("SAMPLE EXTRACTION"),TABLE(form[0][:j+7]),TABLE(FIELDSET(TAG.legend("Extract Storage:"),TABLE(form[0][j+7:j+11])))))\n  t_ep_2=TABLE(FIELDSET(TAG.legend("SAMPLE PREPARATION"),TABLE(form[0][j+11:15])))\n  i=15\n  t1=TABLE(FIELDSET(TAG.legend("CHROMATOGRAPHY INSTRUMENTAL"),TABLE(form[0][15:i+4])))\n  t2=TABLE(FIELDSET(TAG.legend("DERIVATIZATION"),TABLE(form[0][i+4:i+8])))\n  t3=TABLE(FIELDSET(TAG.legend("AUTO-INJECTOR DETAILS"),TABLE(form[0][i+8:i+15])))\n  t4=TABLE(FIELDSET(TAG.legend("SEPERATION COLUMN AND PRE/GUARD COLUMN"),TABLE(form[0][i+15:i+23])))\n  t5=TABLE(FIELDSET(TAG.legend("SEPERATION PARAMETERS"),TABLE(form[0][i+23:i+30])))\n  t6=TABLE(FIELDSET(TAG.legend("QUALITY CONTROL"),TABLE(form[0][i+30:i+33]),TABLE(FIELDSET(TAG.legend("Cycle per"),TABLE(form[0][i+33:i+37])))))\n  t7=TABLE(FIELDSET(TAG.legend("DATA ACQUISITION"),TABLE(form[0][i+37:])))\n  form[0]=TABLE(FIELDSET(t_ep_1,t_ep_2,t1,t2,t3,t4,t5,t6,t7))\n  if form.process().accepted:\n\tresponse.flash="Inserted entry"\n\tredirect(URL(\'list_all_dev_projects\',args=redirect_args)) \n#       redirect(URL(\'list_all_samples\',args=[\'sample\'])) \n  return locals()\n\ndef insert_lc():\n#prepopulating records  \n  if \'clear\' not in request.args and \'new\' in request.args:    \n   trows = db(db.template.user==auth.user.id).select()\n   count = db(db.template.user==auth.user.id).count()\n   if count > 0:\n    rows = db(db.liquid_chromatography.sample_name==trows[0].sample).select()\n    count1 = db(db.liquid_chromatography.sample_name==trows[0].sample).count()\n    if count1 > 0:\n     row = rows[0]\n     for fieldname in db.liquid_chromatography.fields:\n      if fieldname!=\'id\': \n       db.liquid_chromatography[fieldname].default=row[fieldname]\n  elif \'clear\' in request.args: \n    request.args.pop()\n  #result = db(db.sample.id == request.args[-1]).select(db.sample.ALL).first()\n  response.menu = [\n  (T(\'Home\'), False, URL(\'default\',\'list_all_projects\'), [])\n  ]\n  redirect_args = request.args[0:-3]\t \n  form = SQLFORM(db.liquid_chromatography)\n  if \'view\' in request.args: \n      form=SQLFORM(db.liquid_chromatography,request.args[-1],readonly = True,upload=URL(\'download\'),showid=False)\n  if \'edit\' in request.args: \n      form=SQLFORM(db.liquid_chromatography,request.args[-1],upload=URL(\'download\'),showid=False)\n  if \'new\' in request.args:\n      db.liquid_chromatography.sample_name.readable=False\n      redirect_args = request.args[0:-2]\t \n      form=SQLFORM(db.liquid_chromatography,showid=False)\n      form.vars.sample_name = request.args[-3] \n  j=1\n  t_ep_1=TABLE(FIELDSET(TAG.legend("SAMPLE EXTRACTION"),TABLE(form[0][:j+7]),TABLE(FIELDSET(TAG.legend("Extract Storage:"),TABLE(form[0][j+7:j+11])))))\n  t_ep_2=TABLE(FIELDSET(TAG.legend("SAMPLE PREPARATION"),TABLE(form[0][j+11:15])))\n  i=15\n  t1=TABLE(FIELDSET(TAG.legend("CHROMATOGRAPHY INSTRUMENTAL"),TABLE(form[0][15:i+4])))\n  t3=TABLE(FIELDSET(TAG.legend("AUTO-INJECTOR DETAILS"),TABLE(form[0][i+4:i+11])))\n  t4=TABLE(FIELDSET(TAG.legend("SEPERATION COLUMN AND PRE/GUARD COLUMN"),TABLE(form[0][i+11:i+19])))\n  t5=TABLE(FIELDSET(TAG.legend("SEPERATION PARAMETERS"),TABLE(form[0][i+19:i+26])))\n  t6=TABLE(FIELDSET(TAG.legend("QUALITY CONTROL"),TABLE(form[0][i+26:i+29]),TABLE(FIELDSET(TAG.legend("Cycle per"),TABLE(form[0][i+29:i+33])))))\n  t7=TABLE(FIELDSET(TAG.legend("DATA ACQUISITION"),TABLE(form[0][i+33:])))\n  form[0]=TABLE(FIELDSET(t_ep_1,t_ep_2,t1,t3,t4,t5,t6,t7))\n  if form.process().accepted:\n      response.flash="Inserted entry"\n      redirect(URL(\'list_all_dev_projects\',args=redirect_args)) \n#     redirect(URL(\'list_all_samples\',args=[\'sample\'])) \n  return locals()\n\ndef insert_ms():\n#prepopulating records  \n  if \'clear\' not in request.args and \'new\' in request.args:    \n   trows = db(db.template.user==auth.user.id).select()\n   count = db(db.template.user==auth.user.id).count()\n   if count > 0:\n    rows = db(db.mass_spectroscopy.sample_name==trows[0].sample).select()\n    count1 = db(db.mass_spectroscopy.sample_name==trows[0].sample).count()\n    if count1 > 0:\n     row = rows[0]\n     for fieldname in db.mass_spectroscopy.fields:\n      if fieldname!=\'id\': \n       db.mass_spectroscopy[fieldname].default=row[fieldname]\n  elif \'clear\' in request.args: \n    request.args.pop()\n  #result = db(db.sample.id == request.args[-1]).select(db.sample.ALL).first()\n  response.menu = [\n  (T(\'Home\'), False, URL(\'default\',\'list_all_projects\'), [])\n  ]\n  redirect_args = request.args[0:-3]\t \n  if \'view\' in request.args: \n    form=SQLFORM(db.mass_spectroscopy,request.args[-1],readonly = True,upload=URL(\'download\'),showid=False)\n  elif \'edit\' in request.args: \n    form=SQLFORM(db.mass_spectroscopy,request.args[-1],upload=URL(\'download\'),showid=False)\n  elif \'new\' in request.args:\n    db.mass_spectroscopy.sample_name.readable=False\n    redirect_args = request.args[0:-2]\t \n    form=SQLFORM(db.mass_spectroscopy,showid=False)\n    form.vars.sample_name = request.args[-3]\n  i=1\n  t1=TABLE(FIELDSET(TAG.legend("INSTRUMENTAL DETAILS"),TABLE(form[0][:i+4])))\n  t2=TABLE(FIELDSET(TAG.legend("IONISATION SOURCE"),TABLE(form[0][i+4:i+10])))\n  t3=TABLE(FIELDSET(TAG.legend("MASS ANALYZER"),TABLE(form[0][i+10:i+18]),TABLE(FIELDSET(TAG.legend("Lock spray"),TABLE(form[0][i+18:i+22]))),TABLE(form[0][i+22:i+23])))\n  t4=TABLE(FIELDSET(TAG.legend("QUALITY CONTROL"),TABLE(form[0][i+23:i+27])))\n  t5=TABLE(FIELDSET(TAG.legend("DATA ACQUISITION"),TABLE(form[0][i+27:])))\n  form[0]=TABLE(FIELDSET(t1,t2,t3,t4,t5))\n  if form.process().accepted:\n      \tresponse.flash="Inserted entry"\n        redirect(URL(\'list_all_dev_projects\',args=redirect_args)) \n#     \tredirect(URL(\'list_all_samples\'),args=[\'sample\']) \n  return locals()\n\ndef insert_raw_data():\n#prepopulating records  \n  if False:    \n    trows = db(db.template.user==auth.user.id).select()\n    count = db(db.template.user==auth.user.id).count()\n    if count > 0:\n      rows = db(db.raw_data_storage_information.sample_name==trows[0].sample).select()\n      count1 = db(db.raw_data_storage_information.sample_name==trows[0].sample).count()\n      if count1 > 0:\n       row = rows[0]\n       for fieldname in db.raw_data_storage_information.fields:\n        if fieldname!=\'id\': \n         db.raw_data_storage_information[fieldname].default=row[fieldname]\n  elif \'clear\' in request.args: \n    request.args.pop()\n  response.menu = [\n  (T(\'Home\'), False, URL(\'default\',\'list_all_projects\'), [])\n  ]\n  redirect_args = request.args[0:-3]\t \n  if \'view\' in request.args: \n    form=SQLFORM(db.raw_data_storage_information,request.args[-1],readonly = True,upload=URL(\'download\'),showid=False)\n  elif \'edit\' in request.args: \n    form=SQLFORM(db.raw_data_storage_information,request.args[-1],upload=URL(\'download\'),showid=False)\n  elif \'new\' in request.args:\n    db.raw_data_storage_information.sample_name.readable=False\n    redirect_args = request.args[0:-2]\t \n    form=SQLFORM(db.raw_data_storage_information,showid=False)\n    form.vars.sample_name = request.args[-3]\n    form.vars.email_id_of_person=auth.user.email \n  if form.process().accepted:\n      \tresponse.flash="Inserted entry"\n        redirect(URL(\'list_all_dev_projects\',args=redirect_args)) \n#     \tredirect(URL(\'list_all_samples\'),args=[\'sample\']) \n  return locals()\n\ndef insert_spectrophotometry():\n#prepopulating records  \n  if \'clear\' not in request.args and \'new\' in request.args:    \n   trows = db(db.template.user==auth.user.id).select()\n   count = db(db.template.user==auth.user.id).count()\n   if count > 0:\n    rows = db(db.spectrophotometry.sample_name==trows[0].sample).select()\n    count1 = db(db.spectrophotometry.sample_name==trows[0].sample).count()\n    if count1 > 0:\n     row = rows[0]\n     for fieldname in db.spectrophotometry.fields:\n      if fieldname!=\'id\': \n       db.spectrophotometry[fieldname].default=row[fieldname]\n  elif \'clear\' in request.args: \n    request.args.pop()\n  response.menu = [\n  (T(\'Home\'), False, URL(\'default\',\'list_all_projects\'), [])\n  ]\n  redirect_args = request.args[0:-3]\t \n  if \'view\' in request.args: \n    form=SQLFORM(db.spectrophotometry,request.args[-1],readonly = True,upload=URL(\'download\'),showid=False)\n  elif \'edit\' in request.args: \n    form=SQLFORM(db.spectrophotometry,request.args[-1],upload=URL(\'download\'),showid=False)\n  elif \'new\' in request.args:\n    db.spectrophotometry.sample_name.readable=False\n    redirect_args = request.args[0:-2]\t \n    form=SQLFORM(db.spectrophotometry,showid=False)\n    form.vars.sample_name = request.args[-3]\n  if form.process().accepted:\n      \tresponse.flash="Inserted entry"\n        redirect(URL(\'list_all_dev_projects\',args=redirect_args)) \n#     \tredirect(URL(\'list_all_samples\'),args=[\'sample\']) \n  return locals()\n\n\n@auth.requires_signature()\ndef data():\n    """\n    http://..../[app]/default/data/tables\n    http://..../[app]/default/data/create/[table]\n    http://..../[app]/default/data/read/[table]/[id]\n    http://..../[app]/default/data/update/[table]/[id]\n    http://..../[app]/default/data/delete/[table]/[id]\n    http://..../[app]/default/data/select/[table]\n    http://..../[app]/default/data/search/[table]\n    but URLs must be signed, i.e. linked with\n      A(\'table\',_href=URL(\'data/tables\',user_signature=True))\n    or with the signed load operator\n      LOAD(\'default\',\'data.load\',args=\'tables\',ajax=True,user_signature=True)\n    """\n    return dict(form=crud())\n\n#def drop_tables():\n    #are you sure you want to do this?\n    #for t in [\'auth_user\',\'auth_group\', \'auth_membership\', \'auth_permission\', \'auth_event\',\'sample\',\'biosource\',\'affiliation\',\'project\',\'role\',\'template\',\'experiment\',\'project_meta\',\'plant_growth_condition\',\'treatments\',\'harvests\',\'extraction_preparation\',\'gas_chromatography\',\'liquid_chromatography\',\'mass_spectroscopy\',\'spectrophotometry\',\'feedback\',\'sample_files\']:\n    #    db[t].drop()\n    # pass\n    #return \n\ndef show_feedback():\n    grid = SQLFORM.smartgrid(db.feedback)\n    return locals()\n\n \ndef post_feedback():\n    """ allows to post feedback to the table feedback """ \n    past_feeds = db(db.feedback.feedback_on == request.env.http_referer).select(db.feedback.feedback_body,db.feedback.id)\n    form = SQLFORM(db.feedback,fields=[\'feedback_body\'],labels={\'feedback_body\':\'Your feedback about this page\'})\n    feedback_by = \'\'\n    if form.validate():\n\tif auth.user:\n            feedback_by = auth.user.id\n        else:\n\t   feedback_by = \'\'\n\tdb.feedback.insert(feedback_on=request.env.http_referer,feedback_body=form.vars.feedback_body,feedback_by=feedback_by)\n\tresponse.flash = "feedback has been duly noted and will be taken care of "\n    return locals()\n\n\ndef user_viewer():\n   """shows the user details """\n   uid = request.args(0)\n   record = db.auth_user(uid)\n   form = SQLFORM(db.auth_user,record,readonly=True,showid=False,fields=[\'first_name\',\'last_name\',\'email\',\'affiliated_to\',\'phone\',\'mobile\',\'city\'])\n   return locals()\n\n\ndef dict_dump(obj,inp):\n  ans = \'<dl class="dl-horizontal">\'\n  for key in inp.keys():\n     add = \'<dt>\'+str(inp[key])+\'</dt>\'+\'<dd>\'+str(obj[key])+\'</dd>\'\n     ans = ans+add\n  return ans\t\n\n\ndef sample():\n  """gets all the information regarding a sample in a single page """\n  sid = request.args[-1]\n  sample = db(db.sample.id == sid).select(db.sample.ALL).first()\n  user = db(db.auth_user.id == sample.experimentalist).select(db.auth_user.ALL).first()\n  experiment = db(db.experiment.id == sample.experiment).select(db.experiment.ALL).first()\n  biosource = db(db.biosource.sample_name == sid).select(db.biosource.ALL)\n  plant_growth = db(db.plant_growth_condition.sample_name == sid).select(db.plant_growth_condition.ALL)\n  treatment = db(db.treatments.sample_name == sid).select(db.treatments.ALL)\n  harvest = db(db.harvests.sample_name == sid).select(db.harvests.ALL)\n  extraction_preparation = db(db.extraction_preparation.sample_name == sid).select(db.extraction_preparation.ALL)\n  gc = db(db.gas_chromatography.sample_name == sid).select(db.gas_chromatography.ALL)\n  lc = db(db.liquid_chromatography.sample_name == sid).select(db.liquid_chromatography.ALL)\n  ms = db(db.mass_spectroscopy.sample_name == sid).select(db.mass_spectroscopy.ALL)\n  raw_storage = db(db.raw_data_storage_information.sample_name == sid).select(db.raw_data_storage_information.ALL)\n  biosource_forms = [] #a list of forms\n  for each in biosource:\n\tform = SQLFORM(db.biosource,each.id,showid=False,readonly=True)\n\ti=1\n\tf1=form[0][:i+2]\n\tfs1=form[0][i+2:i+7]\n\tf2=form[0][i+7:]\n\tform[0]=TABLE(TABLE(f1),FIELDSET(TAG.legend("Genotype"),TABLE(fs1)),TABLE(f2))\n\tbiosource_forms.append(form[0])\n        \n  pgc_forms = []\n  for each in plant_growth:\n     form = SQLFORM(db.plant_growth_condition,each.id,showid=False,readonly=True)\n     i=1\n     fs1=form[0][:i+5]\n     fss1=form[0][i+5:i+9]\n     fss2=form[0][i+9:i+10]\n     fss3=form[0][i+10:i+15]\n     f2=form[0][i+15:i+18]\n     fs2=form[0][i+18:i+21]\n     fs3=form[0][i+21:i+27]\n     f3=form[0][i+27:]\n     t2=TABLE(FIELDSET(TAG.legend("Growth Support"),TABLE(fs1)))\n     t3=TABLE(FIELDSET(TAG.legend("Location"),TABLE(FIELDSET(TAG.legend("Field trail"),TABLE(fss1))),TABLE(fss2),TABLE(FIELDSET(TAG.legend("Green house"),TABLE(fss3)))))\n     t4=TABLE(FIELDSET(TAG.legend("Nutritional Regime"),TABLE(fs2)))\n     t5=TABLE(FIELDSET(TAG.legend("Date of Plant Establishment(YYYY-MM-DD)"),TABLE(fs3)))\n     form[0]=TABLE(FIELDSET(t2,t3,TABLE(f2),t4,t5,TABLE(f3)))\n     pgc_forms.append(form[0])\n  \n  treatment_forms = []\n  for each in treatment:\n     form = SQLFORM(db.treatments,each.id,showid=False,readonly=True)\n     i=1\n     t1=TABLE(FIELDSET(TAG.legend("Treatment Factor"),TABLE(form[0][:i+3])))\n     form[0]=TABLE(FIELDSET(t1,TABLE(form[0][i+3:])))\n\n\n  harvest_forms = []\n  for each in harvest:\n     form = SQLFORM(db.harvests,each.id,showid=False,readonly=True)\n     i=1\n     t1=TABLE(FIELDSET(TAG.legend("Sample Storage"),TABLE(form[0][i+7:])))\n     form[0]=TABLE(FIELDSET(TABLE(form[0][:i+7]),t1))\n     harvest_forms.append(form[0])\n\n  gc_forms = []\n  for each in gc:\n     form = SQLFORM(db.gas_chromatography,each.id,showid=False,readonly=True)\n     j=1\n     t_ep_1=TABLE(FIELDSET(TAG.legend("SAMPLE EXTRACTION"),TABLE(form[0][:j+7]),TABLE(FIELDSET(TAG.legend("Extract Storage:"),TABLE(form[0][j+7:j+11])))))\n     t_ep_2=TABLE(FIELDSET(TAG.legend("SAMPLE PREPARATION"),TABLE(form[0][j+11:15])))\n     i=15\n     t1=TABLE(FIELDSET(TAG.legend("CHROMATOGRAPHY INSTRUMENTAL"),TABLE(form[0][15:i+4])))\n     t2=TABLE(FIELDSET(TAG.legend("DERIVATIZATION"),TABLE(form[0][i+4:i+8])))\n     t3=TABLE(FIELDSET(TAG.legend("AUTO-INJECTOR DETAILS"),TABLE(form[0][i+8:i+15])))\n     t4=TABLE(FIELDSET(TAG.legend("SEPERATION COLUMN AND PRE/GUARD COLUMN"),TABLE(form[0][i+15:i+23])))\n     t5=TABLE(FIELDSET(TAG.legend("SEPERATION PARAMETERS"),TABLE(form[0][i+23:i+30])))\n     t6=TABLE(FIELDSET(TAG.legend("QUALITY CONTROL"),TABLE(form[0][i+30:i+33]),TABLE(FIELDSET(TAG.legend("Cycle per"),TABLE(form[0][i+33:i+37])))))\n     t7=TABLE(FIELDSET(TAG.legend("DATA ACQUISITION"),TABLE(form[0][i+37:])))\n     form[0]=TABLE(FIELDSET(t_ep_1,t_ep_2,t1,t2,t3,t4,t5,t6,t7))\n\n     gc_forms.append(form[0])\n \n  lc_forms = []\n  \n  for each in lc:\n    form = SQLFORM(db.gas_chromatography,each.id,showid=False,readonly=True)\n    j=1\n    t_ep_1=TABLE(FIELDSET(TAG.legend("SAMPLE EXTRACTION"),TABLE(form[0][:j+7]),TABLE(FIELDSET(TAG.legend("Extract Storage:"),TABLE(form[0][j+7:j+11])))))\n    t_ep_2=TABLE(FIELDSET(TAG.legend("SAMPLE PREPARATION"),TABLE(form[0][j+11:15])))\n    i=15\n    t1=TABLE(FIELDSET(TAG.legend("CHROMATOGRAPHY INSTRUMENTAL"),TABLE(form[0][15:i+4])))\n    t3=TABLE(FIELDSET(TAG.legend("AUTO-INJECTOR DETAILS"),TABLE(form[0][i+4:i+11])))\n    t4=TABLE(FIELDSET(TAG.legend("SEPERATION COLUMN AND PRE/GUARD COLUMN"),TABLE(form[0][i+11:i+19])))\n    t5=TABLE(FIELDSET(TAG.legend("SEPERATION PARAMETERS"),TABLE(form[0][i+19:i+26])))\n    t6=TABLE(FIELDSET(TAG.legend("QUALITY CONTROL"),TABLE(form[0][i+26:i+29]),TABLE(FIELDSET(TAG.legend("Cycle per"),TABLE(form[0][i+29:i+33])))))\n    t7=TABLE(FIELDSET(TAG.legend("DATA ACQUISITION"),TABLE(form[0][i+33:])))\n    form[0]=TABLE(FIELDSET(t_ep_1,t_ep_2,t1,t3,t4,t5,t6,t7))\n    lc_forms.append(form[0])\n \n  ms_forms = []\n  for each in ms:\n    form = SQLFORM(db.mass_spectroscopy,each.id,showid=False,readonly=True)\n    i=1\n    t1=TABLE(FIELDSET(TAG.legend("INSTRUMENTAL DETAILS"),TABLE(form[0][:i+4])))\n    t2=TABLE(FIELDSET(TAG.legend("IONISATION SOURCE"),TABLE(form[0][i+4:i+10])))\n    t3=TABLE(FIELDSET(TAG.legend("MASS ANALYZER"),TABLE(form[0][i+10:i+18]),TABLE(FIELDSET(TAG.legend("Lock spray"),TABLE(form[0][i+18:i+22]))),TABLE(form[0][i+22:i+23])))\n    t4=TABLE(FIELDSET(TAG.legend("QUALITY CONTROL"),TABLE(form[0][i+23:i+27])))\n    t5=TABLE(FIELDSET(TAG.legend("DATA ACQUISITION"),TABLE(form[0][i+27:])))\n    form[0]=TABLE(FIELDSET(t1,t2,t3,t4,t5))  \n    ms_forms.append(form[0])\n\n  raw_forms = []\n  for each in raw_storage:\n     form = SQLFORM(db.raw_data_storage_information,each.id,showid=False,readonly=True)\n     raw_forms.append(form[0])\n\n\n  return locals() \n\n#def grid():\n  # query=((db.project.project_status==0)&(db.experiment.project==db.project.id)&(db.sample.experiment==db.experiment.id)&(db.biosource.sample_name==db.sample.id))\n   #query=((db.sample.project==db.project.id)&(db.project.id>0))\n   #query=((db.project.id>0)&(db.sample.project==db.project.id)&((db.sample.id==db.biosource.sample_name)&(db.sample.id==db.plant_growth_condition.sample_name)))\n#   query=((db.sample.experiment==db.experiment.id)&((db.sample.id==db.biosource.sample_name)|(db.sample.id==db.plant_growth_condition.sample_name)))\n#   grid = SQLFORM.grid(query)\n#   return locals()\n\n\ndef search():\n    form=FORM(\'Your name:\',\n              INPUT(_name=\'name\', requires=IS_NOT_EMPTY()),\n              INPUT(_type=\'submit\'))\n    if form.accepts(request,session):\n      redirect(URL(\'sample\',args=form.vars.name)) \n    return locals()\n    \ndef multiple_files():\n   """allows an experimentalist to add multiple images and files and displays it in the consolidated sample view form """\n   """ per sample . takes id of the sample as the input """\n   sid = request.args(0)\n   sample = db(db.sample.id == sid).select().first() \n   old = db(db.sample_files.sample == sid).select(db.sample_files.ALL)\n   form = SQLFORM(db.sample_files)\n   form.vars.sample = sid\n   return locals()\n\n\n\nresponse._vars=response._caller(index)\n'
p7
sS'snapshot'
p8
(dp9
S'exception'
p10
(dp11
S'__getslice__'
p12
S"<method-wrapper '__getslice__' of exceptions.SyntaxError object>"
p13
sS'text'
p14
S"'       ]\\n'"
p15
sS'__str__'
p16
S"<method-wrapper '__str__' of exceptions.SyntaxError object>"
p17
sS'__reduce__'
p18
S'<built-in method __reduce__ of exceptions.SyntaxError object>'
p19
sS'__dict__'
p20
S'{}'
p21
sS'__sizeof__'
p22
S'<built-in method __sizeof__ of exceptions.SyntaxError object>'
p23
sS'__init__'
p24
S"<method-wrapper '__init__' of exceptions.SyntaxError object>"
p25
sS'__setattr__'
p26
S"<method-wrapper '__setattr__' of exceptions.SyntaxError object>"
p27
sS'__reduce_ex__'
p28
S'<built-in method __reduce_ex__ of exceptions.SyntaxError object>'
p29
sS'__new__'
p30
S'<built-in method __new__ of type object>'
p31
sS'__format__'
p32
S'<built-in method __format__ of exceptions.SyntaxError object>'
p33
sS'__class__'
p34
S"<type 'exceptions.SyntaxError'>"
p35
sS'filename'
p36
S"'/home/anil/Downloads/web2py/applications/DEV_bootstrap_ch/controllers/default.py'"
p37
sS'lineno'
p38
S'337'
p39
sS'msg'
p40
S"'invalid syntax'"
p41
sS'__doc__'
p42
S"'Invalid syntax.'"
p43
sS'__getitem__'
p44
S"<method-wrapper '__getitem__' of exceptions.SyntaxError object>"
p45
sS'__setstate__'
p46
S'<built-in method __setstate__ of exceptions.SyntaxError object>'
p47
sS'__getattribute__'
p48
S"<method-wrapper '__getattribute__' of exceptions.SyntaxError object>"
p49
sS'print_file_and_line'
p50
S'None'
p51
sS'args'
p52
S"('invalid syntax', ('/home/anil/Downloads/web2py/applications/DEV_bootstrap_ch/controllers/default.py', 337, 8, '       ]\\n'))"
p53
sS'__subclasshook__'
p54
S'<built-in method __subclasshook__ of type object>'
p55
sS'offset'
p56
S'8'
sS'__unicode__'
p57
S'<built-in method __unicode__ of exceptions.SyntaxError object>'
p58
sS'__delattr__'
p59
S"<method-wrapper '__delattr__' of exceptions.SyntaxError object>"
p60
sS'__repr__'
p61
S"<method-wrapper '__repr__' of exceptions.SyntaxError object>"
p62
sS'__hash__'
p63
S"<method-wrapper '__hash__' of exceptions.SyntaxError object>"
p64
ssS'evalue'
p65
S'invalid syntax (default.py, line 337)'
p66
sS'request'
p67
ccopy_reg
_reconstructor
p68
(cgluon.html
BEAUTIFY
p69
c__builtin__
object
p70
NtRp71
(dp72
S'attributes'
p73
(dp74
sS'components'
p75
(lp76
g68
(cgluon.html
TABLE
p77
g70
NtRp78
(dp79
g73
(dp80
S'level'
p81
I5
ssS'parent'
p82
Nsg75
(lp83
g68
(cgluon.html
TR
p84
g70
NtRp85
(dp86
g73
(dp87
sg82
g78
sg75
(lp88
g68
(cgluon.html
TD
p89
g70
NtRp90
(dp91
g73
(dp92
S'_style'
p93
S'font-weight:bold;vertical-align:top'
p94
ssg82
g85
sg75
(lp95
S'ajax'
p96
asbag68
(g89
g70
NtRp97
(dp98
g73
(dp99
S'_valign'
p100
S'top'
p101
ssg82
g85
sg75
(lp102
S':'
asbag68
(g89
g70
NtRp103
(dp104
g73
(dp105
sg82
g85
sg75
(lp106
g68
(g69
g70
NtRp107
(dp108
g73
(dp109
g81
I5
ssg82
g103
sg75
(lp110
S'False'
p111
asbasbasbag68
(g84
g70
NtRp112
(dp113
g73
(dp114
sg82
g78
sg75
(lp115
g68
(g89
g70
NtRp116
(dp117
g73
(dp118
g93
g94
ssg82
g112
sg75
(lp119
S'application'
p120
asbag68
(g89
g70
NtRp121
(dp122
g73
(dp123
g100
g101
ssg82
g112
sg75
(lp124
S':'
asbag68
(g89
g70
NtRp125
(dp126
g73
(dp127
sg82
g112
sg75
(lp128
g68
(g69
g70
NtRp129
(dp130
g73
(dp131
g81
I5
ssg82
g125
sg75
(lp132
S'DEV_bootstrap_ch'
p133
asbasbasbag68
(g84
g70
NtRp134
(dp135
g73
(dp136
sg82
g78
sg75
(lp137
g68
(g89
g70
NtRp138
(dp139
g73
(dp140
g93
g94
ssg82
g134
sg75
(lp141
g52
asbag68
(g89
g70
NtRp142
(dp143
g73
(dp144
g100
g101
ssg82
g134
sg75
(lp145
S':'
asbag68
(g89
g70
NtRp146
(dp147
g73
(dp148
sg82
g134
sg75
(lp149
g68
(g69
g70
NtRp150
(dp151
g73
(dp152
g81
I5
ssg82
g146
sg75
(lp153
g68
(g77
g70
NtRp154
(dp155
g73
(dp156
g81
I4
ssg82
Nsg75
(lp157
sbasbasbasbag68
(g84
g70
NtRp158
(dp159
g73
(dp160
sg82
g78
sg75
(lp161
g68
(g89
g70
NtRp162
(dp163
g73
(dp164
g93
g94
ssg82
g158
sg75
(lp165
S'body'
p166
asbag68
(g89
g70
NtRp167
(dp168
g73
(dp169
g100
g101
ssg82
g158
sg75
(lp170
S':'
asbag68
(g89
g70
NtRp171
(dp172
g73
(dp173
sg82
g158
sg75
(lp174
g68
(g69
g70
NtRp175
(dp176
g73
(dp177
g81
I5
ssg82
g171
sg75
(lp178
S'<cStringIO.StringO object at 0xaf734b40>'
p179
asbasbasbag68
(g84
g70
NtRp180
(dp181
g73
(dp182
sg82
g78
sg75
(lp183
g68
(g89
g70
NtRp184
(dp185
g73
(dp186
g93
g94
ssg82
g180
sg75
(lp187
S'cid'
p188
asbag68
(g89
g70
NtRp189
(dp190
g73
(dp191
g100
g101
ssg82
g180
sg75
(lp192
S':'
asbag68
(g89
g70
NtRp193
(dp194
g73
(dp195
sg82
g180
sg75
(lp196
g68
(g69
g70
NtRp197
(dp198
g73
(dp199
g81
I5
ssg82
g193
sg75
(lp200
S'None'
p201
asbasbasbag68
(g84
g70
NtRp202
(dp203
g73
(dp204
sg82
g78
sg75
(lp205
g68
(g89
g70
NtRp206
(dp207
g73
(dp208
g93
g94
ssg82
g202
sg75
(lp209
S'client'
p210
asbag68
(g89
g70
NtRp211
(dp212
g73
(dp213
g100
g101
ssg82
g202
sg75
(lp214
S':'
asbag68
(g89
g70
NtRp215
(dp216
g73
(dp217
sg82
g202
sg75
(lp218
g68
(g69
g70
NtRp219
(dp220
g73
(dp221
g81
I5
ssg82
g215
sg75
(lp222
S'127.0.0.1'
p223
asbasbasbag68
(g84
g70
NtRp224
(dp225
g73
(dp226
sg82
g78
sg75
(lp227
g68
(g89
g70
NtRp228
(dp229
g73
(dp230
g93
g94
ssg82
g224
sg75
(lp231
S'controller'
p232
asbag68
(g89
g70
NtRp233
(dp234
g73
(dp235
g100
g101
ssg82
g224
sg75
(lp236
S':'
asbag68
(g89
g70
NtRp237
(dp238
g73
(dp239
sg82
g224
sg75
(lp240
g68
(g69
g70
NtRp241
(dp242
g73
(dp243
g81
I5
ssg82
g237
sg75
(lp244
S'default'
p245
asbasbasbag68
(g84
g70
NtRp246
(dp247
g73
(dp248
sg82
g78
sg75
(lp249
g68
(g89
g70
NtRp250
(dp251
g73
(dp252
g93
g94
ssg82
g246
sg75
(lp253
S'cookies'
p254
asbag68
(g89
g70
NtRp255
(dp256
g73
(dp257
g100
g101
ssg82
g246
sg75
(lp258
S':'
asbag68
(g89
g70
NtRp259
(dp260
g73
(dp261
sg82
g246
sg75
(lp262
g68
(g69
g70
NtRp263
(dp264
g73
(dp265
g81
I5
ssg82
g259
sg75
(lp266
g68
(g77
g70
NtRp267
(dp268
g73
(dp269
g81
I4
ssg82
Nsg75
(lp270
g68
(g84
g70
NtRp271
(dp272
g73
(dp273
sg82
g267
sg75
(lp274
g68
(g89
g70
NtRp275
(dp276
g73
(dp277
g93
g94
ssg82
g271
sg75
(lp278
S'session_id_admin'
p279
asbag68
(g89
g70
NtRp280
(dp281
g73
(dp282
g100
g101
ssg82
g271
sg75
(lp283
S':'
asbag68
(g89
g70
NtRp284
(dp285
g73
(dp286
sg82
g271
sg75
(lp287
g68
(g69
g70
NtRp288
(dp289
g73
(dp290
g81
I4
ssg82
g284
sg75
(lp291
S'127.0.0.1-b525fb61-ea08-4c78-87c0-51b0a39c8fc3'
p292
ag68
(g77
g70
NtRp293
(dp294
g73
(dp295
g81
I3
ssg82
Nsg75
(lp296
g68
(g84
g70
NtRp297
(dp298
g73
(dp299
sg82
g293
sg75
(lp300
g68
(g89
g70
NtRp301
(dp302
g73
(dp303
g93
g94
ssg82
g297
sg75
(lp304
S'comment'
p305
asbag68
(g89
g70
NtRp306
(dp307
g73
(dp308
g100
g101
ssg82
g297
sg75
(lp309
S':'
asbag68
(g89
g70
NtRp310
(dp311
g73
(dp312
sg82
g297
sg75
(lp313
g68
(g69
g70
NtRp314
(dp315
g73
(dp316
g81
I3
ssg82
g310
sg75
(lp317
S''
asbasbasbag68
(g84
g70
NtRp318
(dp319
g73
(dp320
sg82
g293
sg75
(lp321
g68
(g89
g70
NtRp322
(dp323
g73
(dp324
g93
g94
ssg82
g318
sg75
(lp325
S'domain'
p326
asbag68
(g89
g70
NtRp327
(dp328
g73
(dp329
g100
g101
ssg82
g318
sg75
(lp330
S':'
asbag68
(g89
g70
NtRp331
(dp332
g73
(dp333
sg82
g318
sg75
(lp334
g68
(g69
g70
NtRp335
(dp336
g73
(dp337
g81
I3
ssg82
g331
sg75
(lp338
S''
asbasbasbag68
(g84
g70
NtRp339
(dp340
g73
(dp341
sg82
g293
sg75
(lp342
g68
(g89
g70
NtRp343
(dp344
g73
(dp345
g93
g94
ssg82
g339
sg75
(lp346
S'expires'
p347
asbag68
(g89
g70
NtRp348
(dp349
g73
(dp350
g100
g101
ssg82
g339
sg75
(lp351
S':'
asbag68
(g89
g70
NtRp352
(dp353
g73
(dp354
sg82
g339
sg75
(lp355
g68
(g69
g70
NtRp356
(dp357
g73
(dp358
g81
I3
ssg82
g352
sg75
(lp359
S''
asbasbasbag68
(g84
g70
NtRp360
(dp361
g73
(dp362
sg82
g293
sg75
(lp363
g68
(g89
g70
NtRp364
(dp365
g73
(dp366
g93
g94
ssg82
g360
sg75
(lp367
S'httponly'
p368
asbag68
(g89
g70
NtRp369
(dp370
g73
(dp371
g100
g101
ssg82
g360
sg75
(lp372
S':'
asbag68
(g89
g70
NtRp373
(dp374
g73
(dp375
sg82
g360
sg75
(lp376
g68
(g69
g70
NtRp377
(dp378
g73
(dp379
g81
I3
ssg82
g373
sg75
(lp380
S''
asbasbasbag68
(g84
g70
NtRp381
(dp382
g73
(dp383
sg82
g293
sg75
(lp384
g68
(g89
g70
NtRp385
(dp386
g73
(dp387
g93
g94
ssg82
g381
sg75
(lp388
S'max-age'
p389
asbag68
(g89
g70
NtRp390
(dp391
g73
(dp392
g100
g101
ssg82
g381
sg75
(lp393
S':'
asbag68
(g89
g70
NtRp394
(dp395
g73
(dp396
sg82
g381
sg75
(lp397
g68
(g69
g70
NtRp398
(dp399
g73
(dp400
g81
I3
ssg82
g394
sg75
(lp401
S''
asbasbasbag68
(g84
g70
NtRp402
(dp403
g73
(dp404
sg82
g293
sg75
(lp405
g68
(g89
g70
NtRp406
(dp407
g73
(dp408
g93
g94
ssg82
g402
sg75
(lp409
S'path'
p410
asbag68
(g89
g70
NtRp411
(dp412
g73
(dp413
g100
g101
ssg82
g402
sg75
(lp414
S':'
asbag68
(g89
g70
NtRp415
(dp416
g73
(dp417
sg82
g402
sg75
(lp418
g68
(g69
g70
NtRp419
(dp420
g73
(dp421
g81
I3
ssg82
g415
sg75
(lp422
S''
asbasbasbag68
(g84
g70
NtRp423
(dp424
g73
(dp425
sg82
g293
sg75
(lp426
g68
(g89
g70
NtRp427
(dp428
g73
(dp429
g93
g94
ssg82
g423
sg75
(lp430
S'secure'
p431
asbag68
(g89
g70
NtRp432
(dp433
g73
(dp434
g100
g101
ssg82
g423
sg75
(lp435
S':'
asbag68
(g89
g70
NtRp436
(dp437
g73
(dp438
sg82
g423
sg75
(lp439
g68
(g69
g70
NtRp440
(dp441
g73
(dp442
g81
I3
ssg82
g436
sg75
(lp443
S''
asbasbasbag68
(g84
g70
NtRp444
(dp445
g73
(dp446
sg82
g293
sg75
(lp447
g68
(g89
g70
NtRp448
(dp449
g73
(dp450
g93
g94
ssg82
g444
sg75
(lp451
S'version'
p452
asbag68
(g89
g70
NtRp453
(dp454
g73
(dp455
g100
g101
ssg82
g444
sg75
(lp456
S':'
asbag68
(g89
g70
NtRp457
(dp458
g73
(dp459
sg82
g444
sg75
(lp460
g68
(g69
g70
NtRp461
(dp462
g73
(dp463
g81
I3
ssg82
g457
sg75
(lp464
S''
asbasbasbasbasbasbasbag68
(g84
g70
NtRp465
(dp466
g73
(dp467
sg82
g267
sg75
(lp468
g68
(g89
g70
NtRp469
(dp470
g73
(dp471
g93
g94
ssg82
g465
sg75
(lp472
S'session_id_dev_bootstrap_ch'
p473
asbag68
(g89
g70
NtRp474
(dp475
g73
(dp476
g100
g101
ssg82
g465
sg75
(lp477
S':'
asbag68
(g89
g70
NtRp478
(dp479
g73
(dp480
sg82
g465
sg75
(lp481
g68
(g69
g70
NtRp482
(dp483
g73
(dp484
g81
I4
ssg82
g478
sg75
(lp485
S'127.0.0.1-0786449f-0f57-4893-b642-5d65efb22480'
p486
ag68
(g77
g70
NtRp487
(dp488
g73
(dp489
g81
I3
ssg82
Nsg75
(lp490
g68
(g84
g70
NtRp491
(dp492
g73
(dp493
sg82
g487
sg75
(lp494
g68
(g89
g70
NtRp495
(dp496
g73
(dp497
g93
g94
ssg82
g491
sg75
(lp498
g305
asbag68
(g89
g70
NtRp499
(dp500
g73
(dp501
g100
g101
ssg82
g491
sg75
(lp502
S':'
asbag68
(g89
g70
NtRp503
(dp504
g73
(dp505
sg82
g491
sg75
(lp506
g68
(g69
g70
NtRp507
(dp508
g73
(dp509
g81
I3
ssg82
g503
sg75
(lp510
S''
asbasbasbag68
(g84
g70
NtRp511
(dp512
g73
(dp513
sg82
g487
sg75
(lp514
g68
(g89
g70
NtRp515
(dp516
g73
(dp517
g93
g94
ssg82
g511
sg75
(lp518
g326
asbag68
(g89
g70
NtRp519
(dp520
g73
(dp521
g100
g101
ssg82
g511
sg75
(lp522
S':'
asbag68
(g89
g70
NtRp523
(dp524
g73
(dp525
sg82
g511
sg75
(lp526
g68
(g69
g70
NtRp527
(dp528
g73
(dp529
g81
I3
ssg82
g523
sg75
(lp530
S''
asbasbasbag68
(g84
g70
NtRp531
(dp532
g73
(dp533
sg82
g487
sg75
(lp534
g68
(g89
g70
NtRp535
(dp536
g73
(dp537
g93
g94
ssg82
g531
sg75
(lp538
g347
asbag68
(g89
g70
NtRp539
(dp540
g73
(dp541
g100
g101
ssg82
g531
sg75
(lp542
S':'
asbag68
(g89
g70
NtRp543
(dp544
g73
(dp545
sg82
g531
sg75
(lp546
g68
(g69
g70
NtRp547
(dp548
g73
(dp549
g81
I3
ssg82
g543
sg75
(lp550
S''
asbasbasbag68
(g84
g70
NtRp551
(dp552
g73
(dp553
sg82
g487
sg75
(lp554
g68
(g89
g70
NtRp555
(dp556
g73
(dp557
g93
g94
ssg82
g551
sg75
(lp558
g368
asbag68
(g89
g70
NtRp559
(dp560
g73
(dp561
g100
g101
ssg82
g551
sg75
(lp562
S':'
asbag68
(g89
g70
NtRp563
(dp564
g73
(dp565
sg82
g551
sg75
(lp566
g68
(g69
g70
NtRp567
(dp568
g73
(dp569
g81
I3
ssg82
g563
sg75
(lp570
S''
asbasbasbag68
(g84
g70
NtRp571
(dp572
g73
(dp573
sg82
g487
sg75
(lp574
g68
(g89
g70
NtRp575
(dp576
g73
(dp577
g93
g94
ssg82
g571
sg75
(lp578
g389
asbag68
(g89
g70
NtRp579
(dp580
g73
(dp581
g100
g101
ssg82
g571
sg75
(lp582
S':'
asbag68
(g89
g70
NtRp583
(dp584
g73
(dp585
sg82
g571
sg75
(lp586
g68
(g69
g70
NtRp587
(dp588
g73
(dp589
g81
I3
ssg82
g583
sg75
(lp590
S''
asbasbasbag68
(g84
g70
NtRp591
(dp592
g73
(dp593
sg82
g487
sg75
(lp594
g68
(g89
g70
NtRp595
(dp596
g73
(dp597
g93
g94
ssg82
g591
sg75
(lp598
g410
asbag68
(g89
g70
NtRp599
(dp600
g73
(dp601
g100
g101
ssg82
g591
sg75
(lp602
S':'
asbag68
(g89
g70
NtRp603
(dp604
g73
(dp605
sg82
g591
sg75
(lp606
g68
(g69
g70
NtRp607
(dp608
g73
(dp609
g81
I3
ssg82
g603
sg75
(lp610
S''
asbasbasbag68
(g84
g70
NtRp611
(dp612
g73
(dp613
sg82
g487
sg75
(lp614
g68
(g89
g70
NtRp615
(dp616
g73
(dp617
g93
g94
ssg82
g611
sg75
(lp618
g431
asbag68
(g89
g70
NtRp619
(dp620
g73
(dp621
g100
g101
ssg82
g611
sg75
(lp622
S':'
asbag68
(g89
g70
NtRp623
(dp624
g73
(dp625
sg82
g611
sg75
(lp626
g68
(g69
g70
NtRp627
(dp628
g73
(dp629
g81
I3
ssg82
g623
sg75
(lp630
S''
asbasbasbag68
(g84
g70
NtRp631
(dp632
g73
(dp633
sg82
g487
sg75
(lp634
g68
(g89
g70
NtRp635
(dp636
g73
(dp637
g93
g94
ssg82
g631
sg75
(lp638
g452
asbag68
(g89
g70
NtRp639
(dp640
g73
(dp641
g100
g101
ssg82
g631
sg75
(lp642
S':'
asbag68
(g89
g70
NtRp643
(dp644
g73
(dp645
sg82
g631
sg75
(lp646
g68
(g69
g70
NtRp647
(dp648
g73
(dp649
g81
I3
ssg82
g643
sg75
(lp650
S''
asbasbasbasbasbasbasbasbasbasbasbag68
(g84
g70
NtRp651
(dp652
g73
(dp653
sg82
g78
sg75
(lp654
g68
(g89
g70
NtRp655
(dp656
g73
(dp657
g93
g94
ssg82
g651
sg75
(lp658
S'env'
p659
asbag68
(g89
g70
NtRp660
(dp661
g73
(dp662
g100
g101
ssg82
g651
sg75
(lp663
S':'
asbag68
(g89
g70
NtRp664
(dp665
g73
(dp666
sg82
g651
sg75
(lp667
g68
(g69
g70
NtRp668
(dp669
g73
(dp670
g81
I5
ssg82
g664
sg75
(lp671
g68
(g77
g70
NtRp672
(dp673
g73
(dp674
g81
I4
ssg82
Nsg75
(lp675
g68
(g84
g70
NtRp676
(dp677
g73
(dp678
sg82
g672
sg75
(lp679
g68
(g89
g70
NtRp680
(dp681
g73
(dp682
g93
g94
ssg82
g676
sg75
(lp683
S'app_folders'
p684
asbag68
(g89
g70
NtRp685
(dp686
g73
(dp687
g100
g101
ssg82
g676
sg75
(lp688
S':'
asbag68
(g89
g70
NtRp689
(dp690
g73
(dp691
sg82
g676
sg75
(lp692
g68
(g69
g70
NtRp693
(dp694
g73
(dp695
g81
I4
ssg82
g689
sg75
(lp696
S"set(['/home/anil/Downloads/web2py/applications/DEV_bootstrap_ch/', '/home/anil/Downloads/web2py/applications/admin/'])"
p697
asbasbasbag68
(g84
g70
NtRp698
(dp699
g73
(dp700
sg82
g672
sg75
(lp701
g68
(g89
g70
NtRp702
(dp703
g73
(dp704
g93
g94
ssg82
g698
sg75
(lp705
S'applications_parent'
p706
asbag68
(g89
g70
NtRp707
(dp708
g73
(dp709
g100
g101
ssg82
g698
sg75
(lp710
S':'
asbag68
(g89
g70
NtRp711
(dp712
g73
(dp713
sg82
g698
sg75
(lp714
g68
(g69
g70
NtRp715
(dp716
g73
(dp717
g81
I4
ssg82
g711
sg75
(lp718
S'/home/anil/Downloads/web2py'
p719
asbasbasbag68
(g84
g70
NtRp720
(dp721
g73
(dp722
sg82
g672
sg75
(lp723
g68
(g89
g70
NtRp724
(dp725
g73
(dp726
g93
g94
ssg82
g720
sg75
(lp727
S'cmd_args'
p728
asbag68
(g89
g70
NtRp729
(dp730
g73
(dp731
g100
g101
ssg82
g720
sg75
(lp732
S':'
asbag68
(g89
g70
NtRp733
(dp734
g73
(dp735
sg82
g720
sg75
(lp736
g68
(g69
g70
NtRp737
(dp738
g73
(dp739
g81
I4
ssg82
g733
sg75
(lp740
g68
(g77
g70
NtRp741
(dp742
g73
(dp743
g81
I3
ssg82
Nsg75
(lp744
sbasbasbasbag68
(g84
g70
NtRp745
(dp746
g73
(dp747
sg82
g672
sg75
(lp748
g68
(g89
g70
NtRp749
(dp750
g73
(dp751
g93
g94
ssg82
g745
sg75
(lp752
S'cmd_options'
p753
asbag68
(g89
g70
NtRp754
(dp755
g73
(dp756
g100
g101
ssg82
g745
sg75
(lp757
S':'
asbag68
(g89
g70
NtRp758
(dp759
g73
(dp760
sg82
g745
sg75
(lp761
g68
(g69
g70
NtRp762
(dp763
g73
(dp764
g81
I4
ssg82
g758
sg75
(lp765
S"<Values at 0x8c650cc: {'verbose': False, 'ip': '127.0.0.1', 'with_scheduler': False, 'ips': [], 'shutdown_timeout': 5, 'taskbar': False, 'port': 8000, 'maxthreads': None, 'softcron': False, 'server_name': 'anil-Inspiron-1525', 'bpython': False, 'nogui': False, 'pid_filename': 'httpserver.pid', 'extcron': False, 'runcron': False, 'run_system_tests': False, 'test': None, 'folder': '/home/anil/Downloads/web2py', 'config': '', 'import_models': False, 'winservice': '', 'shell': None, 'run': '', 'log_filename': 'httpserver.log', 'debuglevel': 30, 'args': [''], 'socket_timeout': 5, 'ssl_ca_certificate': None, 'scheduler': None, 'profiler_filename': None, 'ssl_private_key': '', 'scheduler_groups': None, 'password': '123', 'request_queue_size': 5, 'ssl_certificate': '', 'cronjob': False, 'numthreads': None, 'quiet': False, 'interfaces': None, 'minthreads': None, 'timeout': 10, 'plain': False, 'nobanner': False}>"
p766
asbasbasbag68
(g84
g70
NtRp767
(dp768
g73
(dp769
sg82
g672
sg75
(lp770
g68
(g89
g70
NtRp771
(dp772
g73
(dp773
g93
g94
ssg82
g767
sg75
(lp774
S'db_sessions'
p775
asbag68
(g89
g70
NtRp776
(dp777
g73
(dp778
g100
g101
ssg82
g767
sg75
(lp779
S':'
asbag68
(g89
g70
NtRp780
(dp781
g73
(dp782
sg82
g767
sg75
(lp783
g68
(g69
g70
NtRp784
(dp785
g73
(dp786
g81
I4
ssg82
g780
sg75
(lp787
S'set([])'
p788
asbasbasbag68
(g84
g70
NtRp789
(dp790
g73
(dp791
sg82
g672
sg75
(lp792
g68
(g89
g70
NtRp793
(dp794
g73
(dp795
g93
g94
ssg82
g789
sg75
(lp796
S'debugging'
p797
asbag68
(g89
g70
NtRp798
(dp799
g73
(dp800
g100
g101
ssg82
g789
sg75
(lp801
S':'
asbag68
(g89
g70
NtRp802
(dp803
g73
(dp804
sg82
g789
sg75
(lp805
g68
(g69
g70
NtRp806
(dp807
g73
(dp808
g81
I4
ssg82
g802
sg75
(lp809
g111
asbasbasbag68
(g84
g70
NtRp810
(dp811
g73
(dp812
sg82
g672
sg75
(lp813
g68
(g89
g70
NtRp814
(dp815
g73
(dp816
g93
g94
ssg82
g810
sg75
(lp817
S'gluon_parent'
p818
asbag68
(g89
g70
NtRp819
(dp820
g73
(dp821
g100
g101
ssg82
g810
sg75
(lp822
S':'
asbag68
(g89
g70
NtRp823
(dp824
g73
(dp825
sg82
g810
sg75
(lp826
g68
(g69
g70
NtRp827
(dp828
g73
(dp829
g81
I4
ssg82
g823
sg75
(lp830
S'/home/anil/Downloads/web2py'
p831
asbasbasbag68
(g84
g70
NtRp832
(dp833
g73
(dp834
sg82
g672
sg75
(lp835
g68
(g89
g70
NtRp836
(dp837
g73
(dp838
g93
g94
ssg82
g832
sg75
(lp839
S'http_accept'
p840
asbag68
(g89
g70
NtRp841
(dp842
g73
(dp843
g100
g101
ssg82
g832
sg75
(lp844
S':'
asbag68
(g89
g70
NtRp845
(dp846
g73
(dp847
sg82
g832
sg75
(lp848
g68
(g69
g70
NtRp849
(dp850
g73
(dp851
g81
I4
ssg82
g845
sg75
(lp852
S'text/html,application/xhtml+xml,application/xml;q=0.9,*/*;q=0.8'
p853
asbasbasbag68
(g84
g70
NtRp854
(dp855
g73
(dp856
sg82
g672
sg75
(lp857
g68
(g89
g70
NtRp858
(dp859
g73
(dp860
g93
g94
ssg82
g854
sg75
(lp861
S'http_accept_charset'
p862
asbag68
(g89
g70
NtRp863
(dp864
g73
(dp865
g100
g101
ssg82
g854
sg75
(lp866
S':'
asbag68
(g89
g70
NtRp867
(dp868
g73
(dp869
sg82
g854
sg75
(lp870
g68
(g69
g70
NtRp871
(dp872
g73
(dp873
g81
I4
ssg82
g867
sg75
(lp874
S'ISO-8859-1,utf-8;q=0.7,*;q=0.3'
p875
asbasbasbag68
(g84
g70
NtRp876
(dp877
g73
(dp878
sg82
g672
sg75
(lp879
g68
(g89
g70
NtRp880
(dp881
g73
(dp882
g93
g94
ssg82
g876
sg75
(lp883
S'http_accept_encoding'
p884
asbag68
(g89
g70
NtRp885
(dp886
g73
(dp887
g100
g101
ssg82
g876
sg75
(lp888
S':'
asbag68
(g89
g70
NtRp889
(dp890
g73
(dp891
sg82
g876
sg75
(lp892
g68
(g69
g70
NtRp893
(dp894
g73
(dp895
g81
I4
ssg82
g889
sg75
(lp896
S'gzip,deflate,sdch'
p897
asbasbasbag68
(g84
g70
NtRp898
(dp899
g73
(dp900
sg82
g672
sg75
(lp901
g68
(g89
g70
NtRp902
(dp903
g73
(dp904
g93
g94
ssg82
g898
sg75
(lp905
S'http_accept_language'
p906
asbag68
(g89
g70
NtRp907
(dp908
g73
(dp909
g100
g101
ssg82
g898
sg75
(lp910
S':'
asbag68
(g89
g70
NtRp911
(dp912
g73
(dp913
sg82
g898
sg75
(lp914
g68
(g69
g70
NtRp915
(dp916
g73
(dp917
g81
I4
ssg82
g911
sg75
(lp918
S'en-US,en;q=0.8'
p919
asbasbasbag68
(g84
g70
NtRp920
(dp921
g73
(dp922
sg82
g672
sg75
(lp923
g68
(g89
g70
NtRp924
(dp925
g73
(dp926
g93
g94
ssg82
g920
sg75
(lp927
S'http_connection'
p928
asbag68
(g89
g70
NtRp929
(dp930
g73
(dp931
g100
g101
ssg82
g920
sg75
(lp932
S':'
asbag68
(g89
g70
NtRp933
(dp934
g73
(dp935
sg82
g920
sg75
(lp936
g68
(g69
g70
NtRp937
(dp938
g73
(dp939
g81
I4
ssg82
g933
sg75
(lp940
S'keep-alive'
p941
asbasbasbag68
(g84
g70
NtRp942
(dp943
g73
(dp944
sg82
g672
sg75
(lp945
g68
(g89
g70
NtRp946
(dp947
g73
(dp948
g93
g94
ssg82
g942
sg75
(lp949
S'http_cookie'
p950
asbag68
(g89
g70
NtRp951
(dp952
g73
(dp953
g100
g101
ssg82
g942
sg75
(lp954
S':'
asbag68
(g89
g70
NtRp955
(dp956
g73
(dp957
sg82
g942
sg75
(lp958
g68
(g69
g70
NtRp959
(dp960
g73
(dp961
g81
I4
ssg82
g955
sg75
(lp962
S'session_id_dev_bootstrap_ch=127.0.0.1-0786449f-0f57-4893-b642-5d65efb22480; session_id_admin=127.0.0.1-b525fb61-ea08-4c78-87c0-51b0a39c8fc3'
p963
asbasbasbag68
(g84
g70
NtRp964
(dp965
g73
(dp966
sg82
g672
sg75
(lp967
g68
(g89
g70
NtRp968
(dp969
g73
(dp970
g93
g94
ssg82
g964
sg75
(lp971
S'http_host'
p972
asbag68
(g89
g70
NtRp973
(dp974
g73
(dp975
g100
g101
ssg82
g964
sg75
(lp976
S':'
asbag68
(g89
g70
NtRp977
(dp978
g73
(dp979
sg82
g964
sg75
(lp980
g68
(g69
g70
NtRp981
(dp982
g73
(dp983
g81
I4
ssg82
g977
sg75
(lp984
S'127.0.0.1:8000'
p985
asbasbasbag68
(g84
g70
NtRp986
(dp987
g73
(dp988
sg82
g672
sg75
(lp989
g68
(g89
g70
NtRp990
(dp991
g73
(dp992
g93
g94
ssg82
g986
sg75
(lp993
S'http_user_agent'
p994
asbag68
(g89
g70
NtRp995
(dp996
g73
(dp997
g100
g101
ssg82
g986
sg75
(lp998
S':'
asbag68
(g89
g70
NtRp999
(dp1000
g73
(dp1001
sg82
g986
sg75
(lp1002
g68
(g69
g70
NtRp1003
(dp1004
g73
(dp1005
g81
I4
ssg82
g999
sg75
(lp1006
S'Mozilla/5.0 (X11; Linux i686) AppleWebKit/537.31 (KHTML, like Gecko) Chrome/26.0.1410.10 Safari/537.31'
p1007
asbasbasbag68
(g84
g70
NtRp1008
(dp1009
g73
(dp1010
sg82
g672
sg75
(lp1011
g68
(g89
g70
NtRp1012
(dp1013
g73
(dp1014
g93
g94
ssg82
g1008
sg75
(lp1015
S'is_jython'
p1016
asbag68
(g89
g70
NtRp1017
(dp1018
g73
(dp1019
g100
g101
ssg82
g1008
sg75
(lp1020
S':'
asbag68
(g89
g70
NtRp1021
(dp1022
g73
(dp1023
sg82
g1008
sg75
(lp1024
g68
(g69
g70
NtRp1025
(dp1026
g73
(dp1027
g81
I4
ssg82
g1021
sg75
(lp1028
g111
asbasbasbag68
(g84
g70
NtRp1029
(dp1030
g73
(dp1031
sg82
g672
sg75
(lp1032
g68
(g89
g70
NtRp1033
(dp1034
g73
(dp1035
g93
g94
ssg82
g1029
sg75
(lp1036
S'is_pypy'
p1037
asbag68
(g89
g70
NtRp1038
(dp1039
g73
(dp1040
g100
g101
ssg82
g1029
sg75
(lp1041
S':'
asbag68
(g89
g70
NtRp1042
(dp1043
g73
(dp1044
sg82
g1029
sg75
(lp1045
g68
(g69
g70
NtRp1046
(dp1047
g73
(dp1048
g81
I4
ssg82
g1042
sg75
(lp1049
g111
asbasbasbag68
(g84
g70
NtRp1050
(dp1051
g73
(dp1052
sg82
g672
sg75
(lp1053
g68
(g89
g70
NtRp1054
(dp1055
g73
(dp1056
g93
g94
ssg82
g1050
sg75
(lp1057
S'local_hosts'
p1058
asbag68
(g89
g70
NtRp1059
(dp1060
g73
(dp1061
g100
g101
ssg82
g1050
sg75
(lp1062
S':'
asbag68
(g89
g70
NtRp1063
(dp1064
g73
(dp1065
sg82
g1050
sg75
(lp1066
g68
(g69
g70
NtRp1067
(dp1068
g73
(dp1069
g81
I4
ssg82
g1063
sg75
(lp1070
g68
(g77
g70
NtRp1071
(dp1072
g73
(dp1073
g81
I3
ssg82
Nsg75
(lp1074
g68
(g84
g70
NtRp1075
(dp1076
g73
(dp1077
sg82
g1071
sg75
(lp1078
g68
(g89
g70
NtRp1079
(dp1080
g73
(dp1081
sg82
g1075
sg75
(lp1082
g68
(g69
g70
NtRp1083
(dp1084
g73
(dp1085
g81
I3
ssg82
g1079
sg75
(lp1086
S'::1'
p1087
asbasbasbag68
(g84
g70
NtRp1088
(dp1089
g73
(dp1090
sg82
g1071
sg75
(lp1091
g68
(g89
g70
NtRp1092
(dp1093
g73
(dp1094
sg82
g1088
sg75
(lp1095
g68
(g69
g70
NtRp1096
(dp1097
g73
(dp1098
g81
I3
ssg82
g1092
sg75
(lp1099
S'127.0.1.1'
p1100
asbasbasbag68
(g84
g70
NtRp1101
(dp1102
g73
(dp1103
sg82
g1071
sg75
(lp1104
g68
(g89
g70
NtRp1105
(dp1106
g73
(dp1107
sg82
g1101
sg75
(lp1108
g68
(g69
g70
NtRp1109
(dp1110
g73
(dp1111
g81
I3
ssg82
g1105
sg75
(lp1112
S'::ffff:127.0.0.1'
p1113
asbasbasbag68
(g84
g70
NtRp1114
(dp1115
g73
(dp1116
sg82
g1071
sg75
(lp1117
g68
(g89
g70
NtRp1118
(dp1119
g73
(dp1120
sg82
g1114
sg75
(lp1121
g68
(g69
g70
NtRp1122
(dp1123
g73
(dp1124
g81
I3
ssg82
g1118
sg75
(lp1125
S'127.0.0.1'
p1126
asbasbasbag68
(g84
g70
NtRp1127
(dp1128
g73
(dp1129
sg82
g1071
sg75
(lp1130
g68
(g89
g70
NtRp1131
(dp1132
g73
(dp1133
sg82
g1127
sg75
(lp1134
g68
(g69
g70
NtRp1135
(dp1136
g73
(dp1137
g81
I3
ssg82
g1131
sg75
(lp1138
S'anil-Inspiron-1525'
p1139
asbasbasbasbasbasbasbag68
(g84
g70
NtRp1140
(dp1141
g73
(dp1142
sg82
g672
sg75
(lp1143
g68
(g89
g70
NtRp1144
(dp1145
g73
(dp1146
g93
g94
ssg82
g1140
sg75
(lp1147
S'path_info'
p1148
asbag68
(g89
g70
NtRp1149
(dp1150
g73
(dp1151
g100
g101
ssg82
g1140
sg75
(lp1152
S':'
asbag68
(g89
g70
NtRp1153
(dp1154
g73
(dp1155
sg82
g1140
sg75
(lp1156
g68
(g69
g70
NtRp1157
(dp1158
g73
(dp1159
g81
I4
ssg82
g1153
sg75
(lp1160
S'/DEV_bootstrap_ch'
p1161
asbasbasbag68
(g84
g70
NtRp1162
(dp1163
g73
(dp1164
sg82
g672
sg75
(lp1165
g68
(g89
g70
NtRp1166
(dp1167
g73
(dp1168
g93
g94
ssg82
g1162
sg75
(lp1169
S'query_string'
p1170
asbag68
(g89
g70
NtRp1171
(dp1172
g73
(dp1173
g100
g101
ssg82
g1162
sg75
(lp1174
S':'
asbag68
(g89
g70
NtRp1175
(dp1176
g73
(dp1177
sg82
g1162
sg75
(lp1178
g68
(g69
g70
NtRp1179
(dp1180
g73
(dp1181
g81
I4
ssg82
g1175
sg75
(lp1182
S''
asbasbasbag68
(g84
g70
NtRp1183
(dp1184
g73
(dp1185
sg82
g672
sg75
(lp1186
g68
(g89
g70
NtRp1187
(dp1188
g73
(dp1189
g93
g94
ssg82
g1183
sg75
(lp1190
S'remote_addr'
p1191
asbag68
(g89
g70
NtRp1192
(dp1193
g73
(dp1194
g100
g101
ssg82
g1183
sg75
(lp1195
S':'
asbag68
(g89
g70
NtRp1196
(dp1197
g73
(dp1198
sg82
g1183
sg75
(lp1199
g68
(g69
g70
NtRp1200
(dp1201
g73
(dp1202
g81
I4
ssg82
g1196
sg75
(lp1203
g223
asbasbasbag68
(g84
g70
NtRp1204
(dp1205
g73
(dp1206
sg82
g672
sg75
(lp1207
g68
(g89
g70
NtRp1208
(dp1209
g73
(dp1210
g93
g94
ssg82
g1204
sg75
(lp1211
S'remote_port'
p1212
asbag68
(g89
g70
NtRp1213
(dp1214
g73
(dp1215
g100
g101
ssg82
g1204
sg75
(lp1216
S':'
asbag68
(g89
g70
NtRp1217
(dp1218
g73
(dp1219
sg82
g1204
sg75
(lp1220
g68
(g69
g70
NtRp1221
(dp1222
g73
(dp1223
g81
I4
ssg82
g1217
sg75
(lp1224
S'35638'
p1225
asbasbasbag68
(g84
g70
NtRp1226
(dp1227
g73
(dp1228
sg82
g672
sg75
(lp1229
g68
(g89
g70
NtRp1230
(dp1231
g73
(dp1232
g93
g94
ssg82
g1226
sg75
(lp1233
S'request_method'
p1234
asbag68
(g89
g70
NtRp1235
(dp1236
g73
(dp1237
g100
g101
ssg82
g1226
sg75
(lp1238
S':'
asbag68
(g89
g70
NtRp1239
(dp1240
g73
(dp1241
sg82
g1226
sg75
(lp1242
g68
(g69
g70
NtRp1243
(dp1244
g73
(dp1245
g81
I4
ssg82
g1239
sg75
(lp1246
S'GET'
p1247
asbasbasbag68
(g84
g70
NtRp1248
(dp1249
g73
(dp1250
sg82
g672
sg75
(lp1251
g68
(g89
g70
NtRp1252
(dp1253
g73
(dp1254
g93
g94
ssg82
g1248
sg75
(lp1255
S'request_uri'
p1256
asbag68
(g89
g70
NtRp1257
(dp1258
g73
(dp1259
g100
g101
ssg82
g1248
sg75
(lp1260
S':'
asbag68
(g89
g70
NtRp1261
(dp1262
g73
(dp1263
sg82
g1248
sg75
(lp1264
g68
(g69
g70
NtRp1265
(dp1266
g73
(dp1267
g81
I4
ssg82
g1261
sg75
(lp1268
g1161
asbasbasbag68
(g84
g70
NtRp1269
(dp1270
g73
(dp1271
sg82
g672
sg75
(lp1272
g68
(g89
g70
NtRp1273
(dp1274
g73
(dp1275
g93
g94
ssg82
g1269
sg75
(lp1276
S'script_name'
p1277
asbag68
(g89
g70
NtRp1278
(dp1279
g73
(dp1280
g100
g101
ssg82
g1269
sg75
(lp1281
S':'
asbag68
(g89
g70
NtRp1282
(dp1283
g73
(dp1284
sg82
g1269
sg75
(lp1285
g68
(g69
g70
NtRp1286
(dp1287
g73
(dp1288
g81
I4
ssg82
g1282
sg75
(lp1289
S''
asbasbasbag68
(g84
g70
NtRp1290
(dp1291
g73
(dp1292
sg82
g672
sg75
(lp1293
g68
(g89
g70
NtRp1294
(dp1295
g73
(dp1296
g93
g94
ssg82
g1290
sg75
(lp1297
S'server_name'
p1298
asbag68
(g89
g70
NtRp1299
(dp1300
g73
(dp1301
g100
g101
ssg82
g1290
sg75
(lp1302
S':'
asbag68
(g89
g70
NtRp1303
(dp1304
g73
(dp1305
sg82
g1290
sg75
(lp1306
g68
(g69
g70
NtRp1307
(dp1308
g73
(dp1309
g81
I4
ssg82
g1303
sg75
(lp1310
S'anil-Inspiron-1525'
p1311
asbasbasbag68
(g84
g70
NtRp1312
(dp1313
g73
(dp1314
sg82
g672
sg75
(lp1315
g68
(g89
g70
NtRp1316
(dp1317
g73
(dp1318
g93
g94
ssg82
g1312
sg75
(lp1319
S'server_port'
p1320
asbag68
(g89
g70
NtRp1321
(dp1322
g73
(dp1323
g100
g101
ssg82
g1312
sg75
(lp1324
S':'
asbag68
(g89
g70
NtRp1325
(dp1326
g73
(dp1327
sg82
g1312
sg75
(lp1328
g68
(g69
g70
NtRp1329
(dp1330
g73
(dp1331
g81
I4
ssg82
g1325
sg75
(lp1332
S'8000'
p1333
asbasbasbag68
(g84
g70
NtRp1334
(dp1335
g73
(dp1336
sg82
g672
sg75
(lp1337
g68
(g89
g70
NtRp1338
(dp1339
g73
(dp1340
g93
g94
ssg82
g1334
sg75
(lp1341
S'server_protocol'
p1342
asbag68
(g89
g70
NtRp1343
(dp1344
g73
(dp1345
g100
g101
ssg82
g1334
sg75
(lp1346
S':'
asbag68
(g89
g70
NtRp1347
(dp1348
g73
(dp1349
sg82
g1334
sg75
(lp1350
g68
(g69
g70
NtRp1351
(dp1352
g73
(dp1353
g81
I4
ssg82
g1347
sg75
(lp1354
S'HTTP/1.1'
p1355
asbasbasbag68
(g84
g70
NtRp1356
(dp1357
g73
(dp1358
sg82
g672
sg75
(lp1359
g68
(g89
g70
NtRp1360
(dp1361
g73
(dp1362
g93
g94
ssg82
g1356
sg75
(lp1363
S'server_software'
p1364
asbag68
(g89
g70
NtRp1365
(dp1366
g73
(dp1367
g100
g101
ssg82
g1356
sg75
(lp1368
S':'
asbag68
(g89
g70
NtRp1369
(dp1370
g73
(dp1371
sg82
g1356
sg75
(lp1372
g68
(g69
g70
NtRp1373
(dp1374
g73
(dp1375
g81
I4
ssg82
g1369
sg75
(lp1376
S'Rocket 1.2.6'
p1377
asbasbasbag68
(g84
g70
NtRp1378
(dp1379
g73
(dp1380
sg82
g672
sg75
(lp1381
g68
(g89
g70
NtRp1382
(dp1383
g73
(dp1384
g93
g94
ssg82
g1378
sg75
(lp1385
S'web2py_path'
p1386
asbag68
(g89
g70
NtRp1387
(dp1388
g73
(dp1389
g100
g101
ssg82
g1378
sg75
(lp1390
S':'
asbag68
(g89
g70
NtRp1391
(dp1392
g73
(dp1393
sg82
g1378
sg75
(lp1394
g68
(g69
g70
NtRp1395
(dp1396
g73
(dp1397
g81
I4
ssg82
g1391
sg75
(lp1398
g719
asbasbasbag68
(g84
g70
NtRp1399
(dp1400
g73
(dp1401
sg82
g672
sg75
(lp1402
g68
(g89
g70
NtRp1403
(dp1404
g73
(dp1405
g93
g94
ssg82
g1399
sg75
(lp1406
S'web2py_version'
p1407
asbag68
(g89
g70
NtRp1408
(dp1409
g73
(dp1410
g100
g101
ssg82
g1399
sg75
(lp1411
S':'
asbag68
(g89
g70
NtRp1412
(dp1413
g73
(dp1414
sg82
g1399
sg75
(lp1415
g68
(g69
g70
NtRp1416
(dp1417
g73
(dp1418
g81
I4
ssg82
g1412
sg75
(lp1419
g68
(g77
g70
NtRp1420
(dp1421
g73
(dp1422
g81
I3
ssg82
Nsg75
(lp1423
g68
(g84
g70
NtRp1424
(dp1425
g73
(dp1426
sg82
g1420
sg75
(lp1427
g68
(g89
g70
NtRp1428
(dp1429
g73
(dp1430
sg82
g1424
sg75
(lp1431
g68
(g69
g70
NtRp1432
(dp1433
g73
(dp1434
g81
I3
ssg82
g1428
sg75
(lp1435
S'2'
asbasbasbag68
(g84
g70
NtRp1436
(dp1437
g73
(dp1438
sg82
g1420
sg75
(lp1439
g68
(g89
g70
NtRp1440
(dp1441
g73
(dp1442
sg82
g1436
sg75
(lp1443
g68
(g69
g70
NtRp1444
(dp1445
g73
(dp1446
g81
I3
ssg82
g1440
sg75
(lp1447
S'3'
asbasbasbag68
(g84
g70
NtRp1448
(dp1449
g73
(dp1450
sg82
g1420
sg75
(lp1451
g68
(g89
g70
NtRp1452
(dp1453
g73
(dp1454
sg82
g1448
sg75
(lp1455
g68
(g69
g70
NtRp1456
(dp1457
g73
(dp1458
g81
I3
ssg82
g1452
sg75
(lp1459
S'2'
asbasbasbag68
(g84
g70
NtRp1460
(dp1461
g73
(dp1462
sg82
g1420
sg75
(lp1463
g68
(g89
g70
NtRp1464
(dp1465
g73
(dp1466
sg82
g1460
sg75
(lp1467
g68
(g69
g70
NtRp1468
(dp1469
g73
(dp1470
g81
I3
ssg82
g1464
sg75
(lp1471
S'datetime.datetime(2012, 12, 17, 15, 3, 30)'
p1472
asbasbasbag68
(g84
g70
NtRp1473
(dp1474
g73
(dp1475
sg82
g1420
sg75
(lp1476
g68
(g89
g70
NtRp1477
(dp1478
g73
(dp1479
sg82
g1473
sg75
(lp1480
g68
(g69
g70
NtRp1481
(dp1482
g73
(dp1483
g81
I3
ssg82
g1477
sg75
(lp1484
S'stable'
p1485
asbasbasbasbasbasbasbag68
(g84
g70
NtRp1486
(dp1487
g73
(dp1488
sg82
g672
sg75
(lp1489
g68
(g89
g70
NtRp1490
(dp1491
g73
(dp1492
g93
g94
ssg82
g1486
sg75
(lp1493
S'wsgi_errors'
p1494
asbag68
(g89
g70
NtRp1495
(dp1496
g73
(dp1497
g100
g101
ssg82
g1486
sg75
(lp1498
S':'
asbag68
(g89
g70
NtRp1499
(dp1500
g73
(dp1501
sg82
g1486
sg75
(lp1502
g68
(g69
g70
NtRp1503
(dp1504
g73
(dp1505
g81
I4
ssg82
g1499
sg75
(lp1506
S"<open file '<stderr>', mode 'w' at 0xb732a0d0>"
p1507
asbasbasbag68
(g84
g70
NtRp1508
(dp1509
g73
(dp1510
sg82
g672
sg75
(lp1511
g68
(g89
g70
NtRp1512
(dp1513
g73
(dp1514
g93
g94
ssg82
g1508
sg75
(lp1515
S'wsgi_file_wrapper'
p1516
asbag68
(g89
g70
NtRp1517
(dp1518
g73
(dp1519
g100
g101
ssg82
g1508
sg75
(lp1520
S':'
asbag68
(g89
g70
NtRp1521
(dp1522
g73
(dp1523
sg82
g1508
sg75
(lp1524
g68
(g69
g70
NtRp1525
(dp1526
g73
(dp1527
g81
I4
ssg82
g1521
sg75
(lp1528
S'<class wsgiref.util.FileWrapper at 0x8beeb9c>'
p1529
asbasbasbag68
(g84
g70
NtRp1530
(dp1531
g73
(dp1532
sg82
g672
sg75
(lp1533
g68
(g89
g70
NtRp1534
(dp1535
g73
(dp1536
g93
g94
ssg82
g1530
sg75
(lp1537
S'wsgi_input'
p1538
asbag68
(g89
g70
NtRp1539
(dp1540
g73
(dp1541
g100
g101
ssg82
g1530
sg75
(lp1542
S':'
asbag68
(g89
g70
NtRp1543
(dp1544
g73
(dp1545
sg82
g1530
sg75
(lp1546
g68
(g69
g70
NtRp1547
(dp1548
g73
(dp1549
g81
I4
ssg82
g1543
sg75
(lp1550
S'<socket._fileobject object at 0x8ccb96c>'
p1551
asbasbasbag68
(g84
g70
NtRp1552
(dp1553
g73
(dp1554
sg82
g672
sg75
(lp1555
g68
(g89
g70
NtRp1556
(dp1557
g73
(dp1558
g93
g94
ssg82
g1552
sg75
(lp1559
S'wsgi_multiprocess'
p1560
asbag68
(g89
g70
NtRp1561
(dp1562
g73
(dp1563
g100
g101
ssg82
g1552
sg75
(lp1564
S':'
asbag68
(g89
g70
NtRp1565
(dp1566
g73
(dp1567
sg82
g1552
sg75
(lp1568
g68
(g69
g70
NtRp1569
(dp1570
g73
(dp1571
g81
I4
ssg82
g1565
sg75
(lp1572
g111
asbasbasbag68
(g84
g70
NtRp1573
(dp1574
g73
(dp1575
sg82
g672
sg75
(lp1576
g68
(g89
g70
NtRp1577
(dp1578
g73
(dp1579
g93
g94
ssg82
g1573
sg75
(lp1580
S'wsgi_multithread'
p1581
asbag68
(g89
g70
NtRp1582
(dp1583
g73
(dp1584
g100
g101
ssg82
g1573
sg75
(lp1585
S':'
asbag68
(g89
g70
NtRp1586
(dp1587
g73
(dp1588
sg82
g1573
sg75
(lp1589
g68
(g69
g70
NtRp1590
(dp1591
g73
(dp1592
g81
I4
ssg82
g1586
sg75
(lp1593
S'True'
p1594
asbasbasbag68
(g84
g70
NtRp1595
(dp1596
g73
(dp1597
sg82
g672
sg75
(lp1598
g68
(g89
g70
NtRp1599
(dp1600
g73
(dp1601
g93
g94
ssg82
g1595
sg75
(lp1602
S'wsgi_run_once'
p1603
asbag68
(g89
g70
NtRp1604
(dp1605
g73
(dp1606
g100
g101
ssg82
g1595
sg75
(lp1607
S':'
asbag68
(g89
g70
NtRp1608
(dp1609
g73
(dp1610
sg82
g1595
sg75
(lp1611
g68
(g69
g70
NtRp1612
(dp1613
g73
(dp1614
g81
I4
ssg82
g1608
sg75
(lp1615
g111
asbasbasbag68
(g84
g70
NtRp1616
(dp1617
g73
(dp1618
sg82
g672
sg75
(lp1619
g68
(g89
g70
NtRp1620
(dp1621
g73
(dp1622
g93
g94
ssg82
g1616
sg75
(lp1623
S'wsgi_url_scheme'
p1624
asbag68
(g89
g70
NtRp1625
(dp1626
g73
(dp1627
g100
g101
ssg82
g1616
sg75
(lp1628
S':'
asbag68
(g89
g70
NtRp1629
(dp1630
g73
(dp1631
sg82
g1616
sg75
(lp1632
g68
(g69
g70
NtRp1633
(dp1634
g73
(dp1635
g81
I4
ssg82
g1629
sg75
(lp1636
S'http'
p1637
asbasbasbag68
(g84
g70
NtRp1638
(dp1639
g73
(dp1640
sg82
g672
sg75
(lp1641
g68
(g89
g70
NtRp1642
(dp1643
g73
(dp1644
g93
g94
ssg82
g1638
sg75
(lp1645
S'wsgi_version'
p1646
asbag68
(g89
g70
NtRp1647
(dp1648
g73
(dp1649
g100
g101
ssg82
g1638
sg75
(lp1650
S':'
asbag68
(g89
g70
NtRp1651
(dp1652
g73
(dp1653
sg82
g1638
sg75
(lp1654
g68
(g69
g70
NtRp1655
(dp1656
g73
(dp1657
g81
I4
ssg82
g1651
sg75
(lp1658
g68
(g77
g70
NtRp1659
(dp1660
g73
(dp1661
g81
I3
ssg82
Nsg75
(lp1662
g68
(g84
g70
NtRp1663
(dp1664
g73
(dp1665
sg82
g1659
sg75
(lp1666
g68
(g89
g70
NtRp1667
(dp1668
g73
(dp1669
sg82
g1663
sg75
(lp1670
g68
(g69
g70
NtRp1671
(dp1672
g73
(dp1673
g81
I3
ssg82
g1667
sg75
(lp1674
S'1'
asbasbasbag68
(g84
g70
NtRp1675
(dp1676
g73
(dp1677
sg82
g1659
sg75
(lp1678
g68
(g89
g70
NtRp1679
(dp1680
g73
(dp1681
sg82
g1675
sg75
(lp1682
g68
(g69
g70
NtRp1683
(dp1684
g73
(dp1685
g81
I3
ssg82
g1679
sg75
(lp1686
S'0'
asbasbasbasbasbasbasbasbasbasbasbag68
(g84
g70
NtRp1687
(dp1688
g73
(dp1689
sg82
g78
sg75
(lp1690
g68
(g89
g70
NtRp1691
(dp1692
g73
(dp1693
g93
g94
ssg82
g1687
sg75
(lp1694
S'extension'
p1695
asbag68
(g89
g70
NtRp1696
(dp1697
g73
(dp1698
g100
g101
ssg82
g1687
sg75
(lp1699
S':'
asbag68
(g89
g70
NtRp1700
(dp1701
g73
(dp1702
sg82
g1687
sg75
(lp1703
g68
(g69
g70
NtRp1704
(dp1705
g73
(dp1706
g81
I5
ssg82
g1700
sg75
(lp1707
S'html'
p1708
asbasbasbag68
(g84
g70
NtRp1709
(dp1710
g73
(dp1711
sg82
g78
sg75
(lp1712
g68
(g89
g70
NtRp1713
(dp1714
g73
(dp1715
g93
g94
ssg82
g1709
sg75
(lp1716
S'folder'
p1717
asbag68
(g89
g70
NtRp1718
(dp1719
g73
(dp1720
g100
g101
ssg82
g1709
sg75
(lp1721
S':'
asbag68
(g89
g70
NtRp1722
(dp1723
g73
(dp1724
sg82
g1709
sg75
(lp1725
g68
(g69
g70
NtRp1726
(dp1727
g73
(dp1728
g81
I5
ssg82
g1722
sg75
(lp1729
S'/home/anil/Downloads/web2py/applications/DEV_bootstrap_ch/'
p1730
asbasbasbag68
(g84
g70
NtRp1731
(dp1732
g73
(dp1733
sg82
g78
sg75
(lp1734
g68
(g89
g70
NtRp1735
(dp1736
g73
(dp1737
g93
g94
ssg82
g1731
sg75
(lp1738
S'function'
p1739
asbag68
(g89
g70
NtRp1740
(dp1741
g73
(dp1742
g100
g101
ssg82
g1731
sg75
(lp1743
S':'
asbag68
(g89
g70
NtRp1744
(dp1745
g73
(dp1746
sg82
g1731
sg75
(lp1747
g68
(g69
g70
NtRp1748
(dp1749
g73
(dp1750
g81
I5
ssg82
g1744
sg75
(lp1751
S'index'
p1752
asbasbasbag68
(g84
g70
NtRp1753
(dp1754
g73
(dp1755
sg82
g78
sg75
(lp1756
g68
(g89
g70
NtRp1757
(dp1758
g73
(dp1759
g93
g94
ssg82
g1753
sg75
(lp1760
S'get_vars'
p1761
asbag68
(g89
g70
NtRp1762
(dp1763
g73
(dp1764
g100
g101
ssg82
g1753
sg75
(lp1765
S':'
asbag68
(g89
g70
NtRp1766
(dp1767
g73
(dp1768
sg82
g1753
sg75
(lp1769
g68
(g69
g70
NtRp1770
(dp1771
g73
(dp1772
g81
I5
ssg82
g1766
sg75
(lp1773
g68
(g77
g70
NtRp1774
(dp1775
g73
(dp1776
g81
I4
ssg82
Nsg75
(lp1777
sbasbasbasbag68
(g84
g70
NtRp1778
(dp1779
g73
(dp1780
sg82
g78
sg75
(lp1781
g68
(g89
g70
NtRp1782
(dp1783
g73
(dp1784
g93
g94
ssg82
g1778
sg75
(lp1785
S'global_settings'
p1786
asbag68
(g89
g70
NtRp1787
(dp1788
g73
(dp1789
g100
g101
ssg82
g1778
sg75
(lp1790
S':'
asbag68
(g89
g70
NtRp1791
(dp1792
g73
(dp1793
sg82
g1778
sg75
(lp1794
g68
(g69
g70
NtRp1795
(dp1796
g73
(dp1797
g81
I5
ssg82
g1791
sg75
(lp1798
g68
(g77
g70
NtRp1799
(dp1800
g73
(dp1801
g81
I4
ssg82
Nsg75
(lp1802
g68
(g84
g70
NtRp1803
(dp1804
g73
(dp1805
sg82
g1799
sg75
(lp1806
g68
(g89
g70
NtRp1807
(dp1808
g73
(dp1809
g93
g94
ssg82
g1803
sg75
(lp1810
g684
asbag68
(g89
g70
NtRp1811
(dp1812
g73
(dp1813
g100
g101
ssg82
g1803
sg75
(lp1814
S':'
asbag68
(g89
g70
NtRp1815
(dp1816
g73
(dp1817
sg82
g1803
sg75
(lp1818
g68
(g69
g70
NtRp1819
(dp1820
g73
(dp1821
g81
I4
ssg82
g1815
sg75
(lp1822
S"set(['/home/anil/Downloads/web2py/applications/DEV_bootstrap_ch/', '/home/anil/Downloads/web2py/applications/admin/'])"
p1823
asbasbasbag68
(g84
g70
NtRp1824
(dp1825
g73
(dp1826
sg82
g1799
sg75
(lp1827
g68
(g89
g70
NtRp1828
(dp1829
g73
(dp1830
g93
g94
ssg82
g1824
sg75
(lp1831
g706
asbag68
(g89
g70
NtRp1832
(dp1833
g73
(dp1834
g100
g101
ssg82
g1824
sg75
(lp1835
S':'
asbag68
(g89
g70
NtRp1836
(dp1837
g73
(dp1838
sg82
g1824
sg75
(lp1839
g68
(g69
g70
NtRp1840
(dp1841
g73
(dp1842
g81
I4
ssg82
g1836
sg75
(lp1843
g719
asbasbasbag68
(g84
g70
NtRp1844
(dp1845
g73
(dp1846
sg82
g1799
sg75
(lp1847
g68
(g89
g70
NtRp1848
(dp1849
g73
(dp1850
g93
g94
ssg82
g1844
sg75
(lp1851
g728
asbag68
(g89
g70
NtRp1852
(dp1853
g73
(dp1854
g100
g101
ssg82
g1844
sg75
(lp1855
S':'
asbag68
(g89
g70
NtRp1856
(dp1857
g73
(dp1858
sg82
g1844
sg75
(lp1859
g68
(g69
g70
NtRp1860
(dp1861
g73
(dp1862
g81
I4
ssg82
g1856
sg75
(lp1863
g68
(g77
g70
NtRp1864
(dp1865
g73
(dp1866
g81
I3
ssg82
Nsg75
(lp1867
sbasbasbasbag68
(g84
g70
NtRp1868
(dp1869
g73
(dp1870
sg82
g1799
sg75
(lp1871
g68
(g89
g70
NtRp1872
(dp1873
g73
(dp1874
g93
g94
ssg82
g1868
sg75
(lp1875
g753
asbag68
(g89
g70
NtRp1876
(dp1877
g73
(dp1878
g100
g101
ssg82
g1868
sg75
(lp1879
S':'
asbag68
(g89
g70
NtRp1880
(dp1881
g73
(dp1882
sg82
g1868
sg75
(lp1883
g68
(g69
g70
NtRp1884
(dp1885
g73
(dp1886
g81
I4
ssg82
g1880
sg75
(lp1887
S"<Values at 0x8c650cc: {'verbose': False, 'ip': '127.0.0.1', 'with_scheduler': False, 'ips': [], 'shutdown_timeout': 5, 'taskbar': False, 'port': 8000, 'maxthreads': None, 'softcron': False, 'server_name': 'anil-Inspiron-1525', 'bpython': False, 'nogui': False, 'pid_filename': 'httpserver.pid', 'extcron': False, 'runcron': False, 'run_system_tests': False, 'test': None, 'folder': '/home/anil/Downloads/web2py', 'config': '', 'import_models': False, 'winservice': '', 'shell': None, 'run': '', 'log_filename': 'httpserver.log', 'debuglevel': 30, 'args': [''], 'socket_timeout': 5, 'ssl_ca_certificate': None, 'scheduler': None, 'profiler_filename': None, 'ssl_private_key': '', 'scheduler_groups': None, 'password': '123', 'request_queue_size': 5, 'ssl_certificate': '', 'cronjob': False, 'numthreads': None, 'quiet': False, 'interfaces': None, 'minthreads': None, 'timeout': 10, 'plain': False, 'nobanner': False}>"
p1888
asbasbasbag68
(g84
g70
NtRp1889
(dp1890
g73
(dp1891
sg82
g1799
sg75
(lp1892
g68
(g89
g70
NtRp1893
(dp1894
g73
(dp1895
g93
g94
ssg82
g1889
sg75
(lp1896
g775
asbag68
(g89
g70
NtRp1897
(dp1898
g73
(dp1899
g100
g101
ssg82
g1889
sg75
(lp1900
S':'
asbag68
(g89
g70
NtRp1901
(dp1902
g73
(dp1903
sg82
g1889
sg75
(lp1904
g68
(g69
g70
NtRp1905
(dp1906
g73
(dp1907
g81
I4
ssg82
g1901
sg75
(lp1908
S'set([])'
p1909
asbasbasbag68
(g84
g70
NtRp1910
(dp1911
g73
(dp1912
sg82
g1799
sg75
(lp1913
g68
(g89
g70
NtRp1914
(dp1915
g73
(dp1916
g93
g94
ssg82
g1910
sg75
(lp1917
g797
asbag68
(g89
g70
NtRp1918
(dp1919
g73
(dp1920
g100
g101
ssg82
g1910
sg75
(lp1921
S':'
asbag68
(g89
g70
NtRp1922
(dp1923
g73
(dp1924
sg82
g1910
sg75
(lp1925
g68
(g69
g70
NtRp1926
(dp1927
g73
(dp1928
g81
I4
ssg82
g1922
sg75
(lp1929
g111
asbasbasbag68
(g84
g70
NtRp1930
(dp1931
g73
(dp1932
sg82
g1799
sg75
(lp1933
g68
(g89
g70
NtRp1934
(dp1935
g73
(dp1936
g93
g94
ssg82
g1930
sg75
(lp1937
g818
asbag68
(g89
g70
NtRp1938
(dp1939
g73
(dp1940
g100
g101
ssg82
g1930
sg75
(lp1941
S':'
asbag68
(g89
g70
NtRp1942
(dp1943
g73
(dp1944
sg82
g1930
sg75
(lp1945
g68
(g69
g70
NtRp1946
(dp1947
g73
(dp1948
g81
I4
ssg82
g1942
sg75
(lp1949
g831
asbasbasbag68
(g84
g70
NtRp1950
(dp1951
g73
(dp1952
sg82
g1799
sg75
(lp1953
g68
(g89
g70
NtRp1954
(dp1955
g73
(dp1956
g93
g94
ssg82
g1950
sg75
(lp1957
g1016
asbag68
(g89
g70
NtRp1958
(dp1959
g73
(dp1960
g100
g101
ssg82
g1950
sg75
(lp1961
S':'
asbag68
(g89
g70
NtRp1962
(dp1963
g73
(dp1964
sg82
g1950
sg75
(lp1965
g68
(g69
g70
NtRp1966
(dp1967
g73
(dp1968
g81
I4
ssg82
g1962
sg75
(lp1969
g111
asbasbasbag68
(g84
g70
NtRp1970
(dp1971
g73
(dp1972
sg82
g1799
sg75
(lp1973
g68
(g89
g70
NtRp1974
(dp1975
g73
(dp1976
g93
g94
ssg82
g1970
sg75
(lp1977
g1037
asbag68
(g89
g70
NtRp1978
(dp1979
g73
(dp1980
g100
g101
ssg82
g1970
sg75
(lp1981
S':'
asbag68
(g89
g70
NtRp1982
(dp1983
g73
(dp1984
sg82
g1970
sg75
(lp1985
g68
(g69
g70
NtRp1986
(dp1987
g73
(dp1988
g81
I4
ssg82
g1982
sg75
(lp1989
g111
asbasbasbag68
(g84
g70
NtRp1990
(dp1991
g73
(dp1992
sg82
g1799
sg75
(lp1993
g68
(g89
g70
NtRp1994
(dp1995
g73
(dp1996
g93
g94
ssg82
g1990
sg75
(lp1997
g1058
asbag68
(g89
g70
NtRp1998
(dp1999
g73
(dp2000
g100
g101
ssg82
g1990
sg75
(lp2001
S':'
asbag68
(g89
g70
NtRp2002
(dp2003
g73
(dp2004
sg82
g1990
sg75
(lp2005
g68
(g69
g70
NtRp2006
(dp2007
g73
(dp2008
g81
I4
ssg82
g2002
sg75
(lp2009
g68
(g77
g70
NtRp2010
(dp2011
g73
(dp2012
g81
I3
ssg82
Nsg75
(lp2013
g68
(g84
g70
NtRp2014
(dp2015
g73
(dp2016
sg82
g2010
sg75
(lp2017
g68
(g89
g70
NtRp2018
(dp2019
g73
(dp2020
sg82
g2014
sg75
(lp2021
g68
(g69
g70
NtRp2022
(dp2023
g73
(dp2024
g81
I3
ssg82
g2018
sg75
(lp2025
g1087
asbasbasbag68
(g84
g70
NtRp2026
(dp2027
g73
(dp2028
sg82
g2010
sg75
(lp2029
g68
(g89
g70
NtRp2030
(dp2031
g73
(dp2032
sg82
g2026
sg75
(lp2033
g68
(g69
g70
NtRp2034
(dp2035
g73
(dp2036
g81
I3
ssg82
g2030
sg75
(lp2037
g1100
asbasbasbag68
(g84
g70
NtRp2038
(dp2039
g73
(dp2040
sg82
g2010
sg75
(lp2041
g68
(g89
g70
NtRp2042
(dp2043
g73
(dp2044
sg82
g2038
sg75
(lp2045
g68
(g69
g70
NtRp2046
(dp2047
g73
(dp2048
g81
I3
ssg82
g2042
sg75
(lp2049
g1113
asbasbasbag68
(g84
g70
NtRp2050
(dp2051
g73
(dp2052
sg82
g2010
sg75
(lp2053
g68
(g89
g70
NtRp2054
(dp2055
g73
(dp2056
sg82
g2050
sg75
(lp2057
g68
(g69
g70
NtRp2058
(dp2059
g73
(dp2060
g81
I3
ssg82
g2054
sg75
(lp2061
g1126
asbasbasbag68
(g84
g70
NtRp2062
(dp2063
g73
(dp2064
sg82
g2010
sg75
(lp2065
g68
(g89
g70
NtRp2066
(dp2067
g73
(dp2068
sg82
g2062
sg75
(lp2069
g68
(g69
g70
NtRp2070
(dp2071
g73
(dp2072
g81
I3
ssg82
g2066
sg75
(lp2073
g1139
asbasbasbasbasbasbasbag68
(g84
g70
NtRp2074
(dp2075
g73
(dp2076
sg82
g1799
sg75
(lp2077
g68
(g89
g70
NtRp2078
(dp2079
g73
(dp2080
g93
g94
ssg82
g2074
sg75
(lp2081
g1407
asbag68
(g89
g70
NtRp2082
(dp2083
g73
(dp2084
g100
g101
ssg82
g2074
sg75
(lp2085
S':'
asbag68
(g89
g70
NtRp2086
(dp2087
g73
(dp2088
sg82
g2074
sg75
(lp2089
g68
(g69
g70
NtRp2090
(dp2091
g73
(dp2092
g81
I4
ssg82
g2086
sg75
(lp2093
g68
(g77
g70
NtRp2094
(dp2095
g73
(dp2096
g81
I3
ssg82
Nsg75
(lp2097
g68
(g84
g70
NtRp2098
(dp2099
g73
(dp2100
sg82
g2094
sg75
(lp2101
g68
(g89
g70
NtRp2102
(dp2103
g73
(dp2104
sg82
g2098
sg75
(lp2105
g68
(g69
g70
NtRp2106
(dp2107
g73
(dp2108
g81
I3
ssg82
g2102
sg75
(lp2109
S'2'
asbasbasbag68
(g84
g70
NtRp2110
(dp2111
g73
(dp2112
sg82
g2094
sg75
(lp2113
g68
(g89
g70
NtRp2114
(dp2115
g73
(dp2116
sg82
g2110
sg75
(lp2117
g68
(g69
g70
NtRp2118
(dp2119
g73
(dp2120
g81
I3
ssg82
g2114
sg75
(lp2121
S'3'
asbasbasbag68
(g84
g70
NtRp2122
(dp2123
g73
(dp2124
sg82
g2094
sg75
(lp2125
g68
(g89
g70
NtRp2126
(dp2127
g73
(dp2128
sg82
g2122
sg75
(lp2129
g68
(g69
g70
NtRp2130
(dp2131
g73
(dp2132
g81
I3
ssg82
g2126
sg75
(lp2133
S'2'
asbasbasbag68
(g84
g70
NtRp2134
(dp2135
g73
(dp2136
sg82
g2094
sg75
(lp2137
g68
(g89
g70
NtRp2138
(dp2139
g73
(dp2140
sg82
g2134
sg75
(lp2141
g68
(g69
g70
NtRp2142
(dp2143
g73
(dp2144
g81
I3
ssg82
g2138
sg75
(lp2145
S'datetime.datetime(2012, 12, 17, 15, 3, 30)'
p2146
asbasbasbag68
(g84
g70
NtRp2147
(dp2148
g73
(dp2149
sg82
g2094
sg75
(lp2150
g68
(g89
g70
NtRp2151
(dp2152
g73
(dp2153
sg82
g2147
sg75
(lp2154
g68
(g69
g70
NtRp2155
(dp2156
g73
(dp2157
g81
I3
ssg82
g2151
sg75
(lp2158
g1485
asbasbasbasbasbasbasbasbasbasbasbag68
(g84
g70
NtRp2159
(dp2160
g73
(dp2161
sg82
g78
sg75
(lp2162
g68
(g89
g70
NtRp2163
(dp2164
g73
(dp2165
g93
g94
ssg82
g2159
sg75
(lp2166
S'is_https'
p2167
asbag68
(g89
g70
NtRp2168
(dp2169
g73
(dp2170
g100
g101
ssg82
g2159
sg75
(lp2171
S':'
asbag68
(g89
g70
NtRp2172
(dp2173
g73
(dp2174
sg82
g2159
sg75
(lp2175
g68
(g69
g70
NtRp2176
(dp2177
g73
(dp2178
g81
I5
ssg82
g2172
sg75
(lp2179
g111
asbasbasbag68
(g84
g70
NtRp2180
(dp2181
g73
(dp2182
sg82
g78
sg75
(lp2183
g68
(g89
g70
NtRp2184
(dp2185
g73
(dp2186
g93
g94
ssg82
g2180
sg75
(lp2187
S'is_local'
p2188
asbag68
(g89
g70
NtRp2189
(dp2190
g73
(dp2191
g100
g101
ssg82
g2180
sg75
(lp2192
S':'
asbag68
(g89
g70
NtRp2193
(dp2194
g73
(dp2195
sg82
g2180
sg75
(lp2196
g68
(g69
g70
NtRp2197
(dp2198
g73
(dp2199
g81
I5
ssg82
g2193
sg75
(lp2200
g1594
asbasbasbag68
(g84
g70
NtRp2201
(dp2202
g73
(dp2203
sg82
g78
sg75
(lp2204
g68
(g89
g70
NtRp2205
(dp2206
g73
(dp2207
g93
g94
ssg82
g2201
sg75
(lp2208
S'is_restful'
p2209
asbag68
(g89
g70
NtRp2210
(dp2211
g73
(dp2212
g100
g101
ssg82
g2201
sg75
(lp2213
S':'
asbag68
(g89
g70
NtRp2214
(dp2215
g73
(dp2216
sg82
g2201
sg75
(lp2217
g68
(g69
g70
NtRp2218
(dp2219
g73
(dp2220
g81
I5
ssg82
g2214
sg75
(lp2221
g111
asbasbasbag68
(g84
g70
NtRp2222
(dp2223
g73
(dp2224
sg82
g78
sg75
(lp2225
g68
(g89
g70
NtRp2226
(dp2227
g73
(dp2228
g93
g94
ssg82
g2222
sg75
(lp2229
S'now'
p2230
asbag68
(g89
g70
NtRp2231
(dp2232
g73
(dp2233
g100
g101
ssg82
g2222
sg75
(lp2234
S':'
asbag68
(g89
g70
NtRp2235
(dp2236
g73
(dp2237
sg82
g2222
sg75
(lp2238
g68
(g69
g70
NtRp2239
(dp2240
g73
(dp2241
g81
I5
ssg82
g2235
sg75
(lp2242
S'datetime.datetime(2013, 3, 9, 11, 42, 38, 300824)'
p2243
asbasbasbag68
(g84
g70
NtRp2244
(dp2245
g73
(dp2246
sg82
g78
sg75
(lp2247
g68
(g89
g70
NtRp2248
(dp2249
g73
(dp2250
g93
g94
ssg82
g2244
sg75
(lp2251
S'post_vars'
p2252
asbag68
(g89
g70
NtRp2253
(dp2254
g73
(dp2255
g100
g101
ssg82
g2244
sg75
(lp2256
S':'
asbag68
(g89
g70
NtRp2257
(dp2258
g73
(dp2259
sg82
g2244
sg75
(lp2260
g68
(g69
g70
NtRp2261
(dp2262
g73
(dp2263
g81
I5
ssg82
g2257
sg75
(lp2264
g68
(g77
g70
NtRp2265
(dp2266
g73
(dp2267
g81
I4
ssg82
Nsg75
(lp2268
sbasbasbasbag68
(g84
g70
NtRp2269
(dp2270
g73
(dp2271
sg82
g78
sg75
(lp2272
g68
(g89
g70
NtRp2273
(dp2274
g73
(dp2275
g93
g94
ssg82
g2269
sg75
(lp2276
S'raw_args'
p2277
asbag68
(g89
g70
NtRp2278
(dp2279
g73
(dp2280
g100
g101
ssg82
g2269
sg75
(lp2281
S':'
asbag68
(g89
g70
NtRp2282
(dp2283
g73
(dp2284
sg82
g2269
sg75
(lp2285
g68
(g69
g70
NtRp2286
(dp2287
g73
(dp2288
g81
I5
ssg82
g2282
sg75
(lp2289
S''
asbasbasbag68
(g84
g70
NtRp2290
(dp2291
g73
(dp2292
sg82
g78
sg75
(lp2293
g68
(g89
g70
NtRp2294
(dp2295
g73
(dp2296
g93
g94
ssg82
g2290
sg75
(lp2297
S'raw_extension'
p2298
asbag68
(g89
g70
NtRp2299
(dp2300
g73
(dp2301
g100
g101
ssg82
g2290
sg75
(lp2302
S':'
asbag68
(g89
g70
NtRp2303
(dp2304
g73
(dp2305
sg82
g2290
sg75
(lp2306
g68
(g69
g70
NtRp2307
(dp2308
g73
(dp2309
g81
I5
ssg82
g2303
sg75
(lp2310
S'None'
p2311
asbasbasbag68
(g84
g70
NtRp2312
(dp2313
g73
(dp2314
sg82
g78
sg75
(lp2315
g68
(g89
g70
NtRp2316
(dp2317
g73
(dp2318
g93
g94
ssg82
g2312
sg75
(lp2319
S'url'
p2320
asbag68
(g89
g70
NtRp2321
(dp2322
g73
(dp2323
g100
g101
ssg82
g2312
sg75
(lp2324
S':'
asbag68
(g89
g70
NtRp2325
(dp2326
g73
(dp2327
sg82
g2312
sg75
(lp2328
g68
(g69
g70
NtRp2329
(dp2330
g73
(dp2331
g81
I5
ssg82
g2325
sg75
(lp2332
g1161
asbasbasbag68
(g84
g70
NtRp2333
(dp2334
g73
(dp2335
sg82
g78
sg75
(lp2336
g68
(g89
g70
NtRp2337
(dp2338
g73
(dp2339
g93
g94
ssg82
g2333
sg75
(lp2340
S'utcnow'
p2341
asbag68
(g89
g70
NtRp2342
(dp2343
g73
(dp2344
g100
g101
ssg82
g2333
sg75
(lp2345
S':'
asbag68
(g89
g70
NtRp2346
(dp2347
g73
(dp2348
sg82
g2333
sg75
(lp2349
g68
(g69
g70
NtRp2350
(dp2351
g73
(dp2352
g81
I5
ssg82
g2346
sg75
(lp2353
S'datetime.datetime(2013, 3, 9, 6, 12, 38, 300879)'
p2354
asbasbasbag68
(g84
g70
NtRp2355
(dp2356
g73
(dp2357
sg82
g78
sg75
(lp2358
g68
(g89
g70
NtRp2359
(dp2360
g73
(dp2361
g93
g94
ssg82
g2355
sg75
(lp2362
S'uuid'
p2363
asbag68
(g89
g70
NtRp2364
(dp2365
g73
(dp2366
g100
g101
ssg82
g2355
sg75
(lp2367
S':'
asbag68
(g89
g70
NtRp2368
(dp2369
g73
(dp2370
sg82
g2355
sg75
(lp2371
g68
(g69
g70
NtRp2372
(dp2373
g73
(dp2374
g81
I5
ssg82
g2368
sg75
(lp2375
S'DEV_bootstrap_ch/127.0.0.1.2013-03-09.11-42-38.8538f4e1-3816-4638-9167-540e217a718d'
p2376
asbasbasbag68
(g84
g70
NtRp2377
(dp2378
g73
(dp2379
sg82
g78
sg75
(lp2380
g68
(g89
g70
NtRp2381
(dp2382
g73
(dp2383
g93
g94
ssg82
g2377
sg75
(lp2384
S'vars'
p2385
asbag68
(g89
g70
NtRp2386
(dp2387
g73
(dp2388
g100
g101
ssg82
g2377
sg75
(lp2389
S':'
asbag68
(g89
g70
NtRp2390
(dp2391
g73
(dp2392
sg82
g2377
sg75
(lp2393
g68
(g69
g70
NtRp2394
(dp2395
g73
(dp2396
g81
I5
ssg82
g2390
sg75
(lp2397
g68
(g77
g70
NtRp2398
(dp2399
g73
(dp2400
g81
I4
ssg82
Nsg75
(lp2401
sbasbasbasbag68
(g84
g70
NtRp2402
(dp2403
g73
(dp2404
sg82
g78
sg75
(lp2405
g68
(g89
g70
NtRp2406
(dp2407
g73
(dp2408
g93
g94
ssg82
g2402
sg75
(lp2409
S'wsgi'
p2410
asbag68
(g89
g70
NtRp2411
(dp2412
g73
(dp2413
g100
g101
ssg82
g2402
sg75
(lp2414
S':'
asbag68
(g89
g70
NtRp2415
(dp2416
g73
(dp2417
sg82
g2402
sg75
(lp2418
g68
(g69
g70
NtRp2419
(dp2420
g73
(dp2421
g81
I5
ssg82
g2415
sg75
(lp2422
g68
(g77
g70
NtRp2423
(dp2424
g73
(dp2425
g81
I4
ssg82
Nsg75
(lp2426
g68
(g84
g70
NtRp2427
(dp2428
g73
(dp2429
sg82
g2423
sg75
(lp2430
g68
(g89
g70
NtRp2431
(dp2432
g73
(dp2433
g93
g94
ssg82
g2427
sg75
(lp2434
S'environ'
p2435
asbag68
(g89
g70
NtRp2436
(dp2437
g73
(dp2438
g100
g101
ssg82
g2427
sg75
(lp2439
S':'
asbag68
(g89
g70
NtRp2440
(dp2441
g73
(dp2442
sg82
g2427
sg75
(lp2443
g68
(g69
g70
NtRp2444
(dp2445
g73
(dp2446
g81
I4
ssg82
g2440
sg75
(lp2447
g68
(g77
g70
NtRp2448
(dp2449
g73
(dp2450
g81
I3
ssg82
Nsg75
(lp2451
g68
(g84
g70
NtRp2452
(dp2453
g73
(dp2454
sg82
g2448
sg75
(lp2455
g68
(g89
g70
NtRp2456
(dp2457
g73
(dp2458
g93
g94
ssg82
g2452
sg75
(lp2459
S'HTTP_ACCEPT'
p2460
asbag68
(g89
g70
NtRp2461
(dp2462
g73
(dp2463
g100
g101
ssg82
g2452
sg75
(lp2464
S':'
asbag68
(g89
g70
NtRp2465
(dp2466
g73
(dp2467
sg82
g2452
sg75
(lp2468
g68
(g69
g70
NtRp2469
(dp2470
g73
(dp2471
g81
I3
ssg82
g2465
sg75
(lp2472
g853
asbasbasbag68
(g84
g70
NtRp2473
(dp2474
g73
(dp2475
sg82
g2448
sg75
(lp2476
g68
(g89
g70
NtRp2477
(dp2478
g73
(dp2479
g93
g94
ssg82
g2473
sg75
(lp2480
S'HTTP_ACCEPT_CHARSET'
p2481
asbag68
(g89
g70
NtRp2482
(dp2483
g73
(dp2484
g100
g101
ssg82
g2473
sg75
(lp2485
S':'
asbag68
(g89
g70
NtRp2486
(dp2487
g73
(dp2488
sg82
g2473
sg75
(lp2489
g68
(g69
g70
NtRp2490
(dp2491
g73
(dp2492
g81
I3
ssg82
g2486
sg75
(lp2493
g875
asbasbasbag68
(g84
g70
NtRp2494
(dp2495
g73
(dp2496
sg82
g2448
sg75
(lp2497
g68
(g89
g70
NtRp2498
(dp2499
g73
(dp2500
g93
g94
ssg82
g2494
sg75
(lp2501
S'HTTP_ACCEPT_ENCODING'
p2502
asbag68
(g89
g70
NtRp2503
(dp2504
g73
(dp2505
g100
g101
ssg82
g2494
sg75
(lp2506
S':'
asbag68
(g89
g70
NtRp2507
(dp2508
g73
(dp2509
sg82
g2494
sg75
(lp2510
g68
(g69
g70
NtRp2511
(dp2512
g73
(dp2513
g81
I3
ssg82
g2507
sg75
(lp2514
g897
asbasbasbag68
(g84
g70
NtRp2515
(dp2516
g73
(dp2517
sg82
g2448
sg75
(lp2518
g68
(g89
g70
NtRp2519
(dp2520
g73
(dp2521
g93
g94
ssg82
g2515
sg75
(lp2522
S'HTTP_ACCEPT_LANGUAGE'
p2523
asbag68
(g89
g70
NtRp2524
(dp2525
g73
(dp2526
g100
g101
ssg82
g2515
sg75
(lp2527
S':'
asbag68
(g89
g70
NtRp2528
(dp2529
g73
(dp2530
sg82
g2515
sg75
(lp2531
g68
(g69
g70
NtRp2532
(dp2533
g73
(dp2534
g81
I3
ssg82
g2528
sg75
(lp2535
g919
asbasbasbag68
(g84
g70
NtRp2536
(dp2537
g73
(dp2538
sg82
g2448
sg75
(lp2539
g68
(g89
g70
NtRp2540
(dp2541
g73
(dp2542
g93
g94
ssg82
g2536
sg75
(lp2543
S'HTTP_CONNECTION'
p2544
asbag68
(g89
g70
NtRp2545
(dp2546
g73
(dp2547
g100
g101
ssg82
g2536
sg75
(lp2548
S':'
asbag68
(g89
g70
NtRp2549
(dp2550
g73
(dp2551
sg82
g2536
sg75
(lp2552
g68
(g69
g70
NtRp2553
(dp2554
g73
(dp2555
g81
I3
ssg82
g2549
sg75
(lp2556
g941
asbasbasbag68
(g84
g70
NtRp2557
(dp2558
g73
(dp2559
sg82
g2448
sg75
(lp2560
g68
(g89
g70
NtRp2561
(dp2562
g73
(dp2563
g93
g94
ssg82
g2557
sg75
(lp2564
S'HTTP_COOKIE'
p2565
asbag68
(g89
g70
NtRp2566
(dp2567
g73
(dp2568
g100
g101
ssg82
g2557
sg75
(lp2569
S':'
asbag68
(g89
g70
NtRp2570
(dp2571
g73
(dp2572
sg82
g2557
sg75
(lp2573
g68
(g69
g70
NtRp2574
(dp2575
g73
(dp2576
g81
I3
ssg82
g2570
sg75
(lp2577
g963
asbasbasbag68
(g84
g70
NtRp2578
(dp2579
g73
(dp2580
sg82
g2448
sg75
(lp2581
g68
(g89
g70
NtRp2582
(dp2583
g73
(dp2584
g93
g94
ssg82
g2578
sg75
(lp2585
S'HTTP_HOST'
p2586
asbag68
(g89
g70
NtRp2587
(dp2588
g73
(dp2589
g100
g101
ssg82
g2578
sg75
(lp2590
S':'
asbag68
(g89
g70
NtRp2591
(dp2592
g73
(dp2593
sg82
g2578
sg75
(lp2594
g68
(g69
g70
NtRp2595
(dp2596
g73
(dp2597
g81
I3
ssg82
g2591
sg75
(lp2598
g985
asbasbasbag68
(g84
g70
NtRp2599
(dp2600
g73
(dp2601
sg82
g2448
sg75
(lp2602
g68
(g89
g70
NtRp2603
(dp2604
g73
(dp2605
g93
g94
ssg82
g2599
sg75
(lp2606
S'HTTP_USER_AGENT'
p2607
asbag68
(g89
g70
NtRp2608
(dp2609
g73
(dp2610
g100
g101
ssg82
g2599
sg75
(lp2611
S':'
asbag68
(g89
g70
NtRp2612
(dp2613
g73
(dp2614
sg82
g2599
sg75
(lp2615
g68
(g69
g70
NtRp2616
(dp2617
g73
(dp2618
g81
I3
ssg82
g2612
sg75
(lp2619
g1007
asbasbasbag68
(g84
g70
NtRp2620
(dp2621
g73
(dp2622
sg82
g2448
sg75
(lp2623
g68
(g89
g70
NtRp2624
(dp2625
g73
(dp2626
g93
g94
ssg82
g2620
sg75
(lp2627
S'PATH_INFO'
p2628
asbag68
(g89
g70
NtRp2629
(dp2630
g73
(dp2631
g100
g101
ssg82
g2620
sg75
(lp2632
S':'
asbag68
(g89
g70
NtRp2633
(dp2634
g73
(dp2635
sg82
g2620
sg75
(lp2636
g68
(g69
g70
NtRp2637
(dp2638
g73
(dp2639
g81
I3
ssg82
g2633
sg75
(lp2640
g1161
asbasbasbag68
(g84
g70
NtRp2641
(dp2642
g73
(dp2643
sg82
g2448
sg75
(lp2644
g68
(g89
g70
NtRp2645
(dp2646
g73
(dp2647
g93
g94
ssg82
g2641
sg75
(lp2648
S'QUERY_STRING'
p2649
asbag68
(g89
g70
NtRp2650
(dp2651
g73
(dp2652
g100
g101
ssg82
g2641
sg75
(lp2653
S':'
asbag68
(g89
g70
NtRp2654
(dp2655
g73
(dp2656
sg82
g2641
sg75
(lp2657
g68
(g69
g70
NtRp2658
(dp2659
g73
(dp2660
g81
I3
ssg82
g2654
sg75
(lp2661
S''
asbasbasbag68
(g84
g70
NtRp2662
(dp2663
g73
(dp2664
sg82
g2448
sg75
(lp2665
g68
(g89
g70
NtRp2666
(dp2667
g73
(dp2668
g93
g94
ssg82
g2662
sg75
(lp2669
S'REMOTE_ADDR'
p2670
asbag68
(g89
g70
NtRp2671
(dp2672
g73
(dp2673
g100
g101
ssg82
g2662
sg75
(lp2674
S':'
asbag68
(g89
g70
NtRp2675
(dp2676
g73
(dp2677
sg82
g2662
sg75
(lp2678
g68
(g69
g70
NtRp2679
(dp2680
g73
(dp2681
g81
I3
ssg82
g2675
sg75
(lp2682
g223
asbasbasbag68
(g84
g70
NtRp2683
(dp2684
g73
(dp2685
sg82
g2448
sg75
(lp2686
g68
(g89
g70
NtRp2687
(dp2688
g73
(dp2689
g93
g94
ssg82
g2683
sg75
(lp2690
S'REMOTE_PORT'
p2691
asbag68
(g89
g70
NtRp2692
(dp2693
g73
(dp2694
g100
g101
ssg82
g2683
sg75
(lp2695
S':'
asbag68
(g89
g70
NtRp2696
(dp2697
g73
(dp2698
sg82
g2683
sg75
(lp2699
g68
(g69
g70
NtRp2700
(dp2701
g73
(dp2702
g81
I3
ssg82
g2696
sg75
(lp2703
g1225
asbasbasbag68
(g84
g70
NtRp2704
(dp2705
g73
(dp2706
sg82
g2448
sg75
(lp2707
g68
(g89
g70
NtRp2708
(dp2709
g73
(dp2710
g93
g94
ssg82
g2704
sg75
(lp2711
S'REQUEST_METHOD'
p2712
asbag68
(g89
g70
NtRp2713
(dp2714
g73
(dp2715
g100
g101
ssg82
g2704
sg75
(lp2716
S':'
asbag68
(g89
g70
NtRp2717
(dp2718
g73
(dp2719
sg82
g2704
sg75
(lp2720
g68
(g69
g70
NtRp2721
(dp2722
g73
(dp2723
g81
I3
ssg82
g2717
sg75
(lp2724
g1247
asbasbasbag68
(g84
g70
NtRp2725
(dp2726
g73
(dp2727
sg82
g2448
sg75
(lp2728
g68
(g89
g70
NtRp2729
(dp2730
g73
(dp2731
g93
g94
ssg82
g2725
sg75
(lp2732
S'REQUEST_URI'
p2733
asbag68
(g89
g70
NtRp2734
(dp2735
g73
(dp2736
g100
g101
ssg82
g2725
sg75
(lp2737
S':'
asbag68
(g89
g70
NtRp2738
(dp2739
g73
(dp2740
sg82
g2725
sg75
(lp2741
g68
(g69
g70
NtRp2742
(dp2743
g73
(dp2744
g81
I3
ssg82
g2738
sg75
(lp2745
g1161
asbasbasbag68
(g84
g70
NtRp2746
(dp2747
g73
(dp2748
sg82
g2448
sg75
(lp2749
g68
(g89
g70
NtRp2750
(dp2751
g73
(dp2752
g93
g94
ssg82
g2746
sg75
(lp2753
S'SCRIPT_NAME'
p2754
asbag68
(g89
g70
NtRp2755
(dp2756
g73
(dp2757
g100
g101
ssg82
g2746
sg75
(lp2758
S':'
asbag68
(g89
g70
NtRp2759
(dp2760
g73
(dp2761
sg82
g2746
sg75
(lp2762
g68
(g69
g70
NtRp2763
(dp2764
g73
(dp2765
g81
I3
ssg82
g2759
sg75
(lp2766
S''
asbasbasbag68
(g84
g70
NtRp2767
(dp2768
g73
(dp2769
sg82
g2448
sg75
(lp2770
g68
(g89
g70
NtRp2771
(dp2772
g73
(dp2773
g93
g94
ssg82
g2767
sg75
(lp2774
S'SERVER_NAME'
p2775
asbag68
(g89
g70
NtRp2776
(dp2777
g73
(dp2778
g100
g101
ssg82
g2767
sg75
(lp2779
S':'
asbag68
(g89
g70
NtRp2780
(dp2781
g73
(dp2782
sg82
g2767
sg75
(lp2783
g68
(g69
g70
NtRp2784
(dp2785
g73
(dp2786
g81
I3
ssg82
g2780
sg75
(lp2787
g1311
asbasbasbag68
(g84
g70
NtRp2788
(dp2789
g73
(dp2790
sg82
g2448
sg75
(lp2791
g68
(g89
g70
NtRp2792
(dp2793
g73
(dp2794
g93
g94
ssg82
g2788
sg75
(lp2795
S'SERVER_PORT'
p2796
asbag68
(g89
g70
NtRp2797
(dp2798
g73
(dp2799
g100
g101
ssg82
g2788
sg75
(lp2800
S':'
asbag68
(g89
g70
NtRp2801
(dp2802
g73
(dp2803
sg82
g2788
sg75
(lp2804
g68
(g69
g70
NtRp2805
(dp2806
g73
(dp2807
g81
I3
ssg82
g2801
sg75
(lp2808
g1333
asbasbasbag68
(g84
g70
NtRp2809
(dp2810
g73
(dp2811
sg82
g2448
sg75
(lp2812
g68
(g89
g70
NtRp2813
(dp2814
g73
(dp2815
g93
g94
ssg82
g2809
sg75
(lp2816
S'SERVER_PROTOCOL'
p2817
asbag68
(g89
g70
NtRp2818
(dp2819
g73
(dp2820
g100
g101
ssg82
g2809
sg75
(lp2821
S':'
asbag68
(g89
g70
NtRp2822
(dp2823
g73
(dp2824
sg82
g2809
sg75
(lp2825
g68
(g69
g70
NtRp2826
(dp2827
g73
(dp2828
g81
I3
ssg82
g2822
sg75
(lp2829
g1355
asbasbasbag68
(g84
g70
NtRp2830
(dp2831
g73
(dp2832
sg82
g2448
sg75
(lp2833
g68
(g89
g70
NtRp2834
(dp2835
g73
(dp2836
g93
g94
ssg82
g2830
sg75
(lp2837
S'SERVER_SOFTWARE'
p2838
asbag68
(g89
g70
NtRp2839
(dp2840
g73
(dp2841
g100
g101
ssg82
g2830
sg75
(lp2842
S':'
asbag68
(g89
g70
NtRp2843
(dp2844
g73
(dp2845
sg82
g2830
sg75
(lp2846
g68
(g69
g70
NtRp2847
(dp2848
g73
(dp2849
g81
I3
ssg82
g2843
sg75
(lp2850
g1377
asbasbasbag68
(g84
g70
NtRp2851
(dp2852
g73
(dp2853
sg82
g2448
sg75
(lp2854
g68
(g89
g70
NtRp2855
(dp2856
g73
(dp2857
g93
g94
ssg82
g2851
sg75
(lp2858
S'wsgi.errors'
p2859
asbag68
(g89
g70
NtRp2860
(dp2861
g73
(dp2862
g100
g101
ssg82
g2851
sg75
(lp2863
S':'
asbag68
(g89
g70
NtRp2864
(dp2865
g73
(dp2866
sg82
g2851
sg75
(lp2867
g68
(g69
g70
NtRp2868
(dp2869
g73
(dp2870
g81
I3
ssg82
g2864
sg75
(lp2871
S"<open file '<stderr>', mode 'w' at 0xb732a0d0>"
p2872
asbasbasbag68
(g84
g70
NtRp2873
(dp2874
g73
(dp2875
sg82
g2448
sg75
(lp2876
g68
(g89
g70
NtRp2877
(dp2878
g73
(dp2879
g93
g94
ssg82
g2873
sg75
(lp2880
S'wsgi.file_wrapper'
p2881
asbag68
(g89
g70
NtRp2882
(dp2883
g73
(dp2884
g100
g101
ssg82
g2873
sg75
(lp2885
S':'
asbag68
(g89
g70
NtRp2886
(dp2887
g73
(dp2888
sg82
g2873
sg75
(lp2889
g68
(g69
g70
NtRp2890
(dp2891
g73
(dp2892
g81
I3
ssg82
g2886
sg75
(lp2893
S'<class wsgiref.util.FileWrapper at 0x8beeb9c>'
p2894
asbasbasbag68
(g84
g70
NtRp2895
(dp2896
g73
(dp2897
sg82
g2448
sg75
(lp2898
g68
(g89
g70
NtRp2899
(dp2900
g73
(dp2901
g93
g94
ssg82
g2895
sg75
(lp2902
S'wsgi.input'
p2903
asbag68
(g89
g70
NtRp2904
(dp2905
g73
(dp2906
g100
g101
ssg82
g2895
sg75
(lp2907
S':'
asbag68
(g89
g70
NtRp2908
(dp2909
g73
(dp2910
sg82
g2895
sg75
(lp2911
g68
(g69
g70
NtRp2912
(dp2913
g73
(dp2914
g81
I3
ssg82
g2908
sg75
(lp2915
S'<cStringIO.StringO object at 0xaf734b40>'
p2916
asbasbasbag68
(g84
g70
NtRp2917
(dp2918
g73
(dp2919
sg82
g2448
sg75
(lp2920
g68
(g89
g70
NtRp2921
(dp2922
g73
(dp2923
g93
g94
ssg82
g2917
sg75
(lp2924
S'wsgi.multiprocess'
p2925
asbag68
(g89
g70
NtRp2926
(dp2927
g73
(dp2928
g100
g101
ssg82
g2917
sg75
(lp2929
S':'
asbag68
(g89
g70
NtRp2930
(dp2931
g73
(dp2932
sg82
g2917
sg75
(lp2933
g68
(g69
g70
NtRp2934
(dp2935
g73
(dp2936
g81
I3
ssg82
g2930
sg75
(lp2937
g111
asbasbasbag68
(g84
g70
NtRp2938
(dp2939
g73
(dp2940
sg82
g2448
sg75
(lp2941
g68
(g89
g70
NtRp2942
(dp2943
g73
(dp2944
g93
g94
ssg82
g2938
sg75
(lp2945
S'wsgi.multithread'
p2946
asbag68
(g89
g70
NtRp2947
(dp2948
g73
(dp2949
g100
g101
ssg82
g2938
sg75
(lp2950
S':'
asbag68
(g89
g70
NtRp2951
(dp2952
g73
(dp2953
sg82
g2938
sg75
(lp2954
g68
(g69
g70
NtRp2955
(dp2956
g73
(dp2957
g81
I3
ssg82
g2951
sg75
(lp2958
g1594
asbasbasbag68
(g84
g70
NtRp2959
(dp2960
g73
(dp2961
sg82
g2448
sg75
(lp2962
g68
(g89
g70
NtRp2963
(dp2964
g73
(dp2965
g93
g94
ssg82
g2959
sg75
(lp2966
S'wsgi.run_once'
p2967
asbag68
(g89
g70
NtRp2968
(dp2969
g73
(dp2970
g100
g101
ssg82
g2959
sg75
(lp2971
S':'
asbag68
(g89
g70
NtRp2972
(dp2973
g73
(dp2974
sg82
g2959
sg75
(lp2975
g68
(g69
g70
NtRp2976
(dp2977
g73
(dp2978
g81
I3
ssg82
g2972
sg75
(lp2979
g111
asbasbasbag68
(g84
g70
NtRp2980
(dp2981
g73
(dp2982
sg82
g2448
sg75
(lp2983
g68
(g89
g70
NtRp2984
(dp2985
g73
(dp2986
g93
g94
ssg82
g2980
sg75
(lp2987
S'wsgi.url_scheme'
p2988
asbag68
(g89
g70
NtRp2989
(dp2990
g73
(dp2991
g100
g101
ssg82
g2980
sg75
(lp2992
S':'
asbag68
(g89
g70
NtRp2993
(dp2994
g73
(dp2995
sg82
g2980
sg75
(lp2996
g68
(g69
g70
NtRp2997
(dp2998
g73
(dp2999
g81
I3
ssg82
g2993
sg75
(lp3000
g1637
asbasbasbag68
(g84
g70
NtRp3001
(dp3002
g73
(dp3003
sg82
g2448
sg75
(lp3004
g68
(g89
g70
NtRp3005
(dp3006
g73
(dp3007
g93
g94
ssg82
g3001
sg75
(lp3008
S'wsgi.version'
p3009
asbag68
(g89
g70
NtRp3010
(dp3011
g73
(dp3012
g100
g101
ssg82
g3001
sg75
(lp3013
S':'
asbag68
(g89
g70
NtRp3014
(dp3015
g73
(dp3016
sg82
g3001
sg75
(lp3017
g68
(g69
g70
NtRp3018
(dp3019
g73
(dp3020
g81
I3
ssg82
g3014
sg75
(lp3021
S'1'
asbasbasbasbasbasbasbasbasbasbasbasbasbsS'frames'
p3022
(lp3023
(dp3024
S'file'
p3025
S'/home/anil/Downloads/web2py/gluon/restricted.py'
p3026
sS'dump'
p3027
(dp3028
S'code'
p3029
S"'# -*- coding: utf-8 -*-\\n# this file is released ...cals()\\n\\n\\n\\nresponse._vars=response._caller(index)\\n'"
p3030
sS'layer'
p3031
S"'/home/anil/Downloads/web2py/applications/DEV_bootstrap_ch/controllers/default.py'"
p3032
sS'global compile2'
p3033
S'<function compile2>'
p3034
sS'ccode'
p3035
S'undefined'
p3036
ssS'lnum'
p3037
I211
sS'lines'
p3038
(dp3039
I206
S"    environment['__name__'] = '__restricted__'"
p3040
sI207
S'    try:'
p3041
sI208
S'        if isinstance(code, types.CodeType):'
p3042
sI209
S'            ccode = code'
p3043
sI210
S'        else:'
p3044
sI211
S'            ccode = compile2(code, layer)'
p3045
sI212
S'        exec ccode in environment'
p3046
sI213
S'    except HTTP:'
p3047
sI214
S'        raise'
p3048
sI215
S'    except RestrictedError:'
p3049
ssS'call'
p3050
S"(code='# -*- coding: utf-8 -*-\\n# this file is released ...cals()\\n\\n\\n\\nresponse._vars=response._caller(index)\\n', environment={'A': <class 'gluon.html.A'>, 'Auth': <class 'gluon.tools.Auth'>, 'B': <class 'gluon.html.B'>, 'BEAUTIFY': <class 'gluon.html.BEAUTIFY'>, 'BODY': <class 'gluon.html.BODY'>, 'BR': <class 'gluon.html.BR'>, 'BUTTON': <class 'gluon.html.BUTTON'>, 'CAT': <class 'gluon.html.CAT'>, 'CENTER': <class 'gluon.html.CENTER'>, 'CLEANUP': <class 'gluon.validators.CLEANUP'>, ...}, layer='/home/anil/Downloads/web2py/applications/DEV_bootstrap_ch/controllers/default.py')"
p3051
sS'func'
p3052
S'restricted'
p3053
sa(dp3054
g3025
S'/home/anil/Downloads/web2py/gluon/restricted.py'
p3055
sg3027
(dp3056
S'builtincompile'
p3057
S'<built-in function compile>'
p3058
sS'code'
p3059
S"'# -*- coding: utf-8 -*-\\n# this file is released ...cals()\\n\\n\\n\\nresponse._vars=response._caller(index)\\n'"
p3060
sS'code.rstrip'
p3061
S'<built-in method rstrip of str object>'
p3062
sS').replace'
p3063
g3036
sS'layer'
p3064
S"'/home/anil/Downloads/web2py/applications/DEV_bootstrap_ch/controllers/default.py'"
p3065
ssg3037
I194
sg3038
(dp3066
I192
S"    The +'\\n' is necessary else compile fails when code ends in a comment."
p3067
sI193
S'    """'
p3068
sI194
S"    return compile(code.rstrip().replace('\\r\\n', '\\n') + '\\n', layer, 'exec')"
p3069
sI195
S''
sI196
S''
sI197
S"def restricted(code, environment=None, layer='Unknown'):"
p3070
sI198
S'    """'
p3071
sI189
S''
sI190
S'def compile2(code, layer):'
p3072
sI191
S'    """'
p3073
ssg3050
S"(code='# -*- coding: utf-8 -*-\\n# this file is released ...cals()\\n\\n\\n\\nresponse._vars=response._caller(index)\\n', layer='/home/anil/Downloads/web2py/applications/DEV_bootstrap_ch/controllers/default.py')"
p3074
sg3052
S'compile2'
p3075
sasS'pyver'
p3076
S'Python 2.7.3: /usr/bin/python'
p3077
sS'session'
p3078
g68
(g69
g70
NtRp3079
(dp3080
g73
(dp3081
sg75
(lp3082
g68
(g77
g70
NtRp3083
(dp3084
g73
(dp3085
g81
I5
ssg82
Nsg75
(lp3086
g68
(g84
g70
NtRp3087
(dp3088
g73
(dp3089
sg82
g3083
sg75
(lp3090
g68
(g89
g70
NtRp3091
(dp3092
g73
(dp3093
g93
g94
ssg82
g3087
sg75
(lp3094
S'auth'
p3095
asbag68
(g89
g70
NtRp3096
(dp3097
g73
(dp3098
g100
g101
ssg82
g3087
sg75
(lp3099
S':'
asbag68
(g89
g70
NtRp3100
(dp3101
g73
(dp3102
sg82
g3087
sg75
(lp3103
g68
(g69
g70
NtRp3104
(dp3105
g73
(dp3106
g81
I5
ssg82
g3100
sg75
(lp3107
g68
(g77
g70
NtRp3108
(dp3109
g73
(dp3110
g81
I4
ssg82
Nsg75
(lp3111
g68
(g84
g70
NtRp3112
(dp3113
g73
(dp3114
sg82
g3108
sg75
(lp3115
g68
(g89
g70
NtRp3116
(dp3117
g73
(dp3118
g93
g94
ssg82
g3112
sg75
(lp3119
S'expiration'
p3120
asbag68
(g89
g70
NtRp3121
(dp3122
g73
(dp3123
g100
g101
ssg82
g3112
sg75
(lp3124
S':'
asbag68
(g89
g70
NtRp3125
(dp3126
g73
(dp3127
sg82
g3112
sg75
(lp3128
g68
(g69
g70
NtRp3129
(dp3130
g73
(dp3131
g81
I4
ssg82
g3125
sg75
(lp3132
S'3600'
p3133
asbasbasbag68
(g84
g70
NtRp3134
(dp3135
g73
(dp3136
sg82
g3108
sg75
(lp3137
g68
(g89
g70
NtRp3138
(dp3139
g73
(dp3140
g93
g94
ssg82
g3134
sg75
(lp3141
S'hmac_key'
p3142
asbag68
(g89
g70
NtRp3143
(dp3144
g73
(dp3145
g100
g101
ssg82
g3134
sg75
(lp3146
S':'
asbag68
(g89
g70
NtRp3147
(dp3148
g73
(dp3149
sg82
g3134
sg75
(lp3150
g68
(g69
g70
NtRp3151
(dp3152
g73
(dp3153
g81
I4
ssg82
g3147
sg75
(lp3154
S'6c35128a-18fa-4feb-a366-3688728d62e7'
p3155
asbasbasbag68
(g84
g70
NtRp3156
(dp3157
g73
(dp3158
sg82
g3108
sg75
(lp3159
g68
(g89
g70
NtRp3160
(dp3161
g73
(dp3162
g93
g94
ssg82
g3156
sg75
(lp3163
S'last_visit'
p3164
asbag68
(g89
g70
NtRp3165
(dp3166
g73
(dp3167
g100
g101
ssg82
g3156
sg75
(lp3168
S':'
asbag68
(g89
g70
NtRp3169
(dp3170
g73
(dp3171
sg82
g3156
sg75
(lp3172
g68
(g69
g70
NtRp3173
(dp3174
g73
(dp3175
g81
I4
ssg82
g3169
sg75
(lp3176
S'datetime.datetime(2013, 3, 9, 11, 42, 38, 300824)'
p3177
asbasbasbag68
(g84
g70
NtRp3178
(dp3179
g73
(dp3180
sg82
g3108
sg75
(lp3181
g68
(g89
g70
NtRp3182
(dp3183
g73
(dp3184
g93
g94
ssg82
g3178
sg75
(lp3185
S'remember'
p3186
asbag68
(g89
g70
NtRp3187
(dp3188
g73
(dp3189
g100
g101
ssg82
g3178
sg75
(lp3190
S':'
asbag68
(g89
g70
NtRp3191
(dp3192
g73
(dp3193
sg82
g3178
sg75
(lp3194
g68
(g69
g70
NtRp3195
(dp3196
g73
(dp3197
g81
I4
ssg82
g3191
sg75
(lp3198
g111
asbasbasbag68
(g84
g70
NtRp3199
(dp3200
g73
(dp3201
sg82
g3108
sg75
(lp3202
g68
(g89
g70
NtRp3203
(dp3204
g73
(dp3205
g93
g94
ssg82
g3199
sg75
(lp3206
S'user'
p3207
asbag68
(g89
g70
NtRp3208
(dp3209
g73
(dp3210
g100
g101
ssg82
g3199
sg75
(lp3211
S':'
asbag68
(g89
g70
NtRp3212
(dp3213
g73
(dp3214
sg82
g3199
sg75
(lp3215
g68
(g69
g70
NtRp3216
(dp3217
g73
(dp3218
g81
I4
ssg82
g3212
sg75
(lp3219
g68
(g77
g70
NtRp3220
(dp3221
g73
(dp3222
g81
I3
ssg82
Nsg75
(lp3223
g68
(g84
g70
NtRp3224
(dp3225
g73
(dp3226
sg82
g3220
sg75
(lp3227
g68
(g89
g70
NtRp3228
(dp3229
g73
(dp3230
g93
g94
ssg82
g3224
sg75
(lp3231
S'address'
p3232
asbag68
(g89
g70
NtRp3233
(dp3234
g73
(dp3235
g100
g101
ssg82
g3224
sg75
(lp3236
S':'
asbag68
(g89
g70
NtRp3237
(dp3238
g73
(dp3239
sg82
g3224
sg75
(lp3240
g68
(g69
g70
NtRp3241
(dp3242
g73
(dp3243
g81
I3
ssg82
g3237
sg75
(lp3244
S'dsaf'
p3245
asbasbasbag68
(g84
g70
NtRp3246
(dp3247
g73
(dp3248
sg82
g3220
sg75
(lp3249
g68
(g89
g70
NtRp3250
(dp3251
g73
(dp3252
g93
g94
ssg82
g3246
sg75
(lp3253
S'affiliated_to'
p3254
asbag68
(g89
g70
NtRp3255
(dp3256
g73
(dp3257
g100
g101
ssg82
g3246
sg75
(lp3258
S':'
asbag68
(g89
g70
NtRp3259
(dp3260
g73
(dp3261
sg82
g3246
sg75
(lp3262
g68
(g69
g70
NtRp3263
(dp3264
g73
(dp3265
g81
I3
ssg82
g3259
sg75
(lp3266
S'fdsa'
p3267
asbasbasbag68
(g84
g70
NtRp3268
(dp3269
g73
(dp3270
sg82
g3220
sg75
(lp3271
g68
(g89
g70
NtRp3272
(dp3273
g73
(dp3274
g93
g94
ssg82
g3268
sg75
(lp3275
S'city'
p3276
asbag68
(g89
g70
NtRp3277
(dp3278
g73
(dp3279
g100
g101
ssg82
g3268
sg75
(lp3280
S':'
asbag68
(g89
g70
NtRp3281
(dp3282
g73
(dp3283
sg82
g3268
sg75
(lp3284
g68
(g69
g70
NtRp3285
(dp3286
g73
(dp3287
g81
I3
ssg82
g3281
sg75
(lp3288
S'ongole'
p3289
asbasbasbag68
(g84
g70
NtRp3290
(dp3291
g73
(dp3292
sg82
g3220
sg75
(lp3293
g68
(g89
g70
NtRp3294
(dp3295
g73
(dp3296
g93
g94
ssg82
g3290
sg75
(lp3297
S'country'
p3298
asbag68
(g89
g70
NtRp3299
(dp3300
g73
(dp3301
g100
g101
ssg82
g3290
sg75
(lp3302
S':'
asbag68
(g89
g70
NtRp3303
(dp3304
g73
(dp3305
sg82
g3290
sg75
(lp3306
g68
(g69
g70
NtRp3307
(dp3308
g73
(dp3309
g81
I3
ssg82
g3303
sg75
(lp3310
S'India'
p3311
asbasbasbag68
(g84
g70
NtRp3312
(dp3313
g73
(dp3314
sg82
g3220
sg75
(lp3315
g68
(g89
g70
NtRp3316
(dp3317
g73
(dp3318
g93
g94
ssg82
g3312
sg75
(lp3319
S'email'
p3320
asbag68
(g89
g70
NtRp3321
(dp3322
g73
(dp3323
g100
g101
ssg82
g3312
sg75
(lp3324
S':'
asbag68
(g89
g70
NtRp3325
(dp3326
g73
(dp3327
sg82
g3312
sg75
(lp3328
g68
(g69
g70
NtRp3329
(dp3330
g73
(dp3331
g81
I3
ssg82
g3325
sg75
(lp3332
S'anil1in7@gmail.com'
p3333
asbasbasbag68
(g84
g70
NtRp3334
(dp3335
g73
(dp3336
sg82
g3220
sg75
(lp3337
g68
(g89
g70
NtRp3338
(dp3339
g73
(dp3340
g93
g94
ssg82
g3334
sg75
(lp3341
S'first_name'
p3342
asbag68
(g89
g70
NtRp3343
(dp3344
g73
(dp3345
g100
g101
ssg82
g3334
sg75
(lp3346
S':'
asbag68
(g89
g70
NtRp3347
(dp3348
g73
(dp3349
sg82
g3334
sg75
(lp3350
g68
(g69
g70
NtRp3351
(dp3352
g73
(dp3353
g81
I3
ssg82
g3347
sg75
(lp3354
S'Anil Kumar'
p3355
asbasbasbag68
(g84
g70
NtRp3356
(dp3357
g73
(dp3358
sg82
g3220
sg75
(lp3359
g68
(g89
g70
NtRp3360
(dp3361
g73
(dp3362
g93
g94
ssg82
g3356
sg75
(lp3363
S'id'
p3364
asbag68
(g89
g70
NtRp3365
(dp3366
g73
(dp3367
g100
g101
ssg82
g3356
sg75
(lp3368
S':'
asbag68
(g89
g70
NtRp3369
(dp3370
g73
(dp3371
sg82
g3356
sg75
(lp3372
g68
(g69
g70
NtRp3373
(dp3374
g73
(dp3375
g81
I3
ssg82
g3369
sg75
(lp3376
S'1'
asbasbasbag68
(g84
g70
NtRp3377
(dp3378
g73
(dp3379
sg82
g3220
sg75
(lp3380
g68
(g89
g70
NtRp3381
(dp3382
g73
(dp3383
g93
g94
ssg82
g3377
sg75
(lp3384
S'last_name'
p3385
asbag68
(g89
g70
NtRp3386
(dp3387
g73
(dp3388
g100
g101
ssg82
g3377
sg75
(lp3389
S':'
asbag68
(g89
g70
NtRp3390
(dp3391
g73
(dp3392
sg82
g3377
sg75
(lp3393
g68
(g69
g70
NtRp3394
(dp3395
g73
(dp3396
g81
I3
ssg82
g3390
sg75
(lp3397
S'Nalamalapu'
p3398
asbasbasbag68
(g84
g70
NtRp3399
(dp3400
g73
(dp3401
sg82
g3220
sg75
(lp3402
g68
(g89
g70
NtRp3403
(dp3404
g73
(dp3405
g93
g94
ssg82
g3399
sg75
(lp3406
S'mobile'
p3407
asbag68
(g89
g70
NtRp3408
(dp3409
g73
(dp3410
g100
g101
ssg82
g3399
sg75
(lp3411
S':'
asbag68
(g89
g70
NtRp3412
(dp3413
g73
(dp3414
sg82
g3399
sg75
(lp3415
g68
(g69
g70
NtRp3416
(dp3417
g73
(dp3418
g81
I3
ssg82
g3412
sg75
(lp3419
S'918885334113'
p3420
asbasbasbag68
(g84
g70
NtRp3421
(dp3422
g73
(dp3423
sg82
g3220
sg75
(lp3424
g68
(g89
g70
NtRp3425
(dp3426
g73
(dp3427
g93
g94
ssg82
g3421
sg75
(lp3428
S'phone'
p3429
asbag68
(g89
g70
NtRp3430
(dp3431
g73
(dp3432
g100
g101
ssg82
g3421
sg75
(lp3433
S':'
asbag68
(g89
g70
NtRp3434
(dp3435
g73
(dp3436
sg82
g3421
sg75
(lp3437
g68
(g69
g70
NtRp3438
(dp3439
g73
(dp3440
g81
I3
ssg82
g3434
sg75
(lp3441
S'918885334113'
p3442
asbasbasbag68
(g84
g70
NtRp3443
(dp3444
g73
(dp3445
sg82
g3220
sg75
(lp3446
g68
(g89
g70
NtRp3447
(dp3448
g73
(dp3449
g93
g94
ssg82
g3443
sg75
(lp3450
S'position'
p3451
asbag68
(g89
g70
NtRp3452
(dp3453
g73
(dp3454
g100
g101
ssg82
g3443
sg75
(lp3455
S':'
asbag68
(g89
g70
NtRp3456
(dp3457
g73
(dp3458
sg82
g3443
sg75
(lp3459
g68
(g69
g70
NtRp3460
(dp3461
g73
(dp3462
g81
I3
ssg82
g3456
sg75
(lp3463
S'2'
asbasbasbag68
(g84
g70
NtRp3464
(dp3465
g73
(dp3466
sg82
g3220
sg75
(lp3467
g68
(g89
g70
NtRp3468
(dp3469
g73
(dp3470
g93
g94
ssg82
g3464
sg75
(lp3471
S'postal_code'
p3472
asbag68
(g89
g70
NtRp3473
(dp3474
g73
(dp3475
g100
g101
ssg82
g3464
sg75
(lp3476
S':'
asbag68
(g89
g70
NtRp3477
(dp3478
g73
(dp3479
sg82
g3464
sg75
(lp3480
g68
(g69
g70
NtRp3481
(dp3482
g73
(dp3483
g81
I3
ssg82
g3477
sg75
(lp3484
S'523182'
p3485
asbasbasbag68
(g84
g70
NtRp3486
(dp3487
g73
(dp3488
sg82
g3220
sg75
(lp3489
g68
(g89
g70
NtRp3490
(dp3491
g73
(dp3492
g93
g94
ssg82
g3486
sg75
(lp3493
S'registration_id'
p3494
asbag68
(g89
g70
NtRp3495
(dp3496
g73
(dp3497
g100
g101
ssg82
g3486
sg75
(lp3498
S':'
asbag68
(g89
g70
NtRp3499
(dp3500
g73
(dp3501
sg82
g3486
sg75
(lp3502
g68
(g69
g70
NtRp3503
(dp3504
g73
(dp3505
g81
I3
ssg82
g3499
sg75
(lp3506
S''
asbasbasbag68
(g84
g70
NtRp3507
(dp3508
g73
(dp3509
sg82
g3220
sg75
(lp3510
g68
(g89
g70
NtRp3511
(dp3512
g73
(dp3513
g93
g94
ssg82
g3507
sg75
(lp3514
S'registration_key'
p3515
asbag68
(g89
g70
NtRp3516
(dp3517
g73
(dp3518
g100
g101
ssg82
g3507
sg75
(lp3519
S':'
asbag68
(g89
g70
NtRp3520
(dp3521
g73
(dp3522
sg82
g3507
sg75
(lp3523
g68
(g69
g70
NtRp3524
(dp3525
g73
(dp3526
g81
I3
ssg82
g3520
sg75
(lp3527
S''
asbasbasbag68
(g84
g70
NtRp3528
(dp3529
g73
(dp3530
sg82
g3220
sg75
(lp3531
g68
(g89
g70
NtRp3532
(dp3533
g73
(dp3534
g93
g94
ssg82
g3528
sg75
(lp3535
S'reset_password_key'
p3536
asbag68
(g89
g70
NtRp3537
(dp3538
g73
(dp3539
g100
g101
ssg82
g3528
sg75
(lp3540
S':'
asbag68
(g89
g70
NtRp3541
(dp3542
g73
(dp3543
sg82
g3528
sg75
(lp3544
g68
(g69
g70
NtRp3545
(dp3546
g73
(dp3547
g81
I3
ssg82
g3541
sg75
(lp3548
S''
asbasbasbag68
(g84
g70
NtRp3549
(dp3550
g73
(dp3551
sg82
g3220
sg75
(lp3552
g68
(g89
g70
NtRp3553
(dp3554
g73
(dp3555
g93
g94
ssg82
g3549
sg75
(lp3556
S'title'
p3557
asbag68
(g89
g70
NtRp3558
(dp3559
g73
(dp3560
g100
g101
ssg82
g3549
sg75
(lp3561
S':'
asbag68
(g89
g70
NtRp3562
(dp3563
g73
(dp3564
sg82
g3549
sg75
(lp3565
g68
(g69
g70
NtRp3566
(dp3567
g73
(dp3568
g81
I3
ssg82
g3562
sg75
(lp3569
S'0'
asbasbasbasbasbasbasbag68
(g84
g70
NtRp3570
(dp3571
g73
(dp3572
sg82
g3108
sg75
(lp3573
g68
(g89
g70
NtRp3574
(dp3575
g73
(dp3576
g93
g94
ssg82
g3570
sg75
(lp3577
S'user_groups'
p3578
asbag68
(g89
g70
NtRp3579
(dp3580
g73
(dp3581
g100
g101
ssg82
g3570
sg75
(lp3582
S':'
asbag68
(g89
g70
NtRp3583
(dp3584
g73
(dp3585
sg82
g3570
sg75
(lp3586
g68
(g69
g70
NtRp3587
(dp3588
g73
(dp3589
g81
I4
ssg82
g3583
sg75
(lp3590
g68
(g77
g70
NtRp3591
(dp3592
g73
(dp3593
g81
I3
ssg82
Nsg75
(lp3594
g68
(g84
g70
NtRp3595
(dp3596
g73
(dp3597
sg82
g3591
sg75
(lp3598
g68
(g89
g70
NtRp3599
(dp3600
g73
(dp3601
g93
g94
ssg82
g3595
sg75
(lp3602
S'1'
asbag68
(g89
g70
NtRp3603
(dp3604
g73
(dp3605
g100
g101
ssg82
g3595
sg75
(lp3606
S':'
asbag68
(g89
g70
NtRp3607
(dp3608
g73
(dp3609
sg82
g3595
sg75
(lp3610
g68
(g69
g70
NtRp3611
(dp3612
g73
(dp3613
g81
I3
ssg82
g3607
sg75
(lp3614
S'user_1'
p3615
asbasbasbasbasbasbasbasbasbasbasbag68
(g84
g70
NtRp3616
(dp3617
g73
(dp3618
sg82
g3083
sg75
(lp3619
g68
(g89
g70
NtRp3620
(dp3621
g73
(dp3622
g93
g94
ssg82
g3616
sg75
(lp3623
S'flash'
p3624
asbag68
(g89
g70
NtRp3625
(dp3626
g73
(dp3627
g100
g101
ssg82
g3616
sg75
(lp3628
S':'
asbag68
(g89
g70
NtRp3629
(dp3630
g73
(dp3631
sg82
g3616
sg75
(lp3632
g68
(g69
g70
NtRp3633
(dp3634
g73
(dp3635
g81
I5
ssg82
g3629
sg75
(lp3636
S'None'
p3637
asbasbasbag68
(g84
g70
NtRp3638
(dp3639
g73
(dp3640
sg82
g3083
sg75
(lp3641
g68
(g89
g70
NtRp3642
(dp3643
g73
(dp3644
g93
g94
ssg82
g3638
sg75
(lp3645
S'last_orderby'
p3646
asbag68
(g89
g70
NtRp3647
(dp3648
g73
(dp3649
g100
g101
ssg82
g3638
sg75
(lp3650
S':'
asbag68
(g89
g70
NtRp3651
(dp3652
g73
(dp3653
sg82
g3638
sg75
(lp3654
g68
(g69
g70
NtRp3655
(dp3656
g73
(dp3657
g81
I5
ssg82
g3651
sg75
(lp3658
S'None'
p3659
asbasbasbag68
(g84
g70
NtRp3660
(dp3661
g73
(dp3662
sg82
g3083
sg75
(lp3663
g68
(g89
g70
NtRp3664
(dp3665
g73
(dp3666
g93
g94
ssg82
g3660
sg75
(lp3667
S'last_query'
p3668
asbag68
(g89
g70
NtRp3669
(dp3670
g73
(dp3671
g100
g101
ssg82
g3660
sg75
(lp3672
S':'
asbag68
(g89
g70
NtRp3673
(dp3674
g73
(dp3675
sg82
g3660
sg75
(lp3676
g68
(g69
g70
NtRp3677
(dp3678
g73
(dp3679
g81
I5
ssg82
g3673
sg75
(lp3680
S'db.project.id>0'
p3681
asbasbasbasbasbsS'etype'
p3682
S"<type 'exceptions.SyntaxError'>"
p3683
sS'date'
p3684
S'Sat Mar  9 11:42:38 2013'
p3685
sS'response'
p3686
g68
(g69
g70
NtRp3687
(dp3688
g73
(dp3689
sg75
(lp3690
g68
(g77
g70
NtRp3691
(dp3692
g73
(dp3693
g81
I5
ssg82
Nsg75
(lp3694
g68
(g84
g70
NtRp3695
(dp3696
g73
(dp3697
sg82
g3691
sg75
(lp3698
g68
(g89
g70
NtRp3699
(dp3700
g73
(dp3701
g93
g94
ssg82
g3695
sg75
(lp3702
g166
asbag68
(g89
g70
NtRp3703
(dp3704
g73
(dp3705
g100
g101
ssg82
g3695
sg75
(lp3706
S':'
asbag68
(g89
g70
NtRp3707
(dp3708
g73
(dp3709
sg82
g3695
sg75
(lp3710
g68
(g69
g70
NtRp3711
(dp3712
g73
(dp3713
g81
I5
ssg82
g3707
sg75
(lp3714
S'<cStringIO.StringO object at 0xb0123be0>'
p3715
asbasbasbag68
(g84
g70
NtRp3716
(dp3717
g73
(dp3718
sg82
g3691
sg75
(lp3719
g68
(g89
g70
NtRp3720
(dp3721
g73
(dp3722
g93
g94
ssg82
g3716
sg75
(lp3723
g254
asbag68
(g89
g70
NtRp3724
(dp3725
g73
(dp3726
g100
g101
ssg82
g3716
sg75
(lp3727
S':'
asbag68
(g89
g70
NtRp3728
(dp3729
g73
(dp3730
sg82
g3716
sg75
(lp3731
g68
(g69
g70
NtRp3732
(dp3733
g73
(dp3734
g81
I5
ssg82
g3728
sg75
(lp3735
g68
(g77
g70
NtRp3736
(dp3737
g73
(dp3738
g81
I4
ssg82
Nsg75
(lp3739
g68
(g84
g70
NtRp3740
(dp3741
g73
(dp3742
sg82
g3736
sg75
(lp3743
g68
(g89
g70
NtRp3744
(dp3745
g73
(dp3746
g93
g94
ssg82
g3740
sg75
(lp3747
S'session_id_dev_bootstrap_ch'
p3748
asbag68
(g89
g70
NtRp3749
(dp3750
g73
(dp3751
g100
g101
ssg82
g3740
sg75
(lp3752
S':'
asbag68
(g89
g70
NtRp3753
(dp3754
g73
(dp3755
sg82
g3740
sg75
(lp3756
g68
(g69
g70
NtRp3757
(dp3758
g73
(dp3759
g81
I4
ssg82
g3753
sg75
(lp3760
g486
ag68
(g77
g70
NtRp3761
(dp3762
g73
(dp3763
g81
I3
ssg82
Nsg75
(lp3764
g68
(g84
g70
NtRp3765
(dp3766
g73
(dp3767
sg82
g3761
sg75
(lp3768
g68
(g89
g70
NtRp3769
(dp3770
g73
(dp3771
g93
g94
ssg82
g3765
sg75
(lp3772
g305
asbag68
(g89
g70
NtRp3773
(dp3774
g73
(dp3775
g100
g101
ssg82
g3765
sg75
(lp3776
S':'
asbag68
(g89
g70
NtRp3777
(dp3778
g73
(dp3779
sg82
g3765
sg75
(lp3780
g68
(g69
g70
NtRp3781
(dp3782
g73
(dp3783
g81
I3
ssg82
g3777
sg75
(lp3784
S''
asbasbasbag68
(g84
g70
NtRp3785
(dp3786
g73
(dp3787
sg82
g3761
sg75
(lp3788
g68
(g89
g70
NtRp3789
(dp3790
g73
(dp3791
g93
g94
ssg82
g3785
sg75
(lp3792
g326
asbag68
(g89
g70
NtRp3793
(dp3794
g73
(dp3795
g100
g101
ssg82
g3785
sg75
(lp3796
S':'
asbag68
(g89
g70
NtRp3797
(dp3798
g73
(dp3799
sg82
g3785
sg75
(lp3800
g68
(g69
g70
NtRp3801
(dp3802
g73
(dp3803
g81
I3
ssg82
g3797
sg75
(lp3804
S''
asbasbasbag68
(g84
g70
NtRp3805
(dp3806
g73
(dp3807
sg82
g3761
sg75
(lp3808
g68
(g89
g70
NtRp3809
(dp3810
g73
(dp3811
g93
g94
ssg82
g3805
sg75
(lp3812
g347
asbag68
(g89
g70
NtRp3813
(dp3814
g73
(dp3815
g100
g101
ssg82
g3805
sg75
(lp3816
S':'
asbag68
(g89
g70
NtRp3817
(dp3818
g73
(dp3819
sg82
g3805
sg75
(lp3820
g68
(g69
g70
NtRp3821
(dp3822
g73
(dp3823
g81
I3
ssg82
g3817
sg75
(lp3824
S''
asbasbasbag68
(g84
g70
NtRp3825
(dp3826
g73
(dp3827
sg82
g3761
sg75
(lp3828
g68
(g89
g70
NtRp3829
(dp3830
g73
(dp3831
g93
g94
ssg82
g3825
sg75
(lp3832
g368
asbag68
(g89
g70
NtRp3833
(dp3834
g73
(dp3835
g100
g101
ssg82
g3825
sg75
(lp3836
S':'
asbag68
(g89
g70
NtRp3837
(dp3838
g73
(dp3839
sg82
g3825
sg75
(lp3840
g68
(g69
g70
NtRp3841
(dp3842
g73
(dp3843
g81
I3
ssg82
g3837
sg75
(lp3844
S''
asbasbasbag68
(g84
g70
NtRp3845
(dp3846
g73
(dp3847
sg82
g3761
sg75
(lp3848
g68
(g89
g70
NtRp3849
(dp3850
g73
(dp3851
g93
g94
ssg82
g3845
sg75
(lp3852
g389
asbag68
(g89
g70
NtRp3853
(dp3854
g73
(dp3855
g100
g101
ssg82
g3845
sg75
(lp3856
S':'
asbag68
(g89
g70
NtRp3857
(dp3858
g73
(dp3859
sg82
g3845
sg75
(lp3860
g68
(g69
g70
NtRp3861
(dp3862
g73
(dp3863
g81
I3
ssg82
g3857
sg75
(lp3864
S''
asbasbasbag68
(g84
g70
NtRp3865
(dp3866
g73
(dp3867
sg82
g3761
sg75
(lp3868
g68
(g89
g70
NtRp3869
(dp3870
g73
(dp3871
g93
g94
ssg82
g3865
sg75
(lp3872
g410
asbag68
(g89
g70
NtRp3873
(dp3874
g73
(dp3875
g100
g101
ssg82
g3865
sg75
(lp3876
S':'
asbag68
(g89
g70
NtRp3877
(dp3878
g73
(dp3879
sg82
g3865
sg75
(lp3880
g68
(g69
g70
NtRp3881
(dp3882
g73
(dp3883
g81
I3
ssg82
g3877
sg75
(lp3884
S'/'
asbasbasbag68
(g84
g70
NtRp3885
(dp3886
g73
(dp3887
sg82
g3761
sg75
(lp3888
g68
(g89
g70
NtRp3889
(dp3890
g73
(dp3891
g93
g94
ssg82
g3885
sg75
(lp3892
g431
asbag68
(g89
g70
NtRp3893
(dp3894
g73
(dp3895
g100
g101
ssg82
g3885
sg75
(lp3896
S':'
asbag68
(g89
g70
NtRp3897
(dp3898
g73
(dp3899
sg82
g3885
sg75
(lp3900
g68
(g69
g70
NtRp3901
(dp3902
g73
(dp3903
g81
I3
ssg82
g3897
sg75
(lp3904
S''
asbasbasbag68
(g84
g70
NtRp3905
(dp3906
g73
(dp3907
sg82
g3761
sg75
(lp3908
g68
(g89
g70
NtRp3909
(dp3910
g73
(dp3911
g93
g94
ssg82
g3905
sg75
(lp3912
g452
asbag68
(g89
g70
NtRp3913
(dp3914
g73
(dp3915
g100
g101
ssg82
g3905
sg75
(lp3916
S':'
asbag68
(g89
g70
NtRp3917
(dp3918
g73
(dp3919
sg82
g3905
sg75
(lp3920
g68
(g69
g70
NtRp3921
(dp3922
g73
(dp3923
g81
I3
ssg82
g3917
sg75
(lp3924
S''
asbasbasbasbasbasbasbasbasbasbasbag68
(g84
g70
NtRp3925
(dp3926
g73
(dp3927
sg82
g3691
sg75
(lp3928
g68
(g89
g70
NtRp3929
(dp3930
g73
(dp3931
g93
g94
ssg82
g3925
sg75
(lp3932
S'delimiters'
p3933
asbag68
(g89
g70
NtRp3934
(dp3935
g73
(dp3936
g100
g101
ssg82
g3925
sg75
(lp3937
S':'
asbag68
(g89
g70
NtRp3938
(dp3939
g73
(dp3940
sg82
g3925
sg75
(lp3941
g68
(g69
g70
NtRp3942
(dp3943
g73
(dp3944
g81
I5
ssg82
g3938
sg75
(lp3945
g68
(g77
g70
NtRp3946
(dp3947
g73
(dp3948
g81
I4
ssg82
Nsg75
(lp3949
g68
(g84
g70
NtRp3950
(dp3951
g73
(dp3952
sg82
g3946
sg75
(lp3953
g68
(g89
g70
NtRp3954
(dp3955
g73
(dp3956
sg82
g3950
sg75
(lp3957
g68
(g69
g70
NtRp3958
(dp3959
g73
(dp3960
g81
I4
ssg82
g3954
sg75
(lp3961
S'{{'
p3962
asbasbasbag68
(g84
g70
NtRp3963
(dp3964
g73
(dp3965
sg82
g3946
sg75
(lp3966
g68
(g89
g70
NtRp3967
(dp3968
g73
(dp3969
sg82
g3963
sg75
(lp3970
g68
(g69
g70
NtRp3971
(dp3972
g73
(dp3973
g81
I4
ssg82
g3967
sg75
(lp3974
S'}}'
p3975
asbasbasbasbasbasbasbag68
(g84
g70
NtRp3976
(dp3977
g73
(dp3978
sg82
g3691
sg75
(lp3979
g68
(g89
g70
NtRp3980
(dp3981
g73
(dp3982
g93
g94
ssg82
g3976
sg75
(lp3983
S'files'
p3984
asbag68
(g89
g70
NtRp3985
(dp3986
g73
(dp3987
g100
g101
ssg82
g3976
sg75
(lp3988
S':'
asbag68
(g89
g70
NtRp3989
(dp3990
g73
(dp3991
sg82
g3976
sg75
(lp3992
g68
(g69
g70
NtRp3993
(dp3994
g73
(dp3995
g81
I5
ssg82
g3989
sg75
(lp3996
g68
(g77
g70
NtRp3997
(dp3998
g73
(dp3999
g81
I4
ssg82
Nsg75
(lp4000
g68
(g84
g70
NtRp4001
(dp4002
g73
(dp4003
sg82
g3997
sg75
(lp4004
g68
(g89
g70
NtRp4005
(dp4006
g73
(dp4007
sg82
g4001
sg75
(lp4008
g68
(g69
g70
NtRp4009
(dp4010
g73
(dp4011
g81
I4
ssg82
g4005
sg75
(lp4012
S'/DEV_bootstrap_ch/static/plugin_wiki/ui/css/redmond/jquery-ui-1.8.5.custom.css'
p4013
asbasbasbag68
(g84
g70
NtRp4014
(dp4015
g73
(dp4016
sg82
g3997
sg75
(lp4017
g68
(g89
g70
NtRp4018
(dp4019
g73
(dp4020
sg82
g4014
sg75
(lp4021
g68
(g69
g70
NtRp4022
(dp4023
g73
(dp4024
g81
I4
ssg82
g4018
sg75
(lp4025
S'/DEV_bootstrap_ch/static/plugin_wiki/ui/js/jquery-ui-1.8.5.custom.min.js'
p4026
asbasbasbag68
(g84
g70
NtRp4027
(dp4028
g73
(dp4029
sg82
g3997
sg75
(lp4030
g68
(g89
g70
NtRp4031
(dp4032
g73
(dp4033
sg82
g4027
sg75
(lp4034
g68
(g69
g70
NtRp4035
(dp4036
g73
(dp4037
g81
I4
ssg82
g4031
sg75
(lp4038
S'/DEV_bootstrap_ch/static/plugin_wiki/jqgrid/ui.jqgrid.css'
p4039
asbasbasbag68
(g84
g70
NtRp4040
(dp4041
g73
(dp4042
sg82
g3997
sg75
(lp4043
g68
(g89
g70
NtRp4044
(dp4045
g73
(dp4046
sg82
g4040
sg75
(lp4047
g68
(g69
g70
NtRp4048
(dp4049
g73
(dp4050
g81
I4
ssg82
g4044
sg75
(lp4051
S'/DEV_bootstrap_ch/static/plugin_wiki/jqgrid/i18n/grid.locale-en.js'
p4052
asbasbasbag68
(g84
g70
NtRp4053
(dp4054
g73
(dp4055
sg82
g3997
sg75
(lp4056
g68
(g89
g70
NtRp4057
(dp4058
g73
(dp4059
sg82
g4053
sg75
(lp4060
g68
(g69
g70
NtRp4061
(dp4062
g73
(dp4063
g81
I4
ssg82
g4057
sg75
(lp4064
S'/DEV_bootstrap_ch/static/plugin_wiki/jqgrid/jquery.jqGrid.min.js'
p4065
asbasbasbag68
(g84
g70
NtRp4066
(dp4067
g73
(dp4068
sg82
g3997
sg75
(lp4069
g68
(g89
g70
NtRp4070
(dp4071
g73
(dp4072
sg82
g4066
sg75
(lp4073
g68
(g69
g70
NtRp4074
(dp4075
g73
(dp4076
g81
I4
ssg82
g4070
sg75
(lp4077
S'/DEV_bootstrap_ch/static/plugin_wiki/slideshow/jquery.cycle.min.js'
p4078
asbasbasbag68
(g84
g70
NtRp4079
(dp4080
g73
(dp4081
sg82
g3997
sg75
(lp4082
g68
(g89
g70
NtRp4083
(dp4084
g73
(dp4085
sg82
g4079
sg75
(lp4086
g68
(g69
g70
NtRp4087
(dp4088
g73
(dp4089
g81
I4
ssg82
g4083
sg75
(lp4090
S'/DEV_bootstrap_ch/static/plugin_wiki/multiselect/jquery.multiselect.css'
p4091
asbasbasbag68
(g84
g70
NtRp4092
(dp4093
g73
(dp4094
sg82
g3997
sg75
(lp4095
g68
(g89
g70
NtRp4096
(dp4097
g73
(dp4098
sg82
g4092
sg75
(lp4099
g68
(g69
g70
NtRp4100
(dp4101
g73
(dp4102
g81
I4
ssg82
g4096
sg75
(lp4103
S'/DEV_bootstrap_ch/static/plugin_wiki/multiselect/jquery.multiselect.js'
p4104
asbasbasbag68
(g84
g70
NtRp4105
(dp4106
g73
(dp4107
sg82
g3997
sg75
(lp4108
g68
(g89
g70
NtRp4109
(dp4110
g73
(dp4111
sg82
g4105
sg75
(lp4112
g68
(g69
g70
NtRp4113
(dp4114
g73
(dp4115
g81
I4
ssg82
g4109
sg75
(lp4116
S'/DEV_bootstrap_ch/static/plugin_wiki/rating/jquery.rating.css'
p4117
asbasbasbag68
(g84
g70
NtRp4118
(dp4119
g73
(dp4120
sg82
g3997
sg75
(lp4121
g68
(g89
g70
NtRp4122
(dp4123
g73
(dp4124
sg82
g4118
sg75
(lp4125
g68
(g69
g70
NtRp4126
(dp4127
g73
(dp4128
g81
I4
ssg82
g4122
sg75
(lp4129
S'/DEV_bootstrap_ch/static/plugin_wiki/rating/jquery.rating.js'
p4130
asbasbasbasbasbasbasbag68
(g84
g70
NtRp4131
(dp4132
g73
(dp4133
sg82
g3691
sg75
(lp4134
g68
(g89
g70
NtRp4135
(dp4136
g73
(dp4137
g93
g94
ssg82
g4131
sg75
(lp4138
S'flash'
p4139
asbag68
(g89
g70
NtRp4140
(dp4141
g73
(dp4142
g100
g101
ssg82
g4131
sg75
(lp4143
S':'
asbag68
(g89
g70
NtRp4144
(dp4145
g73
(dp4146
sg82
g4131
sg75
(lp4147
g68
(g69
g70
NtRp4148
(dp4149
g73
(dp4150
g81
I5
ssg82
g4144
sg75
(lp4151
S''
asbasbasbag68
(g84
g70
NtRp4152
(dp4153
g73
(dp4154
sg82
g3691
sg75
(lp4155
g68
(g89
g70
NtRp4156
(dp4157
g73
(dp4158
g93
g94
ssg82
g4152
sg75
(lp4159
S'generic_patterns'
p4160
asbag68
(g89
g70
NtRp4161
(dp4162
g73
(dp4163
g100
g101
ssg82
g4152
sg75
(lp4164
S':'
asbag68
(g89
g70
NtRp4165
(dp4166
g73
(dp4167
sg82
g4152
sg75
(lp4168
g68
(g69
g70
NtRp4169
(dp4170
g73
(dp4171
g81
I5
ssg82
g4165
sg75
(lp4172
g68
(g77
g70
NtRp4173
(dp4174
g73
(dp4175
g81
I4
ssg82
Nsg75
(lp4176
g68
(g84
g70
NtRp4177
(dp4178
g73
(dp4179
sg82
g4173
sg75
(lp4180
g68
(g89
g70
NtRp4181
(dp4182
g73
(dp4183
sg82
g4177
sg75
(lp4184
g68
(g69
g70
NtRp4185
(dp4186
g73
(dp4187
g81
I4
ssg82
g4181
sg75
(lp4188
S'*'
asbasbasbasbasbasbasbag68
(g84
g70
NtRp4189
(dp4190
g73
(dp4191
sg82
g3691
sg75
(lp4192
g68
(g89
g70
NtRp4193
(dp4194
g73
(dp4195
g93
g94
ssg82
g4189
sg75
(lp4196
S'google_analytics_id'
p4197
asbag68
(g89
g70
NtRp4198
(dp4199
g73
(dp4200
g100
g101
ssg82
g4189
sg75
(lp4201
S':'
asbag68
(g89
g70
NtRp4202
(dp4203
g73
(dp4204
sg82
g4189
sg75
(lp4205
g68
(g69
g70
NtRp4206
(dp4207
g73
(dp4208
g81
I5
ssg82
g4202
sg75
(lp4209
S'None'
p4210
asbasbasbag68
(g84
g70
NtRp4211
(dp4212
g73
(dp4213
sg82
g3691
sg75
(lp4214
g68
(g89
g70
NtRp4215
(dp4216
g73
(dp4217
g93
g94
ssg82
g4211
sg75
(lp4218
S'headers'
p4219
asbag68
(g89
g70
NtRp4220
(dp4221
g73
(dp4222
g100
g101
ssg82
g4211
sg75
(lp4223
S':'
asbag68
(g89
g70
NtRp4224
(dp4225
g73
(dp4226
sg82
g4211
sg75
(lp4227
g68
(g69
g70
NtRp4228
(dp4229
g73
(dp4230
g81
I5
ssg82
g4224
sg75
(lp4231
g68
(g77
g70
NtRp4232
(dp4233
g73
(dp4234
g81
I4
ssg82
Nsg75
(lp4235
g68
(g84
g70
NtRp4236
(dp4237
g73
(dp4238
sg82
g4232
sg75
(lp4239
g68
(g89
g70
NtRp4240
(dp4241
g73
(dp4242
g93
g94
ssg82
g4236
sg75
(lp4243
S'X-Powered-By'
p4244
asbag68
(g89
g70
NtRp4245
(dp4246
g73
(dp4247
g100
g101
ssg82
g4236
sg75
(lp4248
S':'
asbag68
(g89
g70
NtRp4249
(dp4250
g73
(dp4251
sg82
g4236
sg75
(lp4252
g68
(g69
g70
NtRp4253
(dp4254
g73
(dp4255
g81
I4
ssg82
g4249
sg75
(lp4256
S'web2py'
p4257
asbasbasbasbasbasbasbag68
(g84
g70
NtRp4258
(dp4259
g73
(dp4260
sg82
g3691
sg75
(lp4261
g68
(g89
g70
NtRp4262
(dp4263
g73
(dp4264
g93
g94
ssg82
g4258
sg75
(lp4265
S'menu'
p4266
asbag68
(g89
g70
NtRp4267
(dp4268
g73
(dp4269
g100
g101
ssg82
g4258
sg75
(lp4270
S':'
asbag68
(g89
g70
NtRp4271
(dp4272
g73
(dp4273
sg82
g4258
sg75
(lp4274
g68
(g69
g70
NtRp4275
(dp4276
g73
(dp4277
g81
I5
ssg82
g4271
sg75
(lp4278
g68
(g77
g70
NtRp4279
(dp4280
g73
(dp4281
g81
I4
ssg82
Nsg75
(lp4282
g68
(g84
g70
NtRp4283
(dp4284
g73
(dp4285
sg82
g4279
sg75
(lp4286
g68
(g89
g70
NtRp4287
(dp4288
g73
(dp4289
sg82
g4283
sg75
(lp4290
g68
(g69
g70
NtRp4291
(dp4292
g73
(dp4293
g81
I4
ssg82
g4287
sg75
(lp4294
g68
(g77
g70
NtRp4295
(dp4296
g73
(dp4297
g81
I3
ssg82
Nsg75
(lp4298
g68
(g84
g70
NtRp4299
(dp4300
g73
(dp4301
sg82
g4295
sg75
(lp4302
g68
(g89
g70
NtRp4303
(dp4304
g73
(dp4305
sg82
g4299
sg75
(lp4306
g68
(g69
g70
NtRp4307
(dp4308
g73
(dp4309
g81
I3
ssg82
g4303
sg75
(lp4310
cgluon.languages
lazyT_unpickle
p4311
(S't\x04\x00\x00\x00Home'
tRp4312
asbasbasbag68
(g84
g70
NtRp4313
(dp4314
g73
(dp4315
sg82
g4295
sg75
(lp4316
g68
(g89
g70
NtRp4317
(dp4318
g73
(dp4319
sg82
g4313
sg75
(lp4320
g68
(g69
g70
NtRp4321
(dp4322
g73
(dp4323
g81
I3
ssg82
g4317
sg75
(lp4324
g111
asbasbasbag68
(g84
g70
NtRp4325
(dp4326
g73
(dp4327
sg82
g4295
sg75
(lp4328
g68
(g89
g70
NtRp4329
(dp4330
g73
(dp4331
sg82
g4325
sg75
(lp4332
g68
(g69
g70
NtRp4333
(dp4334
g73
(dp4335
g81
I3
ssg82
g4329
sg75
(lp4336
S'/DEV_bootstrap_ch/default/list_all_projects'
p4337
asbasbasbag68
(g84
g70
NtRp4338
(dp4339
g73
(dp4340
sg82
g4295
sg75
(lp4341
g68
(g89
g70
NtRp4342
(dp4343
g73
(dp4344
sg82
g4338
sg75
(lp4345
g68
(g69
g70
NtRp4346
(dp4347
g73
(dp4348
g81
I3
ssg82
g4342
sg75
(lp4349
g68
(g77
g70
NtRp4350
(dp4351
g73
(dp4352
g81
I2
ssg82
Nsg75
(lp4353
sbasbasbasbasbasbasbasbag68
(g84
g70
NtRp4354
(dp4355
g73
(dp4356
sg82
g4279
sg75
(lp4357
g68
(g89
g70
NtRp4358
(dp4359
g73
(dp4360
sg82
g4354
sg75
(lp4361
g68
(g69
g70
NtRp4362
(dp4363
g73
(dp4364
g81
I4
ssg82
g4358
sg75
(lp4365
g68
(g77
g70
NtRp4366
(dp4367
g73
(dp4368
g81
I3
ssg82
Nsg75
(lp4369
g68
(g84
g70
NtRp4370
(dp4371
g73
(dp4372
sg82
g4366
sg75
(lp4373
g68
(g89
g70
NtRp4374
(dp4375
g73
(dp4376
sg82
g4370
sg75
(lp4377
g68
(g69
g70
NtRp4378
(dp4379
g73
(dp4380
g81
I3
ssg82
g4374
sg75
(lp4381
g4311
(S't\x08\x00\x00\x00Projects'
tRp4382
asbasbasbag68
(g84
g70
NtRp4383
(dp4384
g73
(dp4385
sg82
g4366
sg75
(lp4386
g68
(g89
g70
NtRp4387
(dp4388
g73
(dp4389
sg82
g4383
sg75
(lp4390
g68
(g69
g70
NtRp4391
(dp4392
g73
(dp4393
g81
I3
ssg82
g4387
sg75
(lp4394
g111
asbasbasbag68
(g84
g70
NtRp4395
(dp4396
g73
(dp4397
sg82
g4366
sg75
(lp4398
g68
(g89
g70
NtRp4399
(dp4400
g73
(dp4401
sg82
g4395
sg75
(lp4402
g68
(g69
g70
NtRp4403
(dp4404
g73
(dp4405
g81
I3
ssg82
g4399
sg75
(lp4406
S'/DEV_bootstrap_ch/default/list_all_projects'
p4407
asbasbasbag68
(g84
g70
NtRp4408
(dp4409
g73
(dp4410
sg82
g4366
sg75
(lp4411
g68
(g89
g70
NtRp4412
(dp4413
g73
(dp4414
sg82
g4408
sg75
(lp4415
g68
(g69
g70
NtRp4416
(dp4417
g73
(dp4418
g81
I3
ssg82
g4412
sg75
(lp4419
g68
(g77
g70
NtRp4420
(dp4421
g73
(dp4422
g81
I2
ssg82
Nsg75
(lp4423
sbasbasbasbasbasbasbasbag68
(g84
g70
NtRp4424
(dp4425
g73
(dp4426
sg82
g4279
sg75
(lp4427
g68
(g89
g70
NtRp4428
(dp4429
g73
(dp4430
sg82
g4424
sg75
(lp4431
g68
(g69
g70
NtRp4432
(dp4433
g73
(dp4434
g81
I4
ssg82
g4428
sg75
(lp4435
g68
(g77
g70
NtRp4436
(dp4437
g73
(dp4438
g81
I3
ssg82
Nsg75
(lp4439
g68
(g84
g70
NtRp4440
(dp4441
g73
(dp4442
sg82
g4436
sg75
(lp4443
g68
(g89
g70
NtRp4444
(dp4445
g73
(dp4446
sg82
g4440
sg75
(lp4447
g68
(g69
g70
NtRp4448
(dp4449
g73
(dp4450
g81
I3
ssg82
g4444
sg75
(lp4451
S'Pages'
p4452
asbasbasbag68
(g84
g70
NtRp4453
(dp4454
g73
(dp4455
sg82
g4436
sg75
(lp4456
g68
(g89
g70
NtRp4457
(dp4458
g73
(dp4459
sg82
g4453
sg75
(lp4460
g68
(g69
g70
NtRp4461
(dp4462
g73
(dp4463
g81
I3
ssg82
g4457
sg75
(lp4464
g111
asbasbasbag68
(g84
g70
NtRp4465
(dp4466
g73
(dp4467
sg82
g4436
sg75
(lp4468
g68
(g89
g70
NtRp4469
(dp4470
g73
(dp4471
sg82
g4465
sg75
(lp4472
g68
(g69
g70
NtRp4473
(dp4474
g73
(dp4475
g81
I3
ssg82
g4469
sg75
(lp4476
S'/DEV_bootstrap_ch/plugin_wiki/index'
p4477
asbasbasbasbasbasbasbasbasbasbasbag68
(g84
g70
NtRp4478
(dp4479
g73
(dp4480
sg82
g3691
sg75
(lp4481
g68
(g89
g70
NtRp4482
(dp4483
g73
(dp4484
g93
g94
ssg82
g4478
sg75
(lp4485
S'meta'
p4486
asbag68
(g89
g70
NtRp4487
(dp4488
g73
(dp4489
g100
g101
ssg82
g4478
sg75
(lp4490
S':'
asbag68
(g89
g70
NtRp4491
(dp4492
g73
(dp4493
sg82
g4478
sg75
(lp4494
g68
(g69
g70
NtRp4495
(dp4496
g73
(dp4497
g81
I5
ssg82
g4491
sg75
(lp4498
g68
(g77
g70
NtRp4499
(dp4500
g73
(dp4501
g81
I4
ssg82
Nsg75
(lp4502
g68
(g84
g70
NtRp4503
(dp4504
g73
(dp4505
sg82
g4499
sg75
(lp4506
g68
(g89
g70
NtRp4507
(dp4508
g73
(dp4509
g93
g94
ssg82
g4503
sg75
(lp4510
S'author'
p4511
asbag68
(g89
g70
NtRp4512
(dp4513
g73
(dp4514
g100
g101
ssg82
g4503
sg75
(lp4515
S':'
asbag68
(g89
g70
NtRp4516
(dp4517
g73
(dp4518
sg82
g4503
sg75
(lp4519
g68
(g69
g70
NtRp4520
(dp4521
g73
(dp4522
g81
I4
ssg82
g4516
sg75
(lp4523
S'Vikram Pudi <vikram@iiit.ac.in>'
p4524
asbasbasbag68
(g84
g70
NtRp4525
(dp4526
g73
(dp4527
sg82
g4499
sg75
(lp4528
g68
(g89
g70
NtRp4529
(dp4530
g73
(dp4531
g93
g94
ssg82
g4525
sg75
(lp4532
S'copyright'
p4533
asbag68
(g89
g70
NtRp4534
(dp4535
g73
(dp4536
g100
g101
ssg82
g4525
sg75
(lp4537
S':'
asbag68
(g89
g70
NtRp4538
(dp4539
g73
(dp4540
sg82
g4525
sg75
(lp4541
g68
(g69
g70
NtRp4542
(dp4543
g73
(dp4544
g81
I4
ssg82
g4538
sg75
(lp4545
S'Copyright 2011'
p4546
asbasbasbag68
(g84
g70
NtRp4547
(dp4548
g73
(dp4549
sg82
g4499
sg75
(lp4550
g68
(g89
g70
NtRp4551
(dp4552
g73
(dp4553
g93
g94
ssg82
g4547
sg75
(lp4554
S'description'
p4555
asbag68
(g89
g70
NtRp4556
(dp4557
g73
(dp4558
g100
g101
ssg82
g4547
sg75
(lp4559
S':'
asbag68
(g89
g70
NtRp4560
(dp4561
g73
(dp4562
sg82
g4547
sg75
(lp4563
g68
(g69
g70
NtRp4564
(dp4565
g73
(dp4566
g81
I4
ssg82
g4560
sg75
(lp4567
S'Computational Core for Plant Metabolomics -- A project sanctioned by DBT, Govt. of India'
p4568
asbasbasbag68
(g84
g70
NtRp4569
(dp4570
g73
(dp4571
sg82
g4499
sg75
(lp4572
g68
(g89
g70
NtRp4573
(dp4574
g73
(dp4575
g93
g94
ssg82
g4569
sg75
(lp4576
S'generator'
p4577
asbag68
(g89
g70
NtRp4578
(dp4579
g73
(dp4580
g100
g101
ssg82
g4569
sg75
(lp4581
S':'
asbag68
(g89
g70
NtRp4582
(dp4583
g73
(dp4584
sg82
g4569
sg75
(lp4585
g68
(g69
g70
NtRp4586
(dp4587
g73
(dp4588
g81
I4
ssg82
g4582
sg75
(lp4589
S'Web2py Web Framework'
p4590
asbasbasbag68
(g84
g70
NtRp4591
(dp4592
g73
(dp4593
sg82
g4499
sg75
(lp4594
g68
(g89
g70
NtRp4595
(dp4596
g73
(dp4597
g93
g94
ssg82
g4591
sg75
(lp4598
S'keywords'
p4599
asbag68
(g89
g70
NtRp4600
(dp4601
g73
(dp4602
g100
g101
ssg82
g4591
sg75
(lp4603
S':'
asbag68
(g89
g70
NtRp4604
(dp4605
g73
(dp4606
sg82
g4591
sg75
(lp4607
g68
(g69
g70
NtRp4608
(dp4609
g73
(dp4610
g81
I4
ssg82
g4604
sg75
(lp4611
S'web2py, python, metabolome, metabolomics'
p4612
asbasbasbasbasbasbasbag68
(g84
g70
NtRp4613
(dp4614
g73
(dp4615
sg82
g3691
sg75
(lp4616
g68
(g89
g70
NtRp4617
(dp4618
g73
(dp4619
g93
g94
ssg82
g4613
sg75
(lp4620
S'models_to_run'
p4621
asbag68
(g89
g70
NtRp4622
(dp4623
g73
(dp4624
g100
g101
ssg82
g4613
sg75
(lp4625
S':'
asbag68
(g89
g70
NtRp4626
(dp4627
g73
(dp4628
sg82
g4613
sg75
(lp4629
g68
(g69
g70
NtRp4630
(dp4631
g73
(dp4632
g81
I5
ssg82
g4626
sg75
(lp4633
g68
(g77
g70
NtRp4634
(dp4635
g73
(dp4636
g81
I4
ssg82
Nsg75
(lp4637
g68
(g84
g70
NtRp4638
(dp4639
g73
(dp4640
sg82
g4634
sg75
(lp4641
g68
(g89
g70
NtRp4642
(dp4643
g73
(dp4644
sg82
g4638
sg75
(lp4645
g68
(g69
g70
NtRp4646
(dp4647
g73
(dp4648
g81
I4
ssg82
g4642
sg75
(lp4649
S'^\\w+\\.py$'
p4650
asbasbasbag68
(g84
g70
NtRp4651
(dp4652
g73
(dp4653
sg82
g4634
sg75
(lp4654
g68
(g89
g70
NtRp4655
(dp4656
g73
(dp4657
sg82
g4651
sg75
(lp4658
g68
(g69
g70
NtRp4659
(dp4660
g73
(dp4661
g81
I4
ssg82
g4655
sg75
(lp4662
S'^default/\\w+\\.py$'
p4663
asbasbasbag68
(g84
g70
NtRp4664
(dp4665
g73
(dp4666
sg82
g4634
sg75
(lp4667
g68
(g89
g70
NtRp4668
(dp4669
g73
(dp4670
sg82
g4664
sg75
(lp4671
g68
(g69
g70
NtRp4672
(dp4673
g73
(dp4674
g81
I4
ssg82
g4668
sg75
(lp4675
S'^default/index/\\w+\\.py$'
p4676
asbasbasbasbasbasbasbag68
(g84
g70
NtRp4677
(dp4678
g73
(dp4679
sg82
g3691
sg75
(lp4680
g68
(g89
g70
NtRp4681
(dp4682
g73
(dp4683
g93
g94
ssg82
g4677
sg75
(lp4684
S'postprocessing'
p4685
asbag68
(g89
g70
NtRp4686
(dp4687
g73
(dp4688
g100
g101
ssg82
g4677
sg75
(lp4689
S':'
asbag68
(g89
g70
NtRp4690
(dp4691
g73
(dp4692
sg82
g4677
sg75
(lp4693
g68
(g69
g70
NtRp4694
(dp4695
g73
(dp4696
g81
I5
ssg82
g4690
sg75
(lp4697
g68
(g77
g70
NtRp4698
(dp4699
g73
(dp4700
g81
I4
ssg82
Nsg75
(lp4701
sbasbasbasbag68
(g84
g70
NtRp4702
(dp4703
g73
(dp4704
sg82
g3691
sg75
(lp4705
g68
(g89
g70
NtRp4706
(dp4707
g73
(dp4708
g93
g94
ssg82
g4702
sg75
(lp4709
S'session_cookie_expires'
p4710
asbag68
(g89
g70
NtRp4711
(dp4712
g73
(dp4713
g100
g101
ssg82
g4702
sg75
(lp4714
S':'
asbag68
(g89
g70
NtRp4715
(dp4716
g73
(dp4717
sg82
g4702
sg75
(lp4718
g68
(g69
g70
NtRp4719
(dp4720
g73
(dp4721
g81
I5
ssg82
g4715
sg75
(lp4722
S'None'
p4723
asbasbasbag68
(g84
g70
NtRp4724
(dp4725
g73
(dp4726
sg82
g3691
sg75
(lp4727
g68
(g89
g70
NtRp4728
(dp4729
g73
(dp4730
g93
g94
ssg82
g4724
sg75
(lp4731
S'session_data_name'
p4732
asbag68
(g89
g70
NtRp4733
(dp4734
g73
(dp4735
g100
g101
ssg82
g4724
sg75
(lp4736
S':'
asbag68
(g89
g70
NtRp4737
(dp4738
g73
(dp4739
sg82
g4724
sg75
(lp4740
g68
(g69
g70
NtRp4741
(dp4742
g73
(dp4743
g81
I5
ssg82
g4737
sg75
(lp4744
S'session_data_dev_bootstrap_ch'
p4745
asbasbasbag68
(g84
g70
NtRp4746
(dp4747
g73
(dp4748
sg82
g3691
sg75
(lp4749
g68
(g89
g70
NtRp4750
(dp4751
g73
(dp4752
g93
g94
ssg82
g4746
sg75
(lp4753
S'session_file'
p4754
asbag68
(g89
g70
NtRp4755
(dp4756
g73
(dp4757
g100
g101
ssg82
g4746
sg75
(lp4758
S':'
asbag68
(g89
g70
NtRp4759
(dp4760
g73
(dp4761
sg82
g4746
sg75
(lp4762
g68
(g69
g70
NtRp4763
(dp4764
g73
(dp4765
g81
I5
ssg82
g4759
sg75
(lp4766
S"<open file '/home/anil/Downloads/web2py/applications/DEV_bootstrap_ch/sessions/127.0.0.1-0786449f-0f57-4893-b642-5d65efb22480', mode 'rb+' at 0xaf875b20>"
p4767
asbasbasbag68
(g84
g70
NtRp4768
(dp4769
g73
(dp4770
sg82
g3691
sg75
(lp4771
g68
(g89
g70
NtRp4772
(dp4773
g73
(dp4774
g93
g94
ssg82
g4768
sg75
(lp4775
S'session_filename'
p4776
asbag68
(g89
g70
NtRp4777
(dp4778
g73
(dp4779
g100
g101
ssg82
g4768
sg75
(lp4780
S':'
asbag68
(g89
g70
NtRp4781
(dp4782
g73
(dp4783
sg82
g4768
sg75
(lp4784
g68
(g69
g70
NtRp4785
(dp4786
g73
(dp4787
g81
I5
ssg82
g4781
sg75
(lp4788
S'/home/anil/Downloads/web2py/applications/DEV_bootstrap_ch/sessions/127.0.0.1-0786449f-0f57-4893-b642-5d65efb22480'
p4789
asbasbasbag68
(g84
g70
NtRp4790
(dp4791
g73
(dp4792
sg82
g3691
sg75
(lp4793
g68
(g89
g70
NtRp4794
(dp4795
g73
(dp4796
g93
g94
ssg82
g4790
sg75
(lp4797
S'session_id'
p4798
asbag68
(g89
g70
NtRp4799
(dp4800
g73
(dp4801
g100
g101
ssg82
g4790
sg75
(lp4802
S':'
asbag68
(g89
g70
NtRp4803
(dp4804
g73
(dp4805
sg82
g4790
sg75
(lp4806
g68
(g69
g70
NtRp4807
(dp4808
g73
(dp4809
g81
I5
ssg82
g4803
sg75
(lp4810
g486
asbasbasbag68
(g84
g70
NtRp4811
(dp4812
g73
(dp4813
sg82
g3691
sg75
(lp4814
g68
(g89
g70
NtRp4815
(dp4816
g73
(dp4817
g93
g94
ssg82
g4811
sg75
(lp4818
S'session_id_name'
p4819
asbag68
(g89
g70
NtRp4820
(dp4821
g73
(dp4822
g100
g101
ssg82
g4811
sg75
(lp4823
S':'
asbag68
(g89
g70
NtRp4824
(dp4825
g73
(dp4826
sg82
g4811
sg75
(lp4827
g68
(g69
g70
NtRp4828
(dp4829
g73
(dp4830
g81
I5
ssg82
g4824
sg75
(lp4831
g3748
asbasbasbag68
(g84
g70
NtRp4832
(dp4833
g73
(dp4834
sg82
g3691
sg75
(lp4835
g68
(g89
g70
NtRp4836
(dp4837
g73
(dp4838
g93
g94
ssg82
g4832
sg75
(lp4839
S'session_locked'
p4840
asbag68
(g89
g70
NtRp4841
(dp4842
g73
(dp4843
g100
g101
ssg82
g4832
sg75
(lp4844
S':'
asbag68
(g89
g70
NtRp4845
(dp4846
g73
(dp4847
sg82
g4832
sg75
(lp4848
g68
(g69
g70
NtRp4849
(dp4850
g73
(dp4851
g81
I5
ssg82
g4845
sg75
(lp4852
g1594
asbasbasbag68
(g84
g70
NtRp4853
(dp4854
g73
(dp4855
sg82
g3691
sg75
(lp4856
g68
(g89
g70
NtRp4857
(dp4858
g73
(dp4859
g93
g94
ssg82
g4853
sg75
(lp4860
S'session_new'
p4861
asbag68
(g89
g70
NtRp4862
(dp4863
g73
(dp4864
g100
g101
ssg82
g4853
sg75
(lp4865
S':'
asbag68
(g89
g70
NtRp4866
(dp4867
g73
(dp4868
sg82
g4853
sg75
(lp4869
g68
(g69
g70
NtRp4870
(dp4871
g73
(dp4872
g81
I5
ssg82
g4866
sg75
(lp4873
g111
asbasbasbag68
(g84
g70
NtRp4874
(dp4875
g73
(dp4876
sg82
g3691
sg75
(lp4877
g68
(g89
g70
NtRp4878
(dp4879
g73
(dp4880
g93
g94
ssg82
g4874
sg75
(lp4881
S'session_storage_type'
p4882
asbag68
(g89
g70
NtRp4883
(dp4884
g73
(dp4885
g100
g101
ssg82
g4874
sg75
(lp4886
S':'
asbag68
(g89
g70
NtRp4887
(dp4888
g73
(dp4889
sg82
g4874
sg75
(lp4890
g68
(g69
g70
NtRp4891
(dp4892
g73
(dp4893
g81
I5
ssg82
g4887
sg75
(lp4894
g3025
asbasbasbag68
(g84
g70
NtRp4895
(dp4896
g73
(dp4897
sg82
g3691
sg75
(lp4898
g68
(g89
g70
NtRp4899
(dp4900
g73
(dp4901
g93
g94
ssg82
g4895
sg75
(lp4902
S'status'
p4903
asbag68
(g89
g70
NtRp4904
(dp4905
g73
(dp4906
g100
g101
ssg82
g4895
sg75
(lp4907
S':'
asbag68
(g89
g70
NtRp4908
(dp4909
g73
(dp4910
sg82
g4895
sg75
(lp4911
g68
(g69
g70
NtRp4912
(dp4913
g73
(dp4914
g81
I5
ssg82
g4908
sg75
(lp4915
S'200'
p4916
asbasbasbag68
(g84
g70
NtRp4917
(dp4918
g73
(dp4919
sg82
g3691
sg75
(lp4920
g68
(g89
g70
NtRp4921
(dp4922
g73
(dp4923
g93
g94
ssg82
g4917
sg75
(lp4924
S'subtitle'
p4925
asbag68
(g89
g70
NtRp4926
(dp4927
g73
(dp4928
g100
g101
ssg82
g4917
sg75
(lp4929
S':'
asbag68
(g89
g70
NtRp4930
(dp4931
g73
(dp4932
sg82
g4917
sg75
(lp4933
g68
(g69
g70
NtRp4934
(dp4935
g73
(dp4936
g81
I5
ssg82
g4930
sg75
(lp4937
g4311
(S's)\x00\x00\x00Computational Core for Plant Metabolomics'
tRp4938
asbasbasbag68
(g84
g70
NtRp4939
(dp4940
g73
(dp4941
sg82
g3691
sg75
(lp4942
g68
(g89
g70
NtRp4943
(dp4944
g73
(dp4945
g93
g94
ssg82
g4939
sg75
(lp4946
g3557
asbag68
(g89
g70
NtRp4947
(dp4948
g73
(dp4949
g100
g101
ssg82
g4939
sg75
(lp4950
S':'
asbag68
(g89
g70
NtRp4951
(dp4952
g73
(dp4953
sg82
g4939
sg75
(lp4954
g68
(g69
g70
NtRp4955
(dp4956
g73
(dp4957
g81
I5
ssg82
g4951
sg75
(lp4958
g133
asbasbasbag68
(g84
g70
NtRp4959
(dp4960
g73
(dp4961
sg82
g3691
sg75
(lp4962
g68
(g89
g70
NtRp4963
(dp4964
g73
(dp4965
g93
g94
ssg82
g4959
sg75
(lp4966
S'view'
p4967
asbag68
(g89
g70
NtRp4968
(dp4969
g73
(dp4970
g100
g101
ssg82
g4959
sg75
(lp4971
S':'
asbag68
(g89
g70
NtRp4972
(dp4973
g73
(dp4974
sg82
g4959
sg75
(lp4975
g68
(g69
g70
NtRp4976
(dp4977
g73
(dp4978
g81
I5
ssg82
g4972
sg75
(lp4979
S'default/index.html'
p4980
asbasbasbasbasbsS'locals'
p4981
(dp4982
g4
S"'/home/anil/Downloads/web2py/applications/DEV_bootstrap_ch/controllers/default.py'"
p4983
sg6
S"'# -*- coding: utf-8 -*-\\n# this file is released ...cals()\\n\\n\\n\\nresponse._vars=response._caller(index)\\n'"
p4984
sssS'traceback'
p4985
S'Traceback (most recent call last):\n  File "/home/anil/Downloads/web2py/gluon/restricted.py", line 211, in restricted\n    ccode = compile2(code, layer)\n  File "/home/anil/Downloads/web2py/gluon/restricted.py", line 194, in compile2\n    return compile(code.rstrip().replace(\'\\r\\n\', \'\\n\') + \'\\n\', layer, \'exec\')\n  File "/home/anil/Downloads/web2py/applications/DEV_bootstrap_ch/controllers/default.py", line 337\n    ]\n    ^\nSyntaxError: invalid syntax\n'
p4986
s.