(dp1
S'output'
p2
S"<type 'exceptions.NameError'> global name 'l' is not defined"
p3
sS'layer'
p4
S'/home/anil/bootstrap/web2py/applications/DEV_bootstrap_ch/controllers/default.py'
p5
sS'code'
p6
S'import rpy2.robjects as robjects\n# -*- coding: utf-8 -*-\n# this file is released under public domain and you can use without limitations\n\n#########################################################################\n## This is a samples controller\n## - index is the default action of any application\n## - user is required for authentication and authorization\n## - download is for downloading files uploaded in the db (does streaming)\n## - call exposes all registered services (none by default)\n#########################################################################\n\ndef index():\n    """\n    example action using the internationalization operator T and flash\n    rendered by views/default/index.html or views/generic.html\n    """\n    redirect(URL(\'default\',\'list_all_projects\'))\n    #redirect(URL(\'plugin_wiki\',\'page/home\'))\n\ndef user():\n    """\n    exposes:\n    http://..../[app]/default/user/login\n    http://..../[app]/default/user/logout\n    http://..../[app]/default/user/register\n    http://..../[app]/default/user/profile\n    http://..../[app]/default/user/retrieve_password\n    http://..../[app]/default/user/change_password\n    use @auth.requires_login()\n        @auth.requires_membership(\'group name\')\n        @auth.requires_permission(\'read\',\'table name\',record_id)\n    to decorate functions that need access control\n    """\n    return dict(form=auth())\n\ndef download():\n    """\n    allows downloading of uploaded files\n    http://..../[app]/default/download/[filename]\n    """\n    return response.download(request,db)\n\n\ndef call():\n    """\n    exposes services. for example:\n    http://..../[app]/default/call/jsonrpc\n    decorate with @services.jsonrpc the functions to expose\n    supports xml, json, xmlrpc, jsonrpc, amfrpc, rss, csv\n    """\n    return service()\n\n\ndef authenticate(uid,pid,func):   \n   result = db(db.role.user == uid)(db.role.project == pid).select(db.role.ALL)\n   myroles = [role_list[int(k.role)] for k in result]\n   is_coordinator = db(db.project.project_coordinator == uid).select(db.project.ALL)\n   if func == \'roles\':\n\tif len(is_coordinator):\n\t  error = \'\'\n\telse:\n\t   error = \'You must be a project co-ordinator to manage roles\'\n\treturn error  \n   if func == \'add_project\':\n\tif len(is_coordinator):\n\t  error = \'\'\n\telse:\n\t   error = \'\'\n        return error\n   if func == \'add_sample\':\n\tif \'experimentalist\' in myroles:\n\t  error = \'\'\n\telse:\n\t   error = \'SignUp for  "Experimentalist Role" in this project to add a sample. Use Browser back button to navigate to Project View.\'\n        return error\n   if func == \'experimentalist\':\n\tif \'experimentalist\' in myroles:\n\t  error = \'\'\n\telse:\n\t   error = \'You must be an experimentalist to add the biosource information of a sample\'\n        return error\n   if func == \'my_samples\':\n\tif  \'experimentalist\' in myroles:\n\t  error = \'\'\n\telse:\n\t   error = \'You are not authorized to view this page\'\n        return error\n\ndef basic_groups(pid):\n    """ creates the basic groups on general basis or id basis """\n    if not pid:\n        for i in role_list:\n\t   auth.add_group(i,i) \n    else:\n        pid_groups = [str(pid)+\'#\'+i for i in role_list]\n\tfor k in pid_groups:\n\t   auth.add_group(k,k)\n    return locals()\t   \n\n\ndef add_project():\n    error = authenticate(auth.user.id,\'\',\'add_project\')\n    form = SQLFORM(db.project,fields=[\'name\',\'code\',\'start_date\',\'project_description\',\'project_literature_reference\',\'project_journal_name\',\'project_publication_date\',\'project_pubmed_id\'],showid=False)\n    form.vars.project_coordinator = auth.user.id\n    if form.process().accepted:\n       response.flash =\'accepted\'\n       result = db(db.project.name == form.vars.name).select(db.project.ALL).first()\n       basic_groups(result.id)\n       db.role.insert(user=auth.user.id,project=result.id,role=6,approval_status=1,member_since=now)\n       redirect(URL(\'project_viewer\',args = form.vars.id))\n    elif form.errors:\n       response.flash = \'errors\'\n    return locals()\n\ndef remove_project():\n    response.menu = [\n    (T(\'Home\'), False, URL(\'default\',\'list_all_projects\'), [])\n    ]\n    """takes an id and removes the project """ \n    pid  = request.args(0)\n    pid_groups = [str(pid)+\'#\'+i for i in role_list]\n    for z in pid_groups:\n\tpgid = auth.id_group(z)\n\tauth.del_group(pgid)\n    del db.project[pid]\n    return locals()\n\ndef add_experiment():\n    grid = SQLFORM.grid(db.experiment)\n    return locals()\n\ndef new_affiliation():\n    form = SQLFORM(db.affiliation)\n    return locals()\n\ndef edit_project():\n    response.menu = [\n    (T(\'Home\'), False, URL(\'default\',\'list_all_projects\'), []),\n    (T(\'Project\'), False, URL(\'default\',\'project_viewer\',args=request.args),[])\n    ]\n    crud.settings.update_next = URL(\'project_viewer\',args=request.args)\n    form=crud.update(db.project,request.args(0),deletable=False)\n    return locals();\n \n@auth.requires_login()\ndef project_viewer():\n    pid = request.args[-1]\n    project=db(db.project.id==pid).select(db.project.ALL).first()\n    cord = db(db.auth_user.id==project.project_coordinator).select(db.auth_user.ALL).first()\n    \n    if authenticate(auth.user.id,\'\',\'roles\') == \'\':\n      response.menu = [\n      (T(\'Home\'), False, URL(\'default\',\'list_all_projects\'), []),\n      (T(\'Project\'), False, URL(\'default\',\'project_viewer\',args=request.args[-1]),[\n      (T(\'Grant Role\'),False,URL(\'roles\',args=project.id)),\n      (T(\'Edit Project\'),False,URL(\'edit_project\',args=project.id)),\n      (T(\'SignUP\'),False,URL(\'reg_project\',args=project.id))]\n      )\n      ]\n    else :\n      response.menu = [\n      (T(\'Home\'), False, URL(\'default\',\'list_all_projects\'), []),\n      (T(\'Project\'), False, URL(\'default\',\'project_viewer\',args=request.args[-1]),[\n      (T(\'SignUP\'),False,URL(\'reg_project\',args=project.id))]\n      )\n      ]\n      \n    if project.project_status == \'1\':\n      response.menu+= [\n      (T(\'Published Samples\'), False,URL(\'list_all_pub_samples\',args=(pid)),[])\n      ]\n    elif authenticate(auth.user.id,pid,\'add_sample\')==\'\':\n        response.menu+= [\n        (T(\'Samples\'), False,URL(\'my_samples\',args=(pid)),[\n        (T(\'My Samples\'), False,URL(\'my_samples\',args=(pid))),\n        ])\n        ]\n      \n    users=db(db.role.project==pid)(db.role.project == db.project.id)(db.role.user==db.auth_user.id).select(db.role.ALL,db.auth_user.ALL)\n    is_coordinator = \'\'\n    myroles = \'\'\n    if auth.user:\n      is_coordinator = db(db.project.id == pid)(db.project.project_coordinator == auth.user.id).select(db.project.ALL).first()\n      result = db(db.role.user == auth.user.id)(db.role.project == pid).select(db.role.ALL)\n      myroles = [role_list[int(k.role)] for k in result]\n      \n    return locals()\n\n\ndef add_sample():\n  """ creates a exp on an project basis and should continue to fill the bio source data """\n  """ available to the experimentalist """ \n  response.menu = [\n  (T(\'Home\'), False, URL(\'default\',\'list_all_projects\'), [])\n  ]\n  if \'new\' in request.args:\n   pid = request.args[-3]\n  else:\n   pid = request.args(0)\n  error = authenticate(auth.user.id,pid,\'add_sample\') \n  form = SQLFORM(db.sample,fields=[\'name\',\'code\',\'description\',\'scientific_name\'],showid=False)\n#added a field project in sample table\n#added two more fields in form insert root/replica etc and scientific name\n  if form.validate():\n      i = db.sample.insert(experimentalist=auth.user.id,name=form.vars.name,code=form.vars.code ,description=form.vars.description,experiment=pid,scientific_name=form.vars.scientific_name,working_status=1,publication_status=0)\n      response.flash = \'sample has been created\'\n      redirect(URL(\'list_all_dev_projects\',args=[\'project\',\'sample.project\',pid])) \n      # redirect to the sample creation \n  elif form.errors:\n      response.flash = \'Form has errors\'\n  return locals()\n\ndef sample_viewer():\n   response.menu = [\n   (T(\'Home\'), False, URL(\'default\',\'list_all_projects\'), [])\n   ]\n   i = request.args[-1]\n   if \'view\' in request.args: \n\tform = SQLFORM(db.sample, i,readonly =True,showid=False)\n   if \'edit\' in request.args: \n\tform = SQLFORM(db.sample, i,showid=False)\n   if form.process().accepted:\n\tresponse.flash = \'form accepted\'\n\tredirect(URL(\'list_all_dev_projects\',args = request.args[0:-3])) \n   elif form.errors:\n\tresponse.flash = \'form has errors\'\n   return dict(form=form)\n\ndef list_all_projects():\n    response.menu = [\n    (T(\'Home\'), False, URL(\'default\',\'index\'), [])\n    #(T(\'Home\'), False, URL(\'default\',\'list_all_projects\'), []),\n    #(T(\'Project\'), False, URL(\'default\',\'list_all_projects\'), [(T(\'Add Project\'),False,URL(\'default\',\'add_project\'))])\n    ]\n    form=FORM(\n              INPUT(_name=\'name\', requires=IS_NOT_EMPTY()),\n              INPUT(_type=\'submit\'))\n    form.elements(\'input[type=submit]\')[0]["_value"] = "Search"\n    if form.accepts(request,session):\n      redirect(URL(\'grid?keywords=tomato\')) \n    \n    #form=FORM(\'\',INPUT(_name=\'name\') ,INPUT(_type=\'submit\'))\n    #if form.process().accepted:\n      #redirect(URL(\'grid\')) \n    pub_projects = db(db.project.project_status == 1).select(db.project.ALL)\n    dev_projects = db(db.project.project_status == 0).select(db.project.ALL)\n    authenticated = \'no\'\n    if auth.user:\n     authenticated = authenticate(auth.user.id,\'\',\'add_project\')\n    pi = robjects.r[\'pi\']\n    return locals()\n\ndef grid():\n  # query=((db.project.project_status==0)&(db.experiment.project==db.project.id)&(db.sample.experiment==db.experiment.id)&(db.biosource.sample_name==db.sample.id))\n   query=((db.project.project_status==0)&(db.experiment.project==db.project.id)&(db.sample.experiment==db.experiment.id)&(db.sample.id==db.biosource.sample_name))\n   #query=((db.project.project_status==0))\n#   query=((db.sample.experiment==db.experiment.id)&((db.sample.id==db.biosource.sample_name)|(db.sample.id==db.plant_growth_condition.sample_name)))\n   grid = SQLFORM.grid(query)\n   return locals() \n\ndef temp():\n   q1 = (db.project.project_status ==  0)\n   q2 = (db.sample.publication_status == True)\n   ck = {}\n   fi = [db.project.name,db.project.project_coordinator,db.project.start_date,db.project.project_status,db.experiment.code,db.sample.name,db.sample.code,db.biosource.sample_name,db.plant_growth_condition.sample_name,db.treatments.sample_name,db.harvests.sample_name,db.extraction_preparation.sample_name,db.gas_chromatography.sample_name,db.liquid_chromatography.sample_name,db.mass_spectroscopy.sample_name,db.raw_data_storage_information.sample_name]\n   l1=[lambda row: A(\'View Post\',_href=URL("default","view",args=[row.id]))]\n   links={\'project\':l1}\n   grid = SQLFORM.smartgrid(db.project,ck,fields=fi,links=links,linked_tables=[\'experiment\',\'sample\',\'biosource\',\'plant_growth_condition\',\'treatments\',\'harvests\',\'extraction_preparation\',\'gas_chromatography\',\'liquid_chromatography\',\'mass_spectroscopy\',\'raw_data_storage_information\']) \n   return locals() \n\ndef list_all_pub_projects():\n    response.menu = [\n    (T(\'Home\'), False, URL(\'default\',\'list_all_projects\'), [])\n    ]\n    q1 = (db.project.project_status ==  1)\n    q2 = (db.sample.publication_status == True)\n    ck = {\'project\':q1,\'sample\':q2}\n    fi = [db.project.name,db.project.project_coordinator,db.project.start_date,db.project.project_status,db.experiment.code,db.sample.name,db.sample.code,db.sample.replica,db.biosource.sample_name,db.plant_growth_condition.sample_name,db.treatments.sample_name,db.harvests.sample_name,db.extraction_preparation.sample_name,db.gas_chromatography.sample_name,db.liquid_chromatography.sample_name,db.mass_spectroscopy.sample_name,db.raw_data_storage_information.sample_name]\n    if \'view\' in request.args or \'edit\' in request.args or \'new\' in request.args:\n    \trouter(request.args)\n    grid = SQLFORM.smartgrid(db.project,ck,fields=fi,editable=False,deletable=False,create = False,linked_tables=[\'experiment\',\'sample\',\'biosource\',\'plant_growth_condition\',\'treatments\',\'harvests\',\'extraction_preparation\',\'gas_chromatography\',\'liquid_chromatography\',\'mass_spectroscopy\',\'raw_data_storage_information\']) \n    \n    return locals()\n\ndef list_all_dev_projects():\n    response.menu = [\n    (T(\'Home\'), False, URL(\'default\',\'list_all_projects\'), [])\n    ]\n    db.sample.experimentalist.default=auth.user.id\n    db.sample.experiment.writable = False\n    q1 = (db.project.project_status ==  0)\n    q2 = (db.sample.experimentalist == auth.user.id)\n    ck = {\'project\':q1,\'sample\':q2}\n    fi = [db.project.name,db.project.project_coordinator,db.project.start_date,db.project.project_status,db.experiment.code,db.sample.name,db.sample.code,db.sample.replica,db.sample.publication_status,db.biosource.sample_name,db.plant_growth_condition.sample_name,db.treatments.sample_name,db.harvests.sample_name,db.extraction_preparation.sample_name,db.gas_chromatography.sample_name,db.liquid_chromatography.sample_name,db.mass_spectroscopy.sample_name,db.spectrophotometry.sample_name,db.raw_data_storage_information.sample_name]\n    edit_dict = {\'project\':False}\n    delete_dict = {\'project\':False}\n#Allow only one original sample to be added in an experiment others are replicates\n    addsample = True\n    if \'sample\' in request.args and \'new\' in request.args:\n         count = db(db.sample.experiment==request.args[-3]).count()\n         if(count>0):\n           db.sample.replica.default = \'replicate\'\n           db.sample.replica.requires=IS_IN_SET([\'replicate\',\'alicot\'])\n         else:\n           db.sample.replica.default = \'Original\'\n           db.sample.replica.writable = False\n           \n    create_dict = {\'project\':False,\'sample\':addsample}\n#Links for replicating samples  \n    args= request.args[1:4]\n    l1=[lambda row: A(\'copy_\'+tes(row.id),_href=URL("default","router",args=[\'project\',request.args[1],request.args[2],request.args[3],request.args[4],"biosource.sample_name",row.id,"edit","biosource",getid(row.id)])),dict(header = \'name\',body = lambda row: A(\'copy\'+tes(row.id),_href=URL("default","replicate",args=[\'project\',request.args[1],request.args[2],request.args[3],request.args[4],row.id])))]\n    links={\'sample\':l1}\n#customized Views for certain forms using router   \n    if \'view\' in request.args or \'edit\' in request.args or \'new\' in request.args:\n     \trouter(request.args)\n    s={\'sample\':lambda ids : redirect(URL(\'default\', \'mapping_multiple\', vars=dict(id=ids)))}\n    grid = SQLFORM.smartgrid(db.project,ck,fields=fi,editable=edit_dict,create=create_dict,deletable=delete_dict,links=links,linked_tables=[\'experiment\',\'sample\',\'biosource\',\'plant_growth_condition\',\'treatments\',\'harvests\',\'extraction_preparation\',\'gas_chromatography\',\'liquid_chromatography\',\'mass_spectroscopy\',\'spectrophotometry\',\'raw_data_storage_information\'],selectable = s) \n    return locals()\n\n#gets table name and rowid as input and creates another row with same details as rowid recod has\ndef tes(a):\n    if db(db.biosource.sample_name==a).count()==0:\n     return "add"\n    else:\n        return "edit"\n    return "add"\ndef getid(a):\n    row = db(db.biosource.sample_name==a).select(db.biosource.id).first()\n    if row: \n        return row.id\n    else:\n        return 0\n\ndef replicate():\n    if db(db.template.user==auth.user.id).count() == 0:\n       db.template.insert(user=auth.user.id, sample=request.args[-1])\n    else:   \n       db(db.template.user == auth.user.id).update(sample=request.args[-1])\n    redirect(URL(\'list_all_dev_projects\',args=request.args[0:-1]))\n    #Unique fields take care\n    #product.update(sampleid=\'temp\')\n    return() \n\ndef my_samples():\n    response.menu = [\n    (T(\'Home\'), False, URL(\'default\',\'list_all_projects\'), [])\n    ]\n    """ all my samples in the project with permissions to edit delete publish/unpublish samples """\n    error = authenticate(auth.user.id,request.args(0),\'add_sample\') \n    l =  [\'project\',\'experiment.project\',request.args(0)]\n    if error == \'\':\n      redirect(URL(\'list_all_dev_projects\',args=l))\n    return locals()\n\ndef list_all_samples1():\n    proj_id = request.args(0)\n    pub_samples = db((db.sample.working_status == 1)&(db.sample.project == proj_id)).select(db.sample.ALL)\n    dev_samples = db((db.sample.working_status == 0)&(db.sample.project == proj_id)).select(db.sample.ALL)\n    return locals()\n\ndef view_published_samples():\n    proj_id = request.args(0)\n    return locals() \n\ndef router():\n    if \'biosource\' in l:\n      redirect(URL(\'insert_biosource\',args = l))\n    elif \'plant_growth_condition\' in l:\n      redirect(URL(\'insert_pgc\',args = l))\n    elif \'treatments\' in l:\n      redirect(URL(\'insert_treatments\',args = l))\n    elif \'harvests\' in l:\n      redirect(URL(\'insert_harvests\',args = l))\n    elif \'extraction_preparation\' in l:\n      redirect(URL(\'insert_ep\',args = l))\n    elif \'gas_chromatography\' in l:\n        redirect(URL(\'insert_gc\',args = l))\n    elif \'liquid_chromatography\' in l:\n        redirect(URL(\'insert_lc\',args = l))\n    elif \'mass_spectroscopy\' in l:\n        redirect(URL(\'insert_ms\',args = l))\n    elif \'raw_data_storage_information\' in l:\n          redirect(URL(\'insert_raw_data\',args = l))\n    elif \'sample\' in l and \'view\' in l:\t\t\n        redirect(URL(\'sample\',args=l))\n    else:\n        return()\n\n\'\'\'\telif \'sample\' in l and \'new\' in l:\t\t\n\t  redirect(URL(\'add_sample\',args = l))\n\telif \'sample\' in l:\t\t\n\t  redirect(URL(\'sample_viewer\',args = l))\n\telif \'project\' in l:\n\t  redirect(URL(\'project_viewer\',args=l))\n\telse : \n\t  redirect(URL(\'index\'))\'\'\'\n\ndef list_all_pub_samples():\n#    proj_id = request.args(0)\n#    pub = request.args(1) # if pub == 1 show published samples otherwise non published samples\n#   pub_query = (db.sample.working_status == 1 and db.sample.project == proj_id)\n#   unpub_query = (db.sample.working_status == 0 and db.sample.project == proj_id)\n#   pquery_dict = {\'sample\':pub_query}\n#   nquery_dict = {\'sample\':unpub_query}\n#    if \'view\' in request.args or \'edit\' in request.args or \'new\' in request.args:\n#       router(request.args)\n#    if \'view\' in request.args or \'edit\' in request.args or \'new\' in request.args:\n#     \trouter(request.args)\n    \n    """an argument to display published and non-published samples"""\n    """ request.args(0) - project  , request.args(1) published"""\n\n    redirect(URL(\'list_all_pub_projects\',args=[\'project\',\'experiment.project\',request.args(0)]))\n    \ndef list_all_dev_samples():\n   \n    redirect(URL(\'list_all_dev_projects\',args=[\'project\',\'sample.project\',request.args(0)]))\n    return locals()\n\ndef ajx_role():\n    """ an ajax call back which takes care of insert , update and delete in the roles table """\n    rid = request.args(1)\n    if request.args(0) == \'accept\':\n       row = db(db.role.id == rid).update(approval_status = 1)\n       result = db(db.role.id == rid).select(db.role.ALL).first()\n       gid = auth.id_group(role_list[int(result.role)])\n       auth.add_membership(gid,result.user)\n    if request.args(0) == \'unblock\':\n       del db.role[rid] \n    if request.args(0) == \'block\':\n       row = db(db.role.id == rid).update(approval_status = 2)\n    if request.args(0) == \'delete\' or request.args(0) == \'deny\':\n       result = db(db.role.id == rid).select(db.role.ALL).first()\n       gid = auth.id_group(role_list[int(result.role)])\n       auth.del_membership(gid,result.user)\n       del db.role[rid] \n    return locals()\n\ndef reg_project():\n    response.menu = [\n    (T(\'Home\'), False, URL(\'default\',\'list_all_projects\'), []),\n    (T(\'Project\'), False, URL(\'default\',\'project_viewer\',args=request.args),[])\n    ]\n    """ takes an id for the project and registers """\n    import datetime\n    now = datetime.datetime.now()\n    """ already requested """\n    pid = request.args(0)\n    ptitle = db(db.project.id == pid).select(db.project.ALL).first()\n    form = SQLFORM(db.role,fields=[\'role\'],showid=False)\n    if form.validate():\n       requested = db(db.role.user == auth.user.id)(db.role.project == pid)(db.role.approval_status == 0)(db.role.role==form.vars.role).count()\n       if requested == 0: \n        db.role.insert(user=auth.user.id,approval_status=0,project=pid,member_since=now,role=form.vars.role)\n        response.flash = \'accepted\'\n       else:\n        response.flash = \'You already hold the applied role\' \n    return locals() \n\ndef ajx_publish():\n    """ an ajax call back which takes care of publication status """\n    eid = request.args(1)\n    if request.args(0) == \'publish\':\n     row = db(db.project.id == eid).update(project_status = "1")\n    elif request.args(0) == \'unpublish\':\n     row = db(db.project.id == eid).update(project_status = "0")\n    redirect(URL(\'project_viewer\',args = eid))\n    return locals() \n\ndef roles():\n    response.menu = [\n    (T(\'Home\'), False, URL(\'default\',\'list_all_projects\'), []),\n    (T(\'Project\'), False, URL(\'default\',\'project_viewer\',args=request.args),[])\n    ]\n    """ complete interface for managing roles for a particular project"""\n    """ should be accessible to only project co-ordinators """\n    pid = request.args(0)\n    error = authenticate(auth.user.id,pid,\'roles\')\n    accepted = db(db.auth_user.id == db.role.user)(db.role.approval_status == 1)(db.role.project == pid).select(db.role.ALL,db.auth_user.ALL)\n    pending = db(db.auth_user.id == db.role.user)(db.role.approval_status == 0)(db.role.project == pid).select(db.role.ALL,db.auth_user.ALL)\n    blocked = db(db.auth_user.id == db.role.user)(db.role.approval_status == 2)(db.role.project == pid).select(db.role.ALL,db.auth_user.ALL)\n    return locals()\n   \ndef home_page():\n    """ home page for a user , shows list of projects he is working on and his past work """\n    uid = request.args(0)\n    #my roles \n    \n    roles = db(db.role.user == uid)(db.role.project == db.project.id).select(db.role.ALL,db.project.name) \n    myroles = [role_list[int(p.role.role)] for p in roles]\n    k = {}\n    """\n    is_coordinator = db(db.project.project_coordinator==uid).select(db.project.ALL)\n    coordinating_projects = [row.name for row in is_coordinator]\n    value=\'\'\n    for p in coordinating_projects:\n       value = value + \',\'+ p\n\t  \n    k[6] = value[1:] """\n    for row in roles:\n       if row.role.role not in k:\n          k[row.role.role] = row.project.name\n       else:\n          k[row.role.role] = k[row.role.role] + \',\' + row.project.name\n    com_exps = db(db.sample.working_status == 1)(db.sample.experimentalist == uid)(db.sample.project == db.project.id).select(db.sample.ALL,db.project.id,db.project.name,orderby=db.sample.code)\n    incom_exps = db(db.sample.working_status == 1)(db.sample.experimentalist == uid)(db.sample.project == db.project.id).select(db.sample.ALL,db.project.id,db.project.name,orderby=db.sample.code)\n    pub_exps = db(db.sample.working_status == 0)(db.sample.publication_status == True)(db.sample.experimentalist == uid)(db.sample.project == db.project.id).select(db.sample.ALL,db.project.id,db.project.name,orderby=db.sample.code)\n    unpub_exps = db(db.sample.working_status == 0)(db.sample.publication_status == False) (db.sample.experimentalist == uid)(db.sample.project == db.project.id).select(db.sample.ALL,db.project.id,db.project.name,orderby=db.sample.code)\n    for p in k:\n       list_projects = k[p].split(\',\')\n       proj = \'\' \n       for d in list_projects:\n          res = db(db.project.name == d).select(db.project.ALL).first()\n          cat = \'\'\n          if res:\n             cat = A(res.name,_href=URL(\'project_viewer\',args=res.id))\n          if proj == \'\':\n             proj=SPAN(cat)\n          else:\n           proj = SPAN(proj,\',\',cat)\n       k[p] = proj \n    return locals()\n\ndef download():\n    return response.download(request, db)\n\ndef insert_biosource():\n#prepopulating records  \n   if \'clear\' not in request.args:    \n    trows = db(db.template.user==auth.user.id).select()\n    count = db(db.template.user==auth.user.id).count()\n    if count > 0:\n     rows = db(db.biosource.sample_name==trows[0].sample).select()\n     count1 = db(db.biosource.sample_name==trows[0].sample).count()\n     if count1 > 0:\n      row = rows[0]\n      for fieldname in db.biosource.fields:\n       if fieldname!=\'id\': \n        db.biosource[fieldname].default=row[fieldname]\n   else : \n    request.args.pop()\n   #result = db(db.sample.id == request.args[-3]).select(db.sample.ALL).first()\n#  error = authenticate(auth.user.id,result.project,\'insert_biosource\')\n   response.menu = [\n   (T(\'Home\'), False, URL(\'default\',\'list_all_projects\'), [])\n   ]\n   redirect_args = request.args[0:-3]\n   form = SQLFORM(db.biosource)\n   if \'view\' in request.args: \n\t       form=SQLFORM(db.biosource,request.args[-1],readonly = True,showid=False)\t  \n   elif \'edit\' in request.args: \n\t       form=SQLFORM(db.biosource,request.args[-1],showid=False)\n   elif \'new\' in request.args:\n               db.biosource.sample_name.readable = False \n               hid = {}   \n\t       form=SQLFORM(db.biosource,showid=False)\n\t       form.vars.sample_name = request.args[-3]\n \t       redirect_args = request.args[0:-4]\n   i=1\n   f1=form[0][:i+2]\n   fs1=form[0][i+2:i+7]\n   f2=form[0][i+7:]\n   form[0]=TABLE(TABLE(f1),\n      FIELDSET(TAG.legend("Genotype"),TABLE(fs1)),TABLE(f2))\n   if form.process().accepted:\n     redirect(URL(\'list_all_dev_projects\',args=redirect_args)) \n     response.flash="Inserted entry"\n   return locals()\n\ndef insert_pgc():\n#prepopulating records  \n  trows = db(db.template.user==auth.user.id).select()\n  count = db(db.template.user==auth.user.id).count()\n  if count > 0:\n    rows = db(db.plant_growth_condition.sample_name==trows[0].sample).select()\n    count1 = db(db.plant_growth_condition.sample_name==trows[0].sample).count()\n    if count1 > 0:\n     row = rows[0]\n     for fieldname in db.plant_growth_condition.fields:\n      if fieldname!=\'id\': \n       db.plant_growth_condition[fieldname].default=row[fieldname]\n  #result = db(db.sample.id == request.args[-1]).select(db.sample.ALL).first()\n  response.menu = [\n  (T(\'Home\'), False, URL(\'default\',\'list_all_projects\'), [])\n  ]\n  redirect_args = request.args[0:-3]\t \n  form = SQLFORM(db.plant_growth_condition) \n  if \'view\' in request.args: \n\tform=SQLFORM(db.plant_growth_condition,request.args[-1],readonly = True,upload=URL(\'download\'),showid=False)\n  elif \'edit\' in request.args: \n\tform=SQLFORM(db.plant_growth_condition,request.args[-1],upload=URL(\'download\'),showid=False)\n  elif \'new\' in request.args:\n        db.plant_growth_condition.sample_name.readable = False \n\tform=SQLFORM(db.plant_growth_condition,showid=False)\n        form.vars.sample_name = request.args[-3]\n\tredirect_args = request.args[0:-2]\t \n  i=1\n  fs1=form[0][:i+5]\n  fss1=form[0][i+5:i+9]\n  fss2=form[0][i+9:i+10]\n  fss3=form[0][i+10:i+15]\n  f2=form[0][i+15:i+18]\n  fs2=form[0][i+18:i+21]\n  fs3=form[0][i+21:i+27]\n  f3=form[0][i+27:]\n  t2=TABLE(FIELDSET(TAG.legend("Growth Support"),TABLE(fs1)))\n  t3=TABLE(FIELDSET(TAG.legend("Location"),TABLE(FIELDSET(TAG.legend("Field trail"),TABLE(fss1))),TABLE(fss2),TABLE(FIELDSET(TAG.legend("Green house"),TABLE(fss3)))))\n  t4=TABLE(FIELDSET(TAG.legend("Nutritional Regime"),TABLE(fs2)))\n  t5=TABLE(FIELDSET(TAG.legend("Date of Plant Establishment(YYYY-MM-DD)"),TABLE(fs3)))\n  form[0]=TABLE(FIELDSET(t2,t3,TABLE(f2),t4,t5,TABLE(f3)))\n  if form.process().accepted:\n    redirect(URL(\'list_all_dev_projects\',args=redirect_args)) \n    response.flash="form accepted"\n# redirect(URL(\'list_all_samples\',args=[\'sample\'])) \n  else:\n    response.flsh="form has some errors"\n  return locals()\n\ndef insert_ep():\n#prepopulating records  \n  trows = db(db.template.user==auth.user.id).select()\n  count = db(db.template.user==auth.user.id).count()\n  if count > 0:\n    rows = db(db.extraction_preparation.sample_name==trows[0].sample).select()\n    count1 = db(db.extraction_preparation.sample_name==trows[0].sample).count()\n    if count1 > 0:\n     row = rows[0]\n     for fieldname in db.extraction_preparation.fields:\n      if fieldname!=\'id\': \n       db.extraction_preparation[fieldname].default=row[fieldname]\n  #result = db(db.sample.id == request.args[-1]).select(db.sample.ALL).first()\n  response.menu = [\n  (T(\'Home\'), False, URL(\'default\',\'list_all_projects\'), [])\n  ]\n  redirect_args = request.args[0:-3]\t \n  if \'view\' in request.args: \n       form=SQLFORM(db.extraction_preparation,request.args[-1],readonly = True,upload=URL(\'download\'),showid=False)\n  if \'edit\' in request.args: \n       form=SQLFORM(db.extraction_preparation,request.args[-1],upload=URL(\'download\'),showid=False)\n  if \'new\' in request.args:\n       db.extraction_preparation.sample_name.readable=False\n       form=SQLFORM(db.extraction_preparation,showid=False)\n       form.vars.sample_name = request.args[-3]\n       redirect_args = request.args[0:-2]\t \n  i=1\n  t1=TABLE(FIELDSET(TAG.legend("SAMPLE EXTRACTION"),TABLE(form[0][:i+8]),TABLE(FIELDSET(TAG.legend("Extract Storage:"),TABLE(form[0][i+8:i+12])))))\n  t2=TABLE(FIELDSET(TAG.legend("SAMPLE PREPARATION"),TABLE(form[0][i+12:])))\n  form[0]=TABLE(FIELDSET(t1,t2))\n  if form.process().accepted:\n       response.flash="Inserted entry"\n       redirect(URL(\'list_all_dev_projects\',args=redirect_args)) \n  return locals()\n\ndef insert_treatments():\n#prepopulating records  \n  trows = db(db.template.user==auth.user.id).select()\n  count = db(db.template.user==auth.user.id).count()\n  if count > 0:\n    rows = db(db.treatments.sample_name==trows[0].sample).select()\n    count1 = db(db.treatments.sample_name==trows[0].sample).count()\n    if count1 > 0:\n     row = rows[0]\n     for fieldname in db.treatments.fields:\n      if fieldname!=\'id\': \n       db.treatments[fieldname].default=row[fieldname]\n  #result = db(db.sample.id == request.args[-1]).select(db.sample.ALL).first()\n  response.menu = [\n  (T(\'Home\'), False, URL(\'default\',\'list_all_projects\'), [])\n  ]\n  redirect_args = request.args[0:-3]\t \n  if \'view\' in request.args: \n       form=SQLFORM(db.treatments,request.args[-1],readonly = True,upload=URL(\'download\'),showid=False)\n  if \'edit\' in request.args: \n       form=SQLFORM(db.treatments,request.args[-1],upload=URL(\'download\'),showid=False)\n  if \'new\' in request.args:\n       db.treatments.sample_name.readable=False\n       form=SQLFORM(db.treatments,showid=False)\n       form.vars.sample_name = request.args[-3] \n       redirect_args = request.args[0:-2]\t \n  i=1\n  t1=TABLE(FIELDSET(TAG.legend("Treatment Factor"),TABLE(form[0][:i+3])))\n  form[0]=TABLE(FIELDSET(t1,TABLE(form[0][i+3:])))\n  if form.process().accepted:\n      response.flash="Inserted entry"\n      redirect(URL(\'list_all_dev_projects\',args=redirect_args)) \n  return locals()\n\ndef insert_harvests():\n#prepopulating records  \n  trows = db(db.template.user==auth.user.id).select()\n  count = db(db.template.user==auth.user.id).count()\n  if count > 0:\n    rows = db(db.harvests.sample_name==trows[0].sample).select()\n    count1 = db(db.harvests.sample_name==trows[0].sample).count()\n    if count1 > 0:\n     row = rows[0]\n     for fieldname in db.harvests.fields:\n      if fieldname!=\'id\': \n       db.harvests[fieldname].default=row[fieldname]\n  #result = db(db.sample.id == request.args[-1]).select(db.sample.ALL).first()\n  response.menu = [\n  (T(\'Home\'), False, URL(\'default\',\'list_all_projects\'), [])\n  ]\n  redirect_args = request.args[0:-3]\t \n  if \'view\' in request.args: \n       form=SQLFORM(db.harvests,request.args[-1],readonly = True,upload=URL(\'download\'),showid=False)\n  if \'edit\' in request.args: \n       form=SQLFORM(db.harvests,request.args[-1],upload=URL(\'download\'),showid=False)\n  if \'new\' in request.args:\n       db.harvests.sample_name.readable=False\n       form=SQLFORM(db.harvests,showid=False)\n       form.vars.sample_name = request.args[-3]\n       redirect_args = request.args[0:-2]\n  i=1\t \n  t1=TABLE(FIELDSET(TAG.legend("Sample Storage"),TABLE(form[0][i+7:])))\n  form[0]=TABLE(FIELDSET(TABLE(form[0][:i+7]),t1))\n  if form.process().accepted:\n      response.flash="Inserted entry"\n      redirect(URL(\'list_all_dev_projects\',args=redirect_args)) \n  return locals()\n\t  \t\ndef insert_gc():\n#prepopulating records  \n  trows = db(db.template.user==auth.user.id).select()\n  count = db(db.template.user==auth.user.id).count()\n  if count > 0:\n    rows = db(db.gas_chromatography.sample_name==trows[0].sample).select()\n    count1 = db(db.gas_chromatography.sample_name==trows[0].sample).count()\n    if count1 > 0:\n     row = rows[0]\n     for fieldname in db.gas_chromatography.fields:\n      if fieldname!=\'id\': \n       db.gas_chromatography[fieldname].default=row[fieldname]\n  #result = db(db.sample.id == request.args[-1]).select(db.sample.ALL).first()\n  response.menu = [\n  (T(\'Home\'), False, URL(\'default\',\'list_all_projects\'), [])\n  ]\n  redirect_args = request.args[0:-3]\t \n  if \'view\' in request.args: \n\tform=SQLFORM(db.gas_chromatography,request.args[-1],readonly = True,pload=URL(\'download\'),showid=False)\n  elif \'edit\' in request.args: \n        form=SQLFORM(db.gas_chromatography,request.args[-1],upload=URL(\'download\'),showid=False)\n  elif \'new\' in request.args:\n        db.gas_chromatography.sample_name.readable=False\n        redirect_args = request.args[0:-2]\t \n        form=SQLFORM(db.gas_chromatography,showid=False)\n        form.vars.sample_name = request.args[-3]\n  j=1\n  t_ep_1=TABLE(FIELDSET(TAG.legend("SAMPLE EXTRACTION"),TABLE(form[0][:j+7]),TABLE(FIELDSET(TAG.legend("Extract Storage:"),TABLE(form[0][j+7:j+11])))))\n  t_ep_2=TABLE(FIELDSET(TAG.legend("SAMPLE PREPARATION"),TABLE(form[0][j+11:15])))\n  i=15\n  t1=TABLE(FIELDSET(TAG.legend("CHROMATOGRAPHY INSTRUMENTAL"),TABLE(form[0][15:i+4])))\n  t2=TABLE(FIELDSET(TAG.legend("DERIVATIZATION"),TABLE(form[0][i+4:i+8])))\n  t3=TABLE(FIELDSET(TAG.legend("AUTO-INJECTOR DETAILS"),TABLE(form[0][i+8:i+15])))\n  t4=TABLE(FIELDSET(TAG.legend("SEPERATION COLUMN AND PRE/GUARD COLUMN"),TABLE(form[0][i+15:i+23])))\n  t5=TABLE(FIELDSET(TAG.legend("SEPERATION PARAMETERS"),TABLE(form[0][i+23:i+30])))\n  t6=TABLE(FIELDSET(TAG.legend("QUALITY CONTROL"),TABLE(form[0][i+30:i+33]),TABLE(FIELDSET(TAG.legend("Cycle per"),TABLE(form[0][i+33:i+37])))))\n  t7=TABLE(FIELDSET(TAG.legend("DATA ACQUISITION"),TABLE(form[0][i+37:])))\n  form[0]=TABLE(FIELDSET(t_ep_1,t_ep_2,t1,t2,t3,t4,t5,t6,t7))\n  if form.process().accepted:\n\tresponse.flash="Inserted entry"\n\tredirect(URL(\'list_all_dev_projects\',args=redirect_args)) \n#       redirect(URL(\'list_all_samples\',args=[\'sample\'])) \n  return locals()\n\ndef insert_lc():\n#prepopulating records  \n  trows = db(db.template.user==auth.user.id).select()\n  count = db(db.template.user==auth.user.id).count()\n  if count > 0:\n    rows = db(db.liquid_chromatography.sample_name==trows[0].sample).select()\n    count1 = db(db.liquid_chromatography.sample_name==trows[0].sample).count()\n    if count1 > 0:\n     row = rows[0]\n     for fieldname in db.liquid_chromatography.fields:\n      if fieldname!=\'id\': \n       db.liquid_chromatography[fieldname].default=row[fieldname]\n  #result = db(db.sample.id == request.args[-1]).select(db.sample.ALL).first()\n  response.menu = [\n  (T(\'Home\'), False, URL(\'default\',\'list_all_projects\'), [])\n  ]\n  redirect_args = request.args[0:-3]\t \n  form = SQLFORM(db.liquid_chromatography)\n  if \'view\' in request.args: \n      form=SQLFORM(db.liquid_chromatography,request.args[-1],readonly = True,upload=URL(\'download\'),showid=False)\n  if \'edit\' in request.args: \n      form=SQLFORM(db.liquid_chromatography,request.args[-1],upload=URL(\'download\'),showid=False)\n  if \'new\' in request.args:\n      db.liquid_chromatography.sample_name.readable=False\n      redirect_args = request.args[0:-2]\t \n      form=SQLFORM(db.liquid_chromatography,showid=False)\n      form.vars.sample_name = request.args[-3] \n  j=1\n  t_ep_1=TABLE(FIELDSET(TAG.legend("SAMPLE EXTRACTION"),TABLE(form[0][:j+7]),TABLE(FIELDSET(TAG.legend("Extract Storage:"),TABLE(form[0][j+7:j+11])))))\n  t_ep_2=TABLE(FIELDSET(TAG.legend("SAMPLE PREPARATION"),TABLE(form[0][j+11:15])))\n  i=15\n  t1=TABLE(FIELDSET(TAG.legend("CHROMATOGRAPHY INSTRUMENTAL"),TABLE(form[0][15:i+4])))\n  t3=TABLE(FIELDSET(TAG.legend("AUTO-INJECTOR DETAILS"),TABLE(form[0][i+4:i+11])))\n  t4=TABLE(FIELDSET(TAG.legend("SEPERATION COLUMN AND PRE/GUARD COLUMN"),TABLE(form[0][i+11:i+19])))\n  t5=TABLE(FIELDSET(TAG.legend("SEPERATION PARAMETERS"),TABLE(form[0][i+19:i+26])))\n  t6=TABLE(FIELDSET(TAG.legend("QUALITY CONTROL"),TABLE(form[0][i+26:i+29]),TABLE(FIELDSET(TAG.legend("Cycle per"),TABLE(form[0][i+29:i+33])))))\n  t7=TABLE(FIELDSET(TAG.legend("DATA ACQUISITION"),TABLE(form[0][i+33:])))\n  form[0]=TABLE(FIELDSET(t_ep_1,t_ep_2,t1,t3,t4,t5,t6,t7))\n  if form.process().accepted:\n      response.flash="Inserted entry"\n      redirect(URL(\'list_all_dev_projects\',args=redirect_args)) \n#     redirect(URL(\'list_all_samples\',args=[\'sample\'])) \n  return locals()\n\ndef insert_ms():\n#prepopulating records  \n  trows = db(db.template.user==auth.user.id).select()\n  count = db(db.template.user==auth.user.id).count()\n  if count > 0:\n    rows = db(db.mass_spectroscopy.sample_name==trows[0].sample).select()\n    count1 = db(db.mass_spectroscopy.sample_name==trows[0].sample).count()\n    if count1 > 0:\n     row = rows[0]\n     for fieldname in db.mass_spectroscopy.fields:\n      if fieldname!=\'id\': \n       db.mass_spectroscopy[fieldname].default=row[fieldname]\n  #result = db(db.sample.id == request.args[-1]).select(db.sample.ALL).first()\n  response.menu = [\n  (T(\'Home\'), False, URL(\'default\',\'list_all_projects\'), [])\n  ]\n  redirect_args = request.args[0:-3]\t \n  if \'view\' in request.args: \n    form=SQLFORM(db.mass_spectroscopy,request.args[-1],readonly = True,upload=URL(\'download\'),showid=False)\n  elif \'edit\' in request.args: \n    form=SQLFORM(db.mass_spectroscopy,request.args[-1],upload=URL(\'download\'),showid=False)\n  elif \'new\' in request.args:\n    db.mass_spectroscopy.sample_name.readable=False\n    redirect_args = request.args[0:-2]\t \n    form=SQLFORM(db.mass_spectroscopy,showid=False)\n    form.vars.sample_name = request.args[-3]\n  i=1\n  t1=TABLE(FIELDSET(TAG.legend("INSTRUMENTAL DETAILS"),TABLE(form[0][:i+4])))\n  t2=TABLE(FIELDSET(TAG.legend("IONISATION SOURCE"),TABLE(form[0][i+4:i+10])))\n  t3=TABLE(FIELDSET(TAG.legend("MASS ANALYZER"),TABLE(form[0][i+10:i+18]),TABLE(FIELDSET(TAG.legend("Lock spray"),TABLE(form[0][i+18:i+22]))),TABLE(form[0][i+22:i+23])))\n  t4=TABLE(FIELDSET(TAG.legend("QUALITY CONTROL"),TABLE(form[0][i+23:i+27])))\n  t5=TABLE(FIELDSET(TAG.legend("DATA ACQUISITION"),TABLE(form[0][i+27:])))\n  form[0]=TABLE(FIELDSET(t1,t2,t3,t4,t5))\n  if form.process().accepted:\n      \tresponse.flash="Inserted entry"\n        redirect(URL(\'list_all_dev_projects\',args=redirect_args)) \n#     \tredirect(URL(\'list_all_samples\'),args=[\'sample\']) \n  return locals()\n\ndef insert_raw_data():\n#prepopulating records  \n  trows = db(db.template.user==auth.user.id).select()\n  count = db(db.template.user==auth.user.id).count()\n  if count > 0:\n    rows = db(db.raw_data_storage_information.sample_name==trows[0].sample).select()\n    count1 = db(db.raw_data_storage_information.sample_name==trows[0].sample).count()\n    if count1 > 0:\n     row = rows[0]\n     for fieldname in db.raw_data_storage_information.fields:\n      if fieldname!=\'id\': \n       db.raw_data_storage_information[fieldname].default=row[fieldname]\n  response.menu = [\n  (T(\'Home\'), False, URL(\'default\',\'list_all_projects\'), [])\n  ]\n  redirect_args = request.args[0:-3]\t \n  if \'view\' in request.args: \n    form=SQLFORM(db.raw_data_storage_information,request.args[-1],readonly = True,upload=URL(\'download\'),showid=False)\n  elif \'edit\' in request.args: \n    form=SQLFORM(db.raw_data_storage_information,request.args[-1],upload=URL(\'download\'),showid=False)\n  elif \'new\' in request.args:\n    db.raw_data_storage_information.sample_name.readable=False\n    redirect_args = request.args[0:-2]\t \n    form=SQLFORM(db.raw_data_storage_information,showid=False)\n    form.vars.sample_name = request.args[-3]\n    form.vars.email_id_of_person=auth.user.email \n  if form.process().accepted:\n      \tresponse.flash="Inserted entry"\n        redirect(URL(\'list_all_dev_projects\',args=redirect_args)) \n#     \tredirect(URL(\'list_all_samples\'),args=[\'sample\']) \n  return locals()\n\ndef insert_spectrophotometry():\n#prepopulating records  \n  trows = db(db.template.user==auth.user.id).select()\n  count = db(db.template.user==auth.user.id).count()\n  if count > 0:\n    rows = db(db.spectrophotometry.sample_name==trows[0].sample).select()\n    count1 = db(db.spectrophotometry.sample_name==trows[0].sample).count()\n    if count1 > 0:\n     row = rows[0]\n     for fieldname in db.spectrophotometry.fields:\n      if fieldname!=\'id\': \n       db.spectrophotometry[fieldname].default=row[fieldname]\n  response.menu = [\n  (T(\'Home\'), False, URL(\'default\',\'list_all_projects\'), [])\n  ]\n  redirect_args = request.args[0:-3]\t \n  if \'view\' in request.args: \n    form=SQLFORM(db.spectrophotometry,request.args[-1],readonly = True,upload=URL(\'download\'),showid=False)\n  elif \'edit\' in request.args: \n    form=SQLFORM(db.spectrophotometry,request.args[-1],upload=URL(\'download\'),showid=False)\n  elif \'new\' in request.args:\n    db.spectrophotometry.sample_name.readable=False\n    redirect_args = request.args[0:-2]\t \n    form=SQLFORM(db.spectrophotometry,showid=False)\n    form.vars.sample_name = request.args[-3]\n  if form.process().accepted:\n      \tresponse.flash="Inserted entry"\n        redirect(URL(\'list_all_dev_projects\',args=redirect_args)) \n#     \tredirect(URL(\'list_all_samples\'),args=[\'sample\']) \n  return locals()\n\n\n@auth.requires_signature()\ndef data():\n    """\n    http://..../[app]/default/data/tables\n    http://..../[app]/default/data/create/[table]\n    http://..../[app]/default/data/read/[table]/[id]\n    http://..../[app]/default/data/update/[table]/[id]\n    http://..../[app]/default/data/delete/[table]/[id]\n    http://..../[app]/default/data/select/[table]\n    http://..../[app]/default/data/search/[table]\n    but URLs must be signed, i.e. linked with\n      A(\'table\',_href=URL(\'data/tables\',user_signature=True))\n    or with the signed load operator\n      LOAD(\'default\',\'data.load\',args=\'tables\',ajax=True,user_signature=True)\n    """\n    return dict(form=crud())\n\n#def drop_tables():\n    #are you sure you want to do this?\n    #for t in [\'auth_user\',\'auth_group\', \'auth_membership\', \'auth_permission\', \'auth_event\',\'sample\',\'biosource\',\'affiliation\',\'project\',\'role\',\'template\',\'experiment\',\'project_meta\',\'plant_growth_condition\',\'treatments\',\'harvests\',\'extraction_preparation\',\'gas_chromatography\',\'liquid_chromatography\',\'mass_spectroscopy\',\'spectrophotometry\',\'feedback\',\'sample_files\']:\n    #    db[t].drop()\n    # pass\n    #return \n\ndef show_feedback():\n    grid = SQLFORM.smartgrid(db.feedback)\n    return locals()\n\n \ndef post_feedback():\n    """ allows to post feedback to the table feedback """ \n    past_feeds = db(db.feedback.feedback_on == request.env.http_referer).select(db.feedback.feedback_body,db.feedback.id)\n    form = SQLFORM(db.feedback,fields=[\'feedback_body\'],labels={\'feedback_body\':\'Your feedback about this page\'})\n    feedback_by = \'\'\n    if form.validate():\n\tif auth.user:\n            feedback_by = auth.user.id\n        else:\n\t   feedback_by = \'\'\n\tdb.feedback.insert(feedback_on=request.env.http_referer,feedback_body=form.vars.feedback_body,feedback_by=feedback_by)\n\tresponse.flash = "feedback has been duly noted and will be taken care of "\n    return locals()\n\n\ndef user_viewer():\n   """shows the user details """\n   uid = request.args(0)\n   record = db.auth_user(uid)\n   form = SQLFORM(db.auth_user,record,readonly=True,showid=False,fields=[\'first_name\',\'last_name\',\'email\',\'affiliated_to\',\'phone\',\'mobile\',\'city\'])\n   return locals()\n\n\ndef dict_dump(obj,inp):\n  ans = \'<dl class="dl-horizontal">\'\n  for key in inp.keys():\n     add = \'<dt>\'+str(inp[key])+\'</dt>\'+\'<dd>\'+str(obj[key])+\'</dd>\'\n     ans = ans+add\n  return ans\t\n\n\ndef sample():\n  """gets all the information regarding a sample in a single page """\n  sid = request.args[-1]\n  sample = db(db.sample.id == sid).select(db.sample.ALL).first()\n  user = db(db.auth_user.id == sample.experimentalist).select(db.auth_user.ALL).first()\n  experiment = db(db.experiment.id == sample.experiment).select(db.experiment.ALL).first()\n  biosource = db(db.biosource.sample_name == sid).select(db.biosource.ALL)\n  plant_growth = db(db.plant_growth_condition.sample_name == sid).select(db.plant_growth_condition.ALL)\n  treatment = db(db.treatments.sample_name == sid).select(db.treatments.ALL)\n  harvest = db(db.harvests.sample_name == sid).select(db.harvests.ALL)\n  extraction_preparation = db(db.extraction_preparation.sample_name == sid).select(db.extraction_preparation.ALL)\n  gc = db(db.gas_chromatography.sample_name == sid).select(db.gas_chromatography.ALL)\n  lc = db(db.liquid_chromatography.sample_name == sid).select(db.liquid_chromatography.ALL)\n  ms = db(db.mass_spectroscopy.sample_name == sid).select(db.mass_spectroscopy.ALL)\n  raw_storage = db(db.raw_data_storage_information.sample_name == sid).select(db.raw_data_storage_information.ALL)\n  biosource_forms = [] #a list of forms\n  for each in biosource:\n\tform = SQLFORM(db.biosource,each.id,showid=False,readonly=True)\n\ti=1\n\tf1=form[0][:i+2]\n\tfs1=form[0][i+2:i+7]\n\tf2=form[0][i+7:]\n\tform[0]=TABLE(TABLE(f1),FIELDSET(TAG.legend("Genotype"),TABLE(fs1)),TABLE(f2))\n\tbiosource_forms.append(form[0])\n        \n  pgc_forms = []\n  for each in plant_growth:\n     form = SQLFORM(db.plant_growth_condition,each.id,showid=False,readonly=True)\n     i=1\n     fs1=form[0][:i+5]\n     fss1=form[0][i+5:i+9]\n     fss2=form[0][i+9:i+10]\n     fss3=form[0][i+10:i+15]\n     f2=form[0][i+15:i+18]\n     fs2=form[0][i+18:i+21]\n     fs3=form[0][i+21:i+27]\n     f3=form[0][i+27:]\n     t2=TABLE(FIELDSET(TAG.legend("Growth Support"),TABLE(fs1)))\n     t3=TABLE(FIELDSET(TAG.legend("Location"),TABLE(FIELDSET(TAG.legend("Field trail"),TABLE(fss1))),TABLE(fss2),TABLE(FIELDSET(TAG.legend("Green house"),TABLE(fss3)))))\n     t4=TABLE(FIELDSET(TAG.legend("Nutritional Regime"),TABLE(fs2)))\n     t5=TABLE(FIELDSET(TAG.legend("Date of Plant Establishment(YYYY-MM-DD)"),TABLE(fs3)))\n     form[0]=TABLE(FIELDSET(t2,t3,TABLE(f2),t4,t5,TABLE(f3)))\n     pgc_forms.append(form[0])\n  \n  treatment_forms = []\n  for each in treatment:\n     form = SQLFORM(db.treatments,each.id,showid=False,readonly=True)\n     i=1\n     t1=TABLE(FIELDSET(TAG.legend("Treatment Factor"),TABLE(form[0][:i+3])))\n     form[0]=TABLE(FIELDSET(t1,TABLE(form[0][i+3:])))\n\n\n  harvest_forms = []\n  for each in harvest:\n     form = SQLFORM(db.harvests,each.id,showid=False,readonly=True)\n     i=1\n     t1=TABLE(FIELDSET(TAG.legend("Sample Storage"),TABLE(form[0][i+7:])))\n     form[0]=TABLE(FIELDSET(TABLE(form[0][:i+7]),t1))\n     harvest_forms.append(form[0])\n\n  gc_forms = []\n  for each in gc:\n     form = SQLFORM(db.gas_chromatography,each.id,showid=False,readonly=True)\n     j=1\n     t_ep_1=TABLE(FIELDSET(TAG.legend("SAMPLE EXTRACTION"),TABLE(form[0][:j+7]),TABLE(FIELDSET(TAG.legend("Extract Storage:"),TABLE(form[0][j+7:j+11])))))\n     t_ep_2=TABLE(FIELDSET(TAG.legend("SAMPLE PREPARATION"),TABLE(form[0][j+11:15])))\n     i=15\n     t1=TABLE(FIELDSET(TAG.legend("CHROMATOGRAPHY INSTRUMENTAL"),TABLE(form[0][15:i+4])))\n     t2=TABLE(FIELDSET(TAG.legend("DERIVATIZATION"),TABLE(form[0][i+4:i+8])))\n     t3=TABLE(FIELDSET(TAG.legend("AUTO-INJECTOR DETAILS"),TABLE(form[0][i+8:i+15])))\n     t4=TABLE(FIELDSET(TAG.legend("SEPERATION COLUMN AND PRE/GUARD COLUMN"),TABLE(form[0][i+15:i+23])))\n     t5=TABLE(FIELDSET(TAG.legend("SEPERATION PARAMETERS"),TABLE(form[0][i+23:i+30])))\n     t6=TABLE(FIELDSET(TAG.legend("QUALITY CONTROL"),TABLE(form[0][i+30:i+33]),TABLE(FIELDSET(TAG.legend("Cycle per"),TABLE(form[0][i+33:i+37])))))\n     t7=TABLE(FIELDSET(TAG.legend("DATA ACQUISITION"),TABLE(form[0][i+37:])))\n     form[0]=TABLE(FIELDSET(t_ep_1,t_ep_2,t1,t2,t3,t4,t5,t6,t7))\n\n     gc_forms.append(form[0])\n \n  lc_forms = []\n  \n  for each in lc:\n    form = SQLFORM(db.gas_chromatography,each.id,showid=False,readonly=True)\n    j=1\n    t_ep_1=TABLE(FIELDSET(TAG.legend("SAMPLE EXTRACTION"),TABLE(form[0][:j+7]),TABLE(FIELDSET(TAG.legend("Extract Storage:"),TABLE(form[0][j+7:j+11])))))\n    t_ep_2=TABLE(FIELDSET(TAG.legend("SAMPLE PREPARATION"),TABLE(form[0][j+11:15])))\n    i=15\n    t1=TABLE(FIELDSET(TAG.legend("CHROMATOGRAPHY INSTRUMENTAL"),TABLE(form[0][15:i+4])))\n    t3=TABLE(FIELDSET(TAG.legend("AUTO-INJECTOR DETAILS"),TABLE(form[0][i+4:i+11])))\n    t4=TABLE(FIELDSET(TAG.legend("SEPERATION COLUMN AND PRE/GUARD COLUMN"),TABLE(form[0][i+11:i+19])))\n    t5=TABLE(FIELDSET(TAG.legend("SEPERATION PARAMETERS"),TABLE(form[0][i+19:i+26])))\n    t6=TABLE(FIELDSET(TAG.legend("QUALITY CONTROL"),TABLE(form[0][i+26:i+29]),TABLE(FIELDSET(TAG.legend("Cycle per"),TABLE(form[0][i+29:i+33])))))\n    t7=TABLE(FIELDSET(TAG.legend("DATA ACQUISITION"),TABLE(form[0][i+33:])))\n    form[0]=TABLE(FIELDSET(t_ep_1,t_ep_2,t1,t3,t4,t5,t6,t7))\n    lc_forms.append(form[0])\n \n  ms_forms = []\n  for each in ms:\n    form = SQLFORM(db.mass_spectroscopy,each.id,showid=False,readonly=True)\n    i=1\n    t1=TABLE(FIELDSET(TAG.legend("INSTRUMENTAL DETAILS"),TABLE(form[0][:i+4])))\n    t2=TABLE(FIELDSET(TAG.legend("IONISATION SOURCE"),TABLE(form[0][i+4:i+10])))\n    t3=TABLE(FIELDSET(TAG.legend("MASS ANALYZER"),TABLE(form[0][i+10:i+18]),TABLE(FIELDSET(TAG.legend("Lock spray"),TABLE(form[0][i+18:i+22]))),TABLE(form[0][i+22:i+23])))\n    t4=TABLE(FIELDSET(TAG.legend("QUALITY CONTROL"),TABLE(form[0][i+23:i+27])))\n    t5=TABLE(FIELDSET(TAG.legend("DATA ACQUISITION"),TABLE(form[0][i+27:])))\n    form[0]=TABLE(FIELDSET(t1,t2,t3,t4,t5))  \n    ms_forms.append(form[0])\n\n  raw_forms = []\n  for each in raw_storage:\n     form = SQLFORM(db.raw_data_storage_information,each.id,showid=False,readonly=True)\n     raw_forms.append(form[0])\n\n\n  return locals() \n\n#def grid():\n  # query=((db.project.project_status==0)&(db.experiment.project==db.project.id)&(db.sample.experiment==db.experiment.id)&(db.biosource.sample_name==db.sample.id))\n   #query=((db.sample.project==db.project.id)&(db.project.id>0))\n   #query=((db.project.id>0)&(db.sample.project==db.project.id)&((db.sample.id==db.biosource.sample_name)&(db.sample.id==db.plant_growth_condition.sample_name)))\n#   query=((db.sample.experiment==db.experiment.id)&((db.sample.id==db.biosource.sample_name)|(db.sample.id==db.plant_growth_condition.sample_name)))\n#   grid = SQLFORM.grid(query)\n#   return locals()\n\n\ndef search():\n    form=FORM(\'Your name:\',\n              INPUT(_name=\'name\', requires=IS_NOT_EMPTY()),\n              INPUT(_type=\'submit\'))\n    if form.accepts(request,session):\n      redirect(URL(\'sample\',args=form.vars.name)) \n    return locals()\n    \ndef multiple_files():\n   """allows an experimentalist to add multiple images and files and displays it in the consolidated sample view form """\n   """ per sample . takes id of the sample as the input """\n   sid = request.args(0)\n   sample = db(db.sample.id == sid).select().first() \n   old = db(db.sample_files.sample == sid).select(db.sample_files.ALL)\n   form = SQLFORM(db.sample_files)\n   form.vars.sample = sid\n   return locals()\n\n\n\nresponse._vars=response._caller(router)\n'
p7
sS'snapshot'
p8
(dp9
S'exception'
p10
(dp11
S'__hash__'
p12
S"<method-wrapper '__hash__' of exceptions.NameError object>"
p13
sS'__setattr__'
p14
S"<method-wrapper '__setattr__' of exceptions.NameError object>"
p15
sS'__reduce_ex__'
p16
S'<built-in method __reduce_ex__ of exceptions.NameError object>'
p17
sS'__getslice__'
p18
S"<method-wrapper '__getslice__' of exceptions.NameError object>"
p19
sS'__getitem__'
p20
S"<method-wrapper '__getitem__' of exceptions.NameError object>"
p21
sS'__setstate__'
p22
S'<built-in method __setstate__ of exceptions.NameError object>'
p23
sS'__reduce__'
p24
S'<built-in method __reduce__ of exceptions.NameError object>'
p25
sS'__str__'
p26
S"<method-wrapper '__str__' of exceptions.NameError object>"
p27
sS'__format__'
p28
S'<built-in method __format__ of exceptions.NameError object>'
p29
sS'__getattribute__'
p30
S"<method-wrapper '__getattribute__' of exceptions.NameError object>"
p31
sS'__class__'
p32
S"<type 'exceptions.NameError'>"
p33
sS'__unicode__'
p34
S'<built-in method __unicode__ of exceptions.NameError object>'
p35
sS'__delattr__'
p36
S"<method-wrapper '__delattr__' of exceptions.NameError object>"
p37
sS'__subclasshook__'
p38
S'<built-in method __subclasshook__ of type object>'
p39
sS'__repr__'
p40
S"<method-wrapper '__repr__' of exceptions.NameError object>"
p41
sS'args'
p42
S'("global name \'l\' is not defined",)'
p43
sS'__dict__'
p44
S'{}'
p45
sS'__sizeof__'
p46
S'<built-in method __sizeof__ of exceptions.NameError object>'
p47
sS'__doc__'
p48
S"'Name not found globally.'"
p49
sS'__init__'
p50
S"<method-wrapper '__init__' of exceptions.NameError object>"
p51
sS'__new__'
p52
S'<built-in method __new__ of type object>'
p53
ssS'evalue'
p54
S"global name 'l' is not defined"
p55
sS'request'
p56
ccopy_reg
_reconstructor
p57
(cgluon.html
BEAUTIFY
p58
c__builtin__
object
p59
NtRp60
(dp61
S'attributes'
p62
(dp63
sS'components'
p64
(lp65
g57
(cgluon.html
TABLE
p66
g59
NtRp67
(dp68
g62
(dp69
S'level'
p70
I5
ssS'parent'
p71
Nsg64
(lp72
g57
(cgluon.html
TR
p73
g59
NtRp74
(dp75
g62
(dp76
sg71
g67
sg64
(lp77
g57
(cgluon.html
TD
p78
g59
NtRp79
(dp80
g62
(dp81
S'_style'
p82
S'font-weight:bold;vertical-align:top'
p83
ssg71
g74
sg64
(lp84
S'ajax'
p85
asbag57
(g78
g59
NtRp86
(dp87
g62
(dp88
S'_valign'
p89
S'top'
p90
ssg71
g74
sg64
(lp91
S':'
asbag57
(g78
g59
NtRp92
(dp93
g62
(dp94
sg71
g74
sg64
(lp95
g57
(g58
g59
NtRp96
(dp97
g62
(dp98
g70
I5
ssg71
g92
sg64
(lp99
S'False'
p100
asbasbasbag57
(g73
g59
NtRp101
(dp102
g62
(dp103
sg71
g67
sg64
(lp104
g57
(g78
g59
NtRp105
(dp106
g62
(dp107
g82
g83
ssg71
g101
sg64
(lp108
S'application'
p109
asbag57
(g78
g59
NtRp110
(dp111
g62
(dp112
g89
g90
ssg71
g101
sg64
(lp113
S':'
asbag57
(g78
g59
NtRp114
(dp115
g62
(dp116
sg71
g101
sg64
(lp117
g57
(g58
g59
NtRp118
(dp119
g62
(dp120
g70
I5
ssg71
g114
sg64
(lp121
S'DEV_bootstrap_ch'
p122
asbasbasbag57
(g73
g59
NtRp123
(dp124
g62
(dp125
sg71
g67
sg64
(lp126
g57
(g78
g59
NtRp127
(dp128
g62
(dp129
g82
g83
ssg71
g123
sg64
(lp130
g42
asbag57
(g78
g59
NtRp131
(dp132
g62
(dp133
g89
g90
ssg71
g123
sg64
(lp134
S':'
asbag57
(g78
g59
NtRp135
(dp136
g62
(dp137
sg71
g123
sg64
(lp138
g57
(g58
g59
NtRp139
(dp140
g62
(dp141
g70
I5
ssg71
g135
sg64
(lp142
g57
(g66
g59
NtRp143
(dp144
g62
(dp145
g70
I4
ssg71
Nsg64
(lp146
g57
(g73
g59
NtRp147
(dp148
g62
(dp149
sg71
g143
sg64
(lp150
g57
(g78
g59
NtRp151
(dp152
g62
(dp153
sg71
g147
sg64
(lp154
g57
(g58
g59
NtRp155
(dp156
g62
(dp157
g70
I4
ssg71
g151
sg64
(lp158
S'project'
p159
asbasbasbag57
(g73
g59
NtRp160
(dp161
g62
(dp162
sg71
g143
sg64
(lp163
g57
(g78
g59
NtRp164
(dp165
g62
(dp166
sg71
g160
sg64
(lp167
g57
(g58
g59
NtRp168
(dp169
g62
(dp170
g70
I4
ssg71
g164
sg64
(lp171
S'experiment.project'
p172
asbasbasbag57
(g73
g59
NtRp173
(dp174
g62
(dp175
sg71
g143
sg64
(lp176
g57
(g78
g59
NtRp177
(dp178
g62
(dp179
sg71
g173
sg64
(lp180
g57
(g58
g59
NtRp181
(dp182
g62
(dp183
g70
I4
ssg71
g177
sg64
(lp184
S'1'
asbasbasbag57
(g73
g59
NtRp185
(dp186
g62
(dp187
sg71
g143
sg64
(lp188
g57
(g78
g59
NtRp189
(dp190
g62
(dp191
sg71
g185
sg64
(lp192
g57
(g58
g59
NtRp193
(dp194
g62
(dp195
g70
I4
ssg71
g189
sg64
(lp196
S'sample.experiment'
p197
asbasbasbag57
(g73
g59
NtRp198
(dp199
g62
(dp200
sg71
g143
sg64
(lp201
g57
(g78
g59
NtRp202
(dp203
g62
(dp204
sg71
g198
sg64
(lp205
g57
(g58
g59
NtRp206
(dp207
g62
(dp208
g70
I4
ssg71
g202
sg64
(lp209
S'1'
asbasbasbag57
(g73
g59
NtRp210
(dp211
g62
(dp212
sg71
g143
sg64
(lp213
g57
(g78
g59
NtRp214
(dp215
g62
(dp216
sg71
g210
sg64
(lp217
g57
(g58
g59
NtRp218
(dp219
g62
(dp220
g70
I4
ssg71
g214
sg64
(lp221
S'biosource.sample_name'
p222
asbasbasbag57
(g73
g59
NtRp223
(dp224
g62
(dp225
sg71
g143
sg64
(lp226
g57
(g78
g59
NtRp227
(dp228
g62
(dp229
sg71
g223
sg64
(lp230
g57
(g58
g59
NtRp231
(dp232
g62
(dp233
g70
I4
ssg71
g227
sg64
(lp234
S'2'
asbasbasbag57
(g73
g59
NtRp235
(dp236
g62
(dp237
sg71
g143
sg64
(lp238
g57
(g78
g59
NtRp239
(dp240
g62
(dp241
sg71
g235
sg64
(lp242
g57
(g58
g59
NtRp243
(dp244
g62
(dp245
g70
I4
ssg71
g239
sg64
(lp246
S'edit'
p247
asbasbasbag57
(g73
g59
NtRp248
(dp249
g62
(dp250
sg71
g143
sg64
(lp251
g57
(g78
g59
NtRp252
(dp253
g62
(dp254
sg71
g248
sg64
(lp255
g57
(g58
g59
NtRp256
(dp257
g62
(dp258
g70
I4
ssg71
g252
sg64
(lp259
S'biosource'
p260
asbasbasbag57
(g73
g59
NtRp261
(dp262
g62
(dp263
sg71
g143
sg64
(lp264
g57
(g78
g59
NtRp265
(dp266
g62
(dp267
sg71
g261
sg64
(lp268
g57
(g58
g59
NtRp269
(dp270
g62
(dp271
g70
I4
ssg71
g265
sg64
(lp272
S'1'
asbasbasbasbasbasbasbag57
(g73
g59
NtRp273
(dp274
g62
(dp275
sg71
g67
sg64
(lp276
g57
(g78
g59
NtRp277
(dp278
g62
(dp279
g82
g83
ssg71
g273
sg64
(lp280
S'body'
p281
asbag57
(g78
g59
NtRp282
(dp283
g62
(dp284
g89
g90
ssg71
g273
sg64
(lp285
S':'
asbag57
(g78
g59
NtRp286
(dp287
g62
(dp288
sg71
g273
sg64
(lp289
g57
(g58
g59
NtRp290
(dp291
g62
(dp292
g70
I5
ssg71
g286
sg64
(lp293
S'<cStringIO.StringO object at 0xb03064e0>'
p294
asbasbasbag57
(g73
g59
NtRp295
(dp296
g62
(dp297
sg71
g67
sg64
(lp298
g57
(g78
g59
NtRp299
(dp300
g62
(dp301
g82
g83
ssg71
g295
sg64
(lp302
S'cid'
p303
asbag57
(g78
g59
NtRp304
(dp305
g62
(dp306
g89
g90
ssg71
g295
sg64
(lp307
S':'
asbag57
(g78
g59
NtRp308
(dp309
g62
(dp310
sg71
g295
sg64
(lp311
g57
(g58
g59
NtRp312
(dp313
g62
(dp314
g70
I5
ssg71
g308
sg64
(lp315
S'None'
p316
asbasbasbag57
(g73
g59
NtRp317
(dp318
g62
(dp319
sg71
g67
sg64
(lp320
g57
(g78
g59
NtRp321
(dp322
g62
(dp323
g82
g83
ssg71
g317
sg64
(lp324
S'client'
p325
asbag57
(g78
g59
NtRp326
(dp327
g62
(dp328
g89
g90
ssg71
g317
sg64
(lp329
S':'
asbag57
(g78
g59
NtRp330
(dp331
g62
(dp332
sg71
g317
sg64
(lp333
g57
(g58
g59
NtRp334
(dp335
g62
(dp336
g70
I5
ssg71
g330
sg64
(lp337
S'127.0.0.1'
p338
asbasbasbag57
(g73
g59
NtRp339
(dp340
g62
(dp341
sg71
g67
sg64
(lp342
g57
(g78
g59
NtRp343
(dp344
g62
(dp345
g82
g83
ssg71
g339
sg64
(lp346
S'controller'
p347
asbag57
(g78
g59
NtRp348
(dp349
g62
(dp350
g89
g90
ssg71
g339
sg64
(lp351
S':'
asbag57
(g78
g59
NtRp352
(dp353
g62
(dp354
sg71
g339
sg64
(lp355
g57
(g58
g59
NtRp356
(dp357
g62
(dp358
g70
I5
ssg71
g352
sg64
(lp359
S'default'
p360
asbasbasbag57
(g73
g59
NtRp361
(dp362
g62
(dp363
sg71
g67
sg64
(lp364
g57
(g78
g59
NtRp365
(dp366
g62
(dp367
g82
g83
ssg71
g361
sg64
(lp368
S'cookies'
p369
asbag57
(g78
g59
NtRp370
(dp371
g62
(dp372
g89
g90
ssg71
g361
sg64
(lp373
S':'
asbag57
(g78
g59
NtRp374
(dp375
g62
(dp376
sg71
g361
sg64
(lp377
g57
(g58
g59
NtRp378
(dp379
g62
(dp380
g70
I5
ssg71
g374
sg64
(lp381
g57
(g66
g59
NtRp382
(dp383
g62
(dp384
g70
I4
ssg71
Nsg64
(lp385
g57
(g73
g59
NtRp386
(dp387
g62
(dp388
sg71
g382
sg64
(lp389
g57
(g78
g59
NtRp390
(dp391
g62
(dp392
g82
g83
ssg71
g386
sg64
(lp393
S'session_id_admin'
p394
asbag57
(g78
g59
NtRp395
(dp396
g62
(dp397
g89
g90
ssg71
g386
sg64
(lp398
S':'
asbag57
(g78
g59
NtRp399
(dp400
g62
(dp401
sg71
g386
sg64
(lp402
g57
(g58
g59
NtRp403
(dp404
g62
(dp405
g70
I4
ssg71
g399
sg64
(lp406
S'127.0.0.1-af6694ee-0328-42c6-942b-86a3eea3584b'
p407
ag57
(g66
g59
NtRp408
(dp409
g62
(dp410
g70
I3
ssg71
Nsg64
(lp411
g57
(g73
g59
NtRp412
(dp413
g62
(dp414
sg71
g408
sg64
(lp415
g57
(g78
g59
NtRp416
(dp417
g62
(dp418
g82
g83
ssg71
g412
sg64
(lp419
S'comment'
p420
asbag57
(g78
g59
NtRp421
(dp422
g62
(dp423
g89
g90
ssg71
g412
sg64
(lp424
S':'
asbag57
(g78
g59
NtRp425
(dp426
g62
(dp427
sg71
g412
sg64
(lp428
g57
(g58
g59
NtRp429
(dp430
g62
(dp431
g70
I3
ssg71
g425
sg64
(lp432
S''
asbasbasbag57
(g73
g59
NtRp433
(dp434
g62
(dp435
sg71
g408
sg64
(lp436
g57
(g78
g59
NtRp437
(dp438
g62
(dp439
g82
g83
ssg71
g433
sg64
(lp440
S'domain'
p441
asbag57
(g78
g59
NtRp442
(dp443
g62
(dp444
g89
g90
ssg71
g433
sg64
(lp445
S':'
asbag57
(g78
g59
NtRp446
(dp447
g62
(dp448
sg71
g433
sg64
(lp449
g57
(g58
g59
NtRp450
(dp451
g62
(dp452
g70
I3
ssg71
g446
sg64
(lp453
S''
asbasbasbag57
(g73
g59
NtRp454
(dp455
g62
(dp456
sg71
g408
sg64
(lp457
g57
(g78
g59
NtRp458
(dp459
g62
(dp460
g82
g83
ssg71
g454
sg64
(lp461
S'expires'
p462
asbag57
(g78
g59
NtRp463
(dp464
g62
(dp465
g89
g90
ssg71
g454
sg64
(lp466
S':'
asbag57
(g78
g59
NtRp467
(dp468
g62
(dp469
sg71
g454
sg64
(lp470
g57
(g58
g59
NtRp471
(dp472
g62
(dp473
g70
I3
ssg71
g467
sg64
(lp474
S''
asbasbasbag57
(g73
g59
NtRp475
(dp476
g62
(dp477
sg71
g408
sg64
(lp478
g57
(g78
g59
NtRp479
(dp480
g62
(dp481
g82
g83
ssg71
g475
sg64
(lp482
S'httponly'
p483
asbag57
(g78
g59
NtRp484
(dp485
g62
(dp486
g89
g90
ssg71
g475
sg64
(lp487
S':'
asbag57
(g78
g59
NtRp488
(dp489
g62
(dp490
sg71
g475
sg64
(lp491
g57
(g58
g59
NtRp492
(dp493
g62
(dp494
g70
I3
ssg71
g488
sg64
(lp495
S''
asbasbasbag57
(g73
g59
NtRp496
(dp497
g62
(dp498
sg71
g408
sg64
(lp499
g57
(g78
g59
NtRp500
(dp501
g62
(dp502
g82
g83
ssg71
g496
sg64
(lp503
S'max-age'
p504
asbag57
(g78
g59
NtRp505
(dp506
g62
(dp507
g89
g90
ssg71
g496
sg64
(lp508
S':'
asbag57
(g78
g59
NtRp509
(dp510
g62
(dp511
sg71
g496
sg64
(lp512
g57
(g58
g59
NtRp513
(dp514
g62
(dp515
g70
I3
ssg71
g509
sg64
(lp516
S''
asbasbasbag57
(g73
g59
NtRp517
(dp518
g62
(dp519
sg71
g408
sg64
(lp520
g57
(g78
g59
NtRp521
(dp522
g62
(dp523
g82
g83
ssg71
g517
sg64
(lp524
S'path'
p525
asbag57
(g78
g59
NtRp526
(dp527
g62
(dp528
g89
g90
ssg71
g517
sg64
(lp529
S':'
asbag57
(g78
g59
NtRp530
(dp531
g62
(dp532
sg71
g517
sg64
(lp533
g57
(g58
g59
NtRp534
(dp535
g62
(dp536
g70
I3
ssg71
g530
sg64
(lp537
S''
asbasbasbag57
(g73
g59
NtRp538
(dp539
g62
(dp540
sg71
g408
sg64
(lp541
g57
(g78
g59
NtRp542
(dp543
g62
(dp544
g82
g83
ssg71
g538
sg64
(lp545
S'secure'
p546
asbag57
(g78
g59
NtRp547
(dp548
g62
(dp549
g89
g90
ssg71
g538
sg64
(lp550
S':'
asbag57
(g78
g59
NtRp551
(dp552
g62
(dp553
sg71
g538
sg64
(lp554
g57
(g58
g59
NtRp555
(dp556
g62
(dp557
g70
I3
ssg71
g551
sg64
(lp558
S''
asbasbasbag57
(g73
g59
NtRp559
(dp560
g62
(dp561
sg71
g408
sg64
(lp562
g57
(g78
g59
NtRp563
(dp564
g62
(dp565
g82
g83
ssg71
g559
sg64
(lp566
S'version'
p567
asbag57
(g78
g59
NtRp568
(dp569
g62
(dp570
g89
g90
ssg71
g559
sg64
(lp571
S':'
asbag57
(g78
g59
NtRp572
(dp573
g62
(dp574
sg71
g559
sg64
(lp575
g57
(g58
g59
NtRp576
(dp577
g62
(dp578
g70
I3
ssg71
g572
sg64
(lp579
S''
asbasbasbasbasbasbasbag57
(g73
g59
NtRp580
(dp581
g62
(dp582
sg71
g382
sg64
(lp583
g57
(g78
g59
NtRp584
(dp585
g62
(dp586
g82
g83
ssg71
g580
sg64
(lp587
S'session_id_dev_bootstrap'
p588
asbag57
(g78
g59
NtRp589
(dp590
g62
(dp591
g89
g90
ssg71
g580
sg64
(lp592
S':'
asbag57
(g78
g59
NtRp593
(dp594
g62
(dp595
sg71
g580
sg64
(lp596
g57
(g58
g59
NtRp597
(dp598
g62
(dp599
g70
I4
ssg71
g593
sg64
(lp600
S'127.0.0.1-d1c89174-3f24-4a7c-b8b8-87c1b3424426'
p601
ag57
(g66
g59
NtRp602
(dp603
g62
(dp604
g70
I3
ssg71
Nsg64
(lp605
g57
(g73
g59
NtRp606
(dp607
g62
(dp608
sg71
g602
sg64
(lp609
g57
(g78
g59
NtRp610
(dp611
g62
(dp612
g82
g83
ssg71
g606
sg64
(lp613
g420
asbag57
(g78
g59
NtRp614
(dp615
g62
(dp616
g89
g90
ssg71
g606
sg64
(lp617
S':'
asbag57
(g78
g59
NtRp618
(dp619
g62
(dp620
sg71
g606
sg64
(lp621
g57
(g58
g59
NtRp622
(dp623
g62
(dp624
g70
I3
ssg71
g618
sg64
(lp625
S''
asbasbasbag57
(g73
g59
NtRp626
(dp627
g62
(dp628
sg71
g602
sg64
(lp629
g57
(g78
g59
NtRp630
(dp631
g62
(dp632
g82
g83
ssg71
g626
sg64
(lp633
g441
asbag57
(g78
g59
NtRp634
(dp635
g62
(dp636
g89
g90
ssg71
g626
sg64
(lp637
S':'
asbag57
(g78
g59
NtRp638
(dp639
g62
(dp640
sg71
g626
sg64
(lp641
g57
(g58
g59
NtRp642
(dp643
g62
(dp644
g70
I3
ssg71
g638
sg64
(lp645
S''
asbasbasbag57
(g73
g59
NtRp646
(dp647
g62
(dp648
sg71
g602
sg64
(lp649
g57
(g78
g59
NtRp650
(dp651
g62
(dp652
g82
g83
ssg71
g646
sg64
(lp653
g462
asbag57
(g78
g59
NtRp654
(dp655
g62
(dp656
g89
g90
ssg71
g646
sg64
(lp657
S':'
asbag57
(g78
g59
NtRp658
(dp659
g62
(dp660
sg71
g646
sg64
(lp661
g57
(g58
g59
NtRp662
(dp663
g62
(dp664
g70
I3
ssg71
g658
sg64
(lp665
S''
asbasbasbag57
(g73
g59
NtRp666
(dp667
g62
(dp668
sg71
g602
sg64
(lp669
g57
(g78
g59
NtRp670
(dp671
g62
(dp672
g82
g83
ssg71
g666
sg64
(lp673
g483
asbag57
(g78
g59
NtRp674
(dp675
g62
(dp676
g89
g90
ssg71
g666
sg64
(lp677
S':'
asbag57
(g78
g59
NtRp678
(dp679
g62
(dp680
sg71
g666
sg64
(lp681
g57
(g58
g59
NtRp682
(dp683
g62
(dp684
g70
I3
ssg71
g678
sg64
(lp685
S''
asbasbasbag57
(g73
g59
NtRp686
(dp687
g62
(dp688
sg71
g602
sg64
(lp689
g57
(g78
g59
NtRp690
(dp691
g62
(dp692
g82
g83
ssg71
g686
sg64
(lp693
g504
asbag57
(g78
g59
NtRp694
(dp695
g62
(dp696
g89
g90
ssg71
g686
sg64
(lp697
S':'
asbag57
(g78
g59
NtRp698
(dp699
g62
(dp700
sg71
g686
sg64
(lp701
g57
(g58
g59
NtRp702
(dp703
g62
(dp704
g70
I3
ssg71
g698
sg64
(lp705
S''
asbasbasbag57
(g73
g59
NtRp706
(dp707
g62
(dp708
sg71
g602
sg64
(lp709
g57
(g78
g59
NtRp710
(dp711
g62
(dp712
g82
g83
ssg71
g706
sg64
(lp713
g525
asbag57
(g78
g59
NtRp714
(dp715
g62
(dp716
g89
g90
ssg71
g706
sg64
(lp717
S':'
asbag57
(g78
g59
NtRp718
(dp719
g62
(dp720
sg71
g706
sg64
(lp721
g57
(g58
g59
NtRp722
(dp723
g62
(dp724
g70
I3
ssg71
g718
sg64
(lp725
S''
asbasbasbag57
(g73
g59
NtRp726
(dp727
g62
(dp728
sg71
g602
sg64
(lp729
g57
(g78
g59
NtRp730
(dp731
g62
(dp732
g82
g83
ssg71
g726
sg64
(lp733
g546
asbag57
(g78
g59
NtRp734
(dp735
g62
(dp736
g89
g90
ssg71
g726
sg64
(lp737
S':'
asbag57
(g78
g59
NtRp738
(dp739
g62
(dp740
sg71
g726
sg64
(lp741
g57
(g58
g59
NtRp742
(dp743
g62
(dp744
g70
I3
ssg71
g738
sg64
(lp745
S''
asbasbasbag57
(g73
g59
NtRp746
(dp747
g62
(dp748
sg71
g602
sg64
(lp749
g57
(g78
g59
NtRp750
(dp751
g62
(dp752
g82
g83
ssg71
g746
sg64
(lp753
g567
asbag57
(g78
g59
NtRp754
(dp755
g62
(dp756
g89
g90
ssg71
g746
sg64
(lp757
S':'
asbag57
(g78
g59
NtRp758
(dp759
g62
(dp760
sg71
g746
sg64
(lp761
g57
(g58
g59
NtRp762
(dp763
g62
(dp764
g70
I3
ssg71
g758
sg64
(lp765
S''
asbasbasbasbasbasbasbag57
(g73
g59
NtRp766
(dp767
g62
(dp768
sg71
g382
sg64
(lp769
g57
(g78
g59
NtRp770
(dp771
g62
(dp772
g82
g83
ssg71
g766
sg64
(lp773
S'session_id_dev_bootstrap_ch'
p774
asbag57
(g78
g59
NtRp775
(dp776
g62
(dp777
g89
g90
ssg71
g766
sg64
(lp778
S':'
asbag57
(g78
g59
NtRp779
(dp780
g62
(dp781
sg71
g766
sg64
(lp782
g57
(g58
g59
NtRp783
(dp784
g62
(dp785
g70
I4
ssg71
g779
sg64
(lp786
S'127.0.0.1-270b038b-df00-4d5c-949a-e87692880510'
p787
ag57
(g66
g59
NtRp788
(dp789
g62
(dp790
g70
I3
ssg71
Nsg64
(lp791
g57
(g73
g59
NtRp792
(dp793
g62
(dp794
sg71
g788
sg64
(lp795
g57
(g78
g59
NtRp796
(dp797
g62
(dp798
g82
g83
ssg71
g792
sg64
(lp799
g420
asbag57
(g78
g59
NtRp800
(dp801
g62
(dp802
g89
g90
ssg71
g792
sg64
(lp803
S':'
asbag57
(g78
g59
NtRp804
(dp805
g62
(dp806
sg71
g792
sg64
(lp807
g57
(g58
g59
NtRp808
(dp809
g62
(dp810
g70
I3
ssg71
g804
sg64
(lp811
S''
asbasbasbag57
(g73
g59
NtRp812
(dp813
g62
(dp814
sg71
g788
sg64
(lp815
g57
(g78
g59
NtRp816
(dp817
g62
(dp818
g82
g83
ssg71
g812
sg64
(lp819
g441
asbag57
(g78
g59
NtRp820
(dp821
g62
(dp822
g89
g90
ssg71
g812
sg64
(lp823
S':'
asbag57
(g78
g59
NtRp824
(dp825
g62
(dp826
sg71
g812
sg64
(lp827
g57
(g58
g59
NtRp828
(dp829
g62
(dp830
g70
I3
ssg71
g824
sg64
(lp831
S''
asbasbasbag57
(g73
g59
NtRp832
(dp833
g62
(dp834
sg71
g788
sg64
(lp835
g57
(g78
g59
NtRp836
(dp837
g62
(dp838
g82
g83
ssg71
g832
sg64
(lp839
g462
asbag57
(g78
g59
NtRp840
(dp841
g62
(dp842
g89
g90
ssg71
g832
sg64
(lp843
S':'
asbag57
(g78
g59
NtRp844
(dp845
g62
(dp846
sg71
g832
sg64
(lp847
g57
(g58
g59
NtRp848
(dp849
g62
(dp850
g70
I3
ssg71
g844
sg64
(lp851
S''
asbasbasbag57
(g73
g59
NtRp852
(dp853
g62
(dp854
sg71
g788
sg64
(lp855
g57
(g78
g59
NtRp856
(dp857
g62
(dp858
g82
g83
ssg71
g852
sg64
(lp859
g483
asbag57
(g78
g59
NtRp860
(dp861
g62
(dp862
g89
g90
ssg71
g852
sg64
(lp863
S':'
asbag57
(g78
g59
NtRp864
(dp865
g62
(dp866
sg71
g852
sg64
(lp867
g57
(g58
g59
NtRp868
(dp869
g62
(dp870
g70
I3
ssg71
g864
sg64
(lp871
S''
asbasbasbag57
(g73
g59
NtRp872
(dp873
g62
(dp874
sg71
g788
sg64
(lp875
g57
(g78
g59
NtRp876
(dp877
g62
(dp878
g82
g83
ssg71
g872
sg64
(lp879
g504
asbag57
(g78
g59
NtRp880
(dp881
g62
(dp882
g89
g90
ssg71
g872
sg64
(lp883
S':'
asbag57
(g78
g59
NtRp884
(dp885
g62
(dp886
sg71
g872
sg64
(lp887
g57
(g58
g59
NtRp888
(dp889
g62
(dp890
g70
I3
ssg71
g884
sg64
(lp891
S''
asbasbasbag57
(g73
g59
NtRp892
(dp893
g62
(dp894
sg71
g788
sg64
(lp895
g57
(g78
g59
NtRp896
(dp897
g62
(dp898
g82
g83
ssg71
g892
sg64
(lp899
g525
asbag57
(g78
g59
NtRp900
(dp901
g62
(dp902
g89
g90
ssg71
g892
sg64
(lp903
S':'
asbag57
(g78
g59
NtRp904
(dp905
g62
(dp906
sg71
g892
sg64
(lp907
g57
(g58
g59
NtRp908
(dp909
g62
(dp910
g70
I3
ssg71
g904
sg64
(lp911
S''
asbasbasbag57
(g73
g59
NtRp912
(dp913
g62
(dp914
sg71
g788
sg64
(lp915
g57
(g78
g59
NtRp916
(dp917
g62
(dp918
g82
g83
ssg71
g912
sg64
(lp919
g546
asbag57
(g78
g59
NtRp920
(dp921
g62
(dp922
g89
g90
ssg71
g912
sg64
(lp923
S':'
asbag57
(g78
g59
NtRp924
(dp925
g62
(dp926
sg71
g912
sg64
(lp927
g57
(g58
g59
NtRp928
(dp929
g62
(dp930
g70
I3
ssg71
g924
sg64
(lp931
S''
asbasbasbag57
(g73
g59
NtRp932
(dp933
g62
(dp934
sg71
g788
sg64
(lp935
g57
(g78
g59
NtRp936
(dp937
g62
(dp938
g82
g83
ssg71
g932
sg64
(lp939
g567
asbag57
(g78
g59
NtRp940
(dp941
g62
(dp942
g89
g90
ssg71
g932
sg64
(lp943
S':'
asbag57
(g78
g59
NtRp944
(dp945
g62
(dp946
sg71
g932
sg64
(lp947
g57
(g58
g59
NtRp948
(dp949
g62
(dp950
g70
I3
ssg71
g944
sg64
(lp951
S''
asbasbasbasbasbasbasbasbasbasbasbag57
(g73
g59
NtRp952
(dp953
g62
(dp954
sg71
g67
sg64
(lp955
g57
(g78
g59
NtRp956
(dp957
g62
(dp958
g82
g83
ssg71
g952
sg64
(lp959
S'env'
p960
asbag57
(g78
g59
NtRp961
(dp962
g62
(dp963
g89
g90
ssg71
g952
sg64
(lp964
S':'
asbag57
(g78
g59
NtRp965
(dp966
g62
(dp967
sg71
g952
sg64
(lp968
g57
(g58
g59
NtRp969
(dp970
g62
(dp971
g70
I5
ssg71
g965
sg64
(lp972
g57
(g66
g59
NtRp973
(dp974
g62
(dp975
g70
I4
ssg71
Nsg64
(lp976
g57
(g73
g59
NtRp977
(dp978
g62
(dp979
sg71
g973
sg64
(lp980
g57
(g78
g59
NtRp981
(dp982
g62
(dp983
g82
g83
ssg71
g977
sg64
(lp984
S'app_folders'
p985
asbag57
(g78
g59
NtRp986
(dp987
g62
(dp988
g89
g90
ssg71
g977
sg64
(lp989
S':'
asbag57
(g78
g59
NtRp990
(dp991
g62
(dp992
sg71
g977
sg64
(lp993
g57
(g58
g59
NtRp994
(dp995
g62
(dp996
g70
I4
ssg71
g990
sg64
(lp997
S"set(['/home/anil/bootstrap/web2py/applications/admin/', '/home/anil/bootstrap/web2py/applications/DEV_bootstrap/', '/home/anil/bootstrap/web2py/applications/DEV_bootstrap_ch/'])"
p998
asbasbasbag57
(g73
g59
NtRp999
(dp1000
g62
(dp1001
sg71
g973
sg64
(lp1002
g57
(g78
g59
NtRp1003
(dp1004
g62
(dp1005
g82
g83
ssg71
g999
sg64
(lp1006
S'applications_parent'
p1007
asbag57
(g78
g59
NtRp1008
(dp1009
g62
(dp1010
g89
g90
ssg71
g999
sg64
(lp1011
S':'
asbag57
(g78
g59
NtRp1012
(dp1013
g62
(dp1014
sg71
g999
sg64
(lp1015
g57
(g58
g59
NtRp1016
(dp1017
g62
(dp1018
g70
I4
ssg71
g1012
sg64
(lp1019
S'/home/anil/bootstrap/web2py'
p1020
asbasbasbag57
(g73
g59
NtRp1021
(dp1022
g62
(dp1023
sg71
g973
sg64
(lp1024
g57
(g78
g59
NtRp1025
(dp1026
g62
(dp1027
g82
g83
ssg71
g1021
sg64
(lp1028
S'cmd_args'
p1029
asbag57
(g78
g59
NtRp1030
(dp1031
g62
(dp1032
g89
g90
ssg71
g1021
sg64
(lp1033
S':'
asbag57
(g78
g59
NtRp1034
(dp1035
g62
(dp1036
sg71
g1021
sg64
(lp1037
g57
(g58
g59
NtRp1038
(dp1039
g62
(dp1040
g70
I4
ssg71
g1034
sg64
(lp1041
g57
(g66
g59
NtRp1042
(dp1043
g62
(dp1044
g70
I3
ssg71
Nsg64
(lp1045
sbasbasbasbag57
(g73
g59
NtRp1046
(dp1047
g62
(dp1048
sg71
g973
sg64
(lp1049
g57
(g78
g59
NtRp1050
(dp1051
g62
(dp1052
g82
g83
ssg71
g1046
sg64
(lp1053
S'cmd_options'
p1054
asbag57
(g78
g59
NtRp1055
(dp1056
g62
(dp1057
g89
g90
ssg71
g1046
sg64
(lp1058
S':'
asbag57
(g78
g59
NtRp1059
(dp1060
g62
(dp1061
sg71
g1046
sg64
(lp1062
g57
(g58
g59
NtRp1063
(dp1064
g62
(dp1065
g70
I4
ssg71
g1059
sg64
(lp1066
S"<Values at 0x992be8c: {'verbose': False, 'ip': '127.0.0.1', 'with_scheduler': False, 'ips': [], 'shutdown_timeout': 5, 'taskbar': False, 'port': 8000, 'maxthreads': None, 'softcron': False, 'server_name': 'anil-Inspiron-1525', 'bpython': False, 'nogui': False, 'pid_filename': 'httpserver.pid', 'extcron': False, 'runcron': False, 'run_system_tests': False, 'test': None, 'folder': '/home/anil/bootstrap/web2py', 'config': '', 'import_models': False, 'winservice': '', 'shell': None, 'run': '', 'log_filename': 'httpserver.log', 'debuglevel': 30, 'args': [''], 'socket_timeout': 5, 'ssl_ca_certificate': None, 'scheduler': None, 'profiler_filename': None, 'ssl_private_key': '', 'scheduler_groups': None, 'password': '123', 'request_queue_size': 5, 'ssl_certificate': '', 'cronjob': False, 'numthreads': None, 'quiet': False, 'interfaces': None, 'minthreads': None, 'timeout': 10, 'plain': False, 'nobanner': False}>"
p1067
asbasbasbag57
(g73
g59
NtRp1068
(dp1069
g62
(dp1070
sg71
g973
sg64
(lp1071
g57
(g78
g59
NtRp1072
(dp1073
g62
(dp1074
g82
g83
ssg71
g1068
sg64
(lp1075
S'db_sessions'
p1076
asbag57
(g78
g59
NtRp1077
(dp1078
g62
(dp1079
g89
g90
ssg71
g1068
sg64
(lp1080
S':'
asbag57
(g78
g59
NtRp1081
(dp1082
g62
(dp1083
sg71
g1068
sg64
(lp1084
g57
(g58
g59
NtRp1085
(dp1086
g62
(dp1087
g70
I4
ssg71
g1081
sg64
(lp1088
S'set([])'
p1089
asbasbasbag57
(g73
g59
NtRp1090
(dp1091
g62
(dp1092
sg71
g973
sg64
(lp1093
g57
(g78
g59
NtRp1094
(dp1095
g62
(dp1096
g82
g83
ssg71
g1090
sg64
(lp1097
S'debugging'
p1098
asbag57
(g78
g59
NtRp1099
(dp1100
g62
(dp1101
g89
g90
ssg71
g1090
sg64
(lp1102
S':'
asbag57
(g78
g59
NtRp1103
(dp1104
g62
(dp1105
sg71
g1090
sg64
(lp1106
g57
(g58
g59
NtRp1107
(dp1108
g62
(dp1109
g70
I4
ssg71
g1103
sg64
(lp1110
g100
asbasbasbag57
(g73
g59
NtRp1111
(dp1112
g62
(dp1113
sg71
g973
sg64
(lp1114
g57
(g78
g59
NtRp1115
(dp1116
g62
(dp1117
g82
g83
ssg71
g1111
sg64
(lp1118
S'gluon_parent'
p1119
asbag57
(g78
g59
NtRp1120
(dp1121
g62
(dp1122
g89
g90
ssg71
g1111
sg64
(lp1123
S':'
asbag57
(g78
g59
NtRp1124
(dp1125
g62
(dp1126
sg71
g1111
sg64
(lp1127
g57
(g58
g59
NtRp1128
(dp1129
g62
(dp1130
g70
I4
ssg71
g1124
sg64
(lp1131
S'/home/anil/bootstrap/web2py'
p1132
asbasbasbag57
(g73
g59
NtRp1133
(dp1134
g62
(dp1135
sg71
g973
sg64
(lp1136
g57
(g78
g59
NtRp1137
(dp1138
g62
(dp1139
g82
g83
ssg71
g1133
sg64
(lp1140
S'http_accept'
p1141
asbag57
(g78
g59
NtRp1142
(dp1143
g62
(dp1144
g89
g90
ssg71
g1133
sg64
(lp1145
S':'
asbag57
(g78
g59
NtRp1146
(dp1147
g62
(dp1148
sg71
g1133
sg64
(lp1149
g57
(g58
g59
NtRp1150
(dp1151
g62
(dp1152
g70
I4
ssg71
g1146
sg64
(lp1153
S'text/html,application/xhtml+xml,application/xml;q=0.9,*/*;q=0.8'
p1154
asbasbasbag57
(g73
g59
NtRp1155
(dp1156
g62
(dp1157
sg71
g973
sg64
(lp1158
g57
(g78
g59
NtRp1159
(dp1160
g62
(dp1161
g82
g83
ssg71
g1155
sg64
(lp1162
S'http_accept_charset'
p1163
asbag57
(g78
g59
NtRp1164
(dp1165
g62
(dp1166
g89
g90
ssg71
g1155
sg64
(lp1167
S':'
asbag57
(g78
g59
NtRp1168
(dp1169
g62
(dp1170
sg71
g1155
sg64
(lp1171
g57
(g58
g59
NtRp1172
(dp1173
g62
(dp1174
g70
I4
ssg71
g1168
sg64
(lp1175
S'ISO-8859-1,utf-8;q=0.7,*;q=0.3'
p1176
asbasbasbag57
(g73
g59
NtRp1177
(dp1178
g62
(dp1179
sg71
g973
sg64
(lp1180
g57
(g78
g59
NtRp1181
(dp1182
g62
(dp1183
g82
g83
ssg71
g1177
sg64
(lp1184
S'http_accept_encoding'
p1185
asbag57
(g78
g59
NtRp1186
(dp1187
g62
(dp1188
g89
g90
ssg71
g1177
sg64
(lp1189
S':'
asbag57
(g78
g59
NtRp1190
(dp1191
g62
(dp1192
sg71
g1177
sg64
(lp1193
g57
(g58
g59
NtRp1194
(dp1195
g62
(dp1196
g70
I4
ssg71
g1190
sg64
(lp1197
S'gzip,deflate,sdch'
p1198
asbasbasbag57
(g73
g59
NtRp1199
(dp1200
g62
(dp1201
sg71
g973
sg64
(lp1202
g57
(g78
g59
NtRp1203
(dp1204
g62
(dp1205
g82
g83
ssg71
g1199
sg64
(lp1206
S'http_accept_language'
p1207
asbag57
(g78
g59
NtRp1208
(dp1209
g62
(dp1210
g89
g90
ssg71
g1199
sg64
(lp1211
S':'
asbag57
(g78
g59
NtRp1212
(dp1213
g62
(dp1214
sg71
g1199
sg64
(lp1215
g57
(g58
g59
NtRp1216
(dp1217
g62
(dp1218
g70
I4
ssg71
g1212
sg64
(lp1219
S'en-US,en;q=0.8'
p1220
asbasbasbag57
(g73
g59
NtRp1221
(dp1222
g62
(dp1223
sg71
g973
sg64
(lp1224
g57
(g78
g59
NtRp1225
(dp1226
g62
(dp1227
g82
g83
ssg71
g1221
sg64
(lp1228
S'http_cache_control'
p1229
asbag57
(g78
g59
NtRp1230
(dp1231
g62
(dp1232
g89
g90
ssg71
g1221
sg64
(lp1233
S':'
asbag57
(g78
g59
NtRp1234
(dp1235
g62
(dp1236
sg71
g1221
sg64
(lp1237
g57
(g58
g59
NtRp1238
(dp1239
g62
(dp1240
g70
I4
ssg71
g1234
sg64
(lp1241
S'max-age=0'
p1242
asbasbasbag57
(g73
g59
NtRp1243
(dp1244
g62
(dp1245
sg71
g973
sg64
(lp1246
g57
(g78
g59
NtRp1247
(dp1248
g62
(dp1249
g82
g83
ssg71
g1243
sg64
(lp1250
S'http_connection'
p1251
asbag57
(g78
g59
NtRp1252
(dp1253
g62
(dp1254
g89
g90
ssg71
g1243
sg64
(lp1255
S':'
asbag57
(g78
g59
NtRp1256
(dp1257
g62
(dp1258
sg71
g1243
sg64
(lp1259
g57
(g58
g59
NtRp1260
(dp1261
g62
(dp1262
g70
I4
ssg71
g1256
sg64
(lp1263
S'keep-alive'
p1264
asbasbasbag57
(g73
g59
NtRp1265
(dp1266
g62
(dp1267
sg71
g973
sg64
(lp1268
g57
(g78
g59
NtRp1269
(dp1270
g62
(dp1271
g82
g83
ssg71
g1265
sg64
(lp1272
S'http_cookie'
p1273
asbag57
(g78
g59
NtRp1274
(dp1275
g62
(dp1276
g89
g90
ssg71
g1265
sg64
(lp1277
S':'
asbag57
(g78
g59
NtRp1278
(dp1279
g62
(dp1280
sg71
g1265
sg64
(lp1281
g57
(g58
g59
NtRp1282
(dp1283
g62
(dp1284
g70
I4
ssg71
g1278
sg64
(lp1285
S'session_id_dev_bootstrap=127.0.0.1-d1c89174-3f24-4a7c-b8b8-87c1b3424426; session_id_dev_bootstrap_ch=127.0.0.1-270b038b-df00-4d5c-949a-e87692880510; session_id_admin=127.0.0.1-af6694ee-0328-42c6-942b-86a3eea3584b'
p1286
asbasbasbag57
(g73
g59
NtRp1287
(dp1288
g62
(dp1289
sg71
g973
sg64
(lp1290
g57
(g78
g59
NtRp1291
(dp1292
g62
(dp1293
g82
g83
ssg71
g1287
sg64
(lp1294
S'http_host'
p1295
asbag57
(g78
g59
NtRp1296
(dp1297
g62
(dp1298
g89
g90
ssg71
g1287
sg64
(lp1299
S':'
asbag57
(g78
g59
NtRp1300
(dp1301
g62
(dp1302
sg71
g1287
sg64
(lp1303
g57
(g58
g59
NtRp1304
(dp1305
g62
(dp1306
g70
I4
ssg71
g1300
sg64
(lp1307
S'127.0.0.1:8000'
p1308
asbasbasbag57
(g73
g59
NtRp1309
(dp1310
g62
(dp1311
sg71
g973
sg64
(lp1312
g57
(g78
g59
NtRp1313
(dp1314
g62
(dp1315
g82
g83
ssg71
g1309
sg64
(lp1316
S'http_referer'
p1317
asbag57
(g78
g59
NtRp1318
(dp1319
g62
(dp1320
g89
g90
ssg71
g1309
sg64
(lp1321
S':'
asbag57
(g78
g59
NtRp1322
(dp1323
g62
(dp1324
sg71
g1309
sg64
(lp1325
g57
(g58
g59
NtRp1326
(dp1327
g62
(dp1328
g70
I4
ssg71
g1322
sg64
(lp1329
S'http://127.0.0.1:8000/DEV_bootstrap_ch/default/list_all_dev_projects/project/experiment.project/1/sample.experiment/1?_signature=7ef83f1a1fbc1478046ec45b38081f44f469294d'
p1330
asbasbasbag57
(g73
g59
NtRp1331
(dp1332
g62
(dp1333
sg71
g973
sg64
(lp1334
g57
(g78
g59
NtRp1335
(dp1336
g62
(dp1337
g82
g83
ssg71
g1331
sg64
(lp1338
S'http_user_agent'
p1339
asbag57
(g78
g59
NtRp1340
(dp1341
g62
(dp1342
g89
g90
ssg71
g1331
sg64
(lp1343
S':'
asbag57
(g78
g59
NtRp1344
(dp1345
g62
(dp1346
sg71
g1331
sg64
(lp1347
g57
(g58
g59
NtRp1348
(dp1349
g62
(dp1350
g70
I4
ssg71
g1344
sg64
(lp1351
S'Mozilla/5.0 (X11; Linux i686) AppleWebKit/537.31 (KHTML, like Gecko) Chrome/26.0.1410.10 Safari/537.31'
p1352
asbasbasbag57
(g73
g59
NtRp1353
(dp1354
g62
(dp1355
sg71
g973
sg64
(lp1356
g57
(g78
g59
NtRp1357
(dp1358
g62
(dp1359
g82
g83
ssg71
g1353
sg64
(lp1360
S'is_jython'
p1361
asbag57
(g78
g59
NtRp1362
(dp1363
g62
(dp1364
g89
g90
ssg71
g1353
sg64
(lp1365
S':'
asbag57
(g78
g59
NtRp1366
(dp1367
g62
(dp1368
sg71
g1353
sg64
(lp1369
g57
(g58
g59
NtRp1370
(dp1371
g62
(dp1372
g70
I4
ssg71
g1366
sg64
(lp1373
g100
asbasbasbag57
(g73
g59
NtRp1374
(dp1375
g62
(dp1376
sg71
g973
sg64
(lp1377
g57
(g78
g59
NtRp1378
(dp1379
g62
(dp1380
g82
g83
ssg71
g1374
sg64
(lp1381
S'is_pypy'
p1382
asbag57
(g78
g59
NtRp1383
(dp1384
g62
(dp1385
g89
g90
ssg71
g1374
sg64
(lp1386
S':'
asbag57
(g78
g59
NtRp1387
(dp1388
g62
(dp1389
sg71
g1374
sg64
(lp1390
g57
(g58
g59
NtRp1391
(dp1392
g62
(dp1393
g70
I4
ssg71
g1387
sg64
(lp1394
g100
asbasbasbag57
(g73
g59
NtRp1395
(dp1396
g62
(dp1397
sg71
g973
sg64
(lp1398
g57
(g78
g59
NtRp1399
(dp1400
g62
(dp1401
g82
g83
ssg71
g1395
sg64
(lp1402
S'local_hosts'
p1403
asbag57
(g78
g59
NtRp1404
(dp1405
g62
(dp1406
g89
g90
ssg71
g1395
sg64
(lp1407
S':'
asbag57
(g78
g59
NtRp1408
(dp1409
g62
(dp1410
sg71
g1395
sg64
(lp1411
g57
(g58
g59
NtRp1412
(dp1413
g62
(dp1414
g70
I4
ssg71
g1408
sg64
(lp1415
g57
(g66
g59
NtRp1416
(dp1417
g62
(dp1418
g70
I3
ssg71
Nsg64
(lp1419
g57
(g73
g59
NtRp1420
(dp1421
g62
(dp1422
sg71
g1416
sg64
(lp1423
g57
(g78
g59
NtRp1424
(dp1425
g62
(dp1426
sg71
g1420
sg64
(lp1427
g57
(g58
g59
NtRp1428
(dp1429
g62
(dp1430
g70
I3
ssg71
g1424
sg64
(lp1431
S'::1'
p1432
asbasbasbag57
(g73
g59
NtRp1433
(dp1434
g62
(dp1435
sg71
g1416
sg64
(lp1436
g57
(g78
g59
NtRp1437
(dp1438
g62
(dp1439
sg71
g1433
sg64
(lp1440
g57
(g58
g59
NtRp1441
(dp1442
g62
(dp1443
g70
I3
ssg71
g1437
sg64
(lp1444
S'127.0.1.1'
p1445
asbasbasbag57
(g73
g59
NtRp1446
(dp1447
g62
(dp1448
sg71
g1416
sg64
(lp1449
g57
(g78
g59
NtRp1450
(dp1451
g62
(dp1452
sg71
g1446
sg64
(lp1453
g57
(g58
g59
NtRp1454
(dp1455
g62
(dp1456
g70
I3
ssg71
g1450
sg64
(lp1457
S'::ffff:127.0.0.1'
p1458
asbasbasbag57
(g73
g59
NtRp1459
(dp1460
g62
(dp1461
sg71
g1416
sg64
(lp1462
g57
(g78
g59
NtRp1463
(dp1464
g62
(dp1465
sg71
g1459
sg64
(lp1466
g57
(g58
g59
NtRp1467
(dp1468
g62
(dp1469
g70
I3
ssg71
g1463
sg64
(lp1470
S'127.0.0.1'
p1471
asbasbasbag57
(g73
g59
NtRp1472
(dp1473
g62
(dp1474
sg71
g1416
sg64
(lp1475
g57
(g78
g59
NtRp1476
(dp1477
g62
(dp1478
sg71
g1472
sg64
(lp1479
g57
(g58
g59
NtRp1480
(dp1481
g62
(dp1482
g70
I3
ssg71
g1476
sg64
(lp1483
S'anil-Inspiron-1525'
p1484
asbasbasbasbasbasbasbag57
(g73
g59
NtRp1485
(dp1486
g62
(dp1487
sg71
g973
sg64
(lp1488
g57
(g78
g59
NtRp1489
(dp1490
g62
(dp1491
g82
g83
ssg71
g1485
sg64
(lp1492
S'path_info'
p1493
asbag57
(g78
g59
NtRp1494
(dp1495
g62
(dp1496
g89
g90
ssg71
g1485
sg64
(lp1497
S':'
asbag57
(g78
g59
NtRp1498
(dp1499
g62
(dp1500
sg71
g1485
sg64
(lp1501
g57
(g58
g59
NtRp1502
(dp1503
g62
(dp1504
g70
I4
ssg71
g1498
sg64
(lp1505
S'/DEV_bootstrap_ch/default/router/project/experiment.project/1/sample.experiment/1/biosource.sample_name/2/edit/biosource/1'
p1506
asbasbasbag57
(g73
g59
NtRp1507
(dp1508
g62
(dp1509
sg71
g973
sg64
(lp1510
g57
(g78
g59
NtRp1511
(dp1512
g62
(dp1513
g82
g83
ssg71
g1507
sg64
(lp1514
S'query_string'
p1515
asbag57
(g78
g59
NtRp1516
(dp1517
g62
(dp1518
g89
g90
ssg71
g1507
sg64
(lp1519
S':'
asbag57
(g78
g59
NtRp1520
(dp1521
g62
(dp1522
sg71
g1507
sg64
(lp1523
g57
(g58
g59
NtRp1524
(dp1525
g62
(dp1526
g70
I4
ssg71
g1520
sg64
(lp1527
S''
asbasbasbag57
(g73
g59
NtRp1528
(dp1529
g62
(dp1530
sg71
g973
sg64
(lp1531
g57
(g78
g59
NtRp1532
(dp1533
g62
(dp1534
g82
g83
ssg71
g1528
sg64
(lp1535
S'remote_addr'
p1536
asbag57
(g78
g59
NtRp1537
(dp1538
g62
(dp1539
g89
g90
ssg71
g1528
sg64
(lp1540
S':'
asbag57
(g78
g59
NtRp1541
(dp1542
g62
(dp1543
sg71
g1528
sg64
(lp1544
g57
(g58
g59
NtRp1545
(dp1546
g62
(dp1547
g70
I4
ssg71
g1541
sg64
(lp1548
g338
asbasbasbag57
(g73
g59
NtRp1549
(dp1550
g62
(dp1551
sg71
g973
sg64
(lp1552
g57
(g78
g59
NtRp1553
(dp1554
g62
(dp1555
g82
g83
ssg71
g1549
sg64
(lp1556
S'remote_port'
p1557
asbag57
(g78
g59
NtRp1558
(dp1559
g62
(dp1560
g89
g90
ssg71
g1549
sg64
(lp1561
S':'
asbag57
(g78
g59
NtRp1562
(dp1563
g62
(dp1564
sg71
g1549
sg64
(lp1565
g57
(g58
g59
NtRp1566
(dp1567
g62
(dp1568
g70
I4
ssg71
g1562
sg64
(lp1569
S'41793'
p1570
asbasbasbag57
(g73
g59
NtRp1571
(dp1572
g62
(dp1573
sg71
g973
sg64
(lp1574
g57
(g78
g59
NtRp1575
(dp1576
g62
(dp1577
g82
g83
ssg71
g1571
sg64
(lp1578
S'request_method'
p1579
asbag57
(g78
g59
NtRp1580
(dp1581
g62
(dp1582
g89
g90
ssg71
g1571
sg64
(lp1583
S':'
asbag57
(g78
g59
NtRp1584
(dp1585
g62
(dp1586
sg71
g1571
sg64
(lp1587
g57
(g58
g59
NtRp1588
(dp1589
g62
(dp1590
g70
I4
ssg71
g1584
sg64
(lp1591
S'GET'
p1592
asbasbasbag57
(g73
g59
NtRp1593
(dp1594
g62
(dp1595
sg71
g973
sg64
(lp1596
g57
(g78
g59
NtRp1597
(dp1598
g62
(dp1599
g82
g83
ssg71
g1593
sg64
(lp1600
S'request_uri'
p1601
asbag57
(g78
g59
NtRp1602
(dp1603
g62
(dp1604
g89
g90
ssg71
g1593
sg64
(lp1605
S':'
asbag57
(g78
g59
NtRp1606
(dp1607
g62
(dp1608
sg71
g1593
sg64
(lp1609
g57
(g58
g59
NtRp1610
(dp1611
g62
(dp1612
g70
I4
ssg71
g1606
sg64
(lp1613
g1506
asbasbasbag57
(g73
g59
NtRp1614
(dp1615
g62
(dp1616
sg71
g973
sg64
(lp1617
g57
(g78
g59
NtRp1618
(dp1619
g62
(dp1620
g82
g83
ssg71
g1614
sg64
(lp1621
S'script_name'
p1622
asbag57
(g78
g59
NtRp1623
(dp1624
g62
(dp1625
g89
g90
ssg71
g1614
sg64
(lp1626
S':'
asbag57
(g78
g59
NtRp1627
(dp1628
g62
(dp1629
sg71
g1614
sg64
(lp1630
g57
(g58
g59
NtRp1631
(dp1632
g62
(dp1633
g70
I4
ssg71
g1627
sg64
(lp1634
S''
asbasbasbag57
(g73
g59
NtRp1635
(dp1636
g62
(dp1637
sg71
g973
sg64
(lp1638
g57
(g78
g59
NtRp1639
(dp1640
g62
(dp1641
g82
g83
ssg71
g1635
sg64
(lp1642
S'server_name'
p1643
asbag57
(g78
g59
NtRp1644
(dp1645
g62
(dp1646
g89
g90
ssg71
g1635
sg64
(lp1647
S':'
asbag57
(g78
g59
NtRp1648
(dp1649
g62
(dp1650
sg71
g1635
sg64
(lp1651
g57
(g58
g59
NtRp1652
(dp1653
g62
(dp1654
g70
I4
ssg71
g1648
sg64
(lp1655
S'anil-Inspiron-1525'
p1656
asbasbasbag57
(g73
g59
NtRp1657
(dp1658
g62
(dp1659
sg71
g973
sg64
(lp1660
g57
(g78
g59
NtRp1661
(dp1662
g62
(dp1663
g82
g83
ssg71
g1657
sg64
(lp1664
S'server_port'
p1665
asbag57
(g78
g59
NtRp1666
(dp1667
g62
(dp1668
g89
g90
ssg71
g1657
sg64
(lp1669
S':'
asbag57
(g78
g59
NtRp1670
(dp1671
g62
(dp1672
sg71
g1657
sg64
(lp1673
g57
(g58
g59
NtRp1674
(dp1675
g62
(dp1676
g70
I4
ssg71
g1670
sg64
(lp1677
S'8000'
p1678
asbasbasbag57
(g73
g59
NtRp1679
(dp1680
g62
(dp1681
sg71
g973
sg64
(lp1682
g57
(g78
g59
NtRp1683
(dp1684
g62
(dp1685
g82
g83
ssg71
g1679
sg64
(lp1686
S'server_protocol'
p1687
asbag57
(g78
g59
NtRp1688
(dp1689
g62
(dp1690
g89
g90
ssg71
g1679
sg64
(lp1691
S':'
asbag57
(g78
g59
NtRp1692
(dp1693
g62
(dp1694
sg71
g1679
sg64
(lp1695
g57
(g58
g59
NtRp1696
(dp1697
g62
(dp1698
g70
I4
ssg71
g1692
sg64
(lp1699
S'HTTP/1.1'
p1700
asbasbasbag57
(g73
g59
NtRp1701
(dp1702
g62
(dp1703
sg71
g973
sg64
(lp1704
g57
(g78
g59
NtRp1705
(dp1706
g62
(dp1707
g82
g83
ssg71
g1701
sg64
(lp1708
S'server_software'
p1709
asbag57
(g78
g59
NtRp1710
(dp1711
g62
(dp1712
g89
g90
ssg71
g1701
sg64
(lp1713
S':'
asbag57
(g78
g59
NtRp1714
(dp1715
g62
(dp1716
sg71
g1701
sg64
(lp1717
g57
(g58
g59
NtRp1718
(dp1719
g62
(dp1720
g70
I4
ssg71
g1714
sg64
(lp1721
S'Rocket 1.2.6'
p1722
asbasbasbag57
(g73
g59
NtRp1723
(dp1724
g62
(dp1725
sg71
g973
sg64
(lp1726
g57
(g78
g59
NtRp1727
(dp1728
g62
(dp1729
g82
g83
ssg71
g1723
sg64
(lp1730
S'web2py_path'
p1731
asbag57
(g78
g59
NtRp1732
(dp1733
g62
(dp1734
g89
g90
ssg71
g1723
sg64
(lp1735
S':'
asbag57
(g78
g59
NtRp1736
(dp1737
g62
(dp1738
sg71
g1723
sg64
(lp1739
g57
(g58
g59
NtRp1740
(dp1741
g62
(dp1742
g70
I4
ssg71
g1736
sg64
(lp1743
g1020
asbasbasbag57
(g73
g59
NtRp1744
(dp1745
g62
(dp1746
sg71
g973
sg64
(lp1747
g57
(g78
g59
NtRp1748
(dp1749
g62
(dp1750
g82
g83
ssg71
g1744
sg64
(lp1751
S'web2py_version'
p1752
asbag57
(g78
g59
NtRp1753
(dp1754
g62
(dp1755
g89
g90
ssg71
g1744
sg64
(lp1756
S':'
asbag57
(g78
g59
NtRp1757
(dp1758
g62
(dp1759
sg71
g1744
sg64
(lp1760
g57
(g58
g59
NtRp1761
(dp1762
g62
(dp1763
g70
I4
ssg71
g1757
sg64
(lp1764
g57
(g66
g59
NtRp1765
(dp1766
g62
(dp1767
g70
I3
ssg71
Nsg64
(lp1768
g57
(g73
g59
NtRp1769
(dp1770
g62
(dp1771
sg71
g1765
sg64
(lp1772
g57
(g78
g59
NtRp1773
(dp1774
g62
(dp1775
sg71
g1769
sg64
(lp1776
g57
(g58
g59
NtRp1777
(dp1778
g62
(dp1779
g70
I3
ssg71
g1773
sg64
(lp1780
S'2'
asbasbasbag57
(g73
g59
NtRp1781
(dp1782
g62
(dp1783
sg71
g1765
sg64
(lp1784
g57
(g78
g59
NtRp1785
(dp1786
g62
(dp1787
sg71
g1781
sg64
(lp1788
g57
(g58
g59
NtRp1789
(dp1790
g62
(dp1791
g70
I3
ssg71
g1785
sg64
(lp1792
S'3'
asbasbasbag57
(g73
g59
NtRp1793
(dp1794
g62
(dp1795
sg71
g1765
sg64
(lp1796
g57
(g78
g59
NtRp1797
(dp1798
g62
(dp1799
sg71
g1793
sg64
(lp1800
g57
(g58
g59
NtRp1801
(dp1802
g62
(dp1803
g70
I3
ssg71
g1797
sg64
(lp1804
S'2'
asbasbasbag57
(g73
g59
NtRp1805
(dp1806
g62
(dp1807
sg71
g1765
sg64
(lp1808
g57
(g78
g59
NtRp1809
(dp1810
g62
(dp1811
sg71
g1805
sg64
(lp1812
g57
(g58
g59
NtRp1813
(dp1814
g62
(dp1815
g70
I3
ssg71
g1809
sg64
(lp1816
S'datetime.datetime(2012, 12, 17, 15, 3, 30)'
p1817
asbasbasbag57
(g73
g59
NtRp1818
(dp1819
g62
(dp1820
sg71
g1765
sg64
(lp1821
g57
(g78
g59
NtRp1822
(dp1823
g62
(dp1824
sg71
g1818
sg64
(lp1825
g57
(g58
g59
NtRp1826
(dp1827
g62
(dp1828
g70
I3
ssg71
g1822
sg64
(lp1829
S'stable'
p1830
asbasbasbasbasbasbasbag57
(g73
g59
NtRp1831
(dp1832
g62
(dp1833
sg71
g973
sg64
(lp1834
g57
(g78
g59
NtRp1835
(dp1836
g62
(dp1837
g82
g83
ssg71
g1831
sg64
(lp1838
S'wsgi_errors'
p1839
asbag57
(g78
g59
NtRp1840
(dp1841
g62
(dp1842
g89
g90
ssg71
g1831
sg64
(lp1843
S':'
asbag57
(g78
g59
NtRp1844
(dp1845
g62
(dp1846
sg71
g1831
sg64
(lp1847
g57
(g58
g59
NtRp1848
(dp1849
g62
(dp1850
g70
I4
ssg71
g1844
sg64
(lp1851
S"<open file '<stderr>', mode 'w' at 0xb72df0d0>"
p1852
asbasbasbag57
(g73
g59
NtRp1853
(dp1854
g62
(dp1855
sg71
g973
sg64
(lp1856
g57
(g78
g59
NtRp1857
(dp1858
g62
(dp1859
g82
g83
ssg71
g1853
sg64
(lp1860
S'wsgi_file_wrapper'
p1861
asbag57
(g78
g59
NtRp1862
(dp1863
g62
(dp1864
g89
g90
ssg71
g1853
sg64
(lp1865
S':'
asbag57
(g78
g59
NtRp1866
(dp1867
g62
(dp1868
sg71
g1853
sg64
(lp1869
g57
(g58
g59
NtRp1870
(dp1871
g62
(dp1872
g70
I4
ssg71
g1866
sg64
(lp1873
S'<class wsgiref.util.FileWrapper at 0x98b4b9c>'
p1874
asbasbasbag57
(g73
g59
NtRp1875
(dp1876
g62
(dp1877
sg71
g973
sg64
(lp1878
g57
(g78
g59
NtRp1879
(dp1880
g62
(dp1881
g82
g83
ssg71
g1875
sg64
(lp1882
S'wsgi_input'
p1883
asbag57
(g78
g59
NtRp1884
(dp1885
g62
(dp1886
g89
g90
ssg71
g1875
sg64
(lp1887
S':'
asbag57
(g78
g59
NtRp1888
(dp1889
g62
(dp1890
sg71
g1875
sg64
(lp1891
g57
(g58
g59
NtRp1892
(dp1893
g62
(dp1894
g70
I4
ssg71
g1888
sg64
(lp1895
S'<socket._fileobject object at 0xaec64fac>'
p1896
asbasbasbag57
(g73
g59
NtRp1897
(dp1898
g62
(dp1899
sg71
g973
sg64
(lp1900
g57
(g78
g59
NtRp1901
(dp1902
g62
(dp1903
g82
g83
ssg71
g1897
sg64
(lp1904
S'wsgi_multiprocess'
p1905
asbag57
(g78
g59
NtRp1906
(dp1907
g62
(dp1908
g89
g90
ssg71
g1897
sg64
(lp1909
S':'
asbag57
(g78
g59
NtRp1910
(dp1911
g62
(dp1912
sg71
g1897
sg64
(lp1913
g57
(g58
g59
NtRp1914
(dp1915
g62
(dp1916
g70
I4
ssg71
g1910
sg64
(lp1917
g100
asbasbasbag57
(g73
g59
NtRp1918
(dp1919
g62
(dp1920
sg71
g973
sg64
(lp1921
g57
(g78
g59
NtRp1922
(dp1923
g62
(dp1924
g82
g83
ssg71
g1918
sg64
(lp1925
S'wsgi_multithread'
p1926
asbag57
(g78
g59
NtRp1927
(dp1928
g62
(dp1929
g89
g90
ssg71
g1918
sg64
(lp1930
S':'
asbag57
(g78
g59
NtRp1931
(dp1932
g62
(dp1933
sg71
g1918
sg64
(lp1934
g57
(g58
g59
NtRp1935
(dp1936
g62
(dp1937
g70
I4
ssg71
g1931
sg64
(lp1938
S'True'
p1939
asbasbasbag57
(g73
g59
NtRp1940
(dp1941
g62
(dp1942
sg71
g973
sg64
(lp1943
g57
(g78
g59
NtRp1944
(dp1945
g62
(dp1946
g82
g83
ssg71
g1940
sg64
(lp1947
S'wsgi_run_once'
p1948
asbag57
(g78
g59
NtRp1949
(dp1950
g62
(dp1951
g89
g90
ssg71
g1940
sg64
(lp1952
S':'
asbag57
(g78
g59
NtRp1953
(dp1954
g62
(dp1955
sg71
g1940
sg64
(lp1956
g57
(g58
g59
NtRp1957
(dp1958
g62
(dp1959
g70
I4
ssg71
g1953
sg64
(lp1960
g100
asbasbasbag57
(g73
g59
NtRp1961
(dp1962
g62
(dp1963
sg71
g973
sg64
(lp1964
g57
(g78
g59
NtRp1965
(dp1966
g62
(dp1967
g82
g83
ssg71
g1961
sg64
(lp1968
S'wsgi_url_scheme'
p1969
asbag57
(g78
g59
NtRp1970
(dp1971
g62
(dp1972
g89
g90
ssg71
g1961
sg64
(lp1973
S':'
asbag57
(g78
g59
NtRp1974
(dp1975
g62
(dp1976
sg71
g1961
sg64
(lp1977
g57
(g58
g59
NtRp1978
(dp1979
g62
(dp1980
g70
I4
ssg71
g1974
sg64
(lp1981
S'http'
p1982
asbasbasbag57
(g73
g59
NtRp1983
(dp1984
g62
(dp1985
sg71
g973
sg64
(lp1986
g57
(g78
g59
NtRp1987
(dp1988
g62
(dp1989
g82
g83
ssg71
g1983
sg64
(lp1990
S'wsgi_version'
p1991
asbag57
(g78
g59
NtRp1992
(dp1993
g62
(dp1994
g89
g90
ssg71
g1983
sg64
(lp1995
S':'
asbag57
(g78
g59
NtRp1996
(dp1997
g62
(dp1998
sg71
g1983
sg64
(lp1999
g57
(g58
g59
NtRp2000
(dp2001
g62
(dp2002
g70
I4
ssg71
g1996
sg64
(lp2003
g57
(g66
g59
NtRp2004
(dp2005
g62
(dp2006
g70
I3
ssg71
Nsg64
(lp2007
g57
(g73
g59
NtRp2008
(dp2009
g62
(dp2010
sg71
g2004
sg64
(lp2011
g57
(g78
g59
NtRp2012
(dp2013
g62
(dp2014
sg71
g2008
sg64
(lp2015
g57
(g58
g59
NtRp2016
(dp2017
g62
(dp2018
g70
I3
ssg71
g2012
sg64
(lp2019
S'1'
asbasbasbag57
(g73
g59
NtRp2020
(dp2021
g62
(dp2022
sg71
g2004
sg64
(lp2023
g57
(g78
g59
NtRp2024
(dp2025
g62
(dp2026
sg71
g2020
sg64
(lp2027
g57
(g58
g59
NtRp2028
(dp2029
g62
(dp2030
g70
I3
ssg71
g2024
sg64
(lp2031
S'0'
asbasbasbasbasbasbasbasbasbasbasbag57
(g73
g59
NtRp2032
(dp2033
g62
(dp2034
sg71
g67
sg64
(lp2035
g57
(g78
g59
NtRp2036
(dp2037
g62
(dp2038
g82
g83
ssg71
g2032
sg64
(lp2039
S'extension'
p2040
asbag57
(g78
g59
NtRp2041
(dp2042
g62
(dp2043
g89
g90
ssg71
g2032
sg64
(lp2044
S':'
asbag57
(g78
g59
NtRp2045
(dp2046
g62
(dp2047
sg71
g2032
sg64
(lp2048
g57
(g58
g59
NtRp2049
(dp2050
g62
(dp2051
g70
I5
ssg71
g2045
sg64
(lp2052
S'html'
p2053
asbasbasbag57
(g73
g59
NtRp2054
(dp2055
g62
(dp2056
sg71
g67
sg64
(lp2057
g57
(g78
g59
NtRp2058
(dp2059
g62
(dp2060
g82
g83
ssg71
g2054
sg64
(lp2061
S'folder'
p2062
asbag57
(g78
g59
NtRp2063
(dp2064
g62
(dp2065
g89
g90
ssg71
g2054
sg64
(lp2066
S':'
asbag57
(g78
g59
NtRp2067
(dp2068
g62
(dp2069
sg71
g2054
sg64
(lp2070
g57
(g58
g59
NtRp2071
(dp2072
g62
(dp2073
g70
I5
ssg71
g2067
sg64
(lp2074
S'/home/anil/bootstrap/web2py/applications/DEV_bootstrap_ch/'
p2075
asbasbasbag57
(g73
g59
NtRp2076
(dp2077
g62
(dp2078
sg71
g67
sg64
(lp2079
g57
(g78
g59
NtRp2080
(dp2081
g62
(dp2082
g82
g83
ssg71
g2076
sg64
(lp2083
S'function'
p2084
asbag57
(g78
g59
NtRp2085
(dp2086
g62
(dp2087
g89
g90
ssg71
g2076
sg64
(lp2088
S':'
asbag57
(g78
g59
NtRp2089
(dp2090
g62
(dp2091
sg71
g2076
sg64
(lp2092
g57
(g58
g59
NtRp2093
(dp2094
g62
(dp2095
g70
I5
ssg71
g2089
sg64
(lp2096
S'router'
p2097
asbasbasbag57
(g73
g59
NtRp2098
(dp2099
g62
(dp2100
sg71
g67
sg64
(lp2101
g57
(g78
g59
NtRp2102
(dp2103
g62
(dp2104
g82
g83
ssg71
g2098
sg64
(lp2105
S'get_vars'
p2106
asbag57
(g78
g59
NtRp2107
(dp2108
g62
(dp2109
g89
g90
ssg71
g2098
sg64
(lp2110
S':'
asbag57
(g78
g59
NtRp2111
(dp2112
g62
(dp2113
sg71
g2098
sg64
(lp2114
g57
(g58
g59
NtRp2115
(dp2116
g62
(dp2117
g70
I5
ssg71
g2111
sg64
(lp2118
g57
(g66
g59
NtRp2119
(dp2120
g62
(dp2121
g70
I4
ssg71
Nsg64
(lp2122
sbasbasbasbag57
(g73
g59
NtRp2123
(dp2124
g62
(dp2125
sg71
g67
sg64
(lp2126
g57
(g78
g59
NtRp2127
(dp2128
g62
(dp2129
g82
g83
ssg71
g2123
sg64
(lp2130
S'global_settings'
p2131
asbag57
(g78
g59
NtRp2132
(dp2133
g62
(dp2134
g89
g90
ssg71
g2123
sg64
(lp2135
S':'
asbag57
(g78
g59
NtRp2136
(dp2137
g62
(dp2138
sg71
g2123
sg64
(lp2139
g57
(g58
g59
NtRp2140
(dp2141
g62
(dp2142
g70
I5
ssg71
g2136
sg64
(lp2143
g57
(g66
g59
NtRp2144
(dp2145
g62
(dp2146
g70
I4
ssg71
Nsg64
(lp2147
g57
(g73
g59
NtRp2148
(dp2149
g62
(dp2150
sg71
g2144
sg64
(lp2151
g57
(g78
g59
NtRp2152
(dp2153
g62
(dp2154
g82
g83
ssg71
g2148
sg64
(lp2155
g985
asbag57
(g78
g59
NtRp2156
(dp2157
g62
(dp2158
g89
g90
ssg71
g2148
sg64
(lp2159
S':'
asbag57
(g78
g59
NtRp2160
(dp2161
g62
(dp2162
sg71
g2148
sg64
(lp2163
g57
(g58
g59
NtRp2164
(dp2165
g62
(dp2166
g70
I4
ssg71
g2160
sg64
(lp2167
S"set(['/home/anil/bootstrap/web2py/applications/admin/', '/home/anil/bootstrap/web2py/applications/DEV_bootstrap/', '/home/anil/bootstrap/web2py/applications/DEV_bootstrap_ch/'])"
p2168
asbasbasbag57
(g73
g59
NtRp2169
(dp2170
g62
(dp2171
sg71
g2144
sg64
(lp2172
g57
(g78
g59
NtRp2173
(dp2174
g62
(dp2175
g82
g83
ssg71
g2169
sg64
(lp2176
g1007
asbag57
(g78
g59
NtRp2177
(dp2178
g62
(dp2179
g89
g90
ssg71
g2169
sg64
(lp2180
S':'
asbag57
(g78
g59
NtRp2181
(dp2182
g62
(dp2183
sg71
g2169
sg64
(lp2184
g57
(g58
g59
NtRp2185
(dp2186
g62
(dp2187
g70
I4
ssg71
g2181
sg64
(lp2188
g1020
asbasbasbag57
(g73
g59
NtRp2189
(dp2190
g62
(dp2191
sg71
g2144
sg64
(lp2192
g57
(g78
g59
NtRp2193
(dp2194
g62
(dp2195
g82
g83
ssg71
g2189
sg64
(lp2196
g1029
asbag57
(g78
g59
NtRp2197
(dp2198
g62
(dp2199
g89
g90
ssg71
g2189
sg64
(lp2200
S':'
asbag57
(g78
g59
NtRp2201
(dp2202
g62
(dp2203
sg71
g2189
sg64
(lp2204
g57
(g58
g59
NtRp2205
(dp2206
g62
(dp2207
g70
I4
ssg71
g2201
sg64
(lp2208
g57
(g66
g59
NtRp2209
(dp2210
g62
(dp2211
g70
I3
ssg71
Nsg64
(lp2212
sbasbasbasbag57
(g73
g59
NtRp2213
(dp2214
g62
(dp2215
sg71
g2144
sg64
(lp2216
g57
(g78
g59
NtRp2217
(dp2218
g62
(dp2219
g82
g83
ssg71
g2213
sg64
(lp2220
g1054
asbag57
(g78
g59
NtRp2221
(dp2222
g62
(dp2223
g89
g90
ssg71
g2213
sg64
(lp2224
S':'
asbag57
(g78
g59
NtRp2225
(dp2226
g62
(dp2227
sg71
g2213
sg64
(lp2228
g57
(g58
g59
NtRp2229
(dp2230
g62
(dp2231
g70
I4
ssg71
g2225
sg64
(lp2232
S"<Values at 0x992be8c: {'verbose': False, 'ip': '127.0.0.1', 'with_scheduler': False, 'ips': [], 'shutdown_timeout': 5, 'taskbar': False, 'port': 8000, 'maxthreads': None, 'softcron': False, 'server_name': 'anil-Inspiron-1525', 'bpython': False, 'nogui': False, 'pid_filename': 'httpserver.pid', 'extcron': False, 'runcron': False, 'run_system_tests': False, 'test': None, 'folder': '/home/anil/bootstrap/web2py', 'config': '', 'import_models': False, 'winservice': '', 'shell': None, 'run': '', 'log_filename': 'httpserver.log', 'debuglevel': 30, 'args': [''], 'socket_timeout': 5, 'ssl_ca_certificate': None, 'scheduler': None, 'profiler_filename': None, 'ssl_private_key': '', 'scheduler_groups': None, 'password': '123', 'request_queue_size': 5, 'ssl_certificate': '', 'cronjob': False, 'numthreads': None, 'quiet': False, 'interfaces': None, 'minthreads': None, 'timeout': 10, 'plain': False, 'nobanner': False}>"
p2233
asbasbasbag57
(g73
g59
NtRp2234
(dp2235
g62
(dp2236
sg71
g2144
sg64
(lp2237
g57
(g78
g59
NtRp2238
(dp2239
g62
(dp2240
g82
g83
ssg71
g2234
sg64
(lp2241
g1076
asbag57
(g78
g59
NtRp2242
(dp2243
g62
(dp2244
g89
g90
ssg71
g2234
sg64
(lp2245
S':'
asbag57
(g78
g59
NtRp2246
(dp2247
g62
(dp2248
sg71
g2234
sg64
(lp2249
g57
(g58
g59
NtRp2250
(dp2251
g62
(dp2252
g70
I4
ssg71
g2246
sg64
(lp2253
S'set([])'
p2254
asbasbasbag57
(g73
g59
NtRp2255
(dp2256
g62
(dp2257
sg71
g2144
sg64
(lp2258
g57
(g78
g59
NtRp2259
(dp2260
g62
(dp2261
g82
g83
ssg71
g2255
sg64
(lp2262
g1098
asbag57
(g78
g59
NtRp2263
(dp2264
g62
(dp2265
g89
g90
ssg71
g2255
sg64
(lp2266
S':'
asbag57
(g78
g59
NtRp2267
(dp2268
g62
(dp2269
sg71
g2255
sg64
(lp2270
g57
(g58
g59
NtRp2271
(dp2272
g62
(dp2273
g70
I4
ssg71
g2267
sg64
(lp2274
g100
asbasbasbag57
(g73
g59
NtRp2275
(dp2276
g62
(dp2277
sg71
g2144
sg64
(lp2278
g57
(g78
g59
NtRp2279
(dp2280
g62
(dp2281
g82
g83
ssg71
g2275
sg64
(lp2282
g1119
asbag57
(g78
g59
NtRp2283
(dp2284
g62
(dp2285
g89
g90
ssg71
g2275
sg64
(lp2286
S':'
asbag57
(g78
g59
NtRp2287
(dp2288
g62
(dp2289
sg71
g2275
sg64
(lp2290
g57
(g58
g59
NtRp2291
(dp2292
g62
(dp2293
g70
I4
ssg71
g2287
sg64
(lp2294
g1132
asbasbasbag57
(g73
g59
NtRp2295
(dp2296
g62
(dp2297
sg71
g2144
sg64
(lp2298
g57
(g78
g59
NtRp2299
(dp2300
g62
(dp2301
g82
g83
ssg71
g2295
sg64
(lp2302
g1361
asbag57
(g78
g59
NtRp2303
(dp2304
g62
(dp2305
g89
g90
ssg71
g2295
sg64
(lp2306
S':'
asbag57
(g78
g59
NtRp2307
(dp2308
g62
(dp2309
sg71
g2295
sg64
(lp2310
g57
(g58
g59
NtRp2311
(dp2312
g62
(dp2313
g70
I4
ssg71
g2307
sg64
(lp2314
g100
asbasbasbag57
(g73
g59
NtRp2315
(dp2316
g62
(dp2317
sg71
g2144
sg64
(lp2318
g57
(g78
g59
NtRp2319
(dp2320
g62
(dp2321
g82
g83
ssg71
g2315
sg64
(lp2322
g1382
asbag57
(g78
g59
NtRp2323
(dp2324
g62
(dp2325
g89
g90
ssg71
g2315
sg64
(lp2326
S':'
asbag57
(g78
g59
NtRp2327
(dp2328
g62
(dp2329
sg71
g2315
sg64
(lp2330
g57
(g58
g59
NtRp2331
(dp2332
g62
(dp2333
g70
I4
ssg71
g2327
sg64
(lp2334
g100
asbasbasbag57
(g73
g59
NtRp2335
(dp2336
g62
(dp2337
sg71
g2144
sg64
(lp2338
g57
(g78
g59
NtRp2339
(dp2340
g62
(dp2341
g82
g83
ssg71
g2335
sg64
(lp2342
g1403
asbag57
(g78
g59
NtRp2343
(dp2344
g62
(dp2345
g89
g90
ssg71
g2335
sg64
(lp2346
S':'
asbag57
(g78
g59
NtRp2347
(dp2348
g62
(dp2349
sg71
g2335
sg64
(lp2350
g57
(g58
g59
NtRp2351
(dp2352
g62
(dp2353
g70
I4
ssg71
g2347
sg64
(lp2354
g57
(g66
g59
NtRp2355
(dp2356
g62
(dp2357
g70
I3
ssg71
Nsg64
(lp2358
g57
(g73
g59
NtRp2359
(dp2360
g62
(dp2361
sg71
g2355
sg64
(lp2362
g57
(g78
g59
NtRp2363
(dp2364
g62
(dp2365
sg71
g2359
sg64
(lp2366
g57
(g58
g59
NtRp2367
(dp2368
g62
(dp2369
g70
I3
ssg71
g2363
sg64
(lp2370
g1432
asbasbasbag57
(g73
g59
NtRp2371
(dp2372
g62
(dp2373
sg71
g2355
sg64
(lp2374
g57
(g78
g59
NtRp2375
(dp2376
g62
(dp2377
sg71
g2371
sg64
(lp2378
g57
(g58
g59
NtRp2379
(dp2380
g62
(dp2381
g70
I3
ssg71
g2375
sg64
(lp2382
g1445
asbasbasbag57
(g73
g59
NtRp2383
(dp2384
g62
(dp2385
sg71
g2355
sg64
(lp2386
g57
(g78
g59
NtRp2387
(dp2388
g62
(dp2389
sg71
g2383
sg64
(lp2390
g57
(g58
g59
NtRp2391
(dp2392
g62
(dp2393
g70
I3
ssg71
g2387
sg64
(lp2394
g1458
asbasbasbag57
(g73
g59
NtRp2395
(dp2396
g62
(dp2397
sg71
g2355
sg64
(lp2398
g57
(g78
g59
NtRp2399
(dp2400
g62
(dp2401
sg71
g2395
sg64
(lp2402
g57
(g58
g59
NtRp2403
(dp2404
g62
(dp2405
g70
I3
ssg71
g2399
sg64
(lp2406
g1471
asbasbasbag57
(g73
g59
NtRp2407
(dp2408
g62
(dp2409
sg71
g2355
sg64
(lp2410
g57
(g78
g59
NtRp2411
(dp2412
g62
(dp2413
sg71
g2407
sg64
(lp2414
g57
(g58
g59
NtRp2415
(dp2416
g62
(dp2417
g70
I3
ssg71
g2411
sg64
(lp2418
g1484
asbasbasbasbasbasbasbag57
(g73
g59
NtRp2419
(dp2420
g62
(dp2421
sg71
g2144
sg64
(lp2422
g57
(g78
g59
NtRp2423
(dp2424
g62
(dp2425
g82
g83
ssg71
g2419
sg64
(lp2426
g1752
asbag57
(g78
g59
NtRp2427
(dp2428
g62
(dp2429
g89
g90
ssg71
g2419
sg64
(lp2430
S':'
asbag57
(g78
g59
NtRp2431
(dp2432
g62
(dp2433
sg71
g2419
sg64
(lp2434
g57
(g58
g59
NtRp2435
(dp2436
g62
(dp2437
g70
I4
ssg71
g2431
sg64
(lp2438
g57
(g66
g59
NtRp2439
(dp2440
g62
(dp2441
g70
I3
ssg71
Nsg64
(lp2442
g57
(g73
g59
NtRp2443
(dp2444
g62
(dp2445
sg71
g2439
sg64
(lp2446
g57
(g78
g59
NtRp2447
(dp2448
g62
(dp2449
sg71
g2443
sg64
(lp2450
g57
(g58
g59
NtRp2451
(dp2452
g62
(dp2453
g70
I3
ssg71
g2447
sg64
(lp2454
S'2'
asbasbasbag57
(g73
g59
NtRp2455
(dp2456
g62
(dp2457
sg71
g2439
sg64
(lp2458
g57
(g78
g59
NtRp2459
(dp2460
g62
(dp2461
sg71
g2455
sg64
(lp2462
g57
(g58
g59
NtRp2463
(dp2464
g62
(dp2465
g70
I3
ssg71
g2459
sg64
(lp2466
S'3'
asbasbasbag57
(g73
g59
NtRp2467
(dp2468
g62
(dp2469
sg71
g2439
sg64
(lp2470
g57
(g78
g59
NtRp2471
(dp2472
g62
(dp2473
sg71
g2467
sg64
(lp2474
g57
(g58
g59
NtRp2475
(dp2476
g62
(dp2477
g70
I3
ssg71
g2471
sg64
(lp2478
S'2'
asbasbasbag57
(g73
g59
NtRp2479
(dp2480
g62
(dp2481
sg71
g2439
sg64
(lp2482
g57
(g78
g59
NtRp2483
(dp2484
g62
(dp2485
sg71
g2479
sg64
(lp2486
g57
(g58
g59
NtRp2487
(dp2488
g62
(dp2489
g70
I3
ssg71
g2483
sg64
(lp2490
S'datetime.datetime(2012, 12, 17, 15, 3, 30)'
p2491
asbasbasbag57
(g73
g59
NtRp2492
(dp2493
g62
(dp2494
sg71
g2439
sg64
(lp2495
g57
(g78
g59
NtRp2496
(dp2497
g62
(dp2498
sg71
g2492
sg64
(lp2499
g57
(g58
g59
NtRp2500
(dp2501
g62
(dp2502
g70
I3
ssg71
g2496
sg64
(lp2503
g1830
asbasbasbasbasbasbasbasbasbasbasbag57
(g73
g59
NtRp2504
(dp2505
g62
(dp2506
sg71
g67
sg64
(lp2507
g57
(g78
g59
NtRp2508
(dp2509
g62
(dp2510
g82
g83
ssg71
g2504
sg64
(lp2511
S'is_https'
p2512
asbag57
(g78
g59
NtRp2513
(dp2514
g62
(dp2515
g89
g90
ssg71
g2504
sg64
(lp2516
S':'
asbag57
(g78
g59
NtRp2517
(dp2518
g62
(dp2519
sg71
g2504
sg64
(lp2520
g57
(g58
g59
NtRp2521
(dp2522
g62
(dp2523
g70
I5
ssg71
g2517
sg64
(lp2524
g100
asbasbasbag57
(g73
g59
NtRp2525
(dp2526
g62
(dp2527
sg71
g67
sg64
(lp2528
g57
(g78
g59
NtRp2529
(dp2530
g62
(dp2531
g82
g83
ssg71
g2525
sg64
(lp2532
S'is_local'
p2533
asbag57
(g78
g59
NtRp2534
(dp2535
g62
(dp2536
g89
g90
ssg71
g2525
sg64
(lp2537
S':'
asbag57
(g78
g59
NtRp2538
(dp2539
g62
(dp2540
sg71
g2525
sg64
(lp2541
g57
(g58
g59
NtRp2542
(dp2543
g62
(dp2544
g70
I5
ssg71
g2538
sg64
(lp2545
g1939
asbasbasbag57
(g73
g59
NtRp2546
(dp2547
g62
(dp2548
sg71
g67
sg64
(lp2549
g57
(g78
g59
NtRp2550
(dp2551
g62
(dp2552
g82
g83
ssg71
g2546
sg64
(lp2553
S'is_restful'
p2554
asbag57
(g78
g59
NtRp2555
(dp2556
g62
(dp2557
g89
g90
ssg71
g2546
sg64
(lp2558
S':'
asbag57
(g78
g59
NtRp2559
(dp2560
g62
(dp2561
sg71
g2546
sg64
(lp2562
g57
(g58
g59
NtRp2563
(dp2564
g62
(dp2565
g70
I5
ssg71
g2559
sg64
(lp2566
g100
asbasbasbag57
(g73
g59
NtRp2567
(dp2568
g62
(dp2569
sg71
g67
sg64
(lp2570
g57
(g78
g59
NtRp2571
(dp2572
g62
(dp2573
g82
g83
ssg71
g2567
sg64
(lp2574
S'now'
p2575
asbag57
(g78
g59
NtRp2576
(dp2577
g62
(dp2578
g89
g90
ssg71
g2567
sg64
(lp2579
S':'
asbag57
(g78
g59
NtRp2580
(dp2581
g62
(dp2582
sg71
g2567
sg64
(lp2583
g57
(g58
g59
NtRp2584
(dp2585
g62
(dp2586
g70
I5
ssg71
g2580
sg64
(lp2587
S'datetime.datetime(2013, 2, 24, 19, 38, 56, 721040)'
p2588
asbasbasbag57
(g73
g59
NtRp2589
(dp2590
g62
(dp2591
sg71
g67
sg64
(lp2592
g57
(g78
g59
NtRp2593
(dp2594
g62
(dp2595
g82
g83
ssg71
g2589
sg64
(lp2596
S'post_vars'
p2597
asbag57
(g78
g59
NtRp2598
(dp2599
g62
(dp2600
g89
g90
ssg71
g2589
sg64
(lp2601
S':'
asbag57
(g78
g59
NtRp2602
(dp2603
g62
(dp2604
sg71
g2589
sg64
(lp2605
g57
(g58
g59
NtRp2606
(dp2607
g62
(dp2608
g70
I5
ssg71
g2602
sg64
(lp2609
g57
(g66
g59
NtRp2610
(dp2611
g62
(dp2612
g70
I4
ssg71
Nsg64
(lp2613
sbasbasbasbag57
(g73
g59
NtRp2614
(dp2615
g62
(dp2616
sg71
g67
sg64
(lp2617
g57
(g78
g59
NtRp2618
(dp2619
g62
(dp2620
g82
g83
ssg71
g2614
sg64
(lp2621
S'raw_args'
p2622
asbag57
(g78
g59
NtRp2623
(dp2624
g62
(dp2625
g89
g90
ssg71
g2614
sg64
(lp2626
S':'
asbag57
(g78
g59
NtRp2627
(dp2628
g62
(dp2629
sg71
g2614
sg64
(lp2630
g57
(g58
g59
NtRp2631
(dp2632
g62
(dp2633
g70
I5
ssg71
g2627
sg64
(lp2634
S'project/experiment.project/1/sample.experiment/1/biosource.sample_name/2/edit/biosource/1'
p2635
asbasbasbag57
(g73
g59
NtRp2636
(dp2637
g62
(dp2638
sg71
g67
sg64
(lp2639
g57
(g78
g59
NtRp2640
(dp2641
g62
(dp2642
g82
g83
ssg71
g2636
sg64
(lp2643
S'raw_extension'
p2644
asbag57
(g78
g59
NtRp2645
(dp2646
g62
(dp2647
g89
g90
ssg71
g2636
sg64
(lp2648
S':'
asbag57
(g78
g59
NtRp2649
(dp2650
g62
(dp2651
sg71
g2636
sg64
(lp2652
g57
(g58
g59
NtRp2653
(dp2654
g62
(dp2655
g70
I5
ssg71
g2649
sg64
(lp2656
S'None'
p2657
asbasbasbag57
(g73
g59
NtRp2658
(dp2659
g62
(dp2660
sg71
g67
sg64
(lp2661
g57
(g78
g59
NtRp2662
(dp2663
g62
(dp2664
g82
g83
ssg71
g2658
sg64
(lp2665
S'url'
p2666
asbag57
(g78
g59
NtRp2667
(dp2668
g62
(dp2669
g89
g90
ssg71
g2658
sg64
(lp2670
S':'
asbag57
(g78
g59
NtRp2671
(dp2672
g62
(dp2673
sg71
g2658
sg64
(lp2674
g57
(g58
g59
NtRp2675
(dp2676
g62
(dp2677
g70
I5
ssg71
g2671
sg64
(lp2678
g1506
asbasbasbag57
(g73
g59
NtRp2679
(dp2680
g62
(dp2681
sg71
g67
sg64
(lp2682
g57
(g78
g59
NtRp2683
(dp2684
g62
(dp2685
g82
g83
ssg71
g2679
sg64
(lp2686
S'utcnow'
p2687
asbag57
(g78
g59
NtRp2688
(dp2689
g62
(dp2690
g89
g90
ssg71
g2679
sg64
(lp2691
S':'
asbag57
(g78
g59
NtRp2692
(dp2693
g62
(dp2694
sg71
g2679
sg64
(lp2695
g57
(g58
g59
NtRp2696
(dp2697
g62
(dp2698
g70
I5
ssg71
g2692
sg64
(lp2699
S'datetime.datetime(2013, 2, 24, 14, 8, 56, 721105)'
p2700
asbasbasbag57
(g73
g59
NtRp2701
(dp2702
g62
(dp2703
sg71
g67
sg64
(lp2704
g57
(g78
g59
NtRp2705
(dp2706
g62
(dp2707
g82
g83
ssg71
g2701
sg64
(lp2708
S'uuid'
p2709
asbag57
(g78
g59
NtRp2710
(dp2711
g62
(dp2712
g89
g90
ssg71
g2701
sg64
(lp2713
S':'
asbag57
(g78
g59
NtRp2714
(dp2715
g62
(dp2716
sg71
g2701
sg64
(lp2717
g57
(g58
g59
NtRp2718
(dp2719
g62
(dp2720
g70
I5
ssg71
g2714
sg64
(lp2721
S'DEV_bootstrap_ch/127.0.0.1.2013-02-24.19-38-56.a988da62-2e23-4848-80e8-bb0e254c3248'
p2722
asbasbasbag57
(g73
g59
NtRp2723
(dp2724
g62
(dp2725
sg71
g67
sg64
(lp2726
g57
(g78
g59
NtRp2727
(dp2728
g62
(dp2729
g82
g83
ssg71
g2723
sg64
(lp2730
S'vars'
p2731
asbag57
(g78
g59
NtRp2732
(dp2733
g62
(dp2734
g89
g90
ssg71
g2723
sg64
(lp2735
S':'
asbag57
(g78
g59
NtRp2736
(dp2737
g62
(dp2738
sg71
g2723
sg64
(lp2739
g57
(g58
g59
NtRp2740
(dp2741
g62
(dp2742
g70
I5
ssg71
g2736
sg64
(lp2743
g57
(g66
g59
NtRp2744
(dp2745
g62
(dp2746
g70
I4
ssg71
Nsg64
(lp2747
sbasbasbasbag57
(g73
g59
NtRp2748
(dp2749
g62
(dp2750
sg71
g67
sg64
(lp2751
g57
(g78
g59
NtRp2752
(dp2753
g62
(dp2754
g82
g83
ssg71
g2748
sg64
(lp2755
S'wsgi'
p2756
asbag57
(g78
g59
NtRp2757
(dp2758
g62
(dp2759
g89
g90
ssg71
g2748
sg64
(lp2760
S':'
asbag57
(g78
g59
NtRp2761
(dp2762
g62
(dp2763
sg71
g2748
sg64
(lp2764
g57
(g58
g59
NtRp2765
(dp2766
g62
(dp2767
g70
I5
ssg71
g2761
sg64
(lp2768
g57
(g66
g59
NtRp2769
(dp2770
g62
(dp2771
g70
I4
ssg71
Nsg64
(lp2772
g57
(g73
g59
NtRp2773
(dp2774
g62
(dp2775
sg71
g2769
sg64
(lp2776
g57
(g78
g59
NtRp2777
(dp2778
g62
(dp2779
g82
g83
ssg71
g2773
sg64
(lp2780
S'environ'
p2781
asbag57
(g78
g59
NtRp2782
(dp2783
g62
(dp2784
g89
g90
ssg71
g2773
sg64
(lp2785
S':'
asbag57
(g78
g59
NtRp2786
(dp2787
g62
(dp2788
sg71
g2773
sg64
(lp2789
g57
(g58
g59
NtRp2790
(dp2791
g62
(dp2792
g70
I4
ssg71
g2786
sg64
(lp2793
g57
(g66
g59
NtRp2794
(dp2795
g62
(dp2796
g70
I3
ssg71
Nsg64
(lp2797
g57
(g73
g59
NtRp2798
(dp2799
g62
(dp2800
sg71
g2794
sg64
(lp2801
g57
(g78
g59
NtRp2802
(dp2803
g62
(dp2804
g82
g83
ssg71
g2798
sg64
(lp2805
S'HTTP_ACCEPT'
p2806
asbag57
(g78
g59
NtRp2807
(dp2808
g62
(dp2809
g89
g90
ssg71
g2798
sg64
(lp2810
S':'
asbag57
(g78
g59
NtRp2811
(dp2812
g62
(dp2813
sg71
g2798
sg64
(lp2814
g57
(g58
g59
NtRp2815
(dp2816
g62
(dp2817
g70
I3
ssg71
g2811
sg64
(lp2818
g1154
asbasbasbag57
(g73
g59
NtRp2819
(dp2820
g62
(dp2821
sg71
g2794
sg64
(lp2822
g57
(g78
g59
NtRp2823
(dp2824
g62
(dp2825
g82
g83
ssg71
g2819
sg64
(lp2826
S'HTTP_ACCEPT_CHARSET'
p2827
asbag57
(g78
g59
NtRp2828
(dp2829
g62
(dp2830
g89
g90
ssg71
g2819
sg64
(lp2831
S':'
asbag57
(g78
g59
NtRp2832
(dp2833
g62
(dp2834
sg71
g2819
sg64
(lp2835
g57
(g58
g59
NtRp2836
(dp2837
g62
(dp2838
g70
I3
ssg71
g2832
sg64
(lp2839
g1176
asbasbasbag57
(g73
g59
NtRp2840
(dp2841
g62
(dp2842
sg71
g2794
sg64
(lp2843
g57
(g78
g59
NtRp2844
(dp2845
g62
(dp2846
g82
g83
ssg71
g2840
sg64
(lp2847
S'HTTP_ACCEPT_ENCODING'
p2848
asbag57
(g78
g59
NtRp2849
(dp2850
g62
(dp2851
g89
g90
ssg71
g2840
sg64
(lp2852
S':'
asbag57
(g78
g59
NtRp2853
(dp2854
g62
(dp2855
sg71
g2840
sg64
(lp2856
g57
(g58
g59
NtRp2857
(dp2858
g62
(dp2859
g70
I3
ssg71
g2853
sg64
(lp2860
g1198
asbasbasbag57
(g73
g59
NtRp2861
(dp2862
g62
(dp2863
sg71
g2794
sg64
(lp2864
g57
(g78
g59
NtRp2865
(dp2866
g62
(dp2867
g82
g83
ssg71
g2861
sg64
(lp2868
S'HTTP_ACCEPT_LANGUAGE'
p2869
asbag57
(g78
g59
NtRp2870
(dp2871
g62
(dp2872
g89
g90
ssg71
g2861
sg64
(lp2873
S':'
asbag57
(g78
g59
NtRp2874
(dp2875
g62
(dp2876
sg71
g2861
sg64
(lp2877
g57
(g58
g59
NtRp2878
(dp2879
g62
(dp2880
g70
I3
ssg71
g2874
sg64
(lp2881
g1220
asbasbasbag57
(g73
g59
NtRp2882
(dp2883
g62
(dp2884
sg71
g2794
sg64
(lp2885
g57
(g78
g59
NtRp2886
(dp2887
g62
(dp2888
g82
g83
ssg71
g2882
sg64
(lp2889
S'HTTP_CACHE_CONTROL'
p2890
asbag57
(g78
g59
NtRp2891
(dp2892
g62
(dp2893
g89
g90
ssg71
g2882
sg64
(lp2894
S':'
asbag57
(g78
g59
NtRp2895
(dp2896
g62
(dp2897
sg71
g2882
sg64
(lp2898
g57
(g58
g59
NtRp2899
(dp2900
g62
(dp2901
g70
I3
ssg71
g2895
sg64
(lp2902
g1242
asbasbasbag57
(g73
g59
NtRp2903
(dp2904
g62
(dp2905
sg71
g2794
sg64
(lp2906
g57
(g78
g59
NtRp2907
(dp2908
g62
(dp2909
g82
g83
ssg71
g2903
sg64
(lp2910
S'HTTP_CONNECTION'
p2911
asbag57
(g78
g59
NtRp2912
(dp2913
g62
(dp2914
g89
g90
ssg71
g2903
sg64
(lp2915
S':'
asbag57
(g78
g59
NtRp2916
(dp2917
g62
(dp2918
sg71
g2903
sg64
(lp2919
g57
(g58
g59
NtRp2920
(dp2921
g62
(dp2922
g70
I3
ssg71
g2916
sg64
(lp2923
g1264
asbasbasbag57
(g73
g59
NtRp2924
(dp2925
g62
(dp2926
sg71
g2794
sg64
(lp2927
g57
(g78
g59
NtRp2928
(dp2929
g62
(dp2930
g82
g83
ssg71
g2924
sg64
(lp2931
S'HTTP_COOKIE'
p2932
asbag57
(g78
g59
NtRp2933
(dp2934
g62
(dp2935
g89
g90
ssg71
g2924
sg64
(lp2936
S':'
asbag57
(g78
g59
NtRp2937
(dp2938
g62
(dp2939
sg71
g2924
sg64
(lp2940
g57
(g58
g59
NtRp2941
(dp2942
g62
(dp2943
g70
I3
ssg71
g2937
sg64
(lp2944
g1286
asbasbasbag57
(g73
g59
NtRp2945
(dp2946
g62
(dp2947
sg71
g2794
sg64
(lp2948
g57
(g78
g59
NtRp2949
(dp2950
g62
(dp2951
g82
g83
ssg71
g2945
sg64
(lp2952
S'HTTP_HOST'
p2953
asbag57
(g78
g59
NtRp2954
(dp2955
g62
(dp2956
g89
g90
ssg71
g2945
sg64
(lp2957
S':'
asbag57
(g78
g59
NtRp2958
(dp2959
g62
(dp2960
sg71
g2945
sg64
(lp2961
g57
(g58
g59
NtRp2962
(dp2963
g62
(dp2964
g70
I3
ssg71
g2958
sg64
(lp2965
g1308
asbasbasbag57
(g73
g59
NtRp2966
(dp2967
g62
(dp2968
sg71
g2794
sg64
(lp2969
g57
(g78
g59
NtRp2970
(dp2971
g62
(dp2972
g82
g83
ssg71
g2966
sg64
(lp2973
S'HTTP_REFERER'
p2974
asbag57
(g78
g59
NtRp2975
(dp2976
g62
(dp2977
g89
g90
ssg71
g2966
sg64
(lp2978
S':'
asbag57
(g78
g59
NtRp2979
(dp2980
g62
(dp2981
sg71
g2966
sg64
(lp2982
g57
(g58
g59
NtRp2983
(dp2984
g62
(dp2985
g70
I3
ssg71
g2979
sg64
(lp2986
g1330
asbasbasbag57
(g73
g59
NtRp2987
(dp2988
g62
(dp2989
sg71
g2794
sg64
(lp2990
g57
(g78
g59
NtRp2991
(dp2992
g62
(dp2993
g82
g83
ssg71
g2987
sg64
(lp2994
S'HTTP_USER_AGENT'
p2995
asbag57
(g78
g59
NtRp2996
(dp2997
g62
(dp2998
g89
g90
ssg71
g2987
sg64
(lp2999
S':'
asbag57
(g78
g59
NtRp3000
(dp3001
g62
(dp3002
sg71
g2987
sg64
(lp3003
g57
(g58
g59
NtRp3004
(dp3005
g62
(dp3006
g70
I3
ssg71
g3000
sg64
(lp3007
g1352
asbasbasbag57
(g73
g59
NtRp3008
(dp3009
g62
(dp3010
sg71
g2794
sg64
(lp3011
g57
(g78
g59
NtRp3012
(dp3013
g62
(dp3014
g82
g83
ssg71
g3008
sg64
(lp3015
S'PATH_INFO'
p3016
asbag57
(g78
g59
NtRp3017
(dp3018
g62
(dp3019
g89
g90
ssg71
g3008
sg64
(lp3020
S':'
asbag57
(g78
g59
NtRp3021
(dp3022
g62
(dp3023
sg71
g3008
sg64
(lp3024
g57
(g58
g59
NtRp3025
(dp3026
g62
(dp3027
g70
I3
ssg71
g3021
sg64
(lp3028
g1506
asbasbasbag57
(g73
g59
NtRp3029
(dp3030
g62
(dp3031
sg71
g2794
sg64
(lp3032
g57
(g78
g59
NtRp3033
(dp3034
g62
(dp3035
g82
g83
ssg71
g3029
sg64
(lp3036
S'QUERY_STRING'
p3037
asbag57
(g78
g59
NtRp3038
(dp3039
g62
(dp3040
g89
g90
ssg71
g3029
sg64
(lp3041
S':'
asbag57
(g78
g59
NtRp3042
(dp3043
g62
(dp3044
sg71
g3029
sg64
(lp3045
g57
(g58
g59
NtRp3046
(dp3047
g62
(dp3048
g70
I3
ssg71
g3042
sg64
(lp3049
S''
asbasbasbag57
(g73
g59
NtRp3050
(dp3051
g62
(dp3052
sg71
g2794
sg64
(lp3053
g57
(g78
g59
NtRp3054
(dp3055
g62
(dp3056
g82
g83
ssg71
g3050
sg64
(lp3057
S'REMOTE_ADDR'
p3058
asbag57
(g78
g59
NtRp3059
(dp3060
g62
(dp3061
g89
g90
ssg71
g3050
sg64
(lp3062
S':'
asbag57
(g78
g59
NtRp3063
(dp3064
g62
(dp3065
sg71
g3050
sg64
(lp3066
g57
(g58
g59
NtRp3067
(dp3068
g62
(dp3069
g70
I3
ssg71
g3063
sg64
(lp3070
g338
asbasbasbag57
(g73
g59
NtRp3071
(dp3072
g62
(dp3073
sg71
g2794
sg64
(lp3074
g57
(g78
g59
NtRp3075
(dp3076
g62
(dp3077
g82
g83
ssg71
g3071
sg64
(lp3078
S'REMOTE_PORT'
p3079
asbag57
(g78
g59
NtRp3080
(dp3081
g62
(dp3082
g89
g90
ssg71
g3071
sg64
(lp3083
S':'
asbag57
(g78
g59
NtRp3084
(dp3085
g62
(dp3086
sg71
g3071
sg64
(lp3087
g57
(g58
g59
NtRp3088
(dp3089
g62
(dp3090
g70
I3
ssg71
g3084
sg64
(lp3091
g1570
asbasbasbag57
(g73
g59
NtRp3092
(dp3093
g62
(dp3094
sg71
g2794
sg64
(lp3095
g57
(g78
g59
NtRp3096
(dp3097
g62
(dp3098
g82
g83
ssg71
g3092
sg64
(lp3099
S'REQUEST_METHOD'
p3100
asbag57
(g78
g59
NtRp3101
(dp3102
g62
(dp3103
g89
g90
ssg71
g3092
sg64
(lp3104
S':'
asbag57
(g78
g59
NtRp3105
(dp3106
g62
(dp3107
sg71
g3092
sg64
(lp3108
g57
(g58
g59
NtRp3109
(dp3110
g62
(dp3111
g70
I3
ssg71
g3105
sg64
(lp3112
g1592
asbasbasbag57
(g73
g59
NtRp3113
(dp3114
g62
(dp3115
sg71
g2794
sg64
(lp3116
g57
(g78
g59
NtRp3117
(dp3118
g62
(dp3119
g82
g83
ssg71
g3113
sg64
(lp3120
S'REQUEST_URI'
p3121
asbag57
(g78
g59
NtRp3122
(dp3123
g62
(dp3124
g89
g90
ssg71
g3113
sg64
(lp3125
S':'
asbag57
(g78
g59
NtRp3126
(dp3127
g62
(dp3128
sg71
g3113
sg64
(lp3129
g57
(g58
g59
NtRp3130
(dp3131
g62
(dp3132
g70
I3
ssg71
g3126
sg64
(lp3133
g1506
asbasbasbag57
(g73
g59
NtRp3134
(dp3135
g62
(dp3136
sg71
g2794
sg64
(lp3137
g57
(g78
g59
NtRp3138
(dp3139
g62
(dp3140
g82
g83
ssg71
g3134
sg64
(lp3141
S'SCRIPT_NAME'
p3142
asbag57
(g78
g59
NtRp3143
(dp3144
g62
(dp3145
g89
g90
ssg71
g3134
sg64
(lp3146
S':'
asbag57
(g78
g59
NtRp3147
(dp3148
g62
(dp3149
sg71
g3134
sg64
(lp3150
g57
(g58
g59
NtRp3151
(dp3152
g62
(dp3153
g70
I3
ssg71
g3147
sg64
(lp3154
S''
asbasbasbag57
(g73
g59
NtRp3155
(dp3156
g62
(dp3157
sg71
g2794
sg64
(lp3158
g57
(g78
g59
NtRp3159
(dp3160
g62
(dp3161
g82
g83
ssg71
g3155
sg64
(lp3162
S'SERVER_NAME'
p3163
asbag57
(g78
g59
NtRp3164
(dp3165
g62
(dp3166
g89
g90
ssg71
g3155
sg64
(lp3167
S':'
asbag57
(g78
g59
NtRp3168
(dp3169
g62
(dp3170
sg71
g3155
sg64
(lp3171
g57
(g58
g59
NtRp3172
(dp3173
g62
(dp3174
g70
I3
ssg71
g3168
sg64
(lp3175
g1656
asbasbasbag57
(g73
g59
NtRp3176
(dp3177
g62
(dp3178
sg71
g2794
sg64
(lp3179
g57
(g78
g59
NtRp3180
(dp3181
g62
(dp3182
g82
g83
ssg71
g3176
sg64
(lp3183
S'SERVER_PORT'
p3184
asbag57
(g78
g59
NtRp3185
(dp3186
g62
(dp3187
g89
g90
ssg71
g3176
sg64
(lp3188
S':'
asbag57
(g78
g59
NtRp3189
(dp3190
g62
(dp3191
sg71
g3176
sg64
(lp3192
g57
(g58
g59
NtRp3193
(dp3194
g62
(dp3195
g70
I3
ssg71
g3189
sg64
(lp3196
g1678
asbasbasbag57
(g73
g59
NtRp3197
(dp3198
g62
(dp3199
sg71
g2794
sg64
(lp3200
g57
(g78
g59
NtRp3201
(dp3202
g62
(dp3203
g82
g83
ssg71
g3197
sg64
(lp3204
S'SERVER_PROTOCOL'
p3205
asbag57
(g78
g59
NtRp3206
(dp3207
g62
(dp3208
g89
g90
ssg71
g3197
sg64
(lp3209
S':'
asbag57
(g78
g59
NtRp3210
(dp3211
g62
(dp3212
sg71
g3197
sg64
(lp3213
g57
(g58
g59
NtRp3214
(dp3215
g62
(dp3216
g70
I3
ssg71
g3210
sg64
(lp3217
g1700
asbasbasbag57
(g73
g59
NtRp3218
(dp3219
g62
(dp3220
sg71
g2794
sg64
(lp3221
g57
(g78
g59
NtRp3222
(dp3223
g62
(dp3224
g82
g83
ssg71
g3218
sg64
(lp3225
S'SERVER_SOFTWARE'
p3226
asbag57
(g78
g59
NtRp3227
(dp3228
g62
(dp3229
g89
g90
ssg71
g3218
sg64
(lp3230
S':'
asbag57
(g78
g59
NtRp3231
(dp3232
g62
(dp3233
sg71
g3218
sg64
(lp3234
g57
(g58
g59
NtRp3235
(dp3236
g62
(dp3237
g70
I3
ssg71
g3231
sg64
(lp3238
g1722
asbasbasbag57
(g73
g59
NtRp3239
(dp3240
g62
(dp3241
sg71
g2794
sg64
(lp3242
g57
(g78
g59
NtRp3243
(dp3244
g62
(dp3245
g82
g83
ssg71
g3239
sg64
(lp3246
S'wsgi.errors'
p3247
asbag57
(g78
g59
NtRp3248
(dp3249
g62
(dp3250
g89
g90
ssg71
g3239
sg64
(lp3251
S':'
asbag57
(g78
g59
NtRp3252
(dp3253
g62
(dp3254
sg71
g3239
sg64
(lp3255
g57
(g58
g59
NtRp3256
(dp3257
g62
(dp3258
g70
I3
ssg71
g3252
sg64
(lp3259
S"<open file '<stderr>', mode 'w' at 0xb72df0d0>"
p3260
asbasbasbag57
(g73
g59
NtRp3261
(dp3262
g62
(dp3263
sg71
g2794
sg64
(lp3264
g57
(g78
g59
NtRp3265
(dp3266
g62
(dp3267
g82
g83
ssg71
g3261
sg64
(lp3268
S'wsgi.file_wrapper'
p3269
asbag57
(g78
g59
NtRp3270
(dp3271
g62
(dp3272
g89
g90
ssg71
g3261
sg64
(lp3273
S':'
asbag57
(g78
g59
NtRp3274
(dp3275
g62
(dp3276
sg71
g3261
sg64
(lp3277
g57
(g58
g59
NtRp3278
(dp3279
g62
(dp3280
g70
I3
ssg71
g3274
sg64
(lp3281
S'<class wsgiref.util.FileWrapper at 0x98b4b9c>'
p3282
asbasbasbag57
(g73
g59
NtRp3283
(dp3284
g62
(dp3285
sg71
g2794
sg64
(lp3286
g57
(g78
g59
NtRp3287
(dp3288
g62
(dp3289
g82
g83
ssg71
g3283
sg64
(lp3290
S'wsgi.input'
p3291
asbag57
(g78
g59
NtRp3292
(dp3293
g62
(dp3294
g89
g90
ssg71
g3283
sg64
(lp3295
S':'
asbag57
(g78
g59
NtRp3296
(dp3297
g62
(dp3298
sg71
g3283
sg64
(lp3299
g57
(g58
g59
NtRp3300
(dp3301
g62
(dp3302
g70
I3
ssg71
g3296
sg64
(lp3303
S'<cStringIO.StringO object at 0xb03064e0>'
p3304
asbasbasbag57
(g73
g59
NtRp3305
(dp3306
g62
(dp3307
sg71
g2794
sg64
(lp3308
g57
(g78
g59
NtRp3309
(dp3310
g62
(dp3311
g82
g83
ssg71
g3305
sg64
(lp3312
S'wsgi.multiprocess'
p3313
asbag57
(g78
g59
NtRp3314
(dp3315
g62
(dp3316
g89
g90
ssg71
g3305
sg64
(lp3317
S':'
asbag57
(g78
g59
NtRp3318
(dp3319
g62
(dp3320
sg71
g3305
sg64
(lp3321
g57
(g58
g59
NtRp3322
(dp3323
g62
(dp3324
g70
I3
ssg71
g3318
sg64
(lp3325
g100
asbasbasbag57
(g73
g59
NtRp3326
(dp3327
g62
(dp3328
sg71
g2794
sg64
(lp3329
g57
(g78
g59
NtRp3330
(dp3331
g62
(dp3332
g82
g83
ssg71
g3326
sg64
(lp3333
S'wsgi.multithread'
p3334
asbag57
(g78
g59
NtRp3335
(dp3336
g62
(dp3337
g89
g90
ssg71
g3326
sg64
(lp3338
S':'
asbag57
(g78
g59
NtRp3339
(dp3340
g62
(dp3341
sg71
g3326
sg64
(lp3342
g57
(g58
g59
NtRp3343
(dp3344
g62
(dp3345
g70
I3
ssg71
g3339
sg64
(lp3346
g1939
asbasbasbag57
(g73
g59
NtRp3347
(dp3348
g62
(dp3349
sg71
g2794
sg64
(lp3350
g57
(g78
g59
NtRp3351
(dp3352
g62
(dp3353
g82
g83
ssg71
g3347
sg64
(lp3354
S'wsgi.run_once'
p3355
asbag57
(g78
g59
NtRp3356
(dp3357
g62
(dp3358
g89
g90
ssg71
g3347
sg64
(lp3359
S':'
asbag57
(g78
g59
NtRp3360
(dp3361
g62
(dp3362
sg71
g3347
sg64
(lp3363
g57
(g58
g59
NtRp3364
(dp3365
g62
(dp3366
g70
I3
ssg71
g3360
sg64
(lp3367
g100
asbasbasbag57
(g73
g59
NtRp3368
(dp3369
g62
(dp3370
sg71
g2794
sg64
(lp3371
g57
(g78
g59
NtRp3372
(dp3373
g62
(dp3374
g82
g83
ssg71
g3368
sg64
(lp3375
S'wsgi.url_scheme'
p3376
asbag57
(g78
g59
NtRp3377
(dp3378
g62
(dp3379
g89
g90
ssg71
g3368
sg64
(lp3380
S':'
asbag57
(g78
g59
NtRp3381
(dp3382
g62
(dp3383
sg71
g3368
sg64
(lp3384
g57
(g58
g59
NtRp3385
(dp3386
g62
(dp3387
g70
I3
ssg71
g3381
sg64
(lp3388
g1982
asbasbasbag57
(g73
g59
NtRp3389
(dp3390
g62
(dp3391
sg71
g2794
sg64
(lp3392
g57
(g78
g59
NtRp3393
(dp3394
g62
(dp3395
g82
g83
ssg71
g3389
sg64
(lp3396
S'wsgi.version'
p3397
asbag57
(g78
g59
NtRp3398
(dp3399
g62
(dp3400
g89
g90
ssg71
g3389
sg64
(lp3401
S':'
asbag57
(g78
g59
NtRp3402
(dp3403
g62
(dp3404
sg71
g3389
sg64
(lp3405
g57
(g58
g59
NtRp3406
(dp3407
g62
(dp3408
g70
I3
ssg71
g3402
sg64
(lp3409
S'1'
asbasbasbasbasbasbasbasbasbasbasbasbasbsS'frames'
p3410
(lp3411
(dp3412
S'file'
p3413
S'/home/anil/bootstrap/web2py/gluon/restricted.py'
p3414
sS'dump'
p3415
(dp3416
S'environment'
p3417
S"{'A': <class 'gluon.html.A'>, 'Auth': <class 'gluon.tools.Auth'>, 'B': <class 'gluon.html.B'>, 'BEAUTIFY': <class 'gluon.html.BEAUTIFY'>, 'BODY': <class 'gluon.html.BODY'>, 'BR': <class 'gluon.html.BR'>, 'BUTTON': <class 'gluon.html.BUTTON'>, 'CAT': <class 'gluon.html.CAT'>, 'CENTER': <class 'gluon.html.CENTER'>, 'CLEANUP': <class 'gluon.validators.CLEANUP'>, ...}"
p3418
sS'ccode'
p3419
S'<code object <module> at 0xaff8d968, file "/home...DEV_bootstrap_ch/controllers/default.py", line 1>'
p3420
ssS'lnum'
p3421
I212
sS'lines'
p3422
(dp3423
I207
S'    try:'
p3424
sI208
S'        if isinstance(code, types.CodeType):'
p3425
sI209
S'            ccode = code'
p3426
sI210
S'        else:'
p3427
sI211
S'            ccode = compile2(code, layer)'
p3428
sI212
S'        exec ccode in environment'
p3429
sI213
S'    except HTTP:'
p3430
sI214
S'        raise'
p3431
sI215
S'    except RestrictedError:'
p3432
sI216
S'        # do not encapsulate (obfuscate) the original RestrictedError'
p3433
ssS'call'
p3434
S"(code='import rpy2.robjects as robjects\\n# -*- coding: u...als()\\n\\n\\n\\nresponse._vars=response._caller(router)\\n', environment={'A': <class 'gluon.html.A'>, 'Auth': <class 'gluon.tools.Auth'>, 'B': <class 'gluon.html.B'>, 'BEAUTIFY': <class 'gluon.html.BEAUTIFY'>, 'BODY': <class 'gluon.html.BODY'>, 'BR': <class 'gluon.html.BR'>, 'BUTTON': <class 'gluon.html.BUTTON'>, 'CAT': <class 'gluon.html.CAT'>, 'CENTER': <class 'gluon.html.CENTER'>, 'CLEANUP': <class 'gluon.validators.CLEANUP'>, ...}, layer='/home/anil/bootstrap/web2py/applications/DEV_bootstrap_ch/controllers/default.py')"
p3435
sS'func'
p3436
S'restricted'
p3437
sa(dp3438
g3413
S'/home/anil/bootstrap/web2py/applications/DEV_bootstrap_ch/controllers/default.py'
p3439
sg3415
(dp3440
sg3421
I1118
sg3422
(dp3441
I1107
S'   """allows an experimentalist to add multiple images and files and displays it in the consolidated sample view form """'
p3442
sI1108
S'   """ per sample . takes id of the sample as the input """'
p3443
sI1109
S'   sid = request.args(0)'
p3444
sI1110
S'   sample = db(db.sample.id == sid).select().first()'
p3445
sI1111
S'   old = db(db.sample_files.sample == sid).select(db.sample_files.ALL)'
p3446
sI1112
S'   form = SQLFORM(db.sample_files)'
p3447
sI1113
S'   form.vars.sample = sid'
p3448
sI1114
S'   return locals()'
p3449
sI1115
S''
sI1116
S''
ssg3434
S'()'
p3450
sg3436
S'<module>'
p3451
sa(dp3452
g3413
S'/home/anil/bootstrap/web2py/gluon/globals.py'
p3453
sg3415
(dp3454
S'self'
p3455
S'undefined'
p3456
sS'f'
S'<function router>'
p3457
ssg3421
I193
sg3422
(dp3458
I192
S'        self._vars = None'
p3459
sI193
S'        self._caller = lambda f: f()'
p3460
sI194
S'        self._view_environment = None'
p3461
sI195
S'        self._custom_commit = None'
p3462
sI196
S'        self._custom_rollback = None'
p3463
sI197
S''
sI188
S'        self.menu = []             # used by the default view layout'
p3464
sI189
S'        self.files = []            # used by web2py_ajax.html'
p3465
sI190
S'        self.generic_patterns = []  # patterns to allow generic views'
p3466
sI191
S"        self.delimiters = ('{{', '}}')"
p3467
ssg3434
S'(f=<function router>)'
p3468
sg3436
S'<lambda>'
p3469
sa(dp3470
g3413
S'/home/anil/bootstrap/web2py/applications/DEV_bootstrap_ch/controllers/default.py'
p3471
sg3415
(dp3472
S'l'
g3456
ssg3421
I367
sg3422
(dp3473
I362
S'def view_published_samples():'
p3474
sI363
S'    proj_id = request.args(0)'
p3475
sI364
S'    return locals()'
p3476
sI365
S''
sI366
S'def router():'
p3477
sI367
S"    if 'biosource' in l:"
p3478
sI368
S"      redirect(URL('insert_biosource',args = l))"
p3479
sI369
S"    elif 'plant_growth_condition' in l:"
p3480
sI370
S"      redirect(URL('insert_pgc',args = l))"
p3481
sI371
S"    elif 'treatments' in l:"
p3482
ssg3434
S'()'
p3483
sg3436
S'router'
p3484
sasS'pyver'
p3485
S'Python 2.7.3: /usr/bin/python'
p3486
sS'session'
p3487
g57
(g58
g59
NtRp3488
(dp3489
g62
(dp3490
sg64
(lp3491
g57
(g66
g59
NtRp3492
(dp3493
g62
(dp3494
g70
I5
ssg71
Nsg64
(lp3495
g57
(g73
g59
NtRp3496
(dp3497
g62
(dp3498
sg71
g3492
sg64
(lp3499
g57
(g78
g59
NtRp3500
(dp3501
g62
(dp3502
g82
g83
ssg71
g3496
sg64
(lp3503
S'auth'
p3504
asbag57
(g78
g59
NtRp3505
(dp3506
g62
(dp3507
g89
g90
ssg71
g3496
sg64
(lp3508
S':'
asbag57
(g78
g59
NtRp3509
(dp3510
g62
(dp3511
sg71
g3496
sg64
(lp3512
g57
(g58
g59
NtRp3513
(dp3514
g62
(dp3515
g70
I5
ssg71
g3509
sg64
(lp3516
g57
(g66
g59
NtRp3517
(dp3518
g62
(dp3519
g70
I4
ssg71
Nsg64
(lp3520
g57
(g73
g59
NtRp3521
(dp3522
g62
(dp3523
sg71
g3517
sg64
(lp3524
g57
(g78
g59
NtRp3525
(dp3526
g62
(dp3527
g82
g83
ssg71
g3521
sg64
(lp3528
S'expiration'
p3529
asbag57
(g78
g59
NtRp3530
(dp3531
g62
(dp3532
g89
g90
ssg71
g3521
sg64
(lp3533
S':'
asbag57
(g78
g59
NtRp3534
(dp3535
g62
(dp3536
sg71
g3521
sg64
(lp3537
g57
(g58
g59
NtRp3538
(dp3539
g62
(dp3540
g70
I4
ssg71
g3534
sg64
(lp3541
S'2592000'
p3542
asbasbasbag57
(g73
g59
NtRp3543
(dp3544
g62
(dp3545
sg71
g3517
sg64
(lp3546
g57
(g78
g59
NtRp3547
(dp3548
g62
(dp3549
g82
g83
ssg71
g3543
sg64
(lp3550
S'hmac_key'
p3551
asbag57
(g78
g59
NtRp3552
(dp3553
g62
(dp3554
g89
g90
ssg71
g3543
sg64
(lp3555
S':'
asbag57
(g78
g59
NtRp3556
(dp3557
g62
(dp3558
sg71
g3543
sg64
(lp3559
g57
(g58
g59
NtRp3560
(dp3561
g62
(dp3562
g70
I4
ssg71
g3556
sg64
(lp3563
S'11fc622b-02bf-4f2a-8e07-fc63863907e8'
p3564
asbasbasbag57
(g73
g59
NtRp3565
(dp3566
g62
(dp3567
sg71
g3517
sg64
(lp3568
g57
(g78
g59
NtRp3569
(dp3570
g62
(dp3571
g82
g83
ssg71
g3565
sg64
(lp3572
S'last_visit'
p3573
asbag57
(g78
g59
NtRp3574
(dp3575
g62
(dp3576
g89
g90
ssg71
g3565
sg64
(lp3577
S':'
asbag57
(g78
g59
NtRp3578
(dp3579
g62
(dp3580
sg71
g3565
sg64
(lp3581
g57
(g58
g59
NtRp3582
(dp3583
g62
(dp3584
g70
I4
ssg71
g3578
sg64
(lp3585
S'datetime.datetime(2013, 2, 18, 0, 21, 50, 823546)'
p3586
asbasbasbag57
(g73
g59
NtRp3587
(dp3588
g62
(dp3589
sg71
g3517
sg64
(lp3590
g57
(g78
g59
NtRp3591
(dp3592
g62
(dp3593
g82
g83
ssg71
g3587
sg64
(lp3594
S'remember'
p3595
asbag57
(g78
g59
NtRp3596
(dp3597
g62
(dp3598
g89
g90
ssg71
g3587
sg64
(lp3599
S':'
asbag57
(g78
g59
NtRp3600
(dp3601
g62
(dp3602
sg71
g3587
sg64
(lp3603
g57
(g58
g59
NtRp3604
(dp3605
g62
(dp3606
g70
I4
ssg71
g3600
sg64
(lp3607
g1939
asbasbasbag57
(g73
g59
NtRp3608
(dp3609
g62
(dp3610
sg71
g3517
sg64
(lp3611
g57
(g78
g59
NtRp3612
(dp3613
g62
(dp3614
g82
g83
ssg71
g3608
sg64
(lp3615
S'user'
p3616
asbag57
(g78
g59
NtRp3617
(dp3618
g62
(dp3619
g89
g90
ssg71
g3608
sg64
(lp3620
S':'
asbag57
(g78
g59
NtRp3621
(dp3622
g62
(dp3623
sg71
g3608
sg64
(lp3624
g57
(g58
g59
NtRp3625
(dp3626
g62
(dp3627
g70
I4
ssg71
g3621
sg64
(lp3628
g57
(g66
g59
NtRp3629
(dp3630
g62
(dp3631
g70
I3
ssg71
Nsg64
(lp3632
g57
(g73
g59
NtRp3633
(dp3634
g62
(dp3635
sg71
g3629
sg64
(lp3636
g57
(g78
g59
NtRp3637
(dp3638
g62
(dp3639
g82
g83
ssg71
g3633
sg64
(lp3640
S'address'
p3641
asbag57
(g78
g59
NtRp3642
(dp3643
g62
(dp3644
g89
g90
ssg71
g3633
sg64
(lp3645
S':'
asbag57
(g78
g59
NtRp3646
(dp3647
g62
(dp3648
sg71
g3633
sg64
(lp3649
g57
(g58
g59
NtRp3650
(dp3651
g62
(dp3652
g70
I3
ssg71
g3646
sg64
(lp3653
S'a'
asbasbasbag57
(g73
g59
NtRp3654
(dp3655
g62
(dp3656
sg71
g3629
sg64
(lp3657
g57
(g78
g59
NtRp3658
(dp3659
g62
(dp3660
g82
g83
ssg71
g3654
sg64
(lp3661
S'affiliated_to'
p3662
asbag57
(g78
g59
NtRp3663
(dp3664
g62
(dp3665
g89
g90
ssg71
g3654
sg64
(lp3666
S':'
asbag57
(g78
g59
NtRp3667
(dp3668
g62
(dp3669
sg71
g3654
sg64
(lp3670
g57
(g58
g59
NtRp3671
(dp3672
g62
(dp3673
g70
I3
ssg71
g3667
sg64
(lp3674
S'a'
asbasbasbag57
(g73
g59
NtRp3675
(dp3676
g62
(dp3677
sg71
g3629
sg64
(lp3678
g57
(g78
g59
NtRp3679
(dp3680
g62
(dp3681
g82
g83
ssg71
g3675
sg64
(lp3682
S'city'
p3683
asbag57
(g78
g59
NtRp3684
(dp3685
g62
(dp3686
g89
g90
ssg71
g3675
sg64
(lp3687
S':'
asbag57
(g78
g59
NtRp3688
(dp3689
g62
(dp3690
sg71
g3675
sg64
(lp3691
g57
(g58
g59
NtRp3692
(dp3693
g62
(dp3694
g70
I3
ssg71
g3688
sg64
(lp3695
S'a'
asbasbasbag57
(g73
g59
NtRp3696
(dp3697
g62
(dp3698
sg71
g3629
sg64
(lp3699
g57
(g78
g59
NtRp3700
(dp3701
g62
(dp3702
g82
g83
ssg71
g3696
sg64
(lp3703
S'country'
p3704
asbag57
(g78
g59
NtRp3705
(dp3706
g62
(dp3707
g89
g90
ssg71
g3696
sg64
(lp3708
S':'
asbag57
(g78
g59
NtRp3709
(dp3710
g62
(dp3711
sg71
g3696
sg64
(lp3712
g57
(g58
g59
NtRp3713
(dp3714
g62
(dp3715
g70
I3
ssg71
g3709
sg64
(lp3716
S'India'
p3717
asbasbasbag57
(g73
g59
NtRp3718
(dp3719
g62
(dp3720
sg71
g3629
sg64
(lp3721
g57
(g78
g59
NtRp3722
(dp3723
g62
(dp3724
g82
g83
ssg71
g3718
sg64
(lp3725
S'email'
p3726
asbag57
(g78
g59
NtRp3727
(dp3728
g62
(dp3729
g89
g90
ssg71
g3718
sg64
(lp3730
S':'
asbag57
(g78
g59
NtRp3731
(dp3732
g62
(dp3733
sg71
g3718
sg64
(lp3734
g57
(g58
g59
NtRp3735
(dp3736
g62
(dp3737
g70
I3
ssg71
g3731
sg64
(lp3738
S'anil.iiith@gmail.com'
p3739
asbasbasbag57
(g73
g59
NtRp3740
(dp3741
g62
(dp3742
sg71
g3629
sg64
(lp3743
g57
(g78
g59
NtRp3744
(dp3745
g62
(dp3746
g82
g83
ssg71
g3740
sg64
(lp3747
S'first_name'
p3748
asbag57
(g78
g59
NtRp3749
(dp3750
g62
(dp3751
g89
g90
ssg71
g3740
sg64
(lp3752
S':'
asbag57
(g78
g59
NtRp3753
(dp3754
g62
(dp3755
sg71
g3740
sg64
(lp3756
g57
(g58
g59
NtRp3757
(dp3758
g62
(dp3759
g70
I3
ssg71
g3753
sg64
(lp3760
S'anil'
p3761
asbasbasbag57
(g73
g59
NtRp3762
(dp3763
g62
(dp3764
sg71
g3629
sg64
(lp3765
g57
(g78
g59
NtRp3766
(dp3767
g62
(dp3768
g82
g83
ssg71
g3762
sg64
(lp3769
S'id'
p3770
asbag57
(g78
g59
NtRp3771
(dp3772
g62
(dp3773
g89
g90
ssg71
g3762
sg64
(lp3774
S':'
asbag57
(g78
g59
NtRp3775
(dp3776
g62
(dp3777
sg71
g3762
sg64
(lp3778
g57
(g58
g59
NtRp3779
(dp3780
g62
(dp3781
g70
I3
ssg71
g3775
sg64
(lp3782
S'2'
asbasbasbag57
(g73
g59
NtRp3783
(dp3784
g62
(dp3785
sg71
g3629
sg64
(lp3786
g57
(g78
g59
NtRp3787
(dp3788
g62
(dp3789
g82
g83
ssg71
g3783
sg64
(lp3790
S'last_name'
p3791
asbag57
(g78
g59
NtRp3792
(dp3793
g62
(dp3794
g89
g90
ssg71
g3783
sg64
(lp3795
S':'
asbag57
(g78
g59
NtRp3796
(dp3797
g62
(dp3798
sg71
g3783
sg64
(lp3799
g57
(g58
g59
NtRp3800
(dp3801
g62
(dp3802
g70
I3
ssg71
g3796
sg64
(lp3803
S'n'
asbasbasbag57
(g73
g59
NtRp3804
(dp3805
g62
(dp3806
sg71
g3629
sg64
(lp3807
g57
(g78
g59
NtRp3808
(dp3809
g62
(dp3810
g82
g83
ssg71
g3804
sg64
(lp3811
S'mobile'
p3812
asbag57
(g78
g59
NtRp3813
(dp3814
g62
(dp3815
g89
g90
ssg71
g3804
sg64
(lp3816
S':'
asbag57
(g78
g59
NtRp3817
(dp3818
g62
(dp3819
sg71
g3804
sg64
(lp3820
g57
(g58
g59
NtRp3821
(dp3822
g62
(dp3823
g70
I3
ssg71
g3817
sg64
(lp3824
S'1233'
p3825
asbasbasbag57
(g73
g59
NtRp3826
(dp3827
g62
(dp3828
sg71
g3629
sg64
(lp3829
g57
(g78
g59
NtRp3830
(dp3831
g62
(dp3832
g82
g83
ssg71
g3826
sg64
(lp3833
S'phone'
p3834
asbag57
(g78
g59
NtRp3835
(dp3836
g62
(dp3837
g89
g90
ssg71
g3826
sg64
(lp3838
S':'
asbag57
(g78
g59
NtRp3839
(dp3840
g62
(dp3841
sg71
g3826
sg64
(lp3842
g57
(g58
g59
NtRp3843
(dp3844
g62
(dp3845
g70
I3
ssg71
g3839
sg64
(lp3846
S'123'
p3847
asbasbasbag57
(g73
g59
NtRp3848
(dp3849
g62
(dp3850
sg71
g3629
sg64
(lp3851
g57
(g78
g59
NtRp3852
(dp3853
g62
(dp3854
g82
g83
ssg71
g3848
sg64
(lp3855
S'position'
p3856
asbag57
(g78
g59
NtRp3857
(dp3858
g62
(dp3859
g89
g90
ssg71
g3848
sg64
(lp3860
S':'
asbag57
(g78
g59
NtRp3861
(dp3862
g62
(dp3863
sg71
g3848
sg64
(lp3864
g57
(g58
g59
NtRp3865
(dp3866
g62
(dp3867
g70
I3
ssg71
g3861
sg64
(lp3868
S'0'
asbasbasbag57
(g73
g59
NtRp3869
(dp3870
g62
(dp3871
sg71
g3629
sg64
(lp3872
g57
(g78
g59
NtRp3873
(dp3874
g62
(dp3875
g82
g83
ssg71
g3869
sg64
(lp3876
S'postal_code'
p3877
asbag57
(g78
g59
NtRp3878
(dp3879
g62
(dp3880
g89
g90
ssg71
g3869
sg64
(lp3881
S':'
asbag57
(g78
g59
NtRp3882
(dp3883
g62
(dp3884
sg71
g3869
sg64
(lp3885
g57
(g58
g59
NtRp3886
(dp3887
g62
(dp3888
g70
I3
ssg71
g3882
sg64
(lp3889
S'123'
p3890
asbasbasbag57
(g73
g59
NtRp3891
(dp3892
g62
(dp3893
sg71
g3629
sg64
(lp3894
g57
(g78
g59
NtRp3895
(dp3896
g62
(dp3897
g82
g83
ssg71
g3891
sg64
(lp3898
S'registration_at'
p3899
asbag57
(g78
g59
NtRp3900
(dp3901
g62
(dp3902
g89
g90
ssg71
g3891
sg64
(lp3903
S':'
asbag57
(g78
g59
NtRp3904
(dp3905
g62
(dp3906
sg71
g3891
sg64
(lp3907
g57
(g58
g59
NtRp3908
(dp3909
g62
(dp3910
g70
I3
ssg71
g3904
sg64
(lp3911
S'0'
asbasbasbag57
(g73
g59
NtRp3912
(dp3913
g62
(dp3914
sg71
g3629
sg64
(lp3915
g57
(g78
g59
NtRp3916
(dp3917
g62
(dp3918
g82
g83
ssg71
g3912
sg64
(lp3919
S'registration_id'
p3920
asbag57
(g78
g59
NtRp3921
(dp3922
g62
(dp3923
g89
g90
ssg71
g3912
sg64
(lp3924
S':'
asbag57
(g78
g59
NtRp3925
(dp3926
g62
(dp3927
sg71
g3912
sg64
(lp3928
g57
(g58
g59
NtRp3929
(dp3930
g62
(dp3931
g70
I3
ssg71
g3925
sg64
(lp3932
S''
asbasbasbag57
(g73
g59
NtRp3933
(dp3934
g62
(dp3935
sg71
g3629
sg64
(lp3936
g57
(g78
g59
NtRp3937
(dp3938
g62
(dp3939
g82
g83
ssg71
g3933
sg64
(lp3940
S'registration_key'
p3941
asbag57
(g78
g59
NtRp3942
(dp3943
g62
(dp3944
g89
g90
ssg71
g3933
sg64
(lp3945
S':'
asbag57
(g78
g59
NtRp3946
(dp3947
g62
(dp3948
sg71
g3933
sg64
(lp3949
g57
(g58
g59
NtRp3950
(dp3951
g62
(dp3952
g70
I3
ssg71
g3946
sg64
(lp3953
S''
asbasbasbag57
(g73
g59
NtRp3954
(dp3955
g62
(dp3956
sg71
g3629
sg64
(lp3957
g57
(g78
g59
NtRp3958
(dp3959
g62
(dp3960
g82
g83
ssg71
g3954
sg64
(lp3961
S'reset_password_key'
p3962
asbag57
(g78
g59
NtRp3963
(dp3964
g62
(dp3965
g89
g90
ssg71
g3954
sg64
(lp3966
S':'
asbag57
(g78
g59
NtRp3967
(dp3968
g62
(dp3969
sg71
g3954
sg64
(lp3970
g57
(g58
g59
NtRp3971
(dp3972
g62
(dp3973
g70
I3
ssg71
g3967
sg64
(lp3974
S''
asbasbasbag57
(g73
g59
NtRp3975
(dp3976
g62
(dp3977
sg71
g3629
sg64
(lp3978
g57
(g78
g59
NtRp3979
(dp3980
g62
(dp3981
g82
g83
ssg71
g3975
sg64
(lp3982
S'title'
p3983
asbag57
(g78
g59
NtRp3984
(dp3985
g62
(dp3986
g89
g90
ssg71
g3975
sg64
(lp3987
S':'
asbag57
(g78
g59
NtRp3988
(dp3989
g62
(dp3990
sg71
g3975
sg64
(lp3991
g57
(g58
g59
NtRp3992
(dp3993
g62
(dp3994
g70
I3
ssg71
g3988
sg64
(lp3995
S'0'
asbasbasbasbasbasbasbag57
(g73
g59
NtRp3996
(dp3997
g62
(dp3998
sg71
g3517
sg64
(lp3999
g57
(g78
g59
NtRp4000
(dp4001
g62
(dp4002
g82
g83
ssg71
g3996
sg64
(lp4003
S'user_groups'
p4004
asbag57
(g78
g59
NtRp4005
(dp4006
g62
(dp4007
g89
g90
ssg71
g3996
sg64
(lp4008
S':'
asbag57
(g78
g59
NtRp4009
(dp4010
g62
(dp4011
sg71
g3996
sg64
(lp4012
g57
(g58
g59
NtRp4013
(dp4014
g62
(dp4015
g70
I4
ssg71
g4009
sg64
(lp4016
g57
(g66
g59
NtRp4017
(dp4018
g62
(dp4019
g70
I3
ssg71
Nsg64
(lp4020
g57
(g73
g59
NtRp4021
(dp4022
g62
(dp4023
sg71
g4017
sg64
(lp4024
g57
(g78
g59
NtRp4025
(dp4026
g62
(dp4027
g82
g83
ssg71
g4021
sg64
(lp4028
S'9'
asbag57
(g78
g59
NtRp4029
(dp4030
g62
(dp4031
g89
g90
ssg71
g4021
sg64
(lp4032
S':'
asbag57
(g78
g59
NtRp4033
(dp4034
g62
(dp4035
sg71
g4021
sg64
(lp4036
g57
(g58
g59
NtRp4037
(dp4038
g62
(dp4039
g70
I3
ssg71
g4033
sg64
(lp4040
S'user_2'
p4041
asbasbasbasbasbasbasbasbasbasbasbag57
(g73
g59
NtRp4042
(dp4043
g62
(dp4044
sg71
g3492
sg64
(lp4045
g57
(g78
g59
NtRp4046
(dp4047
g62
(dp4048
g82
g83
ssg71
g4042
sg64
(lp4049
S'flash'
p4050
asbag57
(g78
g59
NtRp4051
(dp4052
g62
(dp4053
g89
g90
ssg71
g4042
sg64
(lp4054
S':'
asbag57
(g78
g59
NtRp4055
(dp4056
g62
(dp4057
sg71
g4042
sg64
(lp4058
g57
(g58
g59
NtRp4059
(dp4060
g62
(dp4061
g70
I5
ssg71
g4055
sg64
(lp4062
S'None'
p4063
asbasbasbag57
(g73
g59
NtRp4064
(dp4065
g62
(dp4066
sg71
g3492
sg64
(lp4067
g57
(g78
g59
NtRp4068
(dp4069
g62
(dp4070
g82
g83
ssg71
g4064
sg64
(lp4071
S'last_orderby'
p4072
asbag57
(g78
g59
NtRp4073
(dp4074
g62
(dp4075
g89
g90
ssg71
g4064
sg64
(lp4076
S':'
asbag57
(g78
g59
NtRp4077
(dp4078
g62
(dp4079
sg71
g4064
sg64
(lp4080
g57
(g58
g59
NtRp4081
(dp4082
g62
(dp4083
g70
I5
ssg71
g4077
sg64
(lp4084
S'None'
p4085
asbasbasbag57
(g73
g59
NtRp4086
(dp4087
g62
(dp4088
sg71
g3492
sg64
(lp4089
g57
(g78
g59
NtRp4090
(dp4091
g62
(dp4092
g82
g83
ssg71
g4086
sg64
(lp4093
S'last_query'
p4094
asbag57
(g78
g59
NtRp4095
(dp4096
g62
(dp4097
g89
g90
ssg71
g4086
sg64
(lp4098
S':'
asbag57
(g78
g59
NtRp4099
(dp4100
g62
(dp4101
sg71
g4086
sg64
(lp4102
g57
(g58
g59
NtRp4103
(dp4104
g62
(dp4105
g70
I5
ssg71
g4099
sg64
(lp4106
S'db.project.id>0'
p4107
asbasbasbasbasbsS'etype'
p4108
S"<type 'exceptions.NameError'>"
p4109
sS'date'
p4110
S'Sun Feb 24 19:38:56 2013'
p4111
sS'response'
p4112
g57
(g58
g59
NtRp4113
(dp4114
g62
(dp4115
sg64
(lp4116
g57
(g66
g59
NtRp4117
(dp4118
g62
(dp4119
g70
I5
ssg71
Nsg64
(lp4120
g57
(g73
g59
NtRp4121
(dp4122
g62
(dp4123
sg71
g4117
sg64
(lp4124
g57
(g78
g59
NtRp4125
(dp4126
g62
(dp4127
g82
g83
ssg71
g4121
sg64
(lp4128
g281
asbag57
(g78
g59
NtRp4129
(dp4130
g62
(dp4131
g89
g90
ssg71
g4121
sg64
(lp4132
S':'
asbag57
(g78
g59
NtRp4133
(dp4134
g62
(dp4135
sg71
g4121
sg64
(lp4136
g57
(g58
g59
NtRp4137
(dp4138
g62
(dp4139
g70
I5
ssg71
g4133
sg64
(lp4140
S'<cStringIO.StringO object at 0xadba6e80>'
p4141
asbasbasbag57
(g73
g59
NtRp4142
(dp4143
g62
(dp4144
sg71
g4117
sg64
(lp4145
g57
(g78
g59
NtRp4146
(dp4147
g62
(dp4148
g82
g83
ssg71
g4142
sg64
(lp4149
g369
asbag57
(g78
g59
NtRp4150
(dp4151
g62
(dp4152
g89
g90
ssg71
g4142
sg64
(lp4153
S':'
asbag57
(g78
g59
NtRp4154
(dp4155
g62
(dp4156
sg71
g4142
sg64
(lp4157
g57
(g58
g59
NtRp4158
(dp4159
g62
(dp4160
g70
I5
ssg71
g4154
sg64
(lp4161
g57
(g66
g59
NtRp4162
(dp4163
g62
(dp4164
g70
I4
ssg71
Nsg64
(lp4165
g57
(g73
g59
NtRp4166
(dp4167
g62
(dp4168
sg71
g4162
sg64
(lp4169
g57
(g78
g59
NtRp4170
(dp4171
g62
(dp4172
g82
g83
ssg71
g4166
sg64
(lp4173
S'session_id_dev_bootstrap_ch'
p4174
asbag57
(g78
g59
NtRp4175
(dp4176
g62
(dp4177
g89
g90
ssg71
g4166
sg64
(lp4178
S':'
asbag57
(g78
g59
NtRp4179
(dp4180
g62
(dp4181
sg71
g4166
sg64
(lp4182
g57
(g58
g59
NtRp4183
(dp4184
g62
(dp4185
g70
I4
ssg71
g4179
sg64
(lp4186
g787
ag57
(g66
g59
NtRp4187
(dp4188
g62
(dp4189
g70
I3
ssg71
Nsg64
(lp4190
g57
(g73
g59
NtRp4191
(dp4192
g62
(dp4193
sg71
g4187
sg64
(lp4194
g57
(g78
g59
NtRp4195
(dp4196
g62
(dp4197
g82
g83
ssg71
g4191
sg64
(lp4198
g420
asbag57
(g78
g59
NtRp4199
(dp4200
g62
(dp4201
g89
g90
ssg71
g4191
sg64
(lp4202
S':'
asbag57
(g78
g59
NtRp4203
(dp4204
g62
(dp4205
sg71
g4191
sg64
(lp4206
g57
(g58
g59
NtRp4207
(dp4208
g62
(dp4209
g70
I3
ssg71
g4203
sg64
(lp4210
S''
asbasbasbag57
(g73
g59
NtRp4211
(dp4212
g62
(dp4213
sg71
g4187
sg64
(lp4214
g57
(g78
g59
NtRp4215
(dp4216
g62
(dp4217
g82
g83
ssg71
g4211
sg64
(lp4218
g441
asbag57
(g78
g59
NtRp4219
(dp4220
g62
(dp4221
g89
g90
ssg71
g4211
sg64
(lp4222
S':'
asbag57
(g78
g59
NtRp4223
(dp4224
g62
(dp4225
sg71
g4211
sg64
(lp4226
g57
(g58
g59
NtRp4227
(dp4228
g62
(dp4229
g70
I3
ssg71
g4223
sg64
(lp4230
S''
asbasbasbag57
(g73
g59
NtRp4231
(dp4232
g62
(dp4233
sg71
g4187
sg64
(lp4234
g57
(g78
g59
NtRp4235
(dp4236
g62
(dp4237
g82
g83
ssg71
g4231
sg64
(lp4238
g462
asbag57
(g78
g59
NtRp4239
(dp4240
g62
(dp4241
g89
g90
ssg71
g4231
sg64
(lp4242
S':'
asbag57
(g78
g59
NtRp4243
(dp4244
g62
(dp4245
sg71
g4231
sg64
(lp4246
g57
(g58
g59
NtRp4247
(dp4248
g62
(dp4249
g70
I3
ssg71
g4243
sg64
(lp4250
S'2592000'
p4251
asbasbasbag57
(g73
g59
NtRp4252
(dp4253
g62
(dp4254
sg71
g4187
sg64
(lp4255
g57
(g78
g59
NtRp4256
(dp4257
g62
(dp4258
g82
g83
ssg71
g4252
sg64
(lp4259
g483
asbag57
(g78
g59
NtRp4260
(dp4261
g62
(dp4262
g89
g90
ssg71
g4252
sg64
(lp4263
S':'
asbag57
(g78
g59
NtRp4264
(dp4265
g62
(dp4266
sg71
g4252
sg64
(lp4267
g57
(g58
g59
NtRp4268
(dp4269
g62
(dp4270
g70
I3
ssg71
g4264
sg64
(lp4271
S''
asbasbasbag57
(g73
g59
NtRp4272
(dp4273
g62
(dp4274
sg71
g4187
sg64
(lp4275
g57
(g78
g59
NtRp4276
(dp4277
g62
(dp4278
g82
g83
ssg71
g4272
sg64
(lp4279
g504
asbag57
(g78
g59
NtRp4280
(dp4281
g62
(dp4282
g89
g90
ssg71
g4272
sg64
(lp4283
S':'
asbag57
(g78
g59
NtRp4284
(dp4285
g62
(dp4286
sg71
g4272
sg64
(lp4287
g57
(g58
g59
NtRp4288
(dp4289
g62
(dp4290
g70
I3
ssg71
g4284
sg64
(lp4291
S''
asbasbasbag57
(g73
g59
NtRp4292
(dp4293
g62
(dp4294
sg71
g4187
sg64
(lp4295
g57
(g78
g59
NtRp4296
(dp4297
g62
(dp4298
g82
g83
ssg71
g4292
sg64
(lp4299
g525
asbag57
(g78
g59
NtRp4300
(dp4301
g62
(dp4302
g89
g90
ssg71
g4292
sg64
(lp4303
S':'
asbag57
(g78
g59
NtRp4304
(dp4305
g62
(dp4306
sg71
g4292
sg64
(lp4307
g57
(g58
g59
NtRp4308
(dp4309
g62
(dp4310
g70
I3
ssg71
g4304
sg64
(lp4311
S'/'
asbasbasbag57
(g73
g59
NtRp4312
(dp4313
g62
(dp4314
sg71
g4187
sg64
(lp4315
g57
(g78
g59
NtRp4316
(dp4317
g62
(dp4318
g82
g83
ssg71
g4312
sg64
(lp4319
g546
asbag57
(g78
g59
NtRp4320
(dp4321
g62
(dp4322
g89
g90
ssg71
g4312
sg64
(lp4323
S':'
asbag57
(g78
g59
NtRp4324
(dp4325
g62
(dp4326
sg71
g4312
sg64
(lp4327
g57
(g58
g59
NtRp4328
(dp4329
g62
(dp4330
g70
I3
ssg71
g4324
sg64
(lp4331
S''
asbasbasbag57
(g73
g59
NtRp4332
(dp4333
g62
(dp4334
sg71
g4187
sg64
(lp4335
g57
(g78
g59
NtRp4336
(dp4337
g62
(dp4338
g82
g83
ssg71
g4332
sg64
(lp4339
g567
asbag57
(g78
g59
NtRp4340
(dp4341
g62
(dp4342
g89
g90
ssg71
g4332
sg64
(lp4343
S':'
asbag57
(g78
g59
NtRp4344
(dp4345
g62
(dp4346
sg71
g4332
sg64
(lp4347
g57
(g58
g59
NtRp4348
(dp4349
g62
(dp4350
g70
I3
ssg71
g4344
sg64
(lp4351
S''
asbasbasbasbasbasbasbasbasbasbasbag57
(g73
g59
NtRp4352
(dp4353
g62
(dp4354
sg71
g4117
sg64
(lp4355
g57
(g78
g59
NtRp4356
(dp4357
g62
(dp4358
g82
g83
ssg71
g4352
sg64
(lp4359
S'delimiters'
p4360
asbag57
(g78
g59
NtRp4361
(dp4362
g62
(dp4363
g89
g90
ssg71
g4352
sg64
(lp4364
S':'
asbag57
(g78
g59
NtRp4365
(dp4366
g62
(dp4367
sg71
g4352
sg64
(lp4368
g57
(g58
g59
NtRp4369
(dp4370
g62
(dp4371
g70
I5
ssg71
g4365
sg64
(lp4372
g57
(g66
g59
NtRp4373
(dp4374
g62
(dp4375
g70
I4
ssg71
Nsg64
(lp4376
g57
(g73
g59
NtRp4377
(dp4378
g62
(dp4379
sg71
g4373
sg64
(lp4380
g57
(g78
g59
NtRp4381
(dp4382
g62
(dp4383
sg71
g4377
sg64
(lp4384
g57
(g58
g59
NtRp4385
(dp4386
g62
(dp4387
g70
I4
ssg71
g4381
sg64
(lp4388
S'{{'
p4389
asbasbasbag57
(g73
g59
NtRp4390
(dp4391
g62
(dp4392
sg71
g4373
sg64
(lp4393
g57
(g78
g59
NtRp4394
(dp4395
g62
(dp4396
sg71
g4390
sg64
(lp4397
g57
(g58
g59
NtRp4398
(dp4399
g62
(dp4400
g70
I4
ssg71
g4394
sg64
(lp4401
S'}}'
p4402
asbasbasbasbasbasbasbag57
(g73
g59
NtRp4403
(dp4404
g62
(dp4405
sg71
g4117
sg64
(lp4406
g57
(g78
g59
NtRp4407
(dp4408
g62
(dp4409
g82
g83
ssg71
g4403
sg64
(lp4410
S'files'
p4411
asbag57
(g78
g59
NtRp4412
(dp4413
g62
(dp4414
g89
g90
ssg71
g4403
sg64
(lp4415
S':'
asbag57
(g78
g59
NtRp4416
(dp4417
g62
(dp4418
sg71
g4403
sg64
(lp4419
g57
(g58
g59
NtRp4420
(dp4421
g62
(dp4422
g70
I5
ssg71
g4416
sg64
(lp4423
g57
(g66
g59
NtRp4424
(dp4425
g62
(dp4426
g70
I4
ssg71
Nsg64
(lp4427
g57
(g73
g59
NtRp4428
(dp4429
g62
(dp4430
sg71
g4424
sg64
(lp4431
g57
(g78
g59
NtRp4432
(dp4433
g62
(dp4434
sg71
g4428
sg64
(lp4435
g57
(g58
g59
NtRp4436
(dp4437
g62
(dp4438
g70
I4
ssg71
g4432
sg64
(lp4439
S'/DEV_bootstrap_ch/static/plugin_wiki/ui/css/redmond/jquery-ui-1.8.5.custom.css'
p4440
asbasbasbag57
(g73
g59
NtRp4441
(dp4442
g62
(dp4443
sg71
g4424
sg64
(lp4444
g57
(g78
g59
NtRp4445
(dp4446
g62
(dp4447
sg71
g4441
sg64
(lp4448
g57
(g58
g59
NtRp4449
(dp4450
g62
(dp4451
g70
I4
ssg71
g4445
sg64
(lp4452
S'/DEV_bootstrap_ch/static/plugin_wiki/ui/js/jquery-ui-1.8.5.custom.min.js'
p4453
asbasbasbag57
(g73
g59
NtRp4454
(dp4455
g62
(dp4456
sg71
g4424
sg64
(lp4457
g57
(g78
g59
NtRp4458
(dp4459
g62
(dp4460
sg71
g4454
sg64
(lp4461
g57
(g58
g59
NtRp4462
(dp4463
g62
(dp4464
g70
I4
ssg71
g4458
sg64
(lp4465
S'/DEV_bootstrap_ch/static/plugin_wiki/jqgrid/ui.jqgrid.css'
p4466
asbasbasbag57
(g73
g59
NtRp4467
(dp4468
g62
(dp4469
sg71
g4424
sg64
(lp4470
g57
(g78
g59
NtRp4471
(dp4472
g62
(dp4473
sg71
g4467
sg64
(lp4474
g57
(g58
g59
NtRp4475
(dp4476
g62
(dp4477
g70
I4
ssg71
g4471
sg64
(lp4478
S'/DEV_bootstrap_ch/static/plugin_wiki/jqgrid/i18n/grid.locale-en.js'
p4479
asbasbasbag57
(g73
g59
NtRp4480
(dp4481
g62
(dp4482
sg71
g4424
sg64
(lp4483
g57
(g78
g59
NtRp4484
(dp4485
g62
(dp4486
sg71
g4480
sg64
(lp4487
g57
(g58
g59
NtRp4488
(dp4489
g62
(dp4490
g70
I4
ssg71
g4484
sg64
(lp4491
S'/DEV_bootstrap_ch/static/plugin_wiki/jqgrid/jquery.jqGrid.min.js'
p4492
asbasbasbag57
(g73
g59
NtRp4493
(dp4494
g62
(dp4495
sg71
g4424
sg64
(lp4496
g57
(g78
g59
NtRp4497
(dp4498
g62
(dp4499
sg71
g4493
sg64
(lp4500
g57
(g58
g59
NtRp4501
(dp4502
g62
(dp4503
g70
I4
ssg71
g4497
sg64
(lp4504
S'/DEV_bootstrap_ch/static/plugin_wiki/slideshow/jquery.cycle.min.js'
p4505
asbasbasbag57
(g73
g59
NtRp4506
(dp4507
g62
(dp4508
sg71
g4424
sg64
(lp4509
g57
(g78
g59
NtRp4510
(dp4511
g62
(dp4512
sg71
g4506
sg64
(lp4513
g57
(g58
g59
NtRp4514
(dp4515
g62
(dp4516
g70
I4
ssg71
g4510
sg64
(lp4517
S'/DEV_bootstrap_ch/static/plugin_wiki/multiselect/jquery.multiselect.css'
p4518
asbasbasbag57
(g73
g59
NtRp4519
(dp4520
g62
(dp4521
sg71
g4424
sg64
(lp4522
g57
(g78
g59
NtRp4523
(dp4524
g62
(dp4525
sg71
g4519
sg64
(lp4526
g57
(g58
g59
NtRp4527
(dp4528
g62
(dp4529
g70
I4
ssg71
g4523
sg64
(lp4530
S'/DEV_bootstrap_ch/static/plugin_wiki/multiselect/jquery.multiselect.js'
p4531
asbasbasbag57
(g73
g59
NtRp4532
(dp4533
g62
(dp4534
sg71
g4424
sg64
(lp4535
g57
(g78
g59
NtRp4536
(dp4537
g62
(dp4538
sg71
g4532
sg64
(lp4539
g57
(g58
g59
NtRp4540
(dp4541
g62
(dp4542
g70
I4
ssg71
g4536
sg64
(lp4543
S'/DEV_bootstrap_ch/static/plugin_wiki/rating/jquery.rating.css'
p4544
asbasbasbag57
(g73
g59
NtRp4545
(dp4546
g62
(dp4547
sg71
g4424
sg64
(lp4548
g57
(g78
g59
NtRp4549
(dp4550
g62
(dp4551
sg71
g4545
sg64
(lp4552
g57
(g58
g59
NtRp4553
(dp4554
g62
(dp4555
g70
I4
ssg71
g4549
sg64
(lp4556
S'/DEV_bootstrap_ch/static/plugin_wiki/rating/jquery.rating.js'
p4557
asbasbasbasbasbasbasbag57
(g73
g59
NtRp4558
(dp4559
g62
(dp4560
sg71
g4117
sg64
(lp4561
g57
(g78
g59
NtRp4562
(dp4563
g62
(dp4564
g82
g83
ssg71
g4558
sg64
(lp4565
S'flash'
p4566
asbag57
(g78
g59
NtRp4567
(dp4568
g62
(dp4569
g89
g90
ssg71
g4558
sg64
(lp4570
S':'
asbag57
(g78
g59
NtRp4571
(dp4572
g62
(dp4573
sg71
g4558
sg64
(lp4574
g57
(g58
g59
NtRp4575
(dp4576
g62
(dp4577
g70
I5
ssg71
g4571
sg64
(lp4578
S''
asbasbasbag57
(g73
g59
NtRp4579
(dp4580
g62
(dp4581
sg71
g4117
sg64
(lp4582
g57
(g78
g59
NtRp4583
(dp4584
g62
(dp4585
g82
g83
ssg71
g4579
sg64
(lp4586
S'generic_patterns'
p4587
asbag57
(g78
g59
NtRp4588
(dp4589
g62
(dp4590
g89
g90
ssg71
g4579
sg64
(lp4591
S':'
asbag57
(g78
g59
NtRp4592
(dp4593
g62
(dp4594
sg71
g4579
sg64
(lp4595
g57
(g58
g59
NtRp4596
(dp4597
g62
(dp4598
g70
I5
ssg71
g4592
sg64
(lp4599
g57
(g66
g59
NtRp4600
(dp4601
g62
(dp4602
g70
I4
ssg71
Nsg64
(lp4603
g57
(g73
g59
NtRp4604
(dp4605
g62
(dp4606
sg71
g4600
sg64
(lp4607
g57
(g78
g59
NtRp4608
(dp4609
g62
(dp4610
sg71
g4604
sg64
(lp4611
g57
(g58
g59
NtRp4612
(dp4613
g62
(dp4614
g70
I4
ssg71
g4608
sg64
(lp4615
S'*'
asbasbasbasbasbasbasbag57
(g73
g59
NtRp4616
(dp4617
g62
(dp4618
sg71
g4117
sg64
(lp4619
g57
(g78
g59
NtRp4620
(dp4621
g62
(dp4622
g82
g83
ssg71
g4616
sg64
(lp4623
S'google_analytics_id'
p4624
asbag57
(g78
g59
NtRp4625
(dp4626
g62
(dp4627
g89
g90
ssg71
g4616
sg64
(lp4628
S':'
asbag57
(g78
g59
NtRp4629
(dp4630
g62
(dp4631
sg71
g4616
sg64
(lp4632
g57
(g58
g59
NtRp4633
(dp4634
g62
(dp4635
g70
I5
ssg71
g4629
sg64
(lp4636
S'None'
p4637
asbasbasbag57
(g73
g59
NtRp4638
(dp4639
g62
(dp4640
sg71
g4117
sg64
(lp4641
g57
(g78
g59
NtRp4642
(dp4643
g62
(dp4644
g82
g83
ssg71
g4638
sg64
(lp4645
S'headers'
p4646
asbag57
(g78
g59
NtRp4647
(dp4648
g62
(dp4649
g89
g90
ssg71
g4638
sg64
(lp4650
S':'
asbag57
(g78
g59
NtRp4651
(dp4652
g62
(dp4653
sg71
g4638
sg64
(lp4654
g57
(g58
g59
NtRp4655
(dp4656
g62
(dp4657
g70
I5
ssg71
g4651
sg64
(lp4658
g57
(g66
g59
NtRp4659
(dp4660
g62
(dp4661
g70
I4
ssg71
Nsg64
(lp4662
g57
(g73
g59
NtRp4663
(dp4664
g62
(dp4665
sg71
g4659
sg64
(lp4666
g57
(g78
g59
NtRp4667
(dp4668
g62
(dp4669
g82
g83
ssg71
g4663
sg64
(lp4670
S'X-Powered-By'
p4671
asbag57
(g78
g59
NtRp4672
(dp4673
g62
(dp4674
g89
g90
ssg71
g4663
sg64
(lp4675
S':'
asbag57
(g78
g59
NtRp4676
(dp4677
g62
(dp4678
sg71
g4663
sg64
(lp4679
g57
(g58
g59
NtRp4680
(dp4681
g62
(dp4682
g70
I4
ssg71
g4676
sg64
(lp4683
S'web2py'
p4684
asbasbasbasbasbasbasbag57
(g73
g59
NtRp4685
(dp4686
g62
(dp4687
sg71
g4117
sg64
(lp4688
g57
(g78
g59
NtRp4689
(dp4690
g62
(dp4691
g82
g83
ssg71
g4685
sg64
(lp4692
S'menu'
p4693
asbag57
(g78
g59
NtRp4694
(dp4695
g62
(dp4696
g89
g90
ssg71
g4685
sg64
(lp4697
S':'
asbag57
(g78
g59
NtRp4698
(dp4699
g62
(dp4700
sg71
g4685
sg64
(lp4701
g57
(g58
g59
NtRp4702
(dp4703
g62
(dp4704
g70
I5
ssg71
g4698
sg64
(lp4705
g57
(g66
g59
NtRp4706
(dp4707
g62
(dp4708
g70
I4
ssg71
Nsg64
(lp4709
g57
(g73
g59
NtRp4710
(dp4711
g62
(dp4712
sg71
g4706
sg64
(lp4713
g57
(g78
g59
NtRp4714
(dp4715
g62
(dp4716
sg71
g4710
sg64
(lp4717
g57
(g58
g59
NtRp4718
(dp4719
g62
(dp4720
g70
I4
ssg71
g4714
sg64
(lp4721
g57
(g66
g59
NtRp4722
(dp4723
g62
(dp4724
g70
I3
ssg71
Nsg64
(lp4725
g57
(g73
g59
NtRp4726
(dp4727
g62
(dp4728
sg71
g4722
sg64
(lp4729
g57
(g78
g59
NtRp4730
(dp4731
g62
(dp4732
sg71
g4726
sg64
(lp4733
g57
(g58
g59
NtRp4734
(dp4735
g62
(dp4736
g70
I3
ssg71
g4730
sg64
(lp4737
cgluon.languages
lazyT_unpickle
p4738
(S't\x04\x00\x00\x00Home'
tRp4739
asbasbasbag57
(g73
g59
NtRp4740
(dp4741
g62
(dp4742
sg71
g4722
sg64
(lp4743
g57
(g78
g59
NtRp4744
(dp4745
g62
(dp4746
sg71
g4740
sg64
(lp4747
g57
(g58
g59
NtRp4748
(dp4749
g62
(dp4750
g70
I3
ssg71
g4744
sg64
(lp4751
g100
asbasbasbag57
(g73
g59
NtRp4752
(dp4753
g62
(dp4754
sg71
g4722
sg64
(lp4755
g57
(g78
g59
NtRp4756
(dp4757
g62
(dp4758
sg71
g4752
sg64
(lp4759
g57
(g58
g59
NtRp4760
(dp4761
g62
(dp4762
g70
I3
ssg71
g4756
sg64
(lp4763
S'/DEV_bootstrap_ch/default/list_all_projects'
p4764
asbasbasbag57
(g73
g59
NtRp4765
(dp4766
g62
(dp4767
sg71
g4722
sg64
(lp4768
g57
(g78
g59
NtRp4769
(dp4770
g62
(dp4771
sg71
g4765
sg64
(lp4772
g57
(g58
g59
NtRp4773
(dp4774
g62
(dp4775
g70
I3
ssg71
g4769
sg64
(lp4776
g57
(g66
g59
NtRp4777
(dp4778
g62
(dp4779
g70
I2
ssg71
Nsg64
(lp4780
sbasbasbasbasbasbasbasbag57
(g73
g59
NtRp4781
(dp4782
g62
(dp4783
sg71
g4706
sg64
(lp4784
g57
(g78
g59
NtRp4785
(dp4786
g62
(dp4787
sg71
g4781
sg64
(lp4788
g57
(g58
g59
NtRp4789
(dp4790
g62
(dp4791
g70
I4
ssg71
g4785
sg64
(lp4792
g57
(g66
g59
NtRp4793
(dp4794
g62
(dp4795
g70
I3
ssg71
Nsg64
(lp4796
g57
(g73
g59
NtRp4797
(dp4798
g62
(dp4799
sg71
g4793
sg64
(lp4800
g57
(g78
g59
NtRp4801
(dp4802
g62
(dp4803
sg71
g4797
sg64
(lp4804
g57
(g58
g59
NtRp4805
(dp4806
g62
(dp4807
g70
I3
ssg71
g4801
sg64
(lp4808
g4738
(S's\x08\x00\x00\x00Projects'
tRp4809
asbasbasbag57
(g73
g59
NtRp4810
(dp4811
g62
(dp4812
sg71
g4793
sg64
(lp4813
g57
(g78
g59
NtRp4814
(dp4815
g62
(dp4816
sg71
g4810
sg64
(lp4817
g57
(g58
g59
NtRp4818
(dp4819
g62
(dp4820
g70
I3
ssg71
g4814
sg64
(lp4821
g100
asbasbasbag57
(g73
g59
NtRp4822
(dp4823
g62
(dp4824
sg71
g4793
sg64
(lp4825
g57
(g78
g59
NtRp4826
(dp4827
g62
(dp4828
sg71
g4822
sg64
(lp4829
g57
(g58
g59
NtRp4830
(dp4831
g62
(dp4832
g70
I3
ssg71
g4826
sg64
(lp4833
S'/DEV_bootstrap_ch/default/list_all_projects'
p4834
asbasbasbag57
(g73
g59
NtRp4835
(dp4836
g62
(dp4837
sg71
g4793
sg64
(lp4838
g57
(g78
g59
NtRp4839
(dp4840
g62
(dp4841
sg71
g4835
sg64
(lp4842
g57
(g58
g59
NtRp4843
(dp4844
g62
(dp4845
g70
I3
ssg71
g4839
sg64
(lp4846
g57
(g66
g59
NtRp4847
(dp4848
g62
(dp4849
g70
I2
ssg71
Nsg64
(lp4850
sbasbasbasbasbasbasbasbasbasbasbasbag57
(g73
g59
NtRp4851
(dp4852
g62
(dp4853
sg71
g4117
sg64
(lp4854
g57
(g78
g59
NtRp4855
(dp4856
g62
(dp4857
g82
g83
ssg71
g4851
sg64
(lp4858
S'meta'
p4859
asbag57
(g78
g59
NtRp4860
(dp4861
g62
(dp4862
g89
g90
ssg71
g4851
sg64
(lp4863
S':'
asbag57
(g78
g59
NtRp4864
(dp4865
g62
(dp4866
sg71
g4851
sg64
(lp4867
g57
(g58
g59
NtRp4868
(dp4869
g62
(dp4870
g70
I5
ssg71
g4864
sg64
(lp4871
g57
(g66
g59
NtRp4872
(dp4873
g62
(dp4874
g70
I4
ssg71
Nsg64
(lp4875
g57
(g73
g59
NtRp4876
(dp4877
g62
(dp4878
sg71
g4872
sg64
(lp4879
g57
(g78
g59
NtRp4880
(dp4881
g62
(dp4882
g82
g83
ssg71
g4876
sg64
(lp4883
S'author'
p4884
asbag57
(g78
g59
NtRp4885
(dp4886
g62
(dp4887
g89
g90
ssg71
g4876
sg64
(lp4888
S':'
asbag57
(g78
g59
NtRp4889
(dp4890
g62
(dp4891
sg71
g4876
sg64
(lp4892
g57
(g58
g59
NtRp4893
(dp4894
g62
(dp4895
g70
I4
ssg71
g4889
sg64
(lp4896
S'Vikram Pudi <vikram@iiit.ac.in>'
p4897
asbasbasbag57
(g73
g59
NtRp4898
(dp4899
g62
(dp4900
sg71
g4872
sg64
(lp4901
g57
(g78
g59
NtRp4902
(dp4903
g62
(dp4904
g82
g83
ssg71
g4898
sg64
(lp4905
S'copyright'
p4906
asbag57
(g78
g59
NtRp4907
(dp4908
g62
(dp4909
g89
g90
ssg71
g4898
sg64
(lp4910
S':'
asbag57
(g78
g59
NtRp4911
(dp4912
g62
(dp4913
sg71
g4898
sg64
(lp4914
g57
(g58
g59
NtRp4915
(dp4916
g62
(dp4917
g70
I4
ssg71
g4911
sg64
(lp4918
S'Copyright 2011'
p4919
asbasbasbag57
(g73
g59
NtRp4920
(dp4921
g62
(dp4922
sg71
g4872
sg64
(lp4923
g57
(g78
g59
NtRp4924
(dp4925
g62
(dp4926
g82
g83
ssg71
g4920
sg64
(lp4927
S'description'
p4928
asbag57
(g78
g59
NtRp4929
(dp4930
g62
(dp4931
g89
g90
ssg71
g4920
sg64
(lp4932
S':'
asbag57
(g78
g59
NtRp4933
(dp4934
g62
(dp4935
sg71
g4920
sg64
(lp4936
g57
(g58
g59
NtRp4937
(dp4938
g62
(dp4939
g70
I4
ssg71
g4933
sg64
(lp4940
S'Computational Core for Plant Metabolomics -- A project sanctioned by DBT, Govt. of India'
p4941
asbasbasbag57
(g73
g59
NtRp4942
(dp4943
g62
(dp4944
sg71
g4872
sg64
(lp4945
g57
(g78
g59
NtRp4946
(dp4947
g62
(dp4948
g82
g83
ssg71
g4942
sg64
(lp4949
S'generator'
p4950
asbag57
(g78
g59
NtRp4951
(dp4952
g62
(dp4953
g89
g90
ssg71
g4942
sg64
(lp4954
S':'
asbag57
(g78
g59
NtRp4955
(dp4956
g62
(dp4957
sg71
g4942
sg64
(lp4958
g57
(g58
g59
NtRp4959
(dp4960
g62
(dp4961
g70
I4
ssg71
g4955
sg64
(lp4962
S'Web2py Web Framework'
p4963
asbasbasbag57
(g73
g59
NtRp4964
(dp4965
g62
(dp4966
sg71
g4872
sg64
(lp4967
g57
(g78
g59
NtRp4968
(dp4969
g62
(dp4970
g82
g83
ssg71
g4964
sg64
(lp4971
S'keywords'
p4972
asbag57
(g78
g59
NtRp4973
(dp4974
g62
(dp4975
g89
g90
ssg71
g4964
sg64
(lp4976
S':'
asbag57
(g78
g59
NtRp4977
(dp4978
g62
(dp4979
sg71
g4964
sg64
(lp4980
g57
(g58
g59
NtRp4981
(dp4982
g62
(dp4983
g70
I4
ssg71
g4977
sg64
(lp4984
S'web2py, python, metabolome, metabolomics'
p4985
asbasbasbasbasbasbasbag57
(g73
g59
NtRp4986
(dp4987
g62
(dp4988
sg71
g4117
sg64
(lp4989
g57
(g78
g59
NtRp4990
(dp4991
g62
(dp4992
g82
g83
ssg71
g4986
sg64
(lp4993
S'models_to_run'
p4994
asbag57
(g78
g59
NtRp4995
(dp4996
g62
(dp4997
g89
g90
ssg71
g4986
sg64
(lp4998
S':'
asbag57
(g78
g59
NtRp4999
(dp5000
g62
(dp5001
sg71
g4986
sg64
(lp5002
g57
(g58
g59
NtRp5003
(dp5004
g62
(dp5005
g70
I5
ssg71
g4999
sg64
(lp5006
g57
(g66
g59
NtRp5007
(dp5008
g62
(dp5009
g70
I4
ssg71
Nsg64
(lp5010
g57
(g73
g59
NtRp5011
(dp5012
g62
(dp5013
sg71
g5007
sg64
(lp5014
g57
(g78
g59
NtRp5015
(dp5016
g62
(dp5017
sg71
g5011
sg64
(lp5018
g57
(g58
g59
NtRp5019
(dp5020
g62
(dp5021
g70
I4
ssg71
g5015
sg64
(lp5022
S'^\\w+\\.py$'
p5023
asbasbasbag57
(g73
g59
NtRp5024
(dp5025
g62
(dp5026
sg71
g5007
sg64
(lp5027
g57
(g78
g59
NtRp5028
(dp5029
g62
(dp5030
sg71
g5024
sg64
(lp5031
g57
(g58
g59
NtRp5032
(dp5033
g62
(dp5034
g70
I4
ssg71
g5028
sg64
(lp5035
S'^default/\\w+\\.py$'
p5036
asbasbasbag57
(g73
g59
NtRp5037
(dp5038
g62
(dp5039
sg71
g5007
sg64
(lp5040
g57
(g78
g59
NtRp5041
(dp5042
g62
(dp5043
sg71
g5037
sg64
(lp5044
g57
(g58
g59
NtRp5045
(dp5046
g62
(dp5047
g70
I4
ssg71
g5041
sg64
(lp5048
S'^default/router/\\w+\\.py$'
p5049
asbasbasbasbasbasbasbag57
(g73
g59
NtRp5050
(dp5051
g62
(dp5052
sg71
g4117
sg64
(lp5053
g57
(g78
g59
NtRp5054
(dp5055
g62
(dp5056
g82
g83
ssg71
g5050
sg64
(lp5057
S'postprocessing'
p5058
asbag57
(g78
g59
NtRp5059
(dp5060
g62
(dp5061
g89
g90
ssg71
g5050
sg64
(lp5062
S':'
asbag57
(g78
g59
NtRp5063
(dp5064
g62
(dp5065
sg71
g5050
sg64
(lp5066
g57
(g58
g59
NtRp5067
(dp5068
g62
(dp5069
g70
I5
ssg71
g5063
sg64
(lp5070
g57
(g66
g59
NtRp5071
(dp5072
g62
(dp5073
g70
I4
ssg71
Nsg64
(lp5074
sbasbasbasbag57
(g73
g59
NtRp5075
(dp5076
g62
(dp5077
sg71
g4117
sg64
(lp5078
g57
(g78
g59
NtRp5079
(dp5080
g62
(dp5081
g82
g83
ssg71
g5075
sg64
(lp5082
S'session_cookie_expires'
p5083
asbag57
(g78
g59
NtRp5084
(dp5085
g62
(dp5086
g89
g90
ssg71
g5075
sg64
(lp5087
S':'
asbag57
(g78
g59
NtRp5088
(dp5089
g62
(dp5090
sg71
g5075
sg64
(lp5091
g57
(g58
g59
NtRp5092
(dp5093
g62
(dp5094
g70
I5
ssg71
g5088
sg64
(lp5095
S'None'
p5096
asbasbasbag57
(g73
g59
NtRp5097
(dp5098
g62
(dp5099
sg71
g4117
sg64
(lp5100
g57
(g78
g59
NtRp5101
(dp5102
g62
(dp5103
g82
g83
ssg71
g5097
sg64
(lp5104
S'session_data_name'
p5105
asbag57
(g78
g59
NtRp5106
(dp5107
g62
(dp5108
g89
g90
ssg71
g5097
sg64
(lp5109
S':'
asbag57
(g78
g59
NtRp5110
(dp5111
g62
(dp5112
sg71
g5097
sg64
(lp5113
g57
(g58
g59
NtRp5114
(dp5115
g62
(dp5116
g70
I5
ssg71
g5110
sg64
(lp5117
S'session_data_dev_bootstrap_ch'
p5118
asbasbasbag57
(g73
g59
NtRp5119
(dp5120
g62
(dp5121
sg71
g4117
sg64
(lp5122
g57
(g78
g59
NtRp5123
(dp5124
g62
(dp5125
g82
g83
ssg71
g5119
sg64
(lp5126
S'session_file'
p5127
asbag57
(g78
g59
NtRp5128
(dp5129
g62
(dp5130
g89
g90
ssg71
g5119
sg64
(lp5131
S':'
asbag57
(g78
g59
NtRp5132
(dp5133
g62
(dp5134
sg71
g5119
sg64
(lp5135
g57
(g58
g59
NtRp5136
(dp5137
g62
(dp5138
g70
I5
ssg71
g5132
sg64
(lp5139
S"<open file '/home/anil/bootstrap/web2py/applications/DEV_bootstrap_ch/sessions/127.0.0.1-270b038b-df00-4d5c-949a-e87692880510', mode 'rb+' at 0xb004ba18>"
p5140
asbasbasbag57
(g73
g59
NtRp5141
(dp5142
g62
(dp5143
sg71
g4117
sg64
(lp5144
g57
(g78
g59
NtRp5145
(dp5146
g62
(dp5147
g82
g83
ssg71
g5141
sg64
(lp5148
S'session_filename'
p5149
asbag57
(g78
g59
NtRp5150
(dp5151
g62
(dp5152
g89
g90
ssg71
g5141
sg64
(lp5153
S':'
asbag57
(g78
g59
NtRp5154
(dp5155
g62
(dp5156
sg71
g5141
sg64
(lp5157
g57
(g58
g59
NtRp5158
(dp5159
g62
(dp5160
g70
I5
ssg71
g5154
sg64
(lp5161
S'/home/anil/bootstrap/web2py/applications/DEV_bootstrap_ch/sessions/127.0.0.1-270b038b-df00-4d5c-949a-e87692880510'
p5162
asbasbasbag57
(g73
g59
NtRp5163
(dp5164
g62
(dp5165
sg71
g4117
sg64
(lp5166
g57
(g78
g59
NtRp5167
(dp5168
g62
(dp5169
g82
g83
ssg71
g5163
sg64
(lp5170
S'session_id'
p5171
asbag57
(g78
g59
NtRp5172
(dp5173
g62
(dp5174
g89
g90
ssg71
g5163
sg64
(lp5175
S':'
asbag57
(g78
g59
NtRp5176
(dp5177
g62
(dp5178
sg71
g5163
sg64
(lp5179
g57
(g58
g59
NtRp5180
(dp5181
g62
(dp5182
g70
I5
ssg71
g5176
sg64
(lp5183
g787
asbasbasbag57
(g73
g59
NtRp5184
(dp5185
g62
(dp5186
sg71
g4117
sg64
(lp5187
g57
(g78
g59
NtRp5188
(dp5189
g62
(dp5190
g82
g83
ssg71
g5184
sg64
(lp5191
S'session_id_name'
p5192
asbag57
(g78
g59
NtRp5193
(dp5194
g62
(dp5195
g89
g90
ssg71
g5184
sg64
(lp5196
S':'
asbag57
(g78
g59
NtRp5197
(dp5198
g62
(dp5199
sg71
g5184
sg64
(lp5200
g57
(g58
g59
NtRp5201
(dp5202
g62
(dp5203
g70
I5
ssg71
g5197
sg64
(lp5204
g4174
asbasbasbag57
(g73
g59
NtRp5205
(dp5206
g62
(dp5207
sg71
g4117
sg64
(lp5208
g57
(g78
g59
NtRp5209
(dp5210
g62
(dp5211
g82
g83
ssg71
g5205
sg64
(lp5212
S'session_locked'
p5213
asbag57
(g78
g59
NtRp5214
(dp5215
g62
(dp5216
g89
g90
ssg71
g5205
sg64
(lp5217
S':'
asbag57
(g78
g59
NtRp5218
(dp5219
g62
(dp5220
sg71
g5205
sg64
(lp5221
g57
(g58
g59
NtRp5222
(dp5223
g62
(dp5224
g70
I5
ssg71
g5218
sg64
(lp5225
g1939
asbasbasbag57
(g73
g59
NtRp5226
(dp5227
g62
(dp5228
sg71
g4117
sg64
(lp5229
g57
(g78
g59
NtRp5230
(dp5231
g62
(dp5232
g82
g83
ssg71
g5226
sg64
(lp5233
S'session_new'
p5234
asbag57
(g78
g59
NtRp5235
(dp5236
g62
(dp5237
g89
g90
ssg71
g5226
sg64
(lp5238
S':'
asbag57
(g78
g59
NtRp5239
(dp5240
g62
(dp5241
sg71
g5226
sg64
(lp5242
g57
(g58
g59
NtRp5243
(dp5244
g62
(dp5245
g70
I5
ssg71
g5239
sg64
(lp5246
g100
asbasbasbag57
(g73
g59
NtRp5247
(dp5248
g62
(dp5249
sg71
g4117
sg64
(lp5250
g57
(g78
g59
NtRp5251
(dp5252
g62
(dp5253
g82
g83
ssg71
g5247
sg64
(lp5254
S'session_storage_type'
p5255
asbag57
(g78
g59
NtRp5256
(dp5257
g62
(dp5258
g89
g90
ssg71
g5247
sg64
(lp5259
S':'
asbag57
(g78
g59
NtRp5260
(dp5261
g62
(dp5262
sg71
g5247
sg64
(lp5263
g57
(g58
g59
NtRp5264
(dp5265
g62
(dp5266
g70
I5
ssg71
g5260
sg64
(lp5267
g3413
asbasbasbag57
(g73
g59
NtRp5268
(dp5269
g62
(dp5270
sg71
g4117
sg64
(lp5271
g57
(g78
g59
NtRp5272
(dp5273
g62
(dp5274
g82
g83
ssg71
g5268
sg64
(lp5275
S'status'
p5276
asbag57
(g78
g59
NtRp5277
(dp5278
g62
(dp5279
g89
g90
ssg71
g5268
sg64
(lp5280
S':'
asbag57
(g78
g59
NtRp5281
(dp5282
g62
(dp5283
sg71
g5268
sg64
(lp5284
g57
(g58
g59
NtRp5285
(dp5286
g62
(dp5287
g70
I5
ssg71
g5281
sg64
(lp5288
S'200'
p5289
asbasbasbag57
(g73
g59
NtRp5290
(dp5291
g62
(dp5292
sg71
g4117
sg64
(lp5293
g57
(g78
g59
NtRp5294
(dp5295
g62
(dp5296
g82
g83
ssg71
g5290
sg64
(lp5297
S'subtitle'
p5298
asbag57
(g78
g59
NtRp5299
(dp5300
g62
(dp5301
g89
g90
ssg71
g5290
sg64
(lp5302
S':'
asbag57
(g78
g59
NtRp5303
(dp5304
g62
(dp5305
sg71
g5290
sg64
(lp5306
g57
(g58
g59
NtRp5307
(dp5308
g62
(dp5309
g70
I5
ssg71
g5303
sg64
(lp5310
g4738
(S's)\x00\x00\x00Computational Core for Plant Metabolomics'
tRp5311
asbasbasbag57
(g73
g59
NtRp5312
(dp5313
g62
(dp5314
sg71
g4117
sg64
(lp5315
g57
(g78
g59
NtRp5316
(dp5317
g62
(dp5318
g82
g83
ssg71
g5312
sg64
(lp5319
g3983
asbag57
(g78
g59
NtRp5320
(dp5321
g62
(dp5322
g89
g90
ssg71
g5312
sg64
(lp5323
S':'
asbag57
(g78
g59
NtRp5324
(dp5325
g62
(dp5326
sg71
g5312
sg64
(lp5327
g57
(g58
g59
NtRp5328
(dp5329
g62
(dp5330
g70
I5
ssg71
g5324
sg64
(lp5331
g122
asbasbasbag57
(g73
g59
NtRp5332
(dp5333
g62
(dp5334
sg71
g4117
sg64
(lp5335
g57
(g78
g59
NtRp5336
(dp5337
g62
(dp5338
g82
g83
ssg71
g5332
sg64
(lp5339
S'view'
p5340
asbag57
(g78
g59
NtRp5341
(dp5342
g62
(dp5343
g89
g90
ssg71
g5332
sg64
(lp5344
S':'
asbag57
(g78
g59
NtRp5345
(dp5346
g62
(dp5347
sg71
g5332
sg64
(lp5348
g57
(g58
g59
NtRp5349
(dp5350
g62
(dp5351
g70
I5
ssg71
g5345
sg64
(lp5352
S'default/router.html'
p5353
asbasbasbasbasbsS'locals'
p5354
(dp5355
ssS'traceback'
p5356
S'Traceback (most recent call last):\n  File "/home/anil/bootstrap/web2py/gluon/restricted.py", line 212, in restricted\n    exec ccode in environment\n  File "/home/anil/bootstrap/web2py/applications/DEV_bootstrap_ch/controllers/default.py", line 1118, in <module>\n  File "/home/anil/bootstrap/web2py/gluon/globals.py", line 193, in <lambda>\n    self._caller = lambda f: f()\n  File "/home/anil/bootstrap/web2py/applications/DEV_bootstrap_ch/controllers/default.py", line 367, in router\n    if \'biosource\' in l:\nNameError: global name \'l\' is not defined\n'
p5357
s.