(dp1
S'output'
p2
S"<type 'exceptions.TypeError'> cannot concatenate 'str' and 'NoneType' objects"
p3
sS'layer'
p4
S'/home/anil/Downloads/web2py/applications/DEV_bootstrap_ch/views/default/project_viewer.html'
p5
sS'code'
p6
S'response.write(\'<!DOCTYPE html>\\n<html lang="\', escape=False)\nresponse.write(T.accepted_language or \'en\')\nresponse.write(\'" class="no-js"><!-- no-js need it for modernzr -->\\n  <head>\\n    \\n    <meta charset="utf-8" />        \\n    <!-- www.phpied.com/conditional-comments-block-downloads/ -->\\n    <!--[if IE]>\\n      <!-- Always force latest IE rendering engine \\n       (even in intranet) & Chrome Frame \\n       Remove this if you use the .htaccess -->\\n      <meta http-equiv="X-UA-Compatible" content="IE=edge,chrome=1">\\n    <![endif]-->    \\n\\n    <title>\', escape=False)\nresponse.write(response.title or request.application)\nresponse.write(\'</title>\\n    \\n    <!-- http://dev.w3.org/html5/markup/meta.name.html -->\\n    <meta name="application-name" content="\', escape=False)\nresponse.write(request.application)\nresponse.write(\'" /> \\n    \\n    <!-- Speaking of Google, don\\\'t forget to set your site up: \\n     http://google.com/webmasters -->\\n    <meta name="google-site-verification" content="" />\\n    \\n    <!--  Mobile Viewport Fix\\n      j.mp/mobileviewport & davidbcalhoun.com/2010/viewport-metatag \\n      device-width: Occupy full width of the screen in its current orientation\\n      initial-scale = 1.0 retains dimensions instead of zooming out if page height > device height\\n      maximum-scale = 1.0 retains dimensions instead of zooming in if page width < device width\\n      -->\\n    <meta name="viewport" content="width=device-width, initial-scale=1.0, maximum-scale=1.0">\\n    \\n    <!-- Place favicon.ico and apple-touch-icon.png in the root of your domain and delete these references -->\\n    <link rel="shortcut icon" href="\', escape=False)\nresponse.write(URL(\'static\',\'favicon.ico\'))\nresponse.write(\'" type="image/x-icon">\\n    <link rel="apple-touch-icon" href="\', escape=False)\nresponse.write(URL(\'static\',\'favicon.png\'))\nresponse.write(\'">\\n\\n    <!-- For the less-enabled mobile browsers like Opera Mini -->\\n    <link rel="stylesheet" media="handheld" href="\', escape=False)\nresponse.write(URL(\'static\',\'css/handheld.css\'))\nresponse.write(\'">\\n    \\n    <!-- All JavaScript at the bottom, except for Modernizr which enables HTML5 elements & feature detects -->\\n    <script src="\', escape=False)\nresponse.write(URL(\'static\',\'js/modernizr-1.7.min.js\'))\nresponse.write(\'"></script>\\n    \\n    \', escape=False)\n#------  require CSS and JS files for this page (read info in base.css) ------\nresponse.write(\'\\n    \', escape=False)\nresponse.files.append(URL(\'static\',\'css/base.css\'))\nresponse.write(\'\\n    \', escape=False)\nresponse.files.append(URL(\'static\',\'css/superfish.css\'))\nresponse.write(\'\\n    \', escape=False)\nresponse.files.append(URL(\'static\',\'js/superfish.js\'))\nresponse.write(\'\\n    \', escape=False)\n#------ include web2py specific js code (jquery, calendar, form stuff) ------\nresponse.write(\'\\n    \', escape=False)\nresponse.write(\'<script type="text/javascript"><!--\\n    // These variables are used by the web2py_ajax_init function in web2py_ajax.js (which is loaded below).\\n    var w2p_ajax_confirm_message = "\', escape=False)\nresponse.write(T(\'Are you sure you want to delete this object?\'))\nresponse.write(\'";\\n    var w2p_ajax_date_format = "\', escape=False)\nresponse.write(T(\'%d-%m-%Y\'))\nresponse.write(\'";\\n    var w2p_ajax_datetime_format = "\', escape=False)\nresponse.write(T(\'%d-%m-%Y %H:%M:%S\'))\nresponse.write(\'";\\n    //--></script>\\n\', escape=False)\nresponse.files.insert(0,URL(\'static\',\'js/jquery.js\'))\nresponse.files.insert(1,URL(\'static\',\'css/calendar.css\'))\nresponse.files.insert(2,URL(\'static\',\'js/calendar.js\'))\nresponse.files.insert(3,URL(\'static\',\'js/web2py.js\'))\nresponse.include_meta()\nresponse.include_files()\nresponse.write(\'\\n\', escape=False)\nresponse.write(\'\\n\\n    \', escape=False)\n#using sidebars need to know what sidebar you want to use\n#prior of using it, because of static width size of content, you can use\n#left_sidebar, right_sidebar, both or none (False left and right)\nleft_sidebar_enabled = globals().get(\'left_sidebar_enabled\',False)\nright_sidebar_enabled = globals().get(\'right_sidebar_enabled\',False)\nif left_sidebar_enabled and right_sidebar_enabled: width_content=\'63%\'\nelif left_sidebar_enabled != right_sidebar_enabled: width_content=\'740px\'\nelse: width_content=\'100%\'\nif left_sidebar_enabled: left_sidebar_style = \'style="display: block;"\'\nelse: left_sidebar_style = \'style="display: none;"\'\nif right_sidebar_enabled: right_sidebar_style = \'style="display: block;"\'\nelse: right_sidebar_style = \'style="display: none;"\'\nstyle_content = \'style="width: %s"\' % width_content\nresponse.write(\'\\n    \\n    <!-- uncomment here to load jquery-ui\\n    \\n    <link rel="stylesheet" href="http://ajax.googleapis.com/ajax/libs/jqueryui/1.8.16/themes/base/jquery-ui.css" type="text/css" media="all" />\\n    <script src="http://ajax.googleapis.com/ajax/libs/jqueryui/1.8.16/jquery-ui.min.js" type="text/javascript"></script>\\n    \\n    uncomment to load jquery-ui -->\\n    \\n  <!--script type="text/javascript"\\n   src="http://cdn.mathjax.org/mathjax/latest/MathJax.js?config=TeX-AMS-MML_HTMLorMML"></script-->\\n    \\n  </head>\\n  \\n  <!-- paulirish.com/2008/conditional-stylesheets-vs-css-hacks-answer-neither/ -->  \\n  <!--[if lt IE 7 ]> <body class="ie6"> <![endif]-->\\n  <!--[if IE 7 ]>    <body class="ie7"> <![endif]-->\\n  <!--[if IE 8 ]>    <body class="ie8"> <![endif]-->\\n  <!--[if IE 9 ]>    <body class="ie9"> <![endif]-->\\n  <!--[if (gt IE 9)|!(IE)]><!--> <body> <!--<![endif]-->\\n    \\n    <div class="flash">\', escape=False)\nresponse.write(response.flash or \'\')\nresponse.write(\'</div> <!-- notification div -->\\n\\n        \\n\\n    <div id="container">                        \\n      \\n      <div id="wrapper">        \\n      \', escape=False)\ntry:\n    response.write(\'\\n         \', escape=False)\n    bar=auth.navbar(action=URL(\'default\',\'user\'))\n    response.write(\'\\n         \', escape=False)\n    response.write(bar)\n    response.write(\'\\n      \', escape=False)\nexcept:pass\nresponse.write(\'\\n    \\n    <div id="header"> <!-- header and login nav -->\\n      \', escape=False)\nresponse.write(\' <!-- this is default header -->\\n      \\n      <h1>\\n        <span id="appname"><!--\', escape=False)\nresponse.write(request.application.capitalize())\nresponse.write(\'-->Computational Core for Plant Metabolomics</span>\\n      </h1>\\n      <div align="right">\\n      </div>\\n      <div style="clear: both;"></div><!-- Clear the divs -->\\n      \', escape=False)\nresponse.write(\'\\n    </div><!-- header  -->\\n    \\n    <div id="statusbar"><!-- statusbar is menu zone -->\\n      \', escape=False)\nresponse.write(\' <!-- this is default statusbar -->\\n      \', escape=False)\n#------ superfish menu ------\nresponse.write(\'\\n      \', escape=False)\nresponse.write(MENU(response.menu,_class=\'sf-menu\'))\nresponse.write(\'\\n      <script type="text/javascript">\\n        jQuery(document).ready(function(){\\n        jQuery(\\\'ul.sf-menu\\\').superfish();});\\n      </script>\\n\\n      <!-- AddToAny BEGIN\\n      <div style="padding: 7px; float:right;" class="a2a_kit a2a_default_style"><a class="a2a_dd" href="http://www.addtoany.com/share_save">Share</a></div><script type="text/javascript" src="http://static.addtoany.com/menu/page.js"></script>\\n      AddToAny END -->\\n\\n      <div style="clear: both;"></div><!-- Clear the divs -->   \\n      \', escape=False)\nresponse.write(\'               \\n    </div><!-- statusbar -->\\n    \\n    <div id="page"> <!-- Here my central body -->     \\n\\n      \', escape=False)\nif left_sidebar_enabled:\n    response.write(\'\\n          <div id="left_sidebar" \', escape=False)\n    response.write(XML(left_sidebar_style))\n    response.write(\' >\\n            <div style="padding: 4px;">\\n          \', escape=False)\n    response.write(\'Content Left Sidebar\', escape=False)\n    response.write(\'       \\n            </div>\\n          </div><!-- left_sidebar -->\\n      \', escape=False)\n    pass\nresponse.write(\'\\n\\n      <!-- content -->\\n      <div id="content" \', escape=False)\nresponse.write(XML(style_content))\nresponse.write(\' >\\n        \', escape=False)\nresponse.write(\'\\n<style type="text/css">\\n#customers\\n{\\nfont-family:"Trebuchet MS", Arial, Helvetica, sans-serif;\\nwidth:100%;\\nborder-collapse:collapse;\\n}\\n#customers td, #customers th \\n{\\nfont-size:1em;\\nborder:1px solid #98bf21;\\npadding:3px 7px 2px 7px;\\n}\\n#customers th \\n{\\nfont-size:1.1em;\\ntext-align:left;\\npadding-top:5px;\\npadding-bottom:4px;\\nbackground-color:#A7C942;\\ncolor:#ffffff;\\n}\\n#customers tr.alt td \\n{\\ncolor:#000000;\\nbackground-color:#EAF2D3;\\n}\\n</style>\\n<center><h3>Project: \', escape=False)\nresponse.write(project.name)\nresponse.write(\'</h3></center>\\n</br>\\n<table ><tr id="pen\', escape=False)\nresponse.write(project.id)\nresponse.write(\'">\\n\\n<!--td>\\n<button onclick="ajax(\\\'\', escape=False)\nresponse.write(URL(\'ajx_publish\',args=(\'publish\',project.id)))\nresponse.write("\',[],null);jQuery(\'tr#pen", escape=False)\nresponse.write(project.id)\nresponse.write(\'\\\').slideUp()">Publish</button>\\n</td-->\\n<div align="right">\\n\', escape=False)\nif  project.project_status == "0":\n    response.write(\'\\n\', escape=False)\n    response.write(H5(A(\'Publish Project\',_href=URL(\'ajx_publish\',args=(\'publish\',project.id)))))\n    response.write(\'\\n\', escape=False)\n    pass\nresponse.write(\'\\n\', escape=False)\nif  project.project_status == "1":\n    response.write(\'\\n\', escape=False)\n    response.write(H5(A(\'UnPublish Project\',_href=URL(\'ajx_publish\',args=(\'unpublish\',project.id)))))\n    response.write(\'\\n\', escape=False)\n    pass\nresponse.write(\'\\n</div>\\n<!--table>\\n<td>\\n\', escape=False)\nif project.project_status == \'0\':\n    response.write(\'\\n</td>\\n<td>\\n\', escape=False)\n    response.write(H5(A(\'SignUp for Project\',_href=URL(\'reg_project\',args=project.id))))\n    response.write(\'\\n</td>\\n<td>\\n\', escape=False)\n    if project.project_coordinator == auth.user.id:\n        response.write(\'\\n\', escape=False)\n        response.write(H5(A(\'Role management\',_href=URL(\'roles\',args=project.id))))\n        response.write(\'\\n\', escape=False)\n        pass\n    response.write(\'\\n</td>\\n<td>\\n\', escape=False)\n    response.write(H5(A(\'Add new Sample\',_href=URL(\'add_sample\',args=project.id))))\n    response.write(\'\\n</td>\\n<td>\\n\', escape=False)\n    response.write(H5(A(\'My Samples\',_href=URL(\'my_samples\',args=(project.id)))))\n    response.write(\'\\n</td>\\n<td>\\n\', escape=False)\n    pass\nresponse.write(\'\\n\', escape=False)\nif project.project_status == \'1\':\n    response.write(\'\\n\', escape=False)\n    response.write(H5(A(\'Published Samples\',_href=URL(\'list_all_pub_samples\',args=(project.id)))))\n    response.write(\'\\n\', escape=False)\n    pass\nresponse.write(\'\\n</td>\\n</table-->\\n<body>\\n<h4>Project Details</h4>\\n<table id = \\\'customers\\\' class="table table-hover">\\n<tr><td><b>Project code</b></td><td>\', escape=False)\nresponse.write(project.code)\nresponse.write(\'</td></tr>\\n<tr><td><b>Project Start Date</b></td>  <td>\', escape=False)\nresponse.write(project.start_date)\nresponse.write(\'</td></tr>\\n<tr><td><b>Institute/Lab</b></td>  <td>\', escape=False)\nresponse.write(cord.affiliated_to)\nresponse.write(\'</td></tr>\\n<tr><td><b>Project Description</b> </td>  <td>\', escape=False)\nresponse.write(project.project_description)\nresponse.write(\'</td></tr>\\n<tr><td><b>Project References</b> </td>  <td>\', escape=False)\nresponse.write(H5(A(project.project_literature_reference,_href=\'http://www.ncbi.nlm.nih.gov/pubmed/\'+project.project_literature_reference)))\nresponse.write(\'</td></tr>\\n\\n<tr><td><b>Already Published Work</td></b>  <td>\', escape=False)\nresponse.write(project.project_journal_name)\nresponse.write("</td></tr>\\n</table>\\n</br></br>\\n\\n<h4>People Involved in project:</h4>\\n</br>\\n<table id = \'customers\'>\\n<tr>\\n<td><b>Project Co-Ordinator </b></td>\\n<td>", escape=False)\nresponse.write(A(cord.first_name+\' \'+cord.last_name,_href=URL(\'user_viewer\',args=cord.id)))\nresponse.write(\'</td>\\n</tr>\\n<tr>\\n\\n<td><b>Investigators</b></td>\\n<td>\\n\', escape=False)\nfor user in users:\n    response.write(\'\\n\', escape=False)\n    if user.role.role==\'0\':\n        response.write(\'\\n\', escape=False)\n        response.write(A(user.auth_user.first_name,_href=URL(\'user_viewer\',args=user.auth_user.id)))\n        response.write(\',\\n\', escape=False)\n        pass\n    response.write(\'\\n\', escape=False)\n    pass\nresponse.write(\'\\n</td>\\n</tr>\\n\\n\\n<tr>\\n<td>\\n<b>\', escape=False)\nresponse.write("Co-Investigators")\nresponse.write(\'</b>\\n</td>\\n<td>\\n\', escape=False)\nfor user in users:\n    response.write(\'\\n\', escape=False)\n    if user.role.role==\'1\':\n        response.write(\'\\n\', escape=False)\n        response.write(A(user.auth_user.first_name,_href=URL(\'user_viewer\',args=user.auth_user.id)))\n        response.write(\',\\n\', escape=False)\n        pass\n    response.write(\'\\n\', escape=False)\n    pass\nresponse.write(\'\\n</td>\\n</tr>\\n\\n\\n\\n<tr>\\n<td>\\n<b>\', escape=False)\nresponse.write("Collaborators ")\nresponse.write(\'</b>\\n</td>\\n<td>\\n\', escape=False)\nfor user in users:\n    response.write(\'\\n\', escape=False)\n    if user.role.role==\'2\':\n        response.write(\'\\n\', escape=False)\n        response.write(A(user.auth_user.first_name,_href=URL(\'user_viewer\',args=user.auth_user.id)))\n        response.write(\',\\n\', escape=False)\n        pass\n    response.write(\'\\n\', escape=False)\n    pass\nresponse.write(\'\\n</td>\\n</tr>\\n\\n\\n\\n<!--tr>\\n<td>\\n\', escape=False)\n#="Analysts :-"\nresponse.write(\'\\n</td>\\n<td>\\n\', escape=False)\n#for user in users:\nresponse.write(\'\\n\', escape=False)\n#if user.role.role==\'3\':\nresponse.write(\'\\n\', escape=False)\n#=user.auth_user.first_name\nresponse.write(\'\\n\', escape=False)\n#pass\nresponse.write(\'\\n\', escape=False)\n#pass\nresponse.write(\'\\n</td>\\n</tr-->\\n\\n\\n\\n\\n<tr>\\n<td>\\n<b>\', escape=False)\nresponse.write("Experimentalists :-")\nresponse.write(\'</b>\\n</td>\\n<td>\\n\', escape=False)\nfor user in users:\n    response.write(\'\\n\', escape=False)\n    if user.role.role==\'4\':\n        response.write(\'\\n\', escape=False)\n        response.write(A(user.auth_user.first_name+" "+user.auth_user.last_name,_href=URL(\'user_viewer\',args=user.auth_user.id)))\n        response.write(\',\\n\', escape=False)\n        pass\n    response.write(\'\\n\', escape=False)\n    pass\nresponse.write(\'\\n</td>\\n</tr>\\n</table>\\n</br>\\n\', escape=False)\nresponse.write(\' \\n      </div>\\n      <!-- content -->\\n\\n      \', escape=False)\nif right_sidebar_enabled:\n    response.write(\'\\n          <div id="right_sidebar" \', escape=False)\n    response.write(XML(right_sidebar_style))\n    response.write(\' >\\n            <div style="padding: 4px;">\\n              \', escape=False)\n    response.write(\'Content Right Sidebar\', escape=False)\n    response.write(\'\\n            </div>\\n      </div><!-- right_sidebar -->\\n          \', escape=False)\n    pass\nresponse.write(\'\\n\\n\\n      <div style="clear: both;"></div><!-- Clear the divs -->\\n      \\n    </div><!-- page -->                         \\n    <div id="footer">\\n    </div><!-- footer -->\\n \\n      </div><!-- wrapper -->\\n    </div><!-- container -->        \\n    \\n    <!--[if lt IE 7 ]>\\n    <script src="\', escape=False)\nresponse.write(URL(\'static\',\'js/dd_belatedpng.js\'))\nresponse.write(\'"></script>\\n    <script> DD_belatedPNG.fix(\\\'img, .png_bg\\\'); //fix any <img> or .png_bg background-images </script>\\n    <![endif]-->\\n    \', escape=False)\nif response.google_analytics_id:\n    response.write("<script>/* http://mathiasbynens.be/notes/async-analytics-snippet */ var _gaq=[[\'_setAccount\',\'", escape=False)\n    response.write(response.google_analyitics_id)\n    response.write("\'],[\'_trackPageview\']];(function(d,t){var g=d.createElement(t),s=d.getElementsByTagName(t)[0];g.src=\'//www.google-analytics.com/ga.js\';s.parentNode.insertBefore(g,s)}(document,\'script\')) </script>", escape=False)\n    pass\nresponse.write(\'\\n  </body>\\n</html>\\n\', escape=False)'
p7
sS'snapshot'
p8
(dp9
S'exception'
p10
(dp11
S'__hash__'
p12
S"<method-wrapper '__hash__' of exceptions.TypeError object>"
p13
sS'__setattr__'
p14
S"<method-wrapper '__setattr__' of exceptions.TypeError object>"
p15
sS'__reduce_ex__'
p16
S'<built-in method __reduce_ex__ of exceptions.TypeError object>'
p17
sS'__getslice__'
p18
S"<method-wrapper '__getslice__' of exceptions.TypeError object>"
p19
sS'__getitem__'
p20
S"<method-wrapper '__getitem__' of exceptions.TypeError object>"
p21
sS'__setstate__'
p22
S'<built-in method __setstate__ of exceptions.TypeError object>'
p23
sS'__reduce__'
p24
S'<built-in method __reduce__ of exceptions.TypeError object>'
p25
sS'__str__'
p26
S"<method-wrapper '__str__' of exceptions.TypeError object>"
p27
sS'__format__'
p28
S'<built-in method __format__ of exceptions.TypeError object>'
p29
sS'__getattribute__'
p30
S"<method-wrapper '__getattribute__' of exceptions.TypeError object>"
p31
sS'__class__'
p32
S"<type 'exceptions.TypeError'>"
p33
sS'__unicode__'
p34
S'<built-in method __unicode__ of exceptions.TypeError object>'
p35
sS'__delattr__'
p36
S"<method-wrapper '__delattr__' of exceptions.TypeError object>"
p37
sS'__subclasshook__'
p38
S'<built-in method __subclasshook__ of type object>'
p39
sS'__repr__'
p40
S"<method-wrapper '__repr__' of exceptions.TypeError object>"
p41
sS'args'
p42
S'("cannot concatenate \'str\' and \'NoneType\' objects",)'
p43
sS'__dict__'
p44
S'{}'
p45
sS'__sizeof__'
p46
S'<built-in method __sizeof__ of exceptions.TypeError object>'
p47
sS'__doc__'
p48
S"'Inappropriate argument type.'"
p49
sS'__init__'
p50
S"<method-wrapper '__init__' of exceptions.TypeError object>"
p51
sS'__new__'
p52
S'<built-in method __new__ of type object>'
p53
ssS'evalue'
p54
S"cannot concatenate 'str' and 'NoneType' objects"
p55
sS'request'
p56
ccopy_reg
_reconstructor
p57
(cgluon.html
BEAUTIFY
p58
c__builtin__
object
p59
NtRp60
(dp61
S'attributes'
p62
(dp63
sS'components'
p64
(lp65
g57
(cgluon.html
TABLE
p66
g59
NtRp67
(dp68
g62
(dp69
S'level'
p70
I5
ssS'parent'
p71
Nsg64
(lp72
g57
(cgluon.html
TR
p73
g59
NtRp74
(dp75
g62
(dp76
sg71
g67
sg64
(lp77
g57
(cgluon.html
TD
p78
g59
NtRp79
(dp80
g62
(dp81
S'_style'
p82
S'font-weight:bold;vertical-align:top'
p83
ssg71
g74
sg64
(lp84
S'ajax'
p85
asbag57
(g78
g59
NtRp86
(dp87
g62
(dp88
S'_valign'
p89
S'top'
p90
ssg71
g74
sg64
(lp91
S':'
asbag57
(g78
g59
NtRp92
(dp93
g62
(dp94
sg71
g74
sg64
(lp95
g57
(g58
g59
NtRp96
(dp97
g62
(dp98
g70
I5
ssg71
g92
sg64
(lp99
S'False'
p100
asbasbasbag57
(g73
g59
NtRp101
(dp102
g62
(dp103
sg71
g67
sg64
(lp104
g57
(g78
g59
NtRp105
(dp106
g62
(dp107
g82
g83
ssg71
g101
sg64
(lp108
S'application'
p109
asbag57
(g78
g59
NtRp110
(dp111
g62
(dp112
g89
g90
ssg71
g101
sg64
(lp113
S':'
asbag57
(g78
g59
NtRp114
(dp115
g62
(dp116
sg71
g101
sg64
(lp117
g57
(g58
g59
NtRp118
(dp119
g62
(dp120
g70
I5
ssg71
g114
sg64
(lp121
S'DEV_bootstrap_ch'
p122
asbasbasbag57
(g73
g59
NtRp123
(dp124
g62
(dp125
sg71
g67
sg64
(lp126
g57
(g78
g59
NtRp127
(dp128
g62
(dp129
g82
g83
ssg71
g123
sg64
(lp130
g42
asbag57
(g78
g59
NtRp131
(dp132
g62
(dp133
g89
g90
ssg71
g123
sg64
(lp134
S':'
asbag57
(g78
g59
NtRp135
(dp136
g62
(dp137
sg71
g123
sg64
(lp138
g57
(g58
g59
NtRp139
(dp140
g62
(dp141
g70
I5
ssg71
g135
sg64
(lp142
g57
(g66
g59
NtRp143
(dp144
g62
(dp145
g70
I4
ssg71
Nsg64
(lp146
g57
(g73
g59
NtRp147
(dp148
g62
(dp149
sg71
g143
sg64
(lp150
g57
(g78
g59
NtRp151
(dp152
g62
(dp153
sg71
g147
sg64
(lp154
g57
(g58
g59
NtRp155
(dp156
g62
(dp157
g70
I4
ssg71
g151
sg64
(lp158
S'1'
asbasbasbasbasbasbasbag57
(g73
g59
NtRp159
(dp160
g62
(dp161
sg71
g67
sg64
(lp162
g57
(g78
g59
NtRp163
(dp164
g62
(dp165
g82
g83
ssg71
g159
sg64
(lp166
S'body'
p167
asbag57
(g78
g59
NtRp168
(dp169
g62
(dp170
g89
g90
ssg71
g159
sg64
(lp171
S':'
asbag57
(g78
g59
NtRp172
(dp173
g62
(dp174
sg71
g159
sg64
(lp175
g57
(g58
g59
NtRp176
(dp177
g62
(dp178
g70
I5
ssg71
g172
sg64
(lp179
S'<cStringIO.StringO object at 0xb04870a0>'
p180
asbasbasbag57
(g73
g59
NtRp181
(dp182
g62
(dp183
sg71
g67
sg64
(lp184
g57
(g78
g59
NtRp185
(dp186
g62
(dp187
g82
g83
ssg71
g181
sg64
(lp188
S'cid'
p189
asbag57
(g78
g59
NtRp190
(dp191
g62
(dp192
g89
g90
ssg71
g181
sg64
(lp193
S':'
asbag57
(g78
g59
NtRp194
(dp195
g62
(dp196
sg71
g181
sg64
(lp197
g57
(g58
g59
NtRp198
(dp199
g62
(dp200
g70
I5
ssg71
g194
sg64
(lp201
S'None'
p202
asbasbasbag57
(g73
g59
NtRp203
(dp204
g62
(dp205
sg71
g67
sg64
(lp206
g57
(g78
g59
NtRp207
(dp208
g62
(dp209
g82
g83
ssg71
g203
sg64
(lp210
S'client'
p211
asbag57
(g78
g59
NtRp212
(dp213
g62
(dp214
g89
g90
ssg71
g203
sg64
(lp215
S':'
asbag57
(g78
g59
NtRp216
(dp217
g62
(dp218
sg71
g203
sg64
(lp219
g57
(g58
g59
NtRp220
(dp221
g62
(dp222
g70
I5
ssg71
g216
sg64
(lp223
S'127.0.0.1'
p224
asbasbasbag57
(g73
g59
NtRp225
(dp226
g62
(dp227
sg71
g67
sg64
(lp228
g57
(g78
g59
NtRp229
(dp230
g62
(dp231
g82
g83
ssg71
g225
sg64
(lp232
S'controller'
p233
asbag57
(g78
g59
NtRp234
(dp235
g62
(dp236
g89
g90
ssg71
g225
sg64
(lp237
S':'
asbag57
(g78
g59
NtRp238
(dp239
g62
(dp240
sg71
g225
sg64
(lp241
g57
(g58
g59
NtRp242
(dp243
g62
(dp244
g70
I5
ssg71
g238
sg64
(lp245
S'default'
p246
asbasbasbag57
(g73
g59
NtRp247
(dp248
g62
(dp249
sg71
g67
sg64
(lp250
g57
(g78
g59
NtRp251
(dp252
g62
(dp253
g82
g83
ssg71
g247
sg64
(lp254
S'cookies'
p255
asbag57
(g78
g59
NtRp256
(dp257
g62
(dp258
g89
g90
ssg71
g247
sg64
(lp259
S':'
asbag57
(g78
g59
NtRp260
(dp261
g62
(dp262
sg71
g247
sg64
(lp263
g57
(g58
g59
NtRp264
(dp265
g62
(dp266
g70
I5
ssg71
g260
sg64
(lp267
g57
(g66
g59
NtRp268
(dp269
g62
(dp270
g70
I4
ssg71
Nsg64
(lp271
g57
(g73
g59
NtRp272
(dp273
g62
(dp274
sg71
g268
sg64
(lp275
g57
(g78
g59
NtRp276
(dp277
g62
(dp278
g82
g83
ssg71
g272
sg64
(lp279
S'session_id_admin'
p280
asbag57
(g78
g59
NtRp281
(dp282
g62
(dp283
g89
g90
ssg71
g272
sg64
(lp284
S':'
asbag57
(g78
g59
NtRp285
(dp286
g62
(dp287
sg71
g272
sg64
(lp288
g57
(g58
g59
NtRp289
(dp290
g62
(dp291
g70
I4
ssg71
g285
sg64
(lp292
S'127.0.0.1-b525fb61-ea08-4c78-87c0-51b0a39c8fc3'
p293
ag57
(g66
g59
NtRp294
(dp295
g62
(dp296
g70
I3
ssg71
Nsg64
(lp297
g57
(g73
g59
NtRp298
(dp299
g62
(dp300
sg71
g294
sg64
(lp301
g57
(g78
g59
NtRp302
(dp303
g62
(dp304
g82
g83
ssg71
g298
sg64
(lp305
S'comment'
p306
asbag57
(g78
g59
NtRp307
(dp308
g62
(dp309
g89
g90
ssg71
g298
sg64
(lp310
S':'
asbag57
(g78
g59
NtRp311
(dp312
g62
(dp313
sg71
g298
sg64
(lp314
g57
(g58
g59
NtRp315
(dp316
g62
(dp317
g70
I3
ssg71
g311
sg64
(lp318
S''
asbasbasbag57
(g73
g59
NtRp319
(dp320
g62
(dp321
sg71
g294
sg64
(lp322
g57
(g78
g59
NtRp323
(dp324
g62
(dp325
g82
g83
ssg71
g319
sg64
(lp326
S'domain'
p327
asbag57
(g78
g59
NtRp328
(dp329
g62
(dp330
g89
g90
ssg71
g319
sg64
(lp331
S':'
asbag57
(g78
g59
NtRp332
(dp333
g62
(dp334
sg71
g319
sg64
(lp335
g57
(g58
g59
NtRp336
(dp337
g62
(dp338
g70
I3
ssg71
g332
sg64
(lp339
S''
asbasbasbag57
(g73
g59
NtRp340
(dp341
g62
(dp342
sg71
g294
sg64
(lp343
g57
(g78
g59
NtRp344
(dp345
g62
(dp346
g82
g83
ssg71
g340
sg64
(lp347
S'expires'
p348
asbag57
(g78
g59
NtRp349
(dp350
g62
(dp351
g89
g90
ssg71
g340
sg64
(lp352
S':'
asbag57
(g78
g59
NtRp353
(dp354
g62
(dp355
sg71
g340
sg64
(lp356
g57
(g58
g59
NtRp357
(dp358
g62
(dp359
g70
I3
ssg71
g353
sg64
(lp360
S''
asbasbasbag57
(g73
g59
NtRp361
(dp362
g62
(dp363
sg71
g294
sg64
(lp364
g57
(g78
g59
NtRp365
(dp366
g62
(dp367
g82
g83
ssg71
g361
sg64
(lp368
S'httponly'
p369
asbag57
(g78
g59
NtRp370
(dp371
g62
(dp372
g89
g90
ssg71
g361
sg64
(lp373
S':'
asbag57
(g78
g59
NtRp374
(dp375
g62
(dp376
sg71
g361
sg64
(lp377
g57
(g58
g59
NtRp378
(dp379
g62
(dp380
g70
I3
ssg71
g374
sg64
(lp381
S''
asbasbasbag57
(g73
g59
NtRp382
(dp383
g62
(dp384
sg71
g294
sg64
(lp385
g57
(g78
g59
NtRp386
(dp387
g62
(dp388
g82
g83
ssg71
g382
sg64
(lp389
S'max-age'
p390
asbag57
(g78
g59
NtRp391
(dp392
g62
(dp393
g89
g90
ssg71
g382
sg64
(lp394
S':'
asbag57
(g78
g59
NtRp395
(dp396
g62
(dp397
sg71
g382
sg64
(lp398
g57
(g58
g59
NtRp399
(dp400
g62
(dp401
g70
I3
ssg71
g395
sg64
(lp402
S''
asbasbasbag57
(g73
g59
NtRp403
(dp404
g62
(dp405
sg71
g294
sg64
(lp406
g57
(g78
g59
NtRp407
(dp408
g62
(dp409
g82
g83
ssg71
g403
sg64
(lp410
S'path'
p411
asbag57
(g78
g59
NtRp412
(dp413
g62
(dp414
g89
g90
ssg71
g403
sg64
(lp415
S':'
asbag57
(g78
g59
NtRp416
(dp417
g62
(dp418
sg71
g403
sg64
(lp419
g57
(g58
g59
NtRp420
(dp421
g62
(dp422
g70
I3
ssg71
g416
sg64
(lp423
S''
asbasbasbag57
(g73
g59
NtRp424
(dp425
g62
(dp426
sg71
g294
sg64
(lp427
g57
(g78
g59
NtRp428
(dp429
g62
(dp430
g82
g83
ssg71
g424
sg64
(lp431
S'secure'
p432
asbag57
(g78
g59
NtRp433
(dp434
g62
(dp435
g89
g90
ssg71
g424
sg64
(lp436
S':'
asbag57
(g78
g59
NtRp437
(dp438
g62
(dp439
sg71
g424
sg64
(lp440
g57
(g58
g59
NtRp441
(dp442
g62
(dp443
g70
I3
ssg71
g437
sg64
(lp444
S''
asbasbasbag57
(g73
g59
NtRp445
(dp446
g62
(dp447
sg71
g294
sg64
(lp448
g57
(g78
g59
NtRp449
(dp450
g62
(dp451
g82
g83
ssg71
g445
sg64
(lp452
S'version'
p453
asbag57
(g78
g59
NtRp454
(dp455
g62
(dp456
g89
g90
ssg71
g445
sg64
(lp457
S':'
asbag57
(g78
g59
NtRp458
(dp459
g62
(dp460
sg71
g445
sg64
(lp461
g57
(g58
g59
NtRp462
(dp463
g62
(dp464
g70
I3
ssg71
g458
sg64
(lp465
S''
asbasbasbasbasbasbasbag57
(g73
g59
NtRp466
(dp467
g62
(dp468
sg71
g268
sg64
(lp469
g57
(g78
g59
NtRp470
(dp471
g62
(dp472
g82
g83
ssg71
g466
sg64
(lp473
S'session_id_dev_bootstrap_ch'
p474
asbag57
(g78
g59
NtRp475
(dp476
g62
(dp477
g89
g90
ssg71
g466
sg64
(lp478
S':'
asbag57
(g78
g59
NtRp479
(dp480
g62
(dp481
sg71
g466
sg64
(lp482
g57
(g58
g59
NtRp483
(dp484
g62
(dp485
g70
I4
ssg71
g479
sg64
(lp486
S'127.0.0.1-0786449f-0f57-4893-b642-5d65efb22480'
p487
ag57
(g66
g59
NtRp488
(dp489
g62
(dp490
g70
I3
ssg71
Nsg64
(lp491
g57
(g73
g59
NtRp492
(dp493
g62
(dp494
sg71
g488
sg64
(lp495
g57
(g78
g59
NtRp496
(dp497
g62
(dp498
g82
g83
ssg71
g492
sg64
(lp499
g306
asbag57
(g78
g59
NtRp500
(dp501
g62
(dp502
g89
g90
ssg71
g492
sg64
(lp503
S':'
asbag57
(g78
g59
NtRp504
(dp505
g62
(dp506
sg71
g492
sg64
(lp507
g57
(g58
g59
NtRp508
(dp509
g62
(dp510
g70
I3
ssg71
g504
sg64
(lp511
S''
asbasbasbag57
(g73
g59
NtRp512
(dp513
g62
(dp514
sg71
g488
sg64
(lp515
g57
(g78
g59
NtRp516
(dp517
g62
(dp518
g82
g83
ssg71
g512
sg64
(lp519
g327
asbag57
(g78
g59
NtRp520
(dp521
g62
(dp522
g89
g90
ssg71
g512
sg64
(lp523
S':'
asbag57
(g78
g59
NtRp524
(dp525
g62
(dp526
sg71
g512
sg64
(lp527
g57
(g58
g59
NtRp528
(dp529
g62
(dp530
g70
I3
ssg71
g524
sg64
(lp531
S''
asbasbasbag57
(g73
g59
NtRp532
(dp533
g62
(dp534
sg71
g488
sg64
(lp535
g57
(g78
g59
NtRp536
(dp537
g62
(dp538
g82
g83
ssg71
g532
sg64
(lp539
g348
asbag57
(g78
g59
NtRp540
(dp541
g62
(dp542
g89
g90
ssg71
g532
sg64
(lp543
S':'
asbag57
(g78
g59
NtRp544
(dp545
g62
(dp546
sg71
g532
sg64
(lp547
g57
(g58
g59
NtRp548
(dp549
g62
(dp550
g70
I3
ssg71
g544
sg64
(lp551
S''
asbasbasbag57
(g73
g59
NtRp552
(dp553
g62
(dp554
sg71
g488
sg64
(lp555
g57
(g78
g59
NtRp556
(dp557
g62
(dp558
g82
g83
ssg71
g552
sg64
(lp559
g369
asbag57
(g78
g59
NtRp560
(dp561
g62
(dp562
g89
g90
ssg71
g552
sg64
(lp563
S':'
asbag57
(g78
g59
NtRp564
(dp565
g62
(dp566
sg71
g552
sg64
(lp567
g57
(g58
g59
NtRp568
(dp569
g62
(dp570
g70
I3
ssg71
g564
sg64
(lp571
S''
asbasbasbag57
(g73
g59
NtRp572
(dp573
g62
(dp574
sg71
g488
sg64
(lp575
g57
(g78
g59
NtRp576
(dp577
g62
(dp578
g82
g83
ssg71
g572
sg64
(lp579
g390
asbag57
(g78
g59
NtRp580
(dp581
g62
(dp582
g89
g90
ssg71
g572
sg64
(lp583
S':'
asbag57
(g78
g59
NtRp584
(dp585
g62
(dp586
sg71
g572
sg64
(lp587
g57
(g58
g59
NtRp588
(dp589
g62
(dp590
g70
I3
ssg71
g584
sg64
(lp591
S''
asbasbasbag57
(g73
g59
NtRp592
(dp593
g62
(dp594
sg71
g488
sg64
(lp595
g57
(g78
g59
NtRp596
(dp597
g62
(dp598
g82
g83
ssg71
g592
sg64
(lp599
g411
asbag57
(g78
g59
NtRp600
(dp601
g62
(dp602
g89
g90
ssg71
g592
sg64
(lp603
S':'
asbag57
(g78
g59
NtRp604
(dp605
g62
(dp606
sg71
g592
sg64
(lp607
g57
(g58
g59
NtRp608
(dp609
g62
(dp610
g70
I3
ssg71
g604
sg64
(lp611
S''
asbasbasbag57
(g73
g59
NtRp612
(dp613
g62
(dp614
sg71
g488
sg64
(lp615
g57
(g78
g59
NtRp616
(dp617
g62
(dp618
g82
g83
ssg71
g612
sg64
(lp619
g432
asbag57
(g78
g59
NtRp620
(dp621
g62
(dp622
g89
g90
ssg71
g612
sg64
(lp623
S':'
asbag57
(g78
g59
NtRp624
(dp625
g62
(dp626
sg71
g612
sg64
(lp627
g57
(g58
g59
NtRp628
(dp629
g62
(dp630
g70
I3
ssg71
g624
sg64
(lp631
S''
asbasbasbag57
(g73
g59
NtRp632
(dp633
g62
(dp634
sg71
g488
sg64
(lp635
g57
(g78
g59
NtRp636
(dp637
g62
(dp638
g82
g83
ssg71
g632
sg64
(lp639
g453
asbag57
(g78
g59
NtRp640
(dp641
g62
(dp642
g89
g90
ssg71
g632
sg64
(lp643
S':'
asbag57
(g78
g59
NtRp644
(dp645
g62
(dp646
sg71
g632
sg64
(lp647
g57
(g58
g59
NtRp648
(dp649
g62
(dp650
g70
I3
ssg71
g644
sg64
(lp651
S''
asbasbasbasbasbasbasbasbasbasbasbag57
(g73
g59
NtRp652
(dp653
g62
(dp654
sg71
g67
sg64
(lp655
g57
(g78
g59
NtRp656
(dp657
g62
(dp658
g82
g83
ssg71
g652
sg64
(lp659
S'env'
p660
asbag57
(g78
g59
NtRp661
(dp662
g62
(dp663
g89
g90
ssg71
g652
sg64
(lp664
S':'
asbag57
(g78
g59
NtRp665
(dp666
g62
(dp667
sg71
g652
sg64
(lp668
g57
(g58
g59
NtRp669
(dp670
g62
(dp671
g70
I5
ssg71
g665
sg64
(lp672
g57
(g66
g59
NtRp673
(dp674
g62
(dp675
g70
I4
ssg71
Nsg64
(lp676
g57
(g73
g59
NtRp677
(dp678
g62
(dp679
sg71
g673
sg64
(lp680
g57
(g78
g59
NtRp681
(dp682
g62
(dp683
g82
g83
ssg71
g677
sg64
(lp684
S'app_folders'
p685
asbag57
(g78
g59
NtRp686
(dp687
g62
(dp688
g89
g90
ssg71
g677
sg64
(lp689
S':'
asbag57
(g78
g59
NtRp690
(dp691
g62
(dp692
sg71
g677
sg64
(lp693
g57
(g58
g59
NtRp694
(dp695
g62
(dp696
g70
I4
ssg71
g690
sg64
(lp697
S"set(['/home/anil/Downloads/web2py/applications/DEV_bootstrap_ch/', '/home/anil/Downloads/web2py/applications/admin/'])"
p698
asbasbasbag57
(g73
g59
NtRp699
(dp700
g62
(dp701
sg71
g673
sg64
(lp702
g57
(g78
g59
NtRp703
(dp704
g62
(dp705
g82
g83
ssg71
g699
sg64
(lp706
S'applications_parent'
p707
asbag57
(g78
g59
NtRp708
(dp709
g62
(dp710
g89
g90
ssg71
g699
sg64
(lp711
S':'
asbag57
(g78
g59
NtRp712
(dp713
g62
(dp714
sg71
g699
sg64
(lp715
g57
(g58
g59
NtRp716
(dp717
g62
(dp718
g70
I4
ssg71
g712
sg64
(lp719
S'/home/anil/Downloads/web2py'
p720
asbasbasbag57
(g73
g59
NtRp721
(dp722
g62
(dp723
sg71
g673
sg64
(lp724
g57
(g78
g59
NtRp725
(dp726
g62
(dp727
g82
g83
ssg71
g721
sg64
(lp728
S'cmd_args'
p729
asbag57
(g78
g59
NtRp730
(dp731
g62
(dp732
g89
g90
ssg71
g721
sg64
(lp733
S':'
asbag57
(g78
g59
NtRp734
(dp735
g62
(dp736
sg71
g721
sg64
(lp737
g57
(g58
g59
NtRp738
(dp739
g62
(dp740
g70
I4
ssg71
g734
sg64
(lp741
g57
(g66
g59
NtRp742
(dp743
g62
(dp744
g70
I3
ssg71
Nsg64
(lp745
sbasbasbasbag57
(g73
g59
NtRp746
(dp747
g62
(dp748
sg71
g673
sg64
(lp749
g57
(g78
g59
NtRp750
(dp751
g62
(dp752
g82
g83
ssg71
g746
sg64
(lp753
S'cmd_options'
p754
asbag57
(g78
g59
NtRp755
(dp756
g62
(dp757
g89
g90
ssg71
g746
sg64
(lp758
S':'
asbag57
(g78
g59
NtRp759
(dp760
g62
(dp761
sg71
g746
sg64
(lp762
g57
(g58
g59
NtRp763
(dp764
g62
(dp765
g70
I4
ssg71
g759
sg64
(lp766
S"<Values at 0xa513c6c: {'verbose': False, 'ip': '127.0.0.1', 'with_scheduler': False, 'ips': [], 'shutdown_timeout': 5, 'taskbar': False, 'port': 8000, 'maxthreads': None, 'softcron': False, 'server_name': 'anil-Inspiron-1525', 'bpython': False, 'nogui': False, 'pid_filename': 'httpserver.pid', 'extcron': False, 'runcron': False, 'run_system_tests': False, 'test': None, 'folder': '/home/anil/Downloads/web2py', 'config': '', 'import_models': False, 'winservice': '', 'shell': None, 'run': '', 'log_filename': 'httpserver.log', 'debuglevel': 30, 'args': [''], 'socket_timeout': 5, 'ssl_ca_certificate': None, 'scheduler': None, 'profiler_filename': None, 'ssl_private_key': '', 'scheduler_groups': None, 'password': '123', 'request_queue_size': 5, 'ssl_certificate': '', 'cronjob': False, 'numthreads': None, 'quiet': False, 'interfaces': None, 'minthreads': None, 'timeout': 10, 'plain': False, 'nobanner': False}>"
p767
asbasbasbag57
(g73
g59
NtRp768
(dp769
g62
(dp770
sg71
g673
sg64
(lp771
g57
(g78
g59
NtRp772
(dp773
g62
(dp774
g82
g83
ssg71
g768
sg64
(lp775
S'db_sessions'
p776
asbag57
(g78
g59
NtRp777
(dp778
g62
(dp779
g89
g90
ssg71
g768
sg64
(lp780
S':'
asbag57
(g78
g59
NtRp781
(dp782
g62
(dp783
sg71
g768
sg64
(lp784
g57
(g58
g59
NtRp785
(dp786
g62
(dp787
g70
I4
ssg71
g781
sg64
(lp788
S'set([])'
p789
asbasbasbag57
(g73
g59
NtRp790
(dp791
g62
(dp792
sg71
g673
sg64
(lp793
g57
(g78
g59
NtRp794
(dp795
g62
(dp796
g82
g83
ssg71
g790
sg64
(lp797
S'debugging'
p798
asbag57
(g78
g59
NtRp799
(dp800
g62
(dp801
g89
g90
ssg71
g790
sg64
(lp802
S':'
asbag57
(g78
g59
NtRp803
(dp804
g62
(dp805
sg71
g790
sg64
(lp806
g57
(g58
g59
NtRp807
(dp808
g62
(dp809
g70
I4
ssg71
g803
sg64
(lp810
g100
asbasbasbag57
(g73
g59
NtRp811
(dp812
g62
(dp813
sg71
g673
sg64
(lp814
g57
(g78
g59
NtRp815
(dp816
g62
(dp817
g82
g83
ssg71
g811
sg64
(lp818
S'gluon_parent'
p819
asbag57
(g78
g59
NtRp820
(dp821
g62
(dp822
g89
g90
ssg71
g811
sg64
(lp823
S':'
asbag57
(g78
g59
NtRp824
(dp825
g62
(dp826
sg71
g811
sg64
(lp827
g57
(g58
g59
NtRp828
(dp829
g62
(dp830
g70
I4
ssg71
g824
sg64
(lp831
S'/home/anil/Downloads/web2py'
p832
asbasbasbag57
(g73
g59
NtRp833
(dp834
g62
(dp835
sg71
g673
sg64
(lp836
g57
(g78
g59
NtRp837
(dp838
g62
(dp839
g82
g83
ssg71
g833
sg64
(lp840
S'http_accept'
p841
asbag57
(g78
g59
NtRp842
(dp843
g62
(dp844
g89
g90
ssg71
g833
sg64
(lp845
S':'
asbag57
(g78
g59
NtRp846
(dp847
g62
(dp848
sg71
g833
sg64
(lp849
g57
(g58
g59
NtRp850
(dp851
g62
(dp852
g70
I4
ssg71
g846
sg64
(lp853
S'text/html,application/xhtml+xml,application/xml;q=0.9,*/*;q=0.8'
p854
asbasbasbag57
(g73
g59
NtRp855
(dp856
g62
(dp857
sg71
g673
sg64
(lp858
g57
(g78
g59
NtRp859
(dp860
g62
(dp861
g82
g83
ssg71
g855
sg64
(lp862
S'http_accept_charset'
p863
asbag57
(g78
g59
NtRp864
(dp865
g62
(dp866
g89
g90
ssg71
g855
sg64
(lp867
S':'
asbag57
(g78
g59
NtRp868
(dp869
g62
(dp870
sg71
g855
sg64
(lp871
g57
(g58
g59
NtRp872
(dp873
g62
(dp874
g70
I4
ssg71
g868
sg64
(lp875
S'ISO-8859-1,utf-8;q=0.7,*;q=0.3'
p876
asbasbasbag57
(g73
g59
NtRp877
(dp878
g62
(dp879
sg71
g673
sg64
(lp880
g57
(g78
g59
NtRp881
(dp882
g62
(dp883
g82
g83
ssg71
g877
sg64
(lp884
S'http_accept_encoding'
p885
asbag57
(g78
g59
NtRp886
(dp887
g62
(dp888
g89
g90
ssg71
g877
sg64
(lp889
S':'
asbag57
(g78
g59
NtRp890
(dp891
g62
(dp892
sg71
g877
sg64
(lp893
g57
(g58
g59
NtRp894
(dp895
g62
(dp896
g70
I4
ssg71
g890
sg64
(lp897
S'gzip,deflate,sdch'
p898
asbasbasbag57
(g73
g59
NtRp899
(dp900
g62
(dp901
sg71
g673
sg64
(lp902
g57
(g78
g59
NtRp903
(dp904
g62
(dp905
g82
g83
ssg71
g899
sg64
(lp906
S'http_accept_language'
p907
asbag57
(g78
g59
NtRp908
(dp909
g62
(dp910
g89
g90
ssg71
g899
sg64
(lp911
S':'
asbag57
(g78
g59
NtRp912
(dp913
g62
(dp914
sg71
g899
sg64
(lp915
g57
(g58
g59
NtRp916
(dp917
g62
(dp918
g70
I4
ssg71
g912
sg64
(lp919
S'en-US,en;q=0.8'
p920
asbasbasbag57
(g73
g59
NtRp921
(dp922
g62
(dp923
sg71
g673
sg64
(lp924
g57
(g78
g59
NtRp925
(dp926
g62
(dp927
g82
g83
ssg71
g921
sg64
(lp928
S'http_connection'
p929
asbag57
(g78
g59
NtRp930
(dp931
g62
(dp932
g89
g90
ssg71
g921
sg64
(lp933
S':'
asbag57
(g78
g59
NtRp934
(dp935
g62
(dp936
sg71
g921
sg64
(lp937
g57
(g58
g59
NtRp938
(dp939
g62
(dp940
g70
I4
ssg71
g934
sg64
(lp941
S'keep-alive'
p942
asbasbasbag57
(g73
g59
NtRp943
(dp944
g62
(dp945
sg71
g673
sg64
(lp946
g57
(g78
g59
NtRp947
(dp948
g62
(dp949
g82
g83
ssg71
g943
sg64
(lp950
S'http_cookie'
p951
asbag57
(g78
g59
NtRp952
(dp953
g62
(dp954
g89
g90
ssg71
g943
sg64
(lp955
S':'
asbag57
(g78
g59
NtRp956
(dp957
g62
(dp958
sg71
g943
sg64
(lp959
g57
(g58
g59
NtRp960
(dp961
g62
(dp962
g70
I4
ssg71
g956
sg64
(lp963
S'session_id_admin=127.0.0.1-b525fb61-ea08-4c78-87c0-51b0a39c8fc3; session_id_dev_bootstrap_ch=127.0.0.1-0786449f-0f57-4893-b642-5d65efb22480'
p964
asbasbasbag57
(g73
g59
NtRp965
(dp966
g62
(dp967
sg71
g673
sg64
(lp968
g57
(g78
g59
NtRp969
(dp970
g62
(dp971
g82
g83
ssg71
g965
sg64
(lp972
S'http_host'
p973
asbag57
(g78
g59
NtRp974
(dp975
g62
(dp976
g89
g90
ssg71
g965
sg64
(lp977
S':'
asbag57
(g78
g59
NtRp978
(dp979
g62
(dp980
sg71
g965
sg64
(lp981
g57
(g58
g59
NtRp982
(dp983
g62
(dp984
g70
I4
ssg71
g978
sg64
(lp985
S'127.0.0.1:8000'
p986
asbasbasbag57
(g73
g59
NtRp987
(dp988
g62
(dp989
sg71
g673
sg64
(lp990
g57
(g78
g59
NtRp991
(dp992
g62
(dp993
g82
g83
ssg71
g987
sg64
(lp994
S'http_referer'
p995
asbag57
(g78
g59
NtRp996
(dp997
g62
(dp998
g89
g90
ssg71
g987
sg64
(lp999
S':'
asbag57
(g78
g59
NtRp1000
(dp1001
g62
(dp1002
sg71
g987
sg64
(lp1003
g57
(g58
g59
NtRp1004
(dp1005
g62
(dp1006
g70
I4
ssg71
g1000
sg64
(lp1007
S'http://127.0.0.1:8000/DEV_bootstrap_ch/default/list_all_projects'
p1008
asbasbasbag57
(g73
g59
NtRp1009
(dp1010
g62
(dp1011
sg71
g673
sg64
(lp1012
g57
(g78
g59
NtRp1013
(dp1014
g62
(dp1015
g82
g83
ssg71
g1009
sg64
(lp1016
S'http_user_agent'
p1017
asbag57
(g78
g59
NtRp1018
(dp1019
g62
(dp1020
g89
g90
ssg71
g1009
sg64
(lp1021
S':'
asbag57
(g78
g59
NtRp1022
(dp1023
g62
(dp1024
sg71
g1009
sg64
(lp1025
g57
(g58
g59
NtRp1026
(dp1027
g62
(dp1028
g70
I4
ssg71
g1022
sg64
(lp1029
S'Mozilla/5.0 (X11; Linux i686) AppleWebKit/537.31 (KHTML, like Gecko) Chrome/26.0.1410.10 Safari/537.31'
p1030
asbasbasbag57
(g73
g59
NtRp1031
(dp1032
g62
(dp1033
sg71
g673
sg64
(lp1034
g57
(g78
g59
NtRp1035
(dp1036
g62
(dp1037
g82
g83
ssg71
g1031
sg64
(lp1038
S'is_jython'
p1039
asbag57
(g78
g59
NtRp1040
(dp1041
g62
(dp1042
g89
g90
ssg71
g1031
sg64
(lp1043
S':'
asbag57
(g78
g59
NtRp1044
(dp1045
g62
(dp1046
sg71
g1031
sg64
(lp1047
g57
(g58
g59
NtRp1048
(dp1049
g62
(dp1050
g70
I4
ssg71
g1044
sg64
(lp1051
g100
asbasbasbag57
(g73
g59
NtRp1052
(dp1053
g62
(dp1054
sg71
g673
sg64
(lp1055
g57
(g78
g59
NtRp1056
(dp1057
g62
(dp1058
g82
g83
ssg71
g1052
sg64
(lp1059
S'is_pypy'
p1060
asbag57
(g78
g59
NtRp1061
(dp1062
g62
(dp1063
g89
g90
ssg71
g1052
sg64
(lp1064
S':'
asbag57
(g78
g59
NtRp1065
(dp1066
g62
(dp1067
sg71
g1052
sg64
(lp1068
g57
(g58
g59
NtRp1069
(dp1070
g62
(dp1071
g70
I4
ssg71
g1065
sg64
(lp1072
g100
asbasbasbag57
(g73
g59
NtRp1073
(dp1074
g62
(dp1075
sg71
g673
sg64
(lp1076
g57
(g78
g59
NtRp1077
(dp1078
g62
(dp1079
g82
g83
ssg71
g1073
sg64
(lp1080
S'local_hosts'
p1081
asbag57
(g78
g59
NtRp1082
(dp1083
g62
(dp1084
g89
g90
ssg71
g1073
sg64
(lp1085
S':'
asbag57
(g78
g59
NtRp1086
(dp1087
g62
(dp1088
sg71
g1073
sg64
(lp1089
g57
(g58
g59
NtRp1090
(dp1091
g62
(dp1092
g70
I4
ssg71
g1086
sg64
(lp1093
g57
(g66
g59
NtRp1094
(dp1095
g62
(dp1096
g70
I3
ssg71
Nsg64
(lp1097
g57
(g73
g59
NtRp1098
(dp1099
g62
(dp1100
sg71
g1094
sg64
(lp1101
g57
(g78
g59
NtRp1102
(dp1103
g62
(dp1104
sg71
g1098
sg64
(lp1105
g57
(g58
g59
NtRp1106
(dp1107
g62
(dp1108
g70
I3
ssg71
g1102
sg64
(lp1109
S'::1'
p1110
asbasbasbag57
(g73
g59
NtRp1111
(dp1112
g62
(dp1113
sg71
g1094
sg64
(lp1114
g57
(g78
g59
NtRp1115
(dp1116
g62
(dp1117
sg71
g1111
sg64
(lp1118
g57
(g58
g59
NtRp1119
(dp1120
g62
(dp1121
g70
I3
ssg71
g1115
sg64
(lp1122
S'127.0.1.1'
p1123
asbasbasbag57
(g73
g59
NtRp1124
(dp1125
g62
(dp1126
sg71
g1094
sg64
(lp1127
g57
(g78
g59
NtRp1128
(dp1129
g62
(dp1130
sg71
g1124
sg64
(lp1131
g57
(g58
g59
NtRp1132
(dp1133
g62
(dp1134
g70
I3
ssg71
g1128
sg64
(lp1135
S'::ffff:127.0.0.1'
p1136
asbasbasbag57
(g73
g59
NtRp1137
(dp1138
g62
(dp1139
sg71
g1094
sg64
(lp1140
g57
(g78
g59
NtRp1141
(dp1142
g62
(dp1143
sg71
g1137
sg64
(lp1144
g57
(g58
g59
NtRp1145
(dp1146
g62
(dp1147
g70
I3
ssg71
g1141
sg64
(lp1148
S'127.0.0.1'
p1149
asbasbasbag57
(g73
g59
NtRp1150
(dp1151
g62
(dp1152
sg71
g1094
sg64
(lp1153
g57
(g78
g59
NtRp1154
(dp1155
g62
(dp1156
sg71
g1150
sg64
(lp1157
g57
(g58
g59
NtRp1158
(dp1159
g62
(dp1160
g70
I3
ssg71
g1154
sg64
(lp1161
S'anil-Inspiron-1525'
p1162
asbasbasbasbasbasbasbag57
(g73
g59
NtRp1163
(dp1164
g62
(dp1165
sg71
g673
sg64
(lp1166
g57
(g78
g59
NtRp1167
(dp1168
g62
(dp1169
g82
g83
ssg71
g1163
sg64
(lp1170
S'path_info'
p1171
asbag57
(g78
g59
NtRp1172
(dp1173
g62
(dp1174
g89
g90
ssg71
g1163
sg64
(lp1175
S':'
asbag57
(g78
g59
NtRp1176
(dp1177
g62
(dp1178
sg71
g1163
sg64
(lp1179
g57
(g58
g59
NtRp1180
(dp1181
g62
(dp1182
g70
I4
ssg71
g1176
sg64
(lp1183
S'/DEV_bootstrap_ch/default/project_viewer/1'
p1184
asbasbasbag57
(g73
g59
NtRp1185
(dp1186
g62
(dp1187
sg71
g673
sg64
(lp1188
g57
(g78
g59
NtRp1189
(dp1190
g62
(dp1191
g82
g83
ssg71
g1185
sg64
(lp1192
S'query_string'
p1193
asbag57
(g78
g59
NtRp1194
(dp1195
g62
(dp1196
g89
g90
ssg71
g1185
sg64
(lp1197
S':'
asbag57
(g78
g59
NtRp1198
(dp1199
g62
(dp1200
sg71
g1185
sg64
(lp1201
g57
(g58
g59
NtRp1202
(dp1203
g62
(dp1204
g70
I4
ssg71
g1198
sg64
(lp1205
S''
asbasbasbag57
(g73
g59
NtRp1206
(dp1207
g62
(dp1208
sg71
g673
sg64
(lp1209
g57
(g78
g59
NtRp1210
(dp1211
g62
(dp1212
g82
g83
ssg71
g1206
sg64
(lp1213
S'remote_addr'
p1214
asbag57
(g78
g59
NtRp1215
(dp1216
g62
(dp1217
g89
g90
ssg71
g1206
sg64
(lp1218
S':'
asbag57
(g78
g59
NtRp1219
(dp1220
g62
(dp1221
sg71
g1206
sg64
(lp1222
g57
(g58
g59
NtRp1223
(dp1224
g62
(dp1225
g70
I4
ssg71
g1219
sg64
(lp1226
g224
asbasbasbag57
(g73
g59
NtRp1227
(dp1228
g62
(dp1229
sg71
g673
sg64
(lp1230
g57
(g78
g59
NtRp1231
(dp1232
g62
(dp1233
g82
g83
ssg71
g1227
sg64
(lp1234
S'remote_port'
p1235
asbag57
(g78
g59
NtRp1236
(dp1237
g62
(dp1238
g89
g90
ssg71
g1227
sg64
(lp1239
S':'
asbag57
(g78
g59
NtRp1240
(dp1241
g62
(dp1242
sg71
g1227
sg64
(lp1243
g57
(g58
g59
NtRp1244
(dp1245
g62
(dp1246
g70
I4
ssg71
g1240
sg64
(lp1247
S'57668'
p1248
asbasbasbag57
(g73
g59
NtRp1249
(dp1250
g62
(dp1251
sg71
g673
sg64
(lp1252
g57
(g78
g59
NtRp1253
(dp1254
g62
(dp1255
g82
g83
ssg71
g1249
sg64
(lp1256
S'request_method'
p1257
asbag57
(g78
g59
NtRp1258
(dp1259
g62
(dp1260
g89
g90
ssg71
g1249
sg64
(lp1261
S':'
asbag57
(g78
g59
NtRp1262
(dp1263
g62
(dp1264
sg71
g1249
sg64
(lp1265
g57
(g58
g59
NtRp1266
(dp1267
g62
(dp1268
g70
I4
ssg71
g1262
sg64
(lp1269
S'GET'
p1270
asbasbasbag57
(g73
g59
NtRp1271
(dp1272
g62
(dp1273
sg71
g673
sg64
(lp1274
g57
(g78
g59
NtRp1275
(dp1276
g62
(dp1277
g82
g83
ssg71
g1271
sg64
(lp1278
S'request_uri'
p1279
asbag57
(g78
g59
NtRp1280
(dp1281
g62
(dp1282
g89
g90
ssg71
g1271
sg64
(lp1283
S':'
asbag57
(g78
g59
NtRp1284
(dp1285
g62
(dp1286
sg71
g1271
sg64
(lp1287
g57
(g58
g59
NtRp1288
(dp1289
g62
(dp1290
g70
I4
ssg71
g1284
sg64
(lp1291
g1184
asbasbasbag57
(g73
g59
NtRp1292
(dp1293
g62
(dp1294
sg71
g673
sg64
(lp1295
g57
(g78
g59
NtRp1296
(dp1297
g62
(dp1298
g82
g83
ssg71
g1292
sg64
(lp1299
S'script_name'
p1300
asbag57
(g78
g59
NtRp1301
(dp1302
g62
(dp1303
g89
g90
ssg71
g1292
sg64
(lp1304
S':'
asbag57
(g78
g59
NtRp1305
(dp1306
g62
(dp1307
sg71
g1292
sg64
(lp1308
g57
(g58
g59
NtRp1309
(dp1310
g62
(dp1311
g70
I4
ssg71
g1305
sg64
(lp1312
S''
asbasbasbag57
(g73
g59
NtRp1313
(dp1314
g62
(dp1315
sg71
g673
sg64
(lp1316
g57
(g78
g59
NtRp1317
(dp1318
g62
(dp1319
g82
g83
ssg71
g1313
sg64
(lp1320
S'server_name'
p1321
asbag57
(g78
g59
NtRp1322
(dp1323
g62
(dp1324
g89
g90
ssg71
g1313
sg64
(lp1325
S':'
asbag57
(g78
g59
NtRp1326
(dp1327
g62
(dp1328
sg71
g1313
sg64
(lp1329
g57
(g58
g59
NtRp1330
(dp1331
g62
(dp1332
g70
I4
ssg71
g1326
sg64
(lp1333
S'anil-Inspiron-1525'
p1334
asbasbasbag57
(g73
g59
NtRp1335
(dp1336
g62
(dp1337
sg71
g673
sg64
(lp1338
g57
(g78
g59
NtRp1339
(dp1340
g62
(dp1341
g82
g83
ssg71
g1335
sg64
(lp1342
S'server_port'
p1343
asbag57
(g78
g59
NtRp1344
(dp1345
g62
(dp1346
g89
g90
ssg71
g1335
sg64
(lp1347
S':'
asbag57
(g78
g59
NtRp1348
(dp1349
g62
(dp1350
sg71
g1335
sg64
(lp1351
g57
(g58
g59
NtRp1352
(dp1353
g62
(dp1354
g70
I4
ssg71
g1348
sg64
(lp1355
S'8000'
p1356
asbasbasbag57
(g73
g59
NtRp1357
(dp1358
g62
(dp1359
sg71
g673
sg64
(lp1360
g57
(g78
g59
NtRp1361
(dp1362
g62
(dp1363
g82
g83
ssg71
g1357
sg64
(lp1364
S'server_protocol'
p1365
asbag57
(g78
g59
NtRp1366
(dp1367
g62
(dp1368
g89
g90
ssg71
g1357
sg64
(lp1369
S':'
asbag57
(g78
g59
NtRp1370
(dp1371
g62
(dp1372
sg71
g1357
sg64
(lp1373
g57
(g58
g59
NtRp1374
(dp1375
g62
(dp1376
g70
I4
ssg71
g1370
sg64
(lp1377
S'HTTP/1.1'
p1378
asbasbasbag57
(g73
g59
NtRp1379
(dp1380
g62
(dp1381
sg71
g673
sg64
(lp1382
g57
(g78
g59
NtRp1383
(dp1384
g62
(dp1385
g82
g83
ssg71
g1379
sg64
(lp1386
S'server_software'
p1387
asbag57
(g78
g59
NtRp1388
(dp1389
g62
(dp1390
g89
g90
ssg71
g1379
sg64
(lp1391
S':'
asbag57
(g78
g59
NtRp1392
(dp1393
g62
(dp1394
sg71
g1379
sg64
(lp1395
g57
(g58
g59
NtRp1396
(dp1397
g62
(dp1398
g70
I4
ssg71
g1392
sg64
(lp1399
S'Rocket 1.2.6'
p1400
asbasbasbag57
(g73
g59
NtRp1401
(dp1402
g62
(dp1403
sg71
g673
sg64
(lp1404
g57
(g78
g59
NtRp1405
(dp1406
g62
(dp1407
g82
g83
ssg71
g1401
sg64
(lp1408
S'web2py_path'
p1409
asbag57
(g78
g59
NtRp1410
(dp1411
g62
(dp1412
g89
g90
ssg71
g1401
sg64
(lp1413
S':'
asbag57
(g78
g59
NtRp1414
(dp1415
g62
(dp1416
sg71
g1401
sg64
(lp1417
g57
(g58
g59
NtRp1418
(dp1419
g62
(dp1420
g70
I4
ssg71
g1414
sg64
(lp1421
g720
asbasbasbag57
(g73
g59
NtRp1422
(dp1423
g62
(dp1424
sg71
g673
sg64
(lp1425
g57
(g78
g59
NtRp1426
(dp1427
g62
(dp1428
g82
g83
ssg71
g1422
sg64
(lp1429
S'web2py_version'
p1430
asbag57
(g78
g59
NtRp1431
(dp1432
g62
(dp1433
g89
g90
ssg71
g1422
sg64
(lp1434
S':'
asbag57
(g78
g59
NtRp1435
(dp1436
g62
(dp1437
sg71
g1422
sg64
(lp1438
g57
(g58
g59
NtRp1439
(dp1440
g62
(dp1441
g70
I4
ssg71
g1435
sg64
(lp1442
g57
(g66
g59
NtRp1443
(dp1444
g62
(dp1445
g70
I3
ssg71
Nsg64
(lp1446
g57
(g73
g59
NtRp1447
(dp1448
g62
(dp1449
sg71
g1443
sg64
(lp1450
g57
(g78
g59
NtRp1451
(dp1452
g62
(dp1453
sg71
g1447
sg64
(lp1454
g57
(g58
g59
NtRp1455
(dp1456
g62
(dp1457
g70
I3
ssg71
g1451
sg64
(lp1458
S'2'
asbasbasbag57
(g73
g59
NtRp1459
(dp1460
g62
(dp1461
sg71
g1443
sg64
(lp1462
g57
(g78
g59
NtRp1463
(dp1464
g62
(dp1465
sg71
g1459
sg64
(lp1466
g57
(g58
g59
NtRp1467
(dp1468
g62
(dp1469
g70
I3
ssg71
g1463
sg64
(lp1470
S'3'
asbasbasbag57
(g73
g59
NtRp1471
(dp1472
g62
(dp1473
sg71
g1443
sg64
(lp1474
g57
(g78
g59
NtRp1475
(dp1476
g62
(dp1477
sg71
g1471
sg64
(lp1478
g57
(g58
g59
NtRp1479
(dp1480
g62
(dp1481
g70
I3
ssg71
g1475
sg64
(lp1482
S'2'
asbasbasbag57
(g73
g59
NtRp1483
(dp1484
g62
(dp1485
sg71
g1443
sg64
(lp1486
g57
(g78
g59
NtRp1487
(dp1488
g62
(dp1489
sg71
g1483
sg64
(lp1490
g57
(g58
g59
NtRp1491
(dp1492
g62
(dp1493
g70
I3
ssg71
g1487
sg64
(lp1494
S'datetime.datetime(2012, 12, 17, 15, 3, 30)'
p1495
asbasbasbag57
(g73
g59
NtRp1496
(dp1497
g62
(dp1498
sg71
g1443
sg64
(lp1499
g57
(g78
g59
NtRp1500
(dp1501
g62
(dp1502
sg71
g1496
sg64
(lp1503
g57
(g58
g59
NtRp1504
(dp1505
g62
(dp1506
g70
I3
ssg71
g1500
sg64
(lp1507
S'stable'
p1508
asbasbasbasbasbasbasbag57
(g73
g59
NtRp1509
(dp1510
g62
(dp1511
sg71
g673
sg64
(lp1512
g57
(g78
g59
NtRp1513
(dp1514
g62
(dp1515
g82
g83
ssg71
g1509
sg64
(lp1516
S'wsgi_errors'
p1517
asbag57
(g78
g59
NtRp1518
(dp1519
g62
(dp1520
g89
g90
ssg71
g1509
sg64
(lp1521
S':'
asbag57
(g78
g59
NtRp1522
(dp1523
g62
(dp1524
sg71
g1509
sg64
(lp1525
g57
(g58
g59
NtRp1526
(dp1527
g62
(dp1528
g70
I4
ssg71
g1522
sg64
(lp1529
S"<open file '<stderr>', mode 'w' at 0xb72e90d0>"
p1530
asbasbasbag57
(g73
g59
NtRp1531
(dp1532
g62
(dp1533
sg71
g673
sg64
(lp1534
g57
(g78
g59
NtRp1535
(dp1536
g62
(dp1537
g82
g83
ssg71
g1531
sg64
(lp1538
S'wsgi_file_wrapper'
p1539
asbag57
(g78
g59
NtRp1540
(dp1541
g62
(dp1542
g89
g90
ssg71
g1531
sg64
(lp1543
S':'
asbag57
(g78
g59
NtRp1544
(dp1545
g62
(dp1546
sg71
g1531
sg64
(lp1547
g57
(g58
g59
NtRp1548
(dp1549
g62
(dp1550
g70
I4
ssg71
g1544
sg64
(lp1551
S'<class wsgiref.util.FileWrapper at 0xa49cb9c>'
p1552
asbasbasbag57
(g73
g59
NtRp1553
(dp1554
g62
(dp1555
sg71
g673
sg64
(lp1556
g57
(g78
g59
NtRp1557
(dp1558
g62
(dp1559
g82
g83
ssg71
g1553
sg64
(lp1560
S'wsgi_input'
p1561
asbag57
(g78
g59
NtRp1562
(dp1563
g62
(dp1564
g89
g90
ssg71
g1553
sg64
(lp1565
S':'
asbag57
(g78
g59
NtRp1566
(dp1567
g62
(dp1568
sg71
g1553
sg64
(lp1569
g57
(g58
g59
NtRp1570
(dp1571
g62
(dp1572
g70
I4
ssg71
g1566
sg64
(lp1573
S'<socket._fileobject object at 0xb050ec2c>'
p1574
asbasbasbag57
(g73
g59
NtRp1575
(dp1576
g62
(dp1577
sg71
g673
sg64
(lp1578
g57
(g78
g59
NtRp1579
(dp1580
g62
(dp1581
g82
g83
ssg71
g1575
sg64
(lp1582
S'wsgi_multiprocess'
p1583
asbag57
(g78
g59
NtRp1584
(dp1585
g62
(dp1586
g89
g90
ssg71
g1575
sg64
(lp1587
S':'
asbag57
(g78
g59
NtRp1588
(dp1589
g62
(dp1590
sg71
g1575
sg64
(lp1591
g57
(g58
g59
NtRp1592
(dp1593
g62
(dp1594
g70
I4
ssg71
g1588
sg64
(lp1595
g100
asbasbasbag57
(g73
g59
NtRp1596
(dp1597
g62
(dp1598
sg71
g673
sg64
(lp1599
g57
(g78
g59
NtRp1600
(dp1601
g62
(dp1602
g82
g83
ssg71
g1596
sg64
(lp1603
S'wsgi_multithread'
p1604
asbag57
(g78
g59
NtRp1605
(dp1606
g62
(dp1607
g89
g90
ssg71
g1596
sg64
(lp1608
S':'
asbag57
(g78
g59
NtRp1609
(dp1610
g62
(dp1611
sg71
g1596
sg64
(lp1612
g57
(g58
g59
NtRp1613
(dp1614
g62
(dp1615
g70
I4
ssg71
g1609
sg64
(lp1616
S'True'
p1617
asbasbasbag57
(g73
g59
NtRp1618
(dp1619
g62
(dp1620
sg71
g673
sg64
(lp1621
g57
(g78
g59
NtRp1622
(dp1623
g62
(dp1624
g82
g83
ssg71
g1618
sg64
(lp1625
S'wsgi_run_once'
p1626
asbag57
(g78
g59
NtRp1627
(dp1628
g62
(dp1629
g89
g90
ssg71
g1618
sg64
(lp1630
S':'
asbag57
(g78
g59
NtRp1631
(dp1632
g62
(dp1633
sg71
g1618
sg64
(lp1634
g57
(g58
g59
NtRp1635
(dp1636
g62
(dp1637
g70
I4
ssg71
g1631
sg64
(lp1638
g100
asbasbasbag57
(g73
g59
NtRp1639
(dp1640
g62
(dp1641
sg71
g673
sg64
(lp1642
g57
(g78
g59
NtRp1643
(dp1644
g62
(dp1645
g82
g83
ssg71
g1639
sg64
(lp1646
S'wsgi_url_scheme'
p1647
asbag57
(g78
g59
NtRp1648
(dp1649
g62
(dp1650
g89
g90
ssg71
g1639
sg64
(lp1651
S':'
asbag57
(g78
g59
NtRp1652
(dp1653
g62
(dp1654
sg71
g1639
sg64
(lp1655
g57
(g58
g59
NtRp1656
(dp1657
g62
(dp1658
g70
I4
ssg71
g1652
sg64
(lp1659
S'http'
p1660
asbasbasbag57
(g73
g59
NtRp1661
(dp1662
g62
(dp1663
sg71
g673
sg64
(lp1664
g57
(g78
g59
NtRp1665
(dp1666
g62
(dp1667
g82
g83
ssg71
g1661
sg64
(lp1668
S'wsgi_version'
p1669
asbag57
(g78
g59
NtRp1670
(dp1671
g62
(dp1672
g89
g90
ssg71
g1661
sg64
(lp1673
S':'
asbag57
(g78
g59
NtRp1674
(dp1675
g62
(dp1676
sg71
g1661
sg64
(lp1677
g57
(g58
g59
NtRp1678
(dp1679
g62
(dp1680
g70
I4
ssg71
g1674
sg64
(lp1681
g57
(g66
g59
NtRp1682
(dp1683
g62
(dp1684
g70
I3
ssg71
Nsg64
(lp1685
g57
(g73
g59
NtRp1686
(dp1687
g62
(dp1688
sg71
g1682
sg64
(lp1689
g57
(g78
g59
NtRp1690
(dp1691
g62
(dp1692
sg71
g1686
sg64
(lp1693
g57
(g58
g59
NtRp1694
(dp1695
g62
(dp1696
g70
I3
ssg71
g1690
sg64
(lp1697
S'1'
asbasbasbag57
(g73
g59
NtRp1698
(dp1699
g62
(dp1700
sg71
g1682
sg64
(lp1701
g57
(g78
g59
NtRp1702
(dp1703
g62
(dp1704
sg71
g1698
sg64
(lp1705
g57
(g58
g59
NtRp1706
(dp1707
g62
(dp1708
g70
I3
ssg71
g1702
sg64
(lp1709
S'0'
asbasbasbasbasbasbasbasbasbasbasbag57
(g73
g59
NtRp1710
(dp1711
g62
(dp1712
sg71
g67
sg64
(lp1713
g57
(g78
g59
NtRp1714
(dp1715
g62
(dp1716
g82
g83
ssg71
g1710
sg64
(lp1717
S'extension'
p1718
asbag57
(g78
g59
NtRp1719
(dp1720
g62
(dp1721
g89
g90
ssg71
g1710
sg64
(lp1722
S':'
asbag57
(g78
g59
NtRp1723
(dp1724
g62
(dp1725
sg71
g1710
sg64
(lp1726
g57
(g58
g59
NtRp1727
(dp1728
g62
(dp1729
g70
I5
ssg71
g1723
sg64
(lp1730
S'html'
p1731
asbasbasbag57
(g73
g59
NtRp1732
(dp1733
g62
(dp1734
sg71
g67
sg64
(lp1735
g57
(g78
g59
NtRp1736
(dp1737
g62
(dp1738
g82
g83
ssg71
g1732
sg64
(lp1739
S'folder'
p1740
asbag57
(g78
g59
NtRp1741
(dp1742
g62
(dp1743
g89
g90
ssg71
g1732
sg64
(lp1744
S':'
asbag57
(g78
g59
NtRp1745
(dp1746
g62
(dp1747
sg71
g1732
sg64
(lp1748
g57
(g58
g59
NtRp1749
(dp1750
g62
(dp1751
g70
I5
ssg71
g1745
sg64
(lp1752
S'/home/anil/Downloads/web2py/applications/DEV_bootstrap_ch/'
p1753
asbasbasbag57
(g73
g59
NtRp1754
(dp1755
g62
(dp1756
sg71
g67
sg64
(lp1757
g57
(g78
g59
NtRp1758
(dp1759
g62
(dp1760
g82
g83
ssg71
g1754
sg64
(lp1761
S'function'
p1762
asbag57
(g78
g59
NtRp1763
(dp1764
g62
(dp1765
g89
g90
ssg71
g1754
sg64
(lp1766
S':'
asbag57
(g78
g59
NtRp1767
(dp1768
g62
(dp1769
sg71
g1754
sg64
(lp1770
g57
(g58
g59
NtRp1771
(dp1772
g62
(dp1773
g70
I5
ssg71
g1767
sg64
(lp1774
S'project_viewer'
p1775
asbasbasbag57
(g73
g59
NtRp1776
(dp1777
g62
(dp1778
sg71
g67
sg64
(lp1779
g57
(g78
g59
NtRp1780
(dp1781
g62
(dp1782
g82
g83
ssg71
g1776
sg64
(lp1783
S'get_vars'
p1784
asbag57
(g78
g59
NtRp1785
(dp1786
g62
(dp1787
g89
g90
ssg71
g1776
sg64
(lp1788
S':'
asbag57
(g78
g59
NtRp1789
(dp1790
g62
(dp1791
sg71
g1776
sg64
(lp1792
g57
(g58
g59
NtRp1793
(dp1794
g62
(dp1795
g70
I5
ssg71
g1789
sg64
(lp1796
g57
(g66
g59
NtRp1797
(dp1798
g62
(dp1799
g70
I4
ssg71
Nsg64
(lp1800
sbasbasbasbag57
(g73
g59
NtRp1801
(dp1802
g62
(dp1803
sg71
g67
sg64
(lp1804
g57
(g78
g59
NtRp1805
(dp1806
g62
(dp1807
g82
g83
ssg71
g1801
sg64
(lp1808
S'global_settings'
p1809
asbag57
(g78
g59
NtRp1810
(dp1811
g62
(dp1812
g89
g90
ssg71
g1801
sg64
(lp1813
S':'
asbag57
(g78
g59
NtRp1814
(dp1815
g62
(dp1816
sg71
g1801
sg64
(lp1817
g57
(g58
g59
NtRp1818
(dp1819
g62
(dp1820
g70
I5
ssg71
g1814
sg64
(lp1821
g57
(g66
g59
NtRp1822
(dp1823
g62
(dp1824
g70
I4
ssg71
Nsg64
(lp1825
g57
(g73
g59
NtRp1826
(dp1827
g62
(dp1828
sg71
g1822
sg64
(lp1829
g57
(g78
g59
NtRp1830
(dp1831
g62
(dp1832
g82
g83
ssg71
g1826
sg64
(lp1833
g685
asbag57
(g78
g59
NtRp1834
(dp1835
g62
(dp1836
g89
g90
ssg71
g1826
sg64
(lp1837
S':'
asbag57
(g78
g59
NtRp1838
(dp1839
g62
(dp1840
sg71
g1826
sg64
(lp1841
g57
(g58
g59
NtRp1842
(dp1843
g62
(dp1844
g70
I4
ssg71
g1838
sg64
(lp1845
S"set(['/home/anil/Downloads/web2py/applications/DEV_bootstrap_ch/', '/home/anil/Downloads/web2py/applications/admin/'])"
p1846
asbasbasbag57
(g73
g59
NtRp1847
(dp1848
g62
(dp1849
sg71
g1822
sg64
(lp1850
g57
(g78
g59
NtRp1851
(dp1852
g62
(dp1853
g82
g83
ssg71
g1847
sg64
(lp1854
g707
asbag57
(g78
g59
NtRp1855
(dp1856
g62
(dp1857
g89
g90
ssg71
g1847
sg64
(lp1858
S':'
asbag57
(g78
g59
NtRp1859
(dp1860
g62
(dp1861
sg71
g1847
sg64
(lp1862
g57
(g58
g59
NtRp1863
(dp1864
g62
(dp1865
g70
I4
ssg71
g1859
sg64
(lp1866
g720
asbasbasbag57
(g73
g59
NtRp1867
(dp1868
g62
(dp1869
sg71
g1822
sg64
(lp1870
g57
(g78
g59
NtRp1871
(dp1872
g62
(dp1873
g82
g83
ssg71
g1867
sg64
(lp1874
g729
asbag57
(g78
g59
NtRp1875
(dp1876
g62
(dp1877
g89
g90
ssg71
g1867
sg64
(lp1878
S':'
asbag57
(g78
g59
NtRp1879
(dp1880
g62
(dp1881
sg71
g1867
sg64
(lp1882
g57
(g58
g59
NtRp1883
(dp1884
g62
(dp1885
g70
I4
ssg71
g1879
sg64
(lp1886
g57
(g66
g59
NtRp1887
(dp1888
g62
(dp1889
g70
I3
ssg71
Nsg64
(lp1890
sbasbasbasbag57
(g73
g59
NtRp1891
(dp1892
g62
(dp1893
sg71
g1822
sg64
(lp1894
g57
(g78
g59
NtRp1895
(dp1896
g62
(dp1897
g82
g83
ssg71
g1891
sg64
(lp1898
g754
asbag57
(g78
g59
NtRp1899
(dp1900
g62
(dp1901
g89
g90
ssg71
g1891
sg64
(lp1902
S':'
asbag57
(g78
g59
NtRp1903
(dp1904
g62
(dp1905
sg71
g1891
sg64
(lp1906
g57
(g58
g59
NtRp1907
(dp1908
g62
(dp1909
g70
I4
ssg71
g1903
sg64
(lp1910
S"<Values at 0xa513c6c: {'verbose': False, 'ip': '127.0.0.1', 'with_scheduler': False, 'ips': [], 'shutdown_timeout': 5, 'taskbar': False, 'port': 8000, 'maxthreads': None, 'softcron': False, 'server_name': 'anil-Inspiron-1525', 'bpython': False, 'nogui': False, 'pid_filename': 'httpserver.pid', 'extcron': False, 'runcron': False, 'run_system_tests': False, 'test': None, 'folder': '/home/anil/Downloads/web2py', 'config': '', 'import_models': False, 'winservice': '', 'shell': None, 'run': '', 'log_filename': 'httpserver.log', 'debuglevel': 30, 'args': [''], 'socket_timeout': 5, 'ssl_ca_certificate': None, 'scheduler': None, 'profiler_filename': None, 'ssl_private_key': '', 'scheduler_groups': None, 'password': '123', 'request_queue_size': 5, 'ssl_certificate': '', 'cronjob': False, 'numthreads': None, 'quiet': False, 'interfaces': None, 'minthreads': None, 'timeout': 10, 'plain': False, 'nobanner': False}>"
p1911
asbasbasbag57
(g73
g59
NtRp1912
(dp1913
g62
(dp1914
sg71
g1822
sg64
(lp1915
g57
(g78
g59
NtRp1916
(dp1917
g62
(dp1918
g82
g83
ssg71
g1912
sg64
(lp1919
g776
asbag57
(g78
g59
NtRp1920
(dp1921
g62
(dp1922
g89
g90
ssg71
g1912
sg64
(lp1923
S':'
asbag57
(g78
g59
NtRp1924
(dp1925
g62
(dp1926
sg71
g1912
sg64
(lp1927
g57
(g58
g59
NtRp1928
(dp1929
g62
(dp1930
g70
I4
ssg71
g1924
sg64
(lp1931
S'set([])'
p1932
asbasbasbag57
(g73
g59
NtRp1933
(dp1934
g62
(dp1935
sg71
g1822
sg64
(lp1936
g57
(g78
g59
NtRp1937
(dp1938
g62
(dp1939
g82
g83
ssg71
g1933
sg64
(lp1940
g798
asbag57
(g78
g59
NtRp1941
(dp1942
g62
(dp1943
g89
g90
ssg71
g1933
sg64
(lp1944
S':'
asbag57
(g78
g59
NtRp1945
(dp1946
g62
(dp1947
sg71
g1933
sg64
(lp1948
g57
(g58
g59
NtRp1949
(dp1950
g62
(dp1951
g70
I4
ssg71
g1945
sg64
(lp1952
g100
asbasbasbag57
(g73
g59
NtRp1953
(dp1954
g62
(dp1955
sg71
g1822
sg64
(lp1956
g57
(g78
g59
NtRp1957
(dp1958
g62
(dp1959
g82
g83
ssg71
g1953
sg64
(lp1960
g819
asbag57
(g78
g59
NtRp1961
(dp1962
g62
(dp1963
g89
g90
ssg71
g1953
sg64
(lp1964
S':'
asbag57
(g78
g59
NtRp1965
(dp1966
g62
(dp1967
sg71
g1953
sg64
(lp1968
g57
(g58
g59
NtRp1969
(dp1970
g62
(dp1971
g70
I4
ssg71
g1965
sg64
(lp1972
g832
asbasbasbag57
(g73
g59
NtRp1973
(dp1974
g62
(dp1975
sg71
g1822
sg64
(lp1976
g57
(g78
g59
NtRp1977
(dp1978
g62
(dp1979
g82
g83
ssg71
g1973
sg64
(lp1980
g1039
asbag57
(g78
g59
NtRp1981
(dp1982
g62
(dp1983
g89
g90
ssg71
g1973
sg64
(lp1984
S':'
asbag57
(g78
g59
NtRp1985
(dp1986
g62
(dp1987
sg71
g1973
sg64
(lp1988
g57
(g58
g59
NtRp1989
(dp1990
g62
(dp1991
g70
I4
ssg71
g1985
sg64
(lp1992
g100
asbasbasbag57
(g73
g59
NtRp1993
(dp1994
g62
(dp1995
sg71
g1822
sg64
(lp1996
g57
(g78
g59
NtRp1997
(dp1998
g62
(dp1999
g82
g83
ssg71
g1993
sg64
(lp2000
g1060
asbag57
(g78
g59
NtRp2001
(dp2002
g62
(dp2003
g89
g90
ssg71
g1993
sg64
(lp2004
S':'
asbag57
(g78
g59
NtRp2005
(dp2006
g62
(dp2007
sg71
g1993
sg64
(lp2008
g57
(g58
g59
NtRp2009
(dp2010
g62
(dp2011
g70
I4
ssg71
g2005
sg64
(lp2012
g100
asbasbasbag57
(g73
g59
NtRp2013
(dp2014
g62
(dp2015
sg71
g1822
sg64
(lp2016
g57
(g78
g59
NtRp2017
(dp2018
g62
(dp2019
g82
g83
ssg71
g2013
sg64
(lp2020
g1081
asbag57
(g78
g59
NtRp2021
(dp2022
g62
(dp2023
g89
g90
ssg71
g2013
sg64
(lp2024
S':'
asbag57
(g78
g59
NtRp2025
(dp2026
g62
(dp2027
sg71
g2013
sg64
(lp2028
g57
(g58
g59
NtRp2029
(dp2030
g62
(dp2031
g70
I4
ssg71
g2025
sg64
(lp2032
g57
(g66
g59
NtRp2033
(dp2034
g62
(dp2035
g70
I3
ssg71
Nsg64
(lp2036
g57
(g73
g59
NtRp2037
(dp2038
g62
(dp2039
sg71
g2033
sg64
(lp2040
g57
(g78
g59
NtRp2041
(dp2042
g62
(dp2043
sg71
g2037
sg64
(lp2044
g57
(g58
g59
NtRp2045
(dp2046
g62
(dp2047
g70
I3
ssg71
g2041
sg64
(lp2048
g1110
asbasbasbag57
(g73
g59
NtRp2049
(dp2050
g62
(dp2051
sg71
g2033
sg64
(lp2052
g57
(g78
g59
NtRp2053
(dp2054
g62
(dp2055
sg71
g2049
sg64
(lp2056
g57
(g58
g59
NtRp2057
(dp2058
g62
(dp2059
g70
I3
ssg71
g2053
sg64
(lp2060
g1123
asbasbasbag57
(g73
g59
NtRp2061
(dp2062
g62
(dp2063
sg71
g2033
sg64
(lp2064
g57
(g78
g59
NtRp2065
(dp2066
g62
(dp2067
sg71
g2061
sg64
(lp2068
g57
(g58
g59
NtRp2069
(dp2070
g62
(dp2071
g70
I3
ssg71
g2065
sg64
(lp2072
g1136
asbasbasbag57
(g73
g59
NtRp2073
(dp2074
g62
(dp2075
sg71
g2033
sg64
(lp2076
g57
(g78
g59
NtRp2077
(dp2078
g62
(dp2079
sg71
g2073
sg64
(lp2080
g57
(g58
g59
NtRp2081
(dp2082
g62
(dp2083
g70
I3
ssg71
g2077
sg64
(lp2084
g1149
asbasbasbag57
(g73
g59
NtRp2085
(dp2086
g62
(dp2087
sg71
g2033
sg64
(lp2088
g57
(g78
g59
NtRp2089
(dp2090
g62
(dp2091
sg71
g2085
sg64
(lp2092
g57
(g58
g59
NtRp2093
(dp2094
g62
(dp2095
g70
I3
ssg71
g2089
sg64
(lp2096
g1162
asbasbasbasbasbasbasbag57
(g73
g59
NtRp2097
(dp2098
g62
(dp2099
sg71
g1822
sg64
(lp2100
g57
(g78
g59
NtRp2101
(dp2102
g62
(dp2103
g82
g83
ssg71
g2097
sg64
(lp2104
g1430
asbag57
(g78
g59
NtRp2105
(dp2106
g62
(dp2107
g89
g90
ssg71
g2097
sg64
(lp2108
S':'
asbag57
(g78
g59
NtRp2109
(dp2110
g62
(dp2111
sg71
g2097
sg64
(lp2112
g57
(g58
g59
NtRp2113
(dp2114
g62
(dp2115
g70
I4
ssg71
g2109
sg64
(lp2116
g57
(g66
g59
NtRp2117
(dp2118
g62
(dp2119
g70
I3
ssg71
Nsg64
(lp2120
g57
(g73
g59
NtRp2121
(dp2122
g62
(dp2123
sg71
g2117
sg64
(lp2124
g57
(g78
g59
NtRp2125
(dp2126
g62
(dp2127
sg71
g2121
sg64
(lp2128
g57
(g58
g59
NtRp2129
(dp2130
g62
(dp2131
g70
I3
ssg71
g2125
sg64
(lp2132
S'2'
asbasbasbag57
(g73
g59
NtRp2133
(dp2134
g62
(dp2135
sg71
g2117
sg64
(lp2136
g57
(g78
g59
NtRp2137
(dp2138
g62
(dp2139
sg71
g2133
sg64
(lp2140
g57
(g58
g59
NtRp2141
(dp2142
g62
(dp2143
g70
I3
ssg71
g2137
sg64
(lp2144
S'3'
asbasbasbag57
(g73
g59
NtRp2145
(dp2146
g62
(dp2147
sg71
g2117
sg64
(lp2148
g57
(g78
g59
NtRp2149
(dp2150
g62
(dp2151
sg71
g2145
sg64
(lp2152
g57
(g58
g59
NtRp2153
(dp2154
g62
(dp2155
g70
I3
ssg71
g2149
sg64
(lp2156
S'2'
asbasbasbag57
(g73
g59
NtRp2157
(dp2158
g62
(dp2159
sg71
g2117
sg64
(lp2160
g57
(g78
g59
NtRp2161
(dp2162
g62
(dp2163
sg71
g2157
sg64
(lp2164
g57
(g58
g59
NtRp2165
(dp2166
g62
(dp2167
g70
I3
ssg71
g2161
sg64
(lp2168
S'datetime.datetime(2012, 12, 17, 15, 3, 30)'
p2169
asbasbasbag57
(g73
g59
NtRp2170
(dp2171
g62
(dp2172
sg71
g2117
sg64
(lp2173
g57
(g78
g59
NtRp2174
(dp2175
g62
(dp2176
sg71
g2170
sg64
(lp2177
g57
(g58
g59
NtRp2178
(dp2179
g62
(dp2180
g70
I3
ssg71
g2174
sg64
(lp2181
g1508
asbasbasbasbasbasbasbasbasbasbasbag57
(g73
g59
NtRp2182
(dp2183
g62
(dp2184
sg71
g67
sg64
(lp2185
g57
(g78
g59
NtRp2186
(dp2187
g62
(dp2188
g82
g83
ssg71
g2182
sg64
(lp2189
S'is_https'
p2190
asbag57
(g78
g59
NtRp2191
(dp2192
g62
(dp2193
g89
g90
ssg71
g2182
sg64
(lp2194
S':'
asbag57
(g78
g59
NtRp2195
(dp2196
g62
(dp2197
sg71
g2182
sg64
(lp2198
g57
(g58
g59
NtRp2199
(dp2200
g62
(dp2201
g70
I5
ssg71
g2195
sg64
(lp2202
g100
asbasbasbag57
(g73
g59
NtRp2203
(dp2204
g62
(dp2205
sg71
g67
sg64
(lp2206
g57
(g78
g59
NtRp2207
(dp2208
g62
(dp2209
g82
g83
ssg71
g2203
sg64
(lp2210
S'is_local'
p2211
asbag57
(g78
g59
NtRp2212
(dp2213
g62
(dp2214
g89
g90
ssg71
g2203
sg64
(lp2215
S':'
asbag57
(g78
g59
NtRp2216
(dp2217
g62
(dp2218
sg71
g2203
sg64
(lp2219
g57
(g58
g59
NtRp2220
(dp2221
g62
(dp2222
g70
I5
ssg71
g2216
sg64
(lp2223
g1617
asbasbasbag57
(g73
g59
NtRp2224
(dp2225
g62
(dp2226
sg71
g67
sg64
(lp2227
g57
(g78
g59
NtRp2228
(dp2229
g62
(dp2230
g82
g83
ssg71
g2224
sg64
(lp2231
S'is_restful'
p2232
asbag57
(g78
g59
NtRp2233
(dp2234
g62
(dp2235
g89
g90
ssg71
g2224
sg64
(lp2236
S':'
asbag57
(g78
g59
NtRp2237
(dp2238
g62
(dp2239
sg71
g2224
sg64
(lp2240
g57
(g58
g59
NtRp2241
(dp2242
g62
(dp2243
g70
I5
ssg71
g2237
sg64
(lp2244
g100
asbasbasbag57
(g73
g59
NtRp2245
(dp2246
g62
(dp2247
sg71
g67
sg64
(lp2248
g57
(g78
g59
NtRp2249
(dp2250
g62
(dp2251
g82
g83
ssg71
g2245
sg64
(lp2252
S'now'
p2253
asbag57
(g78
g59
NtRp2254
(dp2255
g62
(dp2256
g89
g90
ssg71
g2245
sg64
(lp2257
S':'
asbag57
(g78
g59
NtRp2258
(dp2259
g62
(dp2260
sg71
g2245
sg64
(lp2261
g57
(g58
g59
NtRp2262
(dp2263
g62
(dp2264
g70
I5
ssg71
g2258
sg64
(lp2265
S'datetime.datetime(2013, 3, 8, 19, 58, 52, 955643)'
p2266
asbasbasbag57
(g73
g59
NtRp2267
(dp2268
g62
(dp2269
sg71
g67
sg64
(lp2270
g57
(g78
g59
NtRp2271
(dp2272
g62
(dp2273
g82
g83
ssg71
g2267
sg64
(lp2274
S'post_vars'
p2275
asbag57
(g78
g59
NtRp2276
(dp2277
g62
(dp2278
g89
g90
ssg71
g2267
sg64
(lp2279
S':'
asbag57
(g78
g59
NtRp2280
(dp2281
g62
(dp2282
sg71
g2267
sg64
(lp2283
g57
(g58
g59
NtRp2284
(dp2285
g62
(dp2286
g70
I5
ssg71
g2280
sg64
(lp2287
g57
(g66
g59
NtRp2288
(dp2289
g62
(dp2290
g70
I4
ssg71
Nsg64
(lp2291
sbasbasbasbag57
(g73
g59
NtRp2292
(dp2293
g62
(dp2294
sg71
g67
sg64
(lp2295
g57
(g78
g59
NtRp2296
(dp2297
g62
(dp2298
g82
g83
ssg71
g2292
sg64
(lp2299
S'raw_args'
p2300
asbag57
(g78
g59
NtRp2301
(dp2302
g62
(dp2303
g89
g90
ssg71
g2292
sg64
(lp2304
S':'
asbag57
(g78
g59
NtRp2305
(dp2306
g62
(dp2307
sg71
g2292
sg64
(lp2308
g57
(g58
g59
NtRp2309
(dp2310
g62
(dp2311
g70
I5
ssg71
g2305
sg64
(lp2312
S'1'
asbasbasbag57
(g73
g59
NtRp2313
(dp2314
g62
(dp2315
sg71
g67
sg64
(lp2316
g57
(g78
g59
NtRp2317
(dp2318
g62
(dp2319
g82
g83
ssg71
g2313
sg64
(lp2320
S'raw_extension'
p2321
asbag57
(g78
g59
NtRp2322
(dp2323
g62
(dp2324
g89
g90
ssg71
g2313
sg64
(lp2325
S':'
asbag57
(g78
g59
NtRp2326
(dp2327
g62
(dp2328
sg71
g2313
sg64
(lp2329
g57
(g58
g59
NtRp2330
(dp2331
g62
(dp2332
g70
I5
ssg71
g2326
sg64
(lp2333
S'None'
p2334
asbasbasbag57
(g73
g59
NtRp2335
(dp2336
g62
(dp2337
sg71
g67
sg64
(lp2338
g57
(g78
g59
NtRp2339
(dp2340
g62
(dp2341
g82
g83
ssg71
g2335
sg64
(lp2342
S'url'
p2343
asbag57
(g78
g59
NtRp2344
(dp2345
g62
(dp2346
g89
g90
ssg71
g2335
sg64
(lp2347
S':'
asbag57
(g78
g59
NtRp2348
(dp2349
g62
(dp2350
sg71
g2335
sg64
(lp2351
g57
(g58
g59
NtRp2352
(dp2353
g62
(dp2354
g70
I5
ssg71
g2348
sg64
(lp2355
g1184
asbasbasbag57
(g73
g59
NtRp2356
(dp2357
g62
(dp2358
sg71
g67
sg64
(lp2359
g57
(g78
g59
NtRp2360
(dp2361
g62
(dp2362
g82
g83
ssg71
g2356
sg64
(lp2363
S'utcnow'
p2364
asbag57
(g78
g59
NtRp2365
(dp2366
g62
(dp2367
g89
g90
ssg71
g2356
sg64
(lp2368
S':'
asbag57
(g78
g59
NtRp2369
(dp2370
g62
(dp2371
sg71
g2356
sg64
(lp2372
g57
(g58
g59
NtRp2373
(dp2374
g62
(dp2375
g70
I5
ssg71
g2369
sg64
(lp2376
S'datetime.datetime(2013, 3, 8, 14, 28, 52, 955685)'
p2377
asbasbasbag57
(g73
g59
NtRp2378
(dp2379
g62
(dp2380
sg71
g67
sg64
(lp2381
g57
(g78
g59
NtRp2382
(dp2383
g62
(dp2384
g82
g83
ssg71
g2378
sg64
(lp2385
S'uuid'
p2386
asbag57
(g78
g59
NtRp2387
(dp2388
g62
(dp2389
g89
g90
ssg71
g2378
sg64
(lp2390
S':'
asbag57
(g78
g59
NtRp2391
(dp2392
g62
(dp2393
sg71
g2378
sg64
(lp2394
g57
(g58
g59
NtRp2395
(dp2396
g62
(dp2397
g70
I5
ssg71
g2391
sg64
(lp2398
S'DEV_bootstrap_ch/127.0.0.1.2013-03-08.19-58-52.cbdcea55-a64c-48f8-a6b4-ae2ac09ac9f3'
p2399
asbasbasbag57
(g73
g59
NtRp2400
(dp2401
g62
(dp2402
sg71
g67
sg64
(lp2403
g57
(g78
g59
NtRp2404
(dp2405
g62
(dp2406
g82
g83
ssg71
g2400
sg64
(lp2407
S'vars'
p2408
asbag57
(g78
g59
NtRp2409
(dp2410
g62
(dp2411
g89
g90
ssg71
g2400
sg64
(lp2412
S':'
asbag57
(g78
g59
NtRp2413
(dp2414
g62
(dp2415
sg71
g2400
sg64
(lp2416
g57
(g58
g59
NtRp2417
(dp2418
g62
(dp2419
g70
I5
ssg71
g2413
sg64
(lp2420
g57
(g66
g59
NtRp2421
(dp2422
g62
(dp2423
g70
I4
ssg71
Nsg64
(lp2424
sbasbasbasbag57
(g73
g59
NtRp2425
(dp2426
g62
(dp2427
sg71
g67
sg64
(lp2428
g57
(g78
g59
NtRp2429
(dp2430
g62
(dp2431
g82
g83
ssg71
g2425
sg64
(lp2432
S'wsgi'
p2433
asbag57
(g78
g59
NtRp2434
(dp2435
g62
(dp2436
g89
g90
ssg71
g2425
sg64
(lp2437
S':'
asbag57
(g78
g59
NtRp2438
(dp2439
g62
(dp2440
sg71
g2425
sg64
(lp2441
g57
(g58
g59
NtRp2442
(dp2443
g62
(dp2444
g70
I5
ssg71
g2438
sg64
(lp2445
g57
(g66
g59
NtRp2446
(dp2447
g62
(dp2448
g70
I4
ssg71
Nsg64
(lp2449
g57
(g73
g59
NtRp2450
(dp2451
g62
(dp2452
sg71
g2446
sg64
(lp2453
g57
(g78
g59
NtRp2454
(dp2455
g62
(dp2456
g82
g83
ssg71
g2450
sg64
(lp2457
S'environ'
p2458
asbag57
(g78
g59
NtRp2459
(dp2460
g62
(dp2461
g89
g90
ssg71
g2450
sg64
(lp2462
S':'
asbag57
(g78
g59
NtRp2463
(dp2464
g62
(dp2465
sg71
g2450
sg64
(lp2466
g57
(g58
g59
NtRp2467
(dp2468
g62
(dp2469
g70
I4
ssg71
g2463
sg64
(lp2470
g57
(g66
g59
NtRp2471
(dp2472
g62
(dp2473
g70
I3
ssg71
Nsg64
(lp2474
g57
(g73
g59
NtRp2475
(dp2476
g62
(dp2477
sg71
g2471
sg64
(lp2478
g57
(g78
g59
NtRp2479
(dp2480
g62
(dp2481
g82
g83
ssg71
g2475
sg64
(lp2482
S'HTTP_ACCEPT'
p2483
asbag57
(g78
g59
NtRp2484
(dp2485
g62
(dp2486
g89
g90
ssg71
g2475
sg64
(lp2487
S':'
asbag57
(g78
g59
NtRp2488
(dp2489
g62
(dp2490
sg71
g2475
sg64
(lp2491
g57
(g58
g59
NtRp2492
(dp2493
g62
(dp2494
g70
I3
ssg71
g2488
sg64
(lp2495
g854
asbasbasbag57
(g73
g59
NtRp2496
(dp2497
g62
(dp2498
sg71
g2471
sg64
(lp2499
g57
(g78
g59
NtRp2500
(dp2501
g62
(dp2502
g82
g83
ssg71
g2496
sg64
(lp2503
S'HTTP_ACCEPT_CHARSET'
p2504
asbag57
(g78
g59
NtRp2505
(dp2506
g62
(dp2507
g89
g90
ssg71
g2496
sg64
(lp2508
S':'
asbag57
(g78
g59
NtRp2509
(dp2510
g62
(dp2511
sg71
g2496
sg64
(lp2512
g57
(g58
g59
NtRp2513
(dp2514
g62
(dp2515
g70
I3
ssg71
g2509
sg64
(lp2516
g876
asbasbasbag57
(g73
g59
NtRp2517
(dp2518
g62
(dp2519
sg71
g2471
sg64
(lp2520
g57
(g78
g59
NtRp2521
(dp2522
g62
(dp2523
g82
g83
ssg71
g2517
sg64
(lp2524
S'HTTP_ACCEPT_ENCODING'
p2525
asbag57
(g78
g59
NtRp2526
(dp2527
g62
(dp2528
g89
g90
ssg71
g2517
sg64
(lp2529
S':'
asbag57
(g78
g59
NtRp2530
(dp2531
g62
(dp2532
sg71
g2517
sg64
(lp2533
g57
(g58
g59
NtRp2534
(dp2535
g62
(dp2536
g70
I3
ssg71
g2530
sg64
(lp2537
g898
asbasbasbag57
(g73
g59
NtRp2538
(dp2539
g62
(dp2540
sg71
g2471
sg64
(lp2541
g57
(g78
g59
NtRp2542
(dp2543
g62
(dp2544
g82
g83
ssg71
g2538
sg64
(lp2545
S'HTTP_ACCEPT_LANGUAGE'
p2546
asbag57
(g78
g59
NtRp2547
(dp2548
g62
(dp2549
g89
g90
ssg71
g2538
sg64
(lp2550
S':'
asbag57
(g78
g59
NtRp2551
(dp2552
g62
(dp2553
sg71
g2538
sg64
(lp2554
g57
(g58
g59
NtRp2555
(dp2556
g62
(dp2557
g70
I3
ssg71
g2551
sg64
(lp2558
g920
asbasbasbag57
(g73
g59
NtRp2559
(dp2560
g62
(dp2561
sg71
g2471
sg64
(lp2562
g57
(g78
g59
NtRp2563
(dp2564
g62
(dp2565
g82
g83
ssg71
g2559
sg64
(lp2566
S'HTTP_CONNECTION'
p2567
asbag57
(g78
g59
NtRp2568
(dp2569
g62
(dp2570
g89
g90
ssg71
g2559
sg64
(lp2571
S':'
asbag57
(g78
g59
NtRp2572
(dp2573
g62
(dp2574
sg71
g2559
sg64
(lp2575
g57
(g58
g59
NtRp2576
(dp2577
g62
(dp2578
g70
I3
ssg71
g2572
sg64
(lp2579
g942
asbasbasbag57
(g73
g59
NtRp2580
(dp2581
g62
(dp2582
sg71
g2471
sg64
(lp2583
g57
(g78
g59
NtRp2584
(dp2585
g62
(dp2586
g82
g83
ssg71
g2580
sg64
(lp2587
S'HTTP_COOKIE'
p2588
asbag57
(g78
g59
NtRp2589
(dp2590
g62
(dp2591
g89
g90
ssg71
g2580
sg64
(lp2592
S':'
asbag57
(g78
g59
NtRp2593
(dp2594
g62
(dp2595
sg71
g2580
sg64
(lp2596
g57
(g58
g59
NtRp2597
(dp2598
g62
(dp2599
g70
I3
ssg71
g2593
sg64
(lp2600
g964
asbasbasbag57
(g73
g59
NtRp2601
(dp2602
g62
(dp2603
sg71
g2471
sg64
(lp2604
g57
(g78
g59
NtRp2605
(dp2606
g62
(dp2607
g82
g83
ssg71
g2601
sg64
(lp2608
S'HTTP_HOST'
p2609
asbag57
(g78
g59
NtRp2610
(dp2611
g62
(dp2612
g89
g90
ssg71
g2601
sg64
(lp2613
S':'
asbag57
(g78
g59
NtRp2614
(dp2615
g62
(dp2616
sg71
g2601
sg64
(lp2617
g57
(g58
g59
NtRp2618
(dp2619
g62
(dp2620
g70
I3
ssg71
g2614
sg64
(lp2621
g986
asbasbasbag57
(g73
g59
NtRp2622
(dp2623
g62
(dp2624
sg71
g2471
sg64
(lp2625
g57
(g78
g59
NtRp2626
(dp2627
g62
(dp2628
g82
g83
ssg71
g2622
sg64
(lp2629
S'HTTP_REFERER'
p2630
asbag57
(g78
g59
NtRp2631
(dp2632
g62
(dp2633
g89
g90
ssg71
g2622
sg64
(lp2634
S':'
asbag57
(g78
g59
NtRp2635
(dp2636
g62
(dp2637
sg71
g2622
sg64
(lp2638
g57
(g58
g59
NtRp2639
(dp2640
g62
(dp2641
g70
I3
ssg71
g2635
sg64
(lp2642
g1008
asbasbasbag57
(g73
g59
NtRp2643
(dp2644
g62
(dp2645
sg71
g2471
sg64
(lp2646
g57
(g78
g59
NtRp2647
(dp2648
g62
(dp2649
g82
g83
ssg71
g2643
sg64
(lp2650
S'HTTP_USER_AGENT'
p2651
asbag57
(g78
g59
NtRp2652
(dp2653
g62
(dp2654
g89
g90
ssg71
g2643
sg64
(lp2655
S':'
asbag57
(g78
g59
NtRp2656
(dp2657
g62
(dp2658
sg71
g2643
sg64
(lp2659
g57
(g58
g59
NtRp2660
(dp2661
g62
(dp2662
g70
I3
ssg71
g2656
sg64
(lp2663
g1030
asbasbasbag57
(g73
g59
NtRp2664
(dp2665
g62
(dp2666
sg71
g2471
sg64
(lp2667
g57
(g78
g59
NtRp2668
(dp2669
g62
(dp2670
g82
g83
ssg71
g2664
sg64
(lp2671
S'PATH_INFO'
p2672
asbag57
(g78
g59
NtRp2673
(dp2674
g62
(dp2675
g89
g90
ssg71
g2664
sg64
(lp2676
S':'
asbag57
(g78
g59
NtRp2677
(dp2678
g62
(dp2679
sg71
g2664
sg64
(lp2680
g57
(g58
g59
NtRp2681
(dp2682
g62
(dp2683
g70
I3
ssg71
g2677
sg64
(lp2684
g1184
asbasbasbag57
(g73
g59
NtRp2685
(dp2686
g62
(dp2687
sg71
g2471
sg64
(lp2688
g57
(g78
g59
NtRp2689
(dp2690
g62
(dp2691
g82
g83
ssg71
g2685
sg64
(lp2692
S'QUERY_STRING'
p2693
asbag57
(g78
g59
NtRp2694
(dp2695
g62
(dp2696
g89
g90
ssg71
g2685
sg64
(lp2697
S':'
asbag57
(g78
g59
NtRp2698
(dp2699
g62
(dp2700
sg71
g2685
sg64
(lp2701
g57
(g58
g59
NtRp2702
(dp2703
g62
(dp2704
g70
I3
ssg71
g2698
sg64
(lp2705
S''
asbasbasbag57
(g73
g59
NtRp2706
(dp2707
g62
(dp2708
sg71
g2471
sg64
(lp2709
g57
(g78
g59
NtRp2710
(dp2711
g62
(dp2712
g82
g83
ssg71
g2706
sg64
(lp2713
S'REMOTE_ADDR'
p2714
asbag57
(g78
g59
NtRp2715
(dp2716
g62
(dp2717
g89
g90
ssg71
g2706
sg64
(lp2718
S':'
asbag57
(g78
g59
NtRp2719
(dp2720
g62
(dp2721
sg71
g2706
sg64
(lp2722
g57
(g58
g59
NtRp2723
(dp2724
g62
(dp2725
g70
I3
ssg71
g2719
sg64
(lp2726
g224
asbasbasbag57
(g73
g59
NtRp2727
(dp2728
g62
(dp2729
sg71
g2471
sg64
(lp2730
g57
(g78
g59
NtRp2731
(dp2732
g62
(dp2733
g82
g83
ssg71
g2727
sg64
(lp2734
S'REMOTE_PORT'
p2735
asbag57
(g78
g59
NtRp2736
(dp2737
g62
(dp2738
g89
g90
ssg71
g2727
sg64
(lp2739
S':'
asbag57
(g78
g59
NtRp2740
(dp2741
g62
(dp2742
sg71
g2727
sg64
(lp2743
g57
(g58
g59
NtRp2744
(dp2745
g62
(dp2746
g70
I3
ssg71
g2740
sg64
(lp2747
g1248
asbasbasbag57
(g73
g59
NtRp2748
(dp2749
g62
(dp2750
sg71
g2471
sg64
(lp2751
g57
(g78
g59
NtRp2752
(dp2753
g62
(dp2754
g82
g83
ssg71
g2748
sg64
(lp2755
S'REQUEST_METHOD'
p2756
asbag57
(g78
g59
NtRp2757
(dp2758
g62
(dp2759
g89
g90
ssg71
g2748
sg64
(lp2760
S':'
asbag57
(g78
g59
NtRp2761
(dp2762
g62
(dp2763
sg71
g2748
sg64
(lp2764
g57
(g58
g59
NtRp2765
(dp2766
g62
(dp2767
g70
I3
ssg71
g2761
sg64
(lp2768
g1270
asbasbasbag57
(g73
g59
NtRp2769
(dp2770
g62
(dp2771
sg71
g2471
sg64
(lp2772
g57
(g78
g59
NtRp2773
(dp2774
g62
(dp2775
g82
g83
ssg71
g2769
sg64
(lp2776
S'REQUEST_URI'
p2777
asbag57
(g78
g59
NtRp2778
(dp2779
g62
(dp2780
g89
g90
ssg71
g2769
sg64
(lp2781
S':'
asbag57
(g78
g59
NtRp2782
(dp2783
g62
(dp2784
sg71
g2769
sg64
(lp2785
g57
(g58
g59
NtRp2786
(dp2787
g62
(dp2788
g70
I3
ssg71
g2782
sg64
(lp2789
g1184
asbasbasbag57
(g73
g59
NtRp2790
(dp2791
g62
(dp2792
sg71
g2471
sg64
(lp2793
g57
(g78
g59
NtRp2794
(dp2795
g62
(dp2796
g82
g83
ssg71
g2790
sg64
(lp2797
S'SCRIPT_NAME'
p2798
asbag57
(g78
g59
NtRp2799
(dp2800
g62
(dp2801
g89
g90
ssg71
g2790
sg64
(lp2802
S':'
asbag57
(g78
g59
NtRp2803
(dp2804
g62
(dp2805
sg71
g2790
sg64
(lp2806
g57
(g58
g59
NtRp2807
(dp2808
g62
(dp2809
g70
I3
ssg71
g2803
sg64
(lp2810
S''
asbasbasbag57
(g73
g59
NtRp2811
(dp2812
g62
(dp2813
sg71
g2471
sg64
(lp2814
g57
(g78
g59
NtRp2815
(dp2816
g62
(dp2817
g82
g83
ssg71
g2811
sg64
(lp2818
S'SERVER_NAME'
p2819
asbag57
(g78
g59
NtRp2820
(dp2821
g62
(dp2822
g89
g90
ssg71
g2811
sg64
(lp2823
S':'
asbag57
(g78
g59
NtRp2824
(dp2825
g62
(dp2826
sg71
g2811
sg64
(lp2827
g57
(g58
g59
NtRp2828
(dp2829
g62
(dp2830
g70
I3
ssg71
g2824
sg64
(lp2831
g1334
asbasbasbag57
(g73
g59
NtRp2832
(dp2833
g62
(dp2834
sg71
g2471
sg64
(lp2835
g57
(g78
g59
NtRp2836
(dp2837
g62
(dp2838
g82
g83
ssg71
g2832
sg64
(lp2839
S'SERVER_PORT'
p2840
asbag57
(g78
g59
NtRp2841
(dp2842
g62
(dp2843
g89
g90
ssg71
g2832
sg64
(lp2844
S':'
asbag57
(g78
g59
NtRp2845
(dp2846
g62
(dp2847
sg71
g2832
sg64
(lp2848
g57
(g58
g59
NtRp2849
(dp2850
g62
(dp2851
g70
I3
ssg71
g2845
sg64
(lp2852
g1356
asbasbasbag57
(g73
g59
NtRp2853
(dp2854
g62
(dp2855
sg71
g2471
sg64
(lp2856
g57
(g78
g59
NtRp2857
(dp2858
g62
(dp2859
g82
g83
ssg71
g2853
sg64
(lp2860
S'SERVER_PROTOCOL'
p2861
asbag57
(g78
g59
NtRp2862
(dp2863
g62
(dp2864
g89
g90
ssg71
g2853
sg64
(lp2865
S':'
asbag57
(g78
g59
NtRp2866
(dp2867
g62
(dp2868
sg71
g2853
sg64
(lp2869
g57
(g58
g59
NtRp2870
(dp2871
g62
(dp2872
g70
I3
ssg71
g2866
sg64
(lp2873
g1378
asbasbasbag57
(g73
g59
NtRp2874
(dp2875
g62
(dp2876
sg71
g2471
sg64
(lp2877
g57
(g78
g59
NtRp2878
(dp2879
g62
(dp2880
g82
g83
ssg71
g2874
sg64
(lp2881
S'SERVER_SOFTWARE'
p2882
asbag57
(g78
g59
NtRp2883
(dp2884
g62
(dp2885
g89
g90
ssg71
g2874
sg64
(lp2886
S':'
asbag57
(g78
g59
NtRp2887
(dp2888
g62
(dp2889
sg71
g2874
sg64
(lp2890
g57
(g58
g59
NtRp2891
(dp2892
g62
(dp2893
g70
I3
ssg71
g2887
sg64
(lp2894
g1400
asbasbasbag57
(g73
g59
NtRp2895
(dp2896
g62
(dp2897
sg71
g2471
sg64
(lp2898
g57
(g78
g59
NtRp2899
(dp2900
g62
(dp2901
g82
g83
ssg71
g2895
sg64
(lp2902
S'wsgi.errors'
p2903
asbag57
(g78
g59
NtRp2904
(dp2905
g62
(dp2906
g89
g90
ssg71
g2895
sg64
(lp2907
S':'
asbag57
(g78
g59
NtRp2908
(dp2909
g62
(dp2910
sg71
g2895
sg64
(lp2911
g57
(g58
g59
NtRp2912
(dp2913
g62
(dp2914
g70
I3
ssg71
g2908
sg64
(lp2915
S"<open file '<stderr>', mode 'w' at 0xb72e90d0>"
p2916
asbasbasbag57
(g73
g59
NtRp2917
(dp2918
g62
(dp2919
sg71
g2471
sg64
(lp2920
g57
(g78
g59
NtRp2921
(dp2922
g62
(dp2923
g82
g83
ssg71
g2917
sg64
(lp2924
S'wsgi.file_wrapper'
p2925
asbag57
(g78
g59
NtRp2926
(dp2927
g62
(dp2928
g89
g90
ssg71
g2917
sg64
(lp2929
S':'
asbag57
(g78
g59
NtRp2930
(dp2931
g62
(dp2932
sg71
g2917
sg64
(lp2933
g57
(g58
g59
NtRp2934
(dp2935
g62
(dp2936
g70
I3
ssg71
g2930
sg64
(lp2937
S'<class wsgiref.util.FileWrapper at 0xa49cb9c>'
p2938
asbasbasbag57
(g73
g59
NtRp2939
(dp2940
g62
(dp2941
sg71
g2471
sg64
(lp2942
g57
(g78
g59
NtRp2943
(dp2944
g62
(dp2945
g82
g83
ssg71
g2939
sg64
(lp2946
S'wsgi.input'
p2947
asbag57
(g78
g59
NtRp2948
(dp2949
g62
(dp2950
g89
g90
ssg71
g2939
sg64
(lp2951
S':'
asbag57
(g78
g59
NtRp2952
(dp2953
g62
(dp2954
sg71
g2939
sg64
(lp2955
g57
(g58
g59
NtRp2956
(dp2957
g62
(dp2958
g70
I3
ssg71
g2952
sg64
(lp2959
S'<cStringIO.StringO object at 0xb04870a0>'
p2960
asbasbasbag57
(g73
g59
NtRp2961
(dp2962
g62
(dp2963
sg71
g2471
sg64
(lp2964
g57
(g78
g59
NtRp2965
(dp2966
g62
(dp2967
g82
g83
ssg71
g2961
sg64
(lp2968
S'wsgi.multiprocess'
p2969
asbag57
(g78
g59
NtRp2970
(dp2971
g62
(dp2972
g89
g90
ssg71
g2961
sg64
(lp2973
S':'
asbag57
(g78
g59
NtRp2974
(dp2975
g62
(dp2976
sg71
g2961
sg64
(lp2977
g57
(g58
g59
NtRp2978
(dp2979
g62
(dp2980
g70
I3
ssg71
g2974
sg64
(lp2981
g100
asbasbasbag57
(g73
g59
NtRp2982
(dp2983
g62
(dp2984
sg71
g2471
sg64
(lp2985
g57
(g78
g59
NtRp2986
(dp2987
g62
(dp2988
g82
g83
ssg71
g2982
sg64
(lp2989
S'wsgi.multithread'
p2990
asbag57
(g78
g59
NtRp2991
(dp2992
g62
(dp2993
g89
g90
ssg71
g2982
sg64
(lp2994
S':'
asbag57
(g78
g59
NtRp2995
(dp2996
g62
(dp2997
sg71
g2982
sg64
(lp2998
g57
(g58
g59
NtRp2999
(dp3000
g62
(dp3001
g70
I3
ssg71
g2995
sg64
(lp3002
g1617
asbasbasbag57
(g73
g59
NtRp3003
(dp3004
g62
(dp3005
sg71
g2471
sg64
(lp3006
g57
(g78
g59
NtRp3007
(dp3008
g62
(dp3009
g82
g83
ssg71
g3003
sg64
(lp3010
S'wsgi.run_once'
p3011
asbag57
(g78
g59
NtRp3012
(dp3013
g62
(dp3014
g89
g90
ssg71
g3003
sg64
(lp3015
S':'
asbag57
(g78
g59
NtRp3016
(dp3017
g62
(dp3018
sg71
g3003
sg64
(lp3019
g57
(g58
g59
NtRp3020
(dp3021
g62
(dp3022
g70
I3
ssg71
g3016
sg64
(lp3023
g100
asbasbasbag57
(g73
g59
NtRp3024
(dp3025
g62
(dp3026
sg71
g2471
sg64
(lp3027
g57
(g78
g59
NtRp3028
(dp3029
g62
(dp3030
g82
g83
ssg71
g3024
sg64
(lp3031
S'wsgi.url_scheme'
p3032
asbag57
(g78
g59
NtRp3033
(dp3034
g62
(dp3035
g89
g90
ssg71
g3024
sg64
(lp3036
S':'
asbag57
(g78
g59
NtRp3037
(dp3038
g62
(dp3039
sg71
g3024
sg64
(lp3040
g57
(g58
g59
NtRp3041
(dp3042
g62
(dp3043
g70
I3
ssg71
g3037
sg64
(lp3044
g1660
asbasbasbag57
(g73
g59
NtRp3045
(dp3046
g62
(dp3047
sg71
g2471
sg64
(lp3048
g57
(g78
g59
NtRp3049
(dp3050
g62
(dp3051
g82
g83
ssg71
g3045
sg64
(lp3052
S'wsgi.version'
p3053
asbag57
(g78
g59
NtRp3054
(dp3055
g62
(dp3056
g89
g90
ssg71
g3045
sg64
(lp3057
S':'
asbag57
(g78
g59
NtRp3058
(dp3059
g62
(dp3060
sg71
g3045
sg64
(lp3061
g57
(g58
g59
NtRp3062
(dp3063
g62
(dp3064
g70
I3
ssg71
g3058
sg64
(lp3065
S'1'
asbasbasbasbasbasbasbasbasbasbasbasbasbsS'frames'
p3066
(lp3067
(dp3068
S'file'
p3069
S'/home/anil/Downloads/web2py/gluon/restricted.py'
p3070
sS'dump'
p3071
(dp3072
S'environment'
p3073
S"{'A': <class 'gluon.html.A'>, 'Auth': <class 'gluon.tools.Auth'>, 'B': <class 'gluon.html.B'>, 'BEAUTIFY': <class 'gluon.html.BEAUTIFY'>, 'BODY': <class 'gluon.html.BODY'>, 'BR': <class 'gluon.html.BR'>, 'BUTTON': <class 'gluon.html.BUTTON'>, 'CAT': <class 'gluon.html.CAT'>, 'CENTER': <class 'gluon.html.CENTER'>, 'CLEANUP': <class 'gluon.validators.CLEANUP'>, ...}"
p3074
sS'ccode'
p3075
S'<code object <module> at 0xb012c7b8, file "/home...ap_ch/views/default/project_viewer.html", line 1>'
p3076
ssS'lnum'
p3077
I212
sS'lines'
p3078
(dp3079
I207
S'    try:'
p3080
sI208
S'        if isinstance(code, types.CodeType):'
p3081
sI209
S'            ccode = code'
p3082
sI210
S'        else:'
p3083
sI211
S'            ccode = compile2(code, layer)'
p3084
sI212
S'        exec ccode in environment'
p3085
sI213
S'    except HTTP:'
p3086
sI214
S'        raise'
p3087
sI215
S'    except RestrictedError:'
p3088
sI216
S'        # do not encapsulate (obfuscate) the original RestrictedError'
p3089
ssS'call'
p3090
S'(code=\'response.write(\\\'<!DOCTYPE html>\\\\n<html lang="\\\', ...nse.write(\\\'\\\\n  </body>\\\\n</html>\\\\n\\\', escape=False)\', environment={\'A\': <class \'gluon.html.A\'>, \'Auth\': <class \'gluon.tools.Auth\'>, \'B\': <class \'gluon.html.B\'>, \'BEAUTIFY\': <class \'gluon.html.BEAUTIFY\'>, \'BODY\': <class \'gluon.html.BODY\'>, \'BR\': <class \'gluon.html.BR\'>, \'BUTTON\': <class \'gluon.html.BUTTON\'>, \'CAT\': <class \'gluon.html.CAT\'>, \'CENTER\': <class \'gluon.html.CENTER\'>, \'CLEANUP\': <class \'gluon.validators.CLEANUP\'>, ...}, layer=\'/home/anil/Downloads/web2py/applications/DEV_bootstrap_ch/views/default/project_viewer.html\')'
p3091
sS'func'
p3092
S'restricted'
p3093
sa(dp3094
g3069
S'/home/anil/Downloads/web2py/applications/DEV_bootstrap_ch/views/default/project_viewer.html'
p3095
sg3071
(dp3096
S'td'
p3097
S'undefined'
p3098
ssg3077
I136
sg3078
(dp3099
I128
S'response.write(project.code)'
p3100
sI129
S"response.write('</td></tr>\\n<tr><td><b>Project Start Date</b></td>  <td>', escape=False)"
p3101
sI130
S'response.write(project.start_date)'
p3102
sI131
S"response.write('</td></tr>\\n<tr><td><b>Institute/Lab</b></td>  <td>', escape=False)"
p3103
sI132
S'response.write(cord.affiliated_to)'
p3104
sI133
S"response.write('</td></tr>\\n<tr><td><b>Project Description</b> </td>  <td>', escape=False)"
p3105
sI134
S'response.write(project.project_description)'
p3106
sI135
S"response.write('</td></tr>\\n<tr><td><b>Project References</b> </td>  <td>', escape=False)"
p3107
sI136
S"response.write(H5(A(project.project_literature_reference,_href='http://www.ncbi.nlm.nih.gov/pubmed/'+project.project_literature_reference)))"
p3108
sI137
S"response.write('</td></tr>\\n\\n<tr><td><b>Already Published Work</td></b>  <td>', escape=False)"
p3109
sI138
S'response.write(project.project_journal_name)'
p3110
sI139
S'response.write("</td></tr>\\n</table>\\n</br></br>\\n\\n<h4>People Involved in project:</h4>\\n</br>\\n<table id = \'customers\'>\\n<tr>\\n<td><b>Project Co-Ordinator </b></td>\\n<td>", escape=False)'
p3111
sI140
S"response.write(A(cord.first_name+' '+cord.last_name,_href=URL('user_viewer',args=cord.id)))"
p3112
sI141
S"response.write('</td>\\n</tr>\\n<tr>\\n\\n<td><b>Investigators</b></td>\\n<td>\\n', escape=False)"
p3113
sI142
S'for user in users:'
p3114
sI143
S"    response.write('\\n', escape=False)"
p3115
sI144
S"    if user.role.role=='0':"
p3116
sI145
S"        response.write('\\n', escape=False)"
p3117
sI146
S"        response.write(A(user.auth_user.first_name,_href=URL('user_viewer',args=user.auth_user.id)))"
p3118
sI127
S'response.write(\'\\n</td>\\n</table-->\\n<body>\\n<h4>Project Details</h4>\\n<table id = \\\'customers\\\' class="table table-hover">\\n<tr><td><b>Project code</b></td><td>\', escape=False)'
p3119
ssg3090
S'()'
p3120
sg3092
S'<module>'
p3121
sasS'pyver'
p3122
S'Python 2.7.3: /usr/bin/python'
p3123
sS'session'
p3124
g57
(g58
g59
NtRp3125
(dp3126
g62
(dp3127
sg64
(lp3128
g57
(g66
g59
NtRp3129
(dp3130
g62
(dp3131
g70
I5
ssg71
Nsg64
(lp3132
g57
(g73
g59
NtRp3133
(dp3134
g62
(dp3135
sg71
g3129
sg64
(lp3136
g57
(g78
g59
NtRp3137
(dp3138
g62
(dp3139
g82
g83
ssg71
g3133
sg64
(lp3140
S'auth'
p3141
asbag57
(g78
g59
NtRp3142
(dp3143
g62
(dp3144
g89
g90
ssg71
g3133
sg64
(lp3145
S':'
asbag57
(g78
g59
NtRp3146
(dp3147
g62
(dp3148
sg71
g3133
sg64
(lp3149
g57
(g58
g59
NtRp3150
(dp3151
g62
(dp3152
g70
I5
ssg71
g3146
sg64
(lp3153
g57
(g66
g59
NtRp3154
(dp3155
g62
(dp3156
g70
I4
ssg71
Nsg64
(lp3157
g57
(g73
g59
NtRp3158
(dp3159
g62
(dp3160
sg71
g3154
sg64
(lp3161
g57
(g78
g59
NtRp3162
(dp3163
g62
(dp3164
g82
g83
ssg71
g3158
sg64
(lp3165
S'expiration'
p3166
asbag57
(g78
g59
NtRp3167
(dp3168
g62
(dp3169
g89
g90
ssg71
g3158
sg64
(lp3170
S':'
asbag57
(g78
g59
NtRp3171
(dp3172
g62
(dp3173
sg71
g3158
sg64
(lp3174
g57
(g58
g59
NtRp3175
(dp3176
g62
(dp3177
g70
I4
ssg71
g3171
sg64
(lp3178
S'3600'
p3179
asbasbasbag57
(g73
g59
NtRp3180
(dp3181
g62
(dp3182
sg71
g3154
sg64
(lp3183
g57
(g78
g59
NtRp3184
(dp3185
g62
(dp3186
g82
g83
ssg71
g3180
sg64
(lp3187
S'hmac_key'
p3188
asbag57
(g78
g59
NtRp3189
(dp3190
g62
(dp3191
g89
g90
ssg71
g3180
sg64
(lp3192
S':'
asbag57
(g78
g59
NtRp3193
(dp3194
g62
(dp3195
sg71
g3180
sg64
(lp3196
g57
(g58
g59
NtRp3197
(dp3198
g62
(dp3199
g70
I4
ssg71
g3193
sg64
(lp3200
S'682b31d8-3fbf-42f1-9951-2fa6f04803f1'
p3201
asbasbasbag57
(g73
g59
NtRp3202
(dp3203
g62
(dp3204
sg71
g3154
sg64
(lp3205
g57
(g78
g59
NtRp3206
(dp3207
g62
(dp3208
g82
g83
ssg71
g3202
sg64
(lp3209
S'last_visit'
p3210
asbag57
(g78
g59
NtRp3211
(dp3212
g62
(dp3213
g89
g90
ssg71
g3202
sg64
(lp3214
S':'
asbag57
(g78
g59
NtRp3215
(dp3216
g62
(dp3217
sg71
g3202
sg64
(lp3218
g57
(g58
g59
NtRp3219
(dp3220
g62
(dp3221
g70
I4
ssg71
g3215
sg64
(lp3222
S'datetime.datetime(2013, 3, 8, 19, 58, 13, 988317)'
p3223
asbasbasbag57
(g73
g59
NtRp3224
(dp3225
g62
(dp3226
sg71
g3154
sg64
(lp3227
g57
(g78
g59
NtRp3228
(dp3229
g62
(dp3230
g82
g83
ssg71
g3224
sg64
(lp3231
S'remember'
p3232
asbag57
(g78
g59
NtRp3233
(dp3234
g62
(dp3235
g89
g90
ssg71
g3224
sg64
(lp3236
S':'
asbag57
(g78
g59
NtRp3237
(dp3238
g62
(dp3239
sg71
g3224
sg64
(lp3240
g57
(g58
g59
NtRp3241
(dp3242
g62
(dp3243
g70
I4
ssg71
g3237
sg64
(lp3244
g100
asbasbasbag57
(g73
g59
NtRp3245
(dp3246
g62
(dp3247
sg71
g3154
sg64
(lp3248
g57
(g78
g59
NtRp3249
(dp3250
g62
(dp3251
g82
g83
ssg71
g3245
sg64
(lp3252
S'user'
p3253
asbag57
(g78
g59
NtRp3254
(dp3255
g62
(dp3256
g89
g90
ssg71
g3245
sg64
(lp3257
S':'
asbag57
(g78
g59
NtRp3258
(dp3259
g62
(dp3260
sg71
g3245
sg64
(lp3261
g57
(g58
g59
NtRp3262
(dp3263
g62
(dp3264
g70
I4
ssg71
g3258
sg64
(lp3265
g57
(g66
g59
NtRp3266
(dp3267
g62
(dp3268
g70
I3
ssg71
Nsg64
(lp3269
g57
(g73
g59
NtRp3270
(dp3271
g62
(dp3272
sg71
g3266
sg64
(lp3273
g57
(g78
g59
NtRp3274
(dp3275
g62
(dp3276
g82
g83
ssg71
g3270
sg64
(lp3277
S'address'
p3278
asbag57
(g78
g59
NtRp3279
(dp3280
g62
(dp3281
g89
g90
ssg71
g3270
sg64
(lp3282
S':'
asbag57
(g78
g59
NtRp3283
(dp3284
g62
(dp3285
sg71
g3270
sg64
(lp3286
g57
(g58
g59
NtRp3287
(dp3288
g62
(dp3289
g70
I3
ssg71
g3283
sg64
(lp3290
S'dsaf'
p3291
asbasbasbag57
(g73
g59
NtRp3292
(dp3293
g62
(dp3294
sg71
g3266
sg64
(lp3295
g57
(g78
g59
NtRp3296
(dp3297
g62
(dp3298
g82
g83
ssg71
g3292
sg64
(lp3299
S'affiliated_to'
p3300
asbag57
(g78
g59
NtRp3301
(dp3302
g62
(dp3303
g89
g90
ssg71
g3292
sg64
(lp3304
S':'
asbag57
(g78
g59
NtRp3305
(dp3306
g62
(dp3307
sg71
g3292
sg64
(lp3308
g57
(g58
g59
NtRp3309
(dp3310
g62
(dp3311
g70
I3
ssg71
g3305
sg64
(lp3312
S'fdsa'
p3313
asbasbasbag57
(g73
g59
NtRp3314
(dp3315
g62
(dp3316
sg71
g3266
sg64
(lp3317
g57
(g78
g59
NtRp3318
(dp3319
g62
(dp3320
g82
g83
ssg71
g3314
sg64
(lp3321
S'city'
p3322
asbag57
(g78
g59
NtRp3323
(dp3324
g62
(dp3325
g89
g90
ssg71
g3314
sg64
(lp3326
S':'
asbag57
(g78
g59
NtRp3327
(dp3328
g62
(dp3329
sg71
g3314
sg64
(lp3330
g57
(g58
g59
NtRp3331
(dp3332
g62
(dp3333
g70
I3
ssg71
g3327
sg64
(lp3334
S'ongole'
p3335
asbasbasbag57
(g73
g59
NtRp3336
(dp3337
g62
(dp3338
sg71
g3266
sg64
(lp3339
g57
(g78
g59
NtRp3340
(dp3341
g62
(dp3342
g82
g83
ssg71
g3336
sg64
(lp3343
S'country'
p3344
asbag57
(g78
g59
NtRp3345
(dp3346
g62
(dp3347
g89
g90
ssg71
g3336
sg64
(lp3348
S':'
asbag57
(g78
g59
NtRp3349
(dp3350
g62
(dp3351
sg71
g3336
sg64
(lp3352
g57
(g58
g59
NtRp3353
(dp3354
g62
(dp3355
g70
I3
ssg71
g3349
sg64
(lp3356
S'India'
p3357
asbasbasbag57
(g73
g59
NtRp3358
(dp3359
g62
(dp3360
sg71
g3266
sg64
(lp3361
g57
(g78
g59
NtRp3362
(dp3363
g62
(dp3364
g82
g83
ssg71
g3358
sg64
(lp3365
S'email'
p3366
asbag57
(g78
g59
NtRp3367
(dp3368
g62
(dp3369
g89
g90
ssg71
g3358
sg64
(lp3370
S':'
asbag57
(g78
g59
NtRp3371
(dp3372
g62
(dp3373
sg71
g3358
sg64
(lp3374
g57
(g58
g59
NtRp3375
(dp3376
g62
(dp3377
g70
I3
ssg71
g3371
sg64
(lp3378
S'anil1in7@gmail.com'
p3379
asbasbasbag57
(g73
g59
NtRp3380
(dp3381
g62
(dp3382
sg71
g3266
sg64
(lp3383
g57
(g78
g59
NtRp3384
(dp3385
g62
(dp3386
g82
g83
ssg71
g3380
sg64
(lp3387
S'first_name'
p3388
asbag57
(g78
g59
NtRp3389
(dp3390
g62
(dp3391
g89
g90
ssg71
g3380
sg64
(lp3392
S':'
asbag57
(g78
g59
NtRp3393
(dp3394
g62
(dp3395
sg71
g3380
sg64
(lp3396
g57
(g58
g59
NtRp3397
(dp3398
g62
(dp3399
g70
I3
ssg71
g3393
sg64
(lp3400
S'Anil Kumar'
p3401
asbasbasbag57
(g73
g59
NtRp3402
(dp3403
g62
(dp3404
sg71
g3266
sg64
(lp3405
g57
(g78
g59
NtRp3406
(dp3407
g62
(dp3408
g82
g83
ssg71
g3402
sg64
(lp3409
S'id'
p3410
asbag57
(g78
g59
NtRp3411
(dp3412
g62
(dp3413
g89
g90
ssg71
g3402
sg64
(lp3414
S':'
asbag57
(g78
g59
NtRp3415
(dp3416
g62
(dp3417
sg71
g3402
sg64
(lp3418
g57
(g58
g59
NtRp3419
(dp3420
g62
(dp3421
g70
I3
ssg71
g3415
sg64
(lp3422
S'1'
asbasbasbag57
(g73
g59
NtRp3423
(dp3424
g62
(dp3425
sg71
g3266
sg64
(lp3426
g57
(g78
g59
NtRp3427
(dp3428
g62
(dp3429
g82
g83
ssg71
g3423
sg64
(lp3430
S'last_name'
p3431
asbag57
(g78
g59
NtRp3432
(dp3433
g62
(dp3434
g89
g90
ssg71
g3423
sg64
(lp3435
S':'
asbag57
(g78
g59
NtRp3436
(dp3437
g62
(dp3438
sg71
g3423
sg64
(lp3439
g57
(g58
g59
NtRp3440
(dp3441
g62
(dp3442
g70
I3
ssg71
g3436
sg64
(lp3443
S'Nalamalapu'
p3444
asbasbasbag57
(g73
g59
NtRp3445
(dp3446
g62
(dp3447
sg71
g3266
sg64
(lp3448
g57
(g78
g59
NtRp3449
(dp3450
g62
(dp3451
g82
g83
ssg71
g3445
sg64
(lp3452
S'mobile'
p3453
asbag57
(g78
g59
NtRp3454
(dp3455
g62
(dp3456
g89
g90
ssg71
g3445
sg64
(lp3457
S':'
asbag57
(g78
g59
NtRp3458
(dp3459
g62
(dp3460
sg71
g3445
sg64
(lp3461
g57
(g58
g59
NtRp3462
(dp3463
g62
(dp3464
g70
I3
ssg71
g3458
sg64
(lp3465
S'918885334113'
p3466
asbasbasbag57
(g73
g59
NtRp3467
(dp3468
g62
(dp3469
sg71
g3266
sg64
(lp3470
g57
(g78
g59
NtRp3471
(dp3472
g62
(dp3473
g82
g83
ssg71
g3467
sg64
(lp3474
S'phone'
p3475
asbag57
(g78
g59
NtRp3476
(dp3477
g62
(dp3478
g89
g90
ssg71
g3467
sg64
(lp3479
S':'
asbag57
(g78
g59
NtRp3480
(dp3481
g62
(dp3482
sg71
g3467
sg64
(lp3483
g57
(g58
g59
NtRp3484
(dp3485
g62
(dp3486
g70
I3
ssg71
g3480
sg64
(lp3487
S'918885334113'
p3488
asbasbasbag57
(g73
g59
NtRp3489
(dp3490
g62
(dp3491
sg71
g3266
sg64
(lp3492
g57
(g78
g59
NtRp3493
(dp3494
g62
(dp3495
g82
g83
ssg71
g3489
sg64
(lp3496
S'position'
p3497
asbag57
(g78
g59
NtRp3498
(dp3499
g62
(dp3500
g89
g90
ssg71
g3489
sg64
(lp3501
S':'
asbag57
(g78
g59
NtRp3502
(dp3503
g62
(dp3504
sg71
g3489
sg64
(lp3505
g57
(g58
g59
NtRp3506
(dp3507
g62
(dp3508
g70
I3
ssg71
g3502
sg64
(lp3509
S'2'
asbasbasbag57
(g73
g59
NtRp3510
(dp3511
g62
(dp3512
sg71
g3266
sg64
(lp3513
g57
(g78
g59
NtRp3514
(dp3515
g62
(dp3516
g82
g83
ssg71
g3510
sg64
(lp3517
S'postal_code'
p3518
asbag57
(g78
g59
NtRp3519
(dp3520
g62
(dp3521
g89
g90
ssg71
g3510
sg64
(lp3522
S':'
asbag57
(g78
g59
NtRp3523
(dp3524
g62
(dp3525
sg71
g3510
sg64
(lp3526
g57
(g58
g59
NtRp3527
(dp3528
g62
(dp3529
g70
I3
ssg71
g3523
sg64
(lp3530
S'523182'
p3531
asbasbasbag57
(g73
g59
NtRp3532
(dp3533
g62
(dp3534
sg71
g3266
sg64
(lp3535
g57
(g78
g59
NtRp3536
(dp3537
g62
(dp3538
g82
g83
ssg71
g3532
sg64
(lp3539
S'registration_id'
p3540
asbag57
(g78
g59
NtRp3541
(dp3542
g62
(dp3543
g89
g90
ssg71
g3532
sg64
(lp3544
S':'
asbag57
(g78
g59
NtRp3545
(dp3546
g62
(dp3547
sg71
g3532
sg64
(lp3548
g57
(g58
g59
NtRp3549
(dp3550
g62
(dp3551
g70
I3
ssg71
g3545
sg64
(lp3552
S''
asbasbasbag57
(g73
g59
NtRp3553
(dp3554
g62
(dp3555
sg71
g3266
sg64
(lp3556
g57
(g78
g59
NtRp3557
(dp3558
g62
(dp3559
g82
g83
ssg71
g3553
sg64
(lp3560
S'registration_key'
p3561
asbag57
(g78
g59
NtRp3562
(dp3563
g62
(dp3564
g89
g90
ssg71
g3553
sg64
(lp3565
S':'
asbag57
(g78
g59
NtRp3566
(dp3567
g62
(dp3568
sg71
g3553
sg64
(lp3569
g57
(g58
g59
NtRp3570
(dp3571
g62
(dp3572
g70
I3
ssg71
g3566
sg64
(lp3573
S''
asbasbasbag57
(g73
g59
NtRp3574
(dp3575
g62
(dp3576
sg71
g3266
sg64
(lp3577
g57
(g78
g59
NtRp3578
(dp3579
g62
(dp3580
g82
g83
ssg71
g3574
sg64
(lp3581
S'reset_password_key'
p3582
asbag57
(g78
g59
NtRp3583
(dp3584
g62
(dp3585
g89
g90
ssg71
g3574
sg64
(lp3586
S':'
asbag57
(g78
g59
NtRp3587
(dp3588
g62
(dp3589
sg71
g3574
sg64
(lp3590
g57
(g58
g59
NtRp3591
(dp3592
g62
(dp3593
g70
I3
ssg71
g3587
sg64
(lp3594
S''
asbasbasbag57
(g73
g59
NtRp3595
(dp3596
g62
(dp3597
sg71
g3266
sg64
(lp3598
g57
(g78
g59
NtRp3599
(dp3600
g62
(dp3601
g82
g83
ssg71
g3595
sg64
(lp3602
S'title'
p3603
asbag57
(g78
g59
NtRp3604
(dp3605
g62
(dp3606
g89
g90
ssg71
g3595
sg64
(lp3607
S':'
asbag57
(g78
g59
NtRp3608
(dp3609
g62
(dp3610
sg71
g3595
sg64
(lp3611
g57
(g58
g59
NtRp3612
(dp3613
g62
(dp3614
g70
I3
ssg71
g3608
sg64
(lp3615
S'0'
asbasbasbasbasbasbasbag57
(g73
g59
NtRp3616
(dp3617
g62
(dp3618
sg71
g3154
sg64
(lp3619
g57
(g78
g59
NtRp3620
(dp3621
g62
(dp3622
g82
g83
ssg71
g3616
sg64
(lp3623
S'user_groups'
p3624
asbag57
(g78
g59
NtRp3625
(dp3626
g62
(dp3627
g89
g90
ssg71
g3616
sg64
(lp3628
S':'
asbag57
(g78
g59
NtRp3629
(dp3630
g62
(dp3631
sg71
g3616
sg64
(lp3632
g57
(g58
g59
NtRp3633
(dp3634
g62
(dp3635
g70
I4
ssg71
g3629
sg64
(lp3636
g57
(g66
g59
NtRp3637
(dp3638
g62
(dp3639
g70
I3
ssg71
Nsg64
(lp3640
g57
(g73
g59
NtRp3641
(dp3642
g62
(dp3643
sg71
g3637
sg64
(lp3644
g57
(g78
g59
NtRp3645
(dp3646
g62
(dp3647
g82
g83
ssg71
g3641
sg64
(lp3648
S'1'
asbag57
(g78
g59
NtRp3649
(dp3650
g62
(dp3651
g89
g90
ssg71
g3641
sg64
(lp3652
S':'
asbag57
(g78
g59
NtRp3653
(dp3654
g62
(dp3655
sg71
g3641
sg64
(lp3656
g57
(g58
g59
NtRp3657
(dp3658
g62
(dp3659
g70
I3
ssg71
g3653
sg64
(lp3660
S'user_1'
p3661
asbasbasbasbasbasbasbasbasbasbasbag57
(g73
g59
NtRp3662
(dp3663
g62
(dp3664
sg71
g3129
sg64
(lp3665
g57
(g78
g59
NtRp3666
(dp3667
g62
(dp3668
g82
g83
ssg71
g3662
sg64
(lp3669
S'flash'
p3670
asbag57
(g78
g59
NtRp3671
(dp3672
g62
(dp3673
g89
g90
ssg71
g3662
sg64
(lp3674
S':'
asbag57
(g78
g59
NtRp3675
(dp3676
g62
(dp3677
sg71
g3662
sg64
(lp3678
g57
(g58
g59
NtRp3679
(dp3680
g62
(dp3681
g70
I5
ssg71
g3675
sg64
(lp3682
S'None'
p3683
asbasbasbasbasbsS'etype'
p3684
S"<type 'exceptions.TypeError'>"
p3685
sS'date'
p3686
S'Fri Mar  8 19:58:53 2013'
p3687
sS'response'
p3688
g57
(g58
g59
NtRp3689
(dp3690
g62
(dp3691
sg64
(lp3692
g57
(g66
g59
NtRp3693
(dp3694
g62
(dp3695
g70
I5
ssg71
Nsg64
(lp3696
g57
(g73
g59
NtRp3697
(dp3698
g62
(dp3699
sg71
g3693
sg64
(lp3700
g57
(g78
g59
NtRp3701
(dp3702
g62
(dp3703
g82
g83
ssg71
g3697
sg64
(lp3704
g167
asbag57
(g78
g59
NtRp3705
(dp3706
g62
(dp3707
g89
g90
ssg71
g3697
sg64
(lp3708
S':'
asbag57
(g78
g59
NtRp3709
(dp3710
g62
(dp3711
sg71
g3697
sg64
(lp3712
g57
(g58
g59
NtRp3713
(dp3714
g62
(dp3715
g70
I5
ssg71
g3709
sg64
(lp3716
S'<cStringIO.StringO object at 0xaffa95e0>'
p3717
asbasbasbag57
(g73
g59
NtRp3718
(dp3719
g62
(dp3720
sg71
g3693
sg64
(lp3721
g57
(g78
g59
NtRp3722
(dp3723
g62
(dp3724
g82
g83
ssg71
g3718
sg64
(lp3725
g255
asbag57
(g78
g59
NtRp3726
(dp3727
g62
(dp3728
g89
g90
ssg71
g3718
sg64
(lp3729
S':'
asbag57
(g78
g59
NtRp3730
(dp3731
g62
(dp3732
sg71
g3718
sg64
(lp3733
g57
(g58
g59
NtRp3734
(dp3735
g62
(dp3736
g70
I5
ssg71
g3730
sg64
(lp3737
g57
(g66
g59
NtRp3738
(dp3739
g62
(dp3740
g70
I4
ssg71
Nsg64
(lp3741
g57
(g73
g59
NtRp3742
(dp3743
g62
(dp3744
sg71
g3738
sg64
(lp3745
g57
(g78
g59
NtRp3746
(dp3747
g62
(dp3748
g82
g83
ssg71
g3742
sg64
(lp3749
S'session_id_dev_bootstrap_ch'
p3750
asbag57
(g78
g59
NtRp3751
(dp3752
g62
(dp3753
g89
g90
ssg71
g3742
sg64
(lp3754
S':'
asbag57
(g78
g59
NtRp3755
(dp3756
g62
(dp3757
sg71
g3742
sg64
(lp3758
g57
(g58
g59
NtRp3759
(dp3760
g62
(dp3761
g70
I4
ssg71
g3755
sg64
(lp3762
g487
ag57
(g66
g59
NtRp3763
(dp3764
g62
(dp3765
g70
I3
ssg71
Nsg64
(lp3766
g57
(g73
g59
NtRp3767
(dp3768
g62
(dp3769
sg71
g3763
sg64
(lp3770
g57
(g78
g59
NtRp3771
(dp3772
g62
(dp3773
g82
g83
ssg71
g3767
sg64
(lp3774
g306
asbag57
(g78
g59
NtRp3775
(dp3776
g62
(dp3777
g89
g90
ssg71
g3767
sg64
(lp3778
S':'
asbag57
(g78
g59
NtRp3779
(dp3780
g62
(dp3781
sg71
g3767
sg64
(lp3782
g57
(g58
g59
NtRp3783
(dp3784
g62
(dp3785
g70
I3
ssg71
g3779
sg64
(lp3786
S''
asbasbasbag57
(g73
g59
NtRp3787
(dp3788
g62
(dp3789
sg71
g3763
sg64
(lp3790
g57
(g78
g59
NtRp3791
(dp3792
g62
(dp3793
g82
g83
ssg71
g3787
sg64
(lp3794
g327
asbag57
(g78
g59
NtRp3795
(dp3796
g62
(dp3797
g89
g90
ssg71
g3787
sg64
(lp3798
S':'
asbag57
(g78
g59
NtRp3799
(dp3800
g62
(dp3801
sg71
g3787
sg64
(lp3802
g57
(g58
g59
NtRp3803
(dp3804
g62
(dp3805
g70
I3
ssg71
g3799
sg64
(lp3806
S''
asbasbasbag57
(g73
g59
NtRp3807
(dp3808
g62
(dp3809
sg71
g3763
sg64
(lp3810
g57
(g78
g59
NtRp3811
(dp3812
g62
(dp3813
g82
g83
ssg71
g3807
sg64
(lp3814
g348
asbag57
(g78
g59
NtRp3815
(dp3816
g62
(dp3817
g89
g90
ssg71
g3807
sg64
(lp3818
S':'
asbag57
(g78
g59
NtRp3819
(dp3820
g62
(dp3821
sg71
g3807
sg64
(lp3822
g57
(g58
g59
NtRp3823
(dp3824
g62
(dp3825
g70
I3
ssg71
g3819
sg64
(lp3826
S''
asbasbasbag57
(g73
g59
NtRp3827
(dp3828
g62
(dp3829
sg71
g3763
sg64
(lp3830
g57
(g78
g59
NtRp3831
(dp3832
g62
(dp3833
g82
g83
ssg71
g3827
sg64
(lp3834
g369
asbag57
(g78
g59
NtRp3835
(dp3836
g62
(dp3837
g89
g90
ssg71
g3827
sg64
(lp3838
S':'
asbag57
(g78
g59
NtRp3839
(dp3840
g62
(dp3841
sg71
g3827
sg64
(lp3842
g57
(g58
g59
NtRp3843
(dp3844
g62
(dp3845
g70
I3
ssg71
g3839
sg64
(lp3846
S''
asbasbasbag57
(g73
g59
NtRp3847
(dp3848
g62
(dp3849
sg71
g3763
sg64
(lp3850
g57
(g78
g59
NtRp3851
(dp3852
g62
(dp3853
g82
g83
ssg71
g3847
sg64
(lp3854
g390
asbag57
(g78
g59
NtRp3855
(dp3856
g62
(dp3857
g89
g90
ssg71
g3847
sg64
(lp3858
S':'
asbag57
(g78
g59
NtRp3859
(dp3860
g62
(dp3861
sg71
g3847
sg64
(lp3862
g57
(g58
g59
NtRp3863
(dp3864
g62
(dp3865
g70
I3
ssg71
g3859
sg64
(lp3866
S''
asbasbasbag57
(g73
g59
NtRp3867
(dp3868
g62
(dp3869
sg71
g3763
sg64
(lp3870
g57
(g78
g59
NtRp3871
(dp3872
g62
(dp3873
g82
g83
ssg71
g3867
sg64
(lp3874
g411
asbag57
(g78
g59
NtRp3875
(dp3876
g62
(dp3877
g89
g90
ssg71
g3867
sg64
(lp3878
S':'
asbag57
(g78
g59
NtRp3879
(dp3880
g62
(dp3881
sg71
g3867
sg64
(lp3882
g57
(g58
g59
NtRp3883
(dp3884
g62
(dp3885
g70
I3
ssg71
g3879
sg64
(lp3886
S'/'
asbasbasbag57
(g73
g59
NtRp3887
(dp3888
g62
(dp3889
sg71
g3763
sg64
(lp3890
g57
(g78
g59
NtRp3891
(dp3892
g62
(dp3893
g82
g83
ssg71
g3887
sg64
(lp3894
g432
asbag57
(g78
g59
NtRp3895
(dp3896
g62
(dp3897
g89
g90
ssg71
g3887
sg64
(lp3898
S':'
asbag57
(g78
g59
NtRp3899
(dp3900
g62
(dp3901
sg71
g3887
sg64
(lp3902
g57
(g58
g59
NtRp3903
(dp3904
g62
(dp3905
g70
I3
ssg71
g3899
sg64
(lp3906
S''
asbasbasbag57
(g73
g59
NtRp3907
(dp3908
g62
(dp3909
sg71
g3763
sg64
(lp3910
g57
(g78
g59
NtRp3911
(dp3912
g62
(dp3913
g82
g83
ssg71
g3907
sg64
(lp3914
g453
asbag57
(g78
g59
NtRp3915
(dp3916
g62
(dp3917
g89
g90
ssg71
g3907
sg64
(lp3918
S':'
asbag57
(g78
g59
NtRp3919
(dp3920
g62
(dp3921
sg71
g3907
sg64
(lp3922
g57
(g58
g59
NtRp3923
(dp3924
g62
(dp3925
g70
I3
ssg71
g3919
sg64
(lp3926
S''
asbasbasbasbasbasbasbasbasbasbasbag57
(g73
g59
NtRp3927
(dp3928
g62
(dp3929
sg71
g3693
sg64
(lp3930
g57
(g78
g59
NtRp3931
(dp3932
g62
(dp3933
g82
g83
ssg71
g3927
sg64
(lp3934
S'delimiters'
p3935
asbag57
(g78
g59
NtRp3936
(dp3937
g62
(dp3938
g89
g90
ssg71
g3927
sg64
(lp3939
S':'
asbag57
(g78
g59
NtRp3940
(dp3941
g62
(dp3942
sg71
g3927
sg64
(lp3943
g57
(g58
g59
NtRp3944
(dp3945
g62
(dp3946
g70
I5
ssg71
g3940
sg64
(lp3947
g57
(g66
g59
NtRp3948
(dp3949
g62
(dp3950
g70
I4
ssg71
Nsg64
(lp3951
g57
(g73
g59
NtRp3952
(dp3953
g62
(dp3954
sg71
g3948
sg64
(lp3955
g57
(g78
g59
NtRp3956
(dp3957
g62
(dp3958
sg71
g3952
sg64
(lp3959
g57
(g58
g59
NtRp3960
(dp3961
g62
(dp3962
g70
I4
ssg71
g3956
sg64
(lp3963
S'{{'
p3964
asbasbasbag57
(g73
g59
NtRp3965
(dp3966
g62
(dp3967
sg71
g3948
sg64
(lp3968
g57
(g78
g59
NtRp3969
(dp3970
g62
(dp3971
sg71
g3965
sg64
(lp3972
g57
(g58
g59
NtRp3973
(dp3974
g62
(dp3975
g70
I4
ssg71
g3969
sg64
(lp3976
S'}}'
p3977
asbasbasbasbasbasbasbag57
(g73
g59
NtRp3978
(dp3979
g62
(dp3980
sg71
g3693
sg64
(lp3981
g57
(g78
g59
NtRp3982
(dp3983
g62
(dp3984
g82
g83
ssg71
g3978
sg64
(lp3985
S'files'
p3986
asbag57
(g78
g59
NtRp3987
(dp3988
g62
(dp3989
g89
g90
ssg71
g3978
sg64
(lp3990
S':'
asbag57
(g78
g59
NtRp3991
(dp3992
g62
(dp3993
sg71
g3978
sg64
(lp3994
g57
(g58
g59
NtRp3995
(dp3996
g62
(dp3997
g70
I5
ssg71
g3991
sg64
(lp3998
g57
(g66
g59
NtRp3999
(dp4000
g62
(dp4001
g70
I4
ssg71
Nsg64
(lp4002
g57
(g73
g59
NtRp4003
(dp4004
g62
(dp4005
sg71
g3999
sg64
(lp4006
g57
(g78
g59
NtRp4007
(dp4008
g62
(dp4009
sg71
g4003
sg64
(lp4010
g57
(g58
g59
NtRp4011
(dp4012
g62
(dp4013
g70
I4
ssg71
g4007
sg64
(lp4014
S'/DEV_bootstrap_ch/static/js/jquery.js'
p4015
asbasbasbag57
(g73
g59
NtRp4016
(dp4017
g62
(dp4018
sg71
g3999
sg64
(lp4019
g57
(g78
g59
NtRp4020
(dp4021
g62
(dp4022
sg71
g4016
sg64
(lp4023
g57
(g58
g59
NtRp4024
(dp4025
g62
(dp4026
g70
I4
ssg71
g4020
sg64
(lp4027
S'/DEV_bootstrap_ch/static/css/calendar.css'
p4028
asbasbasbag57
(g73
g59
NtRp4029
(dp4030
g62
(dp4031
sg71
g3999
sg64
(lp4032
g57
(g78
g59
NtRp4033
(dp4034
g62
(dp4035
sg71
g4029
sg64
(lp4036
g57
(g58
g59
NtRp4037
(dp4038
g62
(dp4039
g70
I4
ssg71
g4033
sg64
(lp4040
S'/DEV_bootstrap_ch/static/js/calendar.js'
p4041
asbasbasbag57
(g73
g59
NtRp4042
(dp4043
g62
(dp4044
sg71
g3999
sg64
(lp4045
g57
(g78
g59
NtRp4046
(dp4047
g62
(dp4048
sg71
g4042
sg64
(lp4049
g57
(g58
g59
NtRp4050
(dp4051
g62
(dp4052
g70
I4
ssg71
g4046
sg64
(lp4053
S'/DEV_bootstrap_ch/static/js/web2py.js'
p4054
asbasbasbag57
(g73
g59
NtRp4055
(dp4056
g62
(dp4057
sg71
g3999
sg64
(lp4058
g57
(g78
g59
NtRp4059
(dp4060
g62
(dp4061
sg71
g4055
sg64
(lp4062
g57
(g58
g59
NtRp4063
(dp4064
g62
(dp4065
g70
I4
ssg71
g4059
sg64
(lp4066
S'/DEV_bootstrap_ch/static/plugin_wiki/ui/css/redmond/jquery-ui-1.8.5.custom.css'
p4067
asbasbasbag57
(g73
g59
NtRp4068
(dp4069
g62
(dp4070
sg71
g3999
sg64
(lp4071
g57
(g78
g59
NtRp4072
(dp4073
g62
(dp4074
sg71
g4068
sg64
(lp4075
g57
(g58
g59
NtRp4076
(dp4077
g62
(dp4078
g70
I4
ssg71
g4072
sg64
(lp4079
S'/DEV_bootstrap_ch/static/plugin_wiki/ui/js/jquery-ui-1.8.5.custom.min.js'
p4080
asbasbasbag57
(g73
g59
NtRp4081
(dp4082
g62
(dp4083
sg71
g3999
sg64
(lp4084
g57
(g78
g59
NtRp4085
(dp4086
g62
(dp4087
sg71
g4081
sg64
(lp4088
g57
(g58
g59
NtRp4089
(dp4090
g62
(dp4091
g70
I4
ssg71
g4085
sg64
(lp4092
S'/DEV_bootstrap_ch/static/plugin_wiki/jqgrid/ui.jqgrid.css'
p4093
asbasbasbag57
(g73
g59
NtRp4094
(dp4095
g62
(dp4096
sg71
g3999
sg64
(lp4097
g57
(g78
g59
NtRp4098
(dp4099
g62
(dp4100
sg71
g4094
sg64
(lp4101
g57
(g58
g59
NtRp4102
(dp4103
g62
(dp4104
g70
I4
ssg71
g4098
sg64
(lp4105
S'/DEV_bootstrap_ch/static/plugin_wiki/jqgrid/i18n/grid.locale-en.js'
p4106
asbasbasbag57
(g73
g59
NtRp4107
(dp4108
g62
(dp4109
sg71
g3999
sg64
(lp4110
g57
(g78
g59
NtRp4111
(dp4112
g62
(dp4113
sg71
g4107
sg64
(lp4114
g57
(g58
g59
NtRp4115
(dp4116
g62
(dp4117
g70
I4
ssg71
g4111
sg64
(lp4118
S'/DEV_bootstrap_ch/static/plugin_wiki/jqgrid/jquery.jqGrid.min.js'
p4119
asbasbasbag57
(g73
g59
NtRp4120
(dp4121
g62
(dp4122
sg71
g3999
sg64
(lp4123
g57
(g78
g59
NtRp4124
(dp4125
g62
(dp4126
sg71
g4120
sg64
(lp4127
g57
(g58
g59
NtRp4128
(dp4129
g62
(dp4130
g70
I4
ssg71
g4124
sg64
(lp4131
S'/DEV_bootstrap_ch/static/plugin_wiki/slideshow/jquery.cycle.min.js'
p4132
asbasbasbag57
(g73
g59
NtRp4133
(dp4134
g62
(dp4135
sg71
g3999
sg64
(lp4136
g57
(g78
g59
NtRp4137
(dp4138
g62
(dp4139
sg71
g4133
sg64
(lp4140
g57
(g58
g59
NtRp4141
(dp4142
g62
(dp4143
g70
I4
ssg71
g4137
sg64
(lp4144
S'/DEV_bootstrap_ch/static/plugin_wiki/multiselect/jquery.multiselect.css'
p4145
asbasbasbag57
(g73
g59
NtRp4146
(dp4147
g62
(dp4148
sg71
g3999
sg64
(lp4149
g57
(g78
g59
NtRp4150
(dp4151
g62
(dp4152
sg71
g4146
sg64
(lp4153
g57
(g58
g59
NtRp4154
(dp4155
g62
(dp4156
g70
I4
ssg71
g4150
sg64
(lp4157
S'/DEV_bootstrap_ch/static/plugin_wiki/multiselect/jquery.multiselect.js'
p4158
asbasbasbag57
(g73
g59
NtRp4159
(dp4160
g62
(dp4161
sg71
g3999
sg64
(lp4162
g57
(g78
g59
NtRp4163
(dp4164
g62
(dp4165
sg71
g4159
sg64
(lp4166
g57
(g58
g59
NtRp4167
(dp4168
g62
(dp4169
g70
I4
ssg71
g4163
sg64
(lp4170
S'/DEV_bootstrap_ch/static/plugin_wiki/rating/jquery.rating.css'
p4171
asbasbasbag57
(g73
g59
NtRp4172
(dp4173
g62
(dp4174
sg71
g3999
sg64
(lp4175
g57
(g78
g59
NtRp4176
(dp4177
g62
(dp4178
sg71
g4172
sg64
(lp4179
g57
(g58
g59
NtRp4180
(dp4181
g62
(dp4182
g70
I4
ssg71
g4176
sg64
(lp4183
S'/DEV_bootstrap_ch/static/plugin_wiki/rating/jquery.rating.js'
p4184
asbasbasbag57
(g73
g59
NtRp4185
(dp4186
g62
(dp4187
sg71
g3999
sg64
(lp4188
g57
(g78
g59
NtRp4189
(dp4190
g62
(dp4191
sg71
g4185
sg64
(lp4192
g57
(g58
g59
NtRp4193
(dp4194
g62
(dp4195
g70
I4
ssg71
g4189
sg64
(lp4196
S'/DEV_bootstrap_ch/static/css/base.css'
p4197
asbasbasbag57
(g73
g59
NtRp4198
(dp4199
g62
(dp4200
sg71
g3999
sg64
(lp4201
g57
(g78
g59
NtRp4202
(dp4203
g62
(dp4204
sg71
g4198
sg64
(lp4205
g57
(g58
g59
NtRp4206
(dp4207
g62
(dp4208
g70
I4
ssg71
g4202
sg64
(lp4209
S'/DEV_bootstrap_ch/static/css/superfish.css'
p4210
asbasbasbag57
(g73
g59
NtRp4211
(dp4212
g62
(dp4213
sg71
g3999
sg64
(lp4214
g57
(g78
g59
NtRp4215
(dp4216
g62
(dp4217
sg71
g4211
sg64
(lp4218
g57
(g58
g59
NtRp4219
(dp4220
g62
(dp4221
g70
I4
ssg71
g4215
sg64
(lp4222
S'/DEV_bootstrap_ch/static/js/superfish.js'
p4223
asbasbasbasbasbasbasbag57
(g73
g59
NtRp4224
(dp4225
g62
(dp4226
sg71
g3693
sg64
(lp4227
g57
(g78
g59
NtRp4228
(dp4229
g62
(dp4230
g82
g83
ssg71
g4224
sg64
(lp4231
S'flash'
p4232
asbag57
(g78
g59
NtRp4233
(dp4234
g62
(dp4235
g89
g90
ssg71
g4224
sg64
(lp4236
S':'
asbag57
(g78
g59
NtRp4237
(dp4238
g62
(dp4239
sg71
g4224
sg64
(lp4240
g57
(g58
g59
NtRp4241
(dp4242
g62
(dp4243
g70
I5
ssg71
g4237
sg64
(lp4244
S''
asbasbasbag57
(g73
g59
NtRp4245
(dp4246
g62
(dp4247
sg71
g3693
sg64
(lp4248
g57
(g78
g59
NtRp4249
(dp4250
g62
(dp4251
g82
g83
ssg71
g4245
sg64
(lp4252
S'generic_patterns'
p4253
asbag57
(g78
g59
NtRp4254
(dp4255
g62
(dp4256
g89
g90
ssg71
g4245
sg64
(lp4257
S':'
asbag57
(g78
g59
NtRp4258
(dp4259
g62
(dp4260
sg71
g4245
sg64
(lp4261
g57
(g58
g59
NtRp4262
(dp4263
g62
(dp4264
g70
I5
ssg71
g4258
sg64
(lp4265
g57
(g66
g59
NtRp4266
(dp4267
g62
(dp4268
g70
I4
ssg71
Nsg64
(lp4269
g57
(g73
g59
NtRp4270
(dp4271
g62
(dp4272
sg71
g4266
sg64
(lp4273
g57
(g78
g59
NtRp4274
(dp4275
g62
(dp4276
sg71
g4270
sg64
(lp4277
g57
(g58
g59
NtRp4278
(dp4279
g62
(dp4280
g70
I4
ssg71
g4274
sg64
(lp4281
S'*'
asbasbasbasbasbasbasbag57
(g73
g59
NtRp4282
(dp4283
g62
(dp4284
sg71
g3693
sg64
(lp4285
g57
(g78
g59
NtRp4286
(dp4287
g62
(dp4288
g82
g83
ssg71
g4282
sg64
(lp4289
S'google_analytics_id'
p4290
asbag57
(g78
g59
NtRp4291
(dp4292
g62
(dp4293
g89
g90
ssg71
g4282
sg64
(lp4294
S':'
asbag57
(g78
g59
NtRp4295
(dp4296
g62
(dp4297
sg71
g4282
sg64
(lp4298
g57
(g58
g59
NtRp4299
(dp4300
g62
(dp4301
g70
I5
ssg71
g4295
sg64
(lp4302
S'None'
p4303
asbasbasbag57
(g73
g59
NtRp4304
(dp4305
g62
(dp4306
sg71
g3693
sg64
(lp4307
g57
(g78
g59
NtRp4308
(dp4309
g62
(dp4310
g82
g83
ssg71
g4304
sg64
(lp4311
S'headers'
p4312
asbag57
(g78
g59
NtRp4313
(dp4314
g62
(dp4315
g89
g90
ssg71
g4304
sg64
(lp4316
S':'
asbag57
(g78
g59
NtRp4317
(dp4318
g62
(dp4319
sg71
g4304
sg64
(lp4320
g57
(g58
g59
NtRp4321
(dp4322
g62
(dp4323
g70
I5
ssg71
g4317
sg64
(lp4324
g57
(g66
g59
NtRp4325
(dp4326
g62
(dp4327
g70
I4
ssg71
Nsg64
(lp4328
g57
(g73
g59
NtRp4329
(dp4330
g62
(dp4331
sg71
g4325
sg64
(lp4332
g57
(g78
g59
NtRp4333
(dp4334
g62
(dp4335
g82
g83
ssg71
g4329
sg64
(lp4336
S'X-Powered-By'
p4337
asbag57
(g78
g59
NtRp4338
(dp4339
g62
(dp4340
g89
g90
ssg71
g4329
sg64
(lp4341
S':'
asbag57
(g78
g59
NtRp4342
(dp4343
g62
(dp4344
sg71
g4329
sg64
(lp4345
g57
(g58
g59
NtRp4346
(dp4347
g62
(dp4348
g70
I4
ssg71
g4342
sg64
(lp4349
S'web2py'
p4350
asbasbasbasbasbasbasbag57
(g73
g59
NtRp4351
(dp4352
g62
(dp4353
sg71
g3693
sg64
(lp4354
g57
(g78
g59
NtRp4355
(dp4356
g62
(dp4357
g82
g83
ssg71
g4351
sg64
(lp4358
S'menu'
p4359
asbag57
(g78
g59
NtRp4360
(dp4361
g62
(dp4362
g89
g90
ssg71
g4351
sg64
(lp4363
S':'
asbag57
(g78
g59
NtRp4364
(dp4365
g62
(dp4366
sg71
g4351
sg64
(lp4367
g57
(g58
g59
NtRp4368
(dp4369
g62
(dp4370
g70
I5
ssg71
g4364
sg64
(lp4371
g57
(g66
g59
NtRp4372
(dp4373
g62
(dp4374
g70
I4
ssg71
Nsg64
(lp4375
g57
(g73
g59
NtRp4376
(dp4377
g62
(dp4378
sg71
g4372
sg64
(lp4379
g57
(g78
g59
NtRp4380
(dp4381
g62
(dp4382
sg71
g4376
sg64
(lp4383
g57
(g58
g59
NtRp4384
(dp4385
g62
(dp4386
g70
I4
ssg71
g4380
sg64
(lp4387
g57
(g66
g59
NtRp4388
(dp4389
g62
(dp4390
g70
I3
ssg71
Nsg64
(lp4391
g57
(g73
g59
NtRp4392
(dp4393
g62
(dp4394
sg71
g4388
sg64
(lp4395
g57
(g78
g59
NtRp4396
(dp4397
g62
(dp4398
sg71
g4392
sg64
(lp4399
g57
(g58
g59
NtRp4400
(dp4401
g62
(dp4402
g70
I3
ssg71
g4396
sg64
(lp4403
cgluon.languages
lazyT_unpickle
p4404
(S't\x04\x00\x00\x00Home'
tRp4405
asbasbasbag57
(g73
g59
NtRp4406
(dp4407
g62
(dp4408
sg71
g4388
sg64
(lp4409
g57
(g78
g59
NtRp4410
(dp4411
g62
(dp4412
sg71
g4406
sg64
(lp4413
g57
(g58
g59
NtRp4414
(dp4415
g62
(dp4416
g70
I3
ssg71
g4410
sg64
(lp4417
g100
asbasbasbag57
(g73
g59
NtRp4418
(dp4419
g62
(dp4420
sg71
g4388
sg64
(lp4421
g57
(g78
g59
NtRp4422
(dp4423
g62
(dp4424
sg71
g4418
sg64
(lp4425
g57
(g58
g59
NtRp4426
(dp4427
g62
(dp4428
g70
I3
ssg71
g4422
sg64
(lp4429
S'/DEV_bootstrap_ch/default/list_all_projects'
p4430
asbasbasbag57
(g73
g59
NtRp4431
(dp4432
g62
(dp4433
sg71
g4388
sg64
(lp4434
g57
(g78
g59
NtRp4435
(dp4436
g62
(dp4437
sg71
g4431
sg64
(lp4438
g57
(g58
g59
NtRp4439
(dp4440
g62
(dp4441
g70
I3
ssg71
g4435
sg64
(lp4442
g57
(g66
g59
NtRp4443
(dp4444
g62
(dp4445
g70
I2
ssg71
Nsg64
(lp4446
sbasbasbasbasbasbasbasbag57
(g73
g59
NtRp4447
(dp4448
g62
(dp4449
sg71
g4372
sg64
(lp4450
g57
(g78
g59
NtRp4451
(dp4452
g62
(dp4453
sg71
g4447
sg64
(lp4454
g57
(g58
g59
NtRp4455
(dp4456
g62
(dp4457
g70
I4
ssg71
g4451
sg64
(lp4458
g57
(g66
g59
NtRp4459
(dp4460
g62
(dp4461
g70
I3
ssg71
Nsg64
(lp4462
g57
(g73
g59
NtRp4463
(dp4464
g62
(dp4465
sg71
g4459
sg64
(lp4466
g57
(g78
g59
NtRp4467
(dp4468
g62
(dp4469
sg71
g4463
sg64
(lp4470
g57
(g58
g59
NtRp4471
(dp4472
g62
(dp4473
g70
I3
ssg71
g4467
sg64
(lp4474
g4404
(S't\x07\x00\x00\x00Project'
tRp4475
asbasbasbag57
(g73
g59
NtRp4476
(dp4477
g62
(dp4478
sg71
g4459
sg64
(lp4479
g57
(g78
g59
NtRp4480
(dp4481
g62
(dp4482
sg71
g4476
sg64
(lp4483
g57
(g58
g59
NtRp4484
(dp4485
g62
(dp4486
g70
I3
ssg71
g4480
sg64
(lp4487
g100
asbasbasbag57
(g73
g59
NtRp4488
(dp4489
g62
(dp4490
sg71
g4459
sg64
(lp4491
g57
(g78
g59
NtRp4492
(dp4493
g62
(dp4494
sg71
g4488
sg64
(lp4495
g57
(g58
g59
NtRp4496
(dp4497
g62
(dp4498
g70
I3
ssg71
g4492
sg64
(lp4499
S'/DEV_bootstrap_ch/default/project_viewer/1'
p4500
asbasbasbag57
(g73
g59
NtRp4501
(dp4502
g62
(dp4503
sg71
g4459
sg64
(lp4504
g57
(g78
g59
NtRp4505
(dp4506
g62
(dp4507
sg71
g4501
sg64
(lp4508
g57
(g58
g59
NtRp4509
(dp4510
g62
(dp4511
g70
I3
ssg71
g4505
sg64
(lp4512
g57
(g66
g59
NtRp4513
(dp4514
g62
(dp4515
g70
I2
ssg71
Nsg64
(lp4516
g57
(g73
g59
NtRp4517
(dp4518
g62
(dp4519
sg71
g4513
sg64
(lp4520
g57
(g78
g59
NtRp4521
(dp4522
g62
(dp4523
sg71
g4517
sg64
(lp4524
g57
(g58
g59
NtRp4525
(dp4526
g62
(dp4527
g70
I2
ssg71
g4521
sg64
(lp4528
g57
(g66
g59
NtRp4529
(dp4530
g62
(dp4531
g70
I1
ssg71
Nsg64
(lp4532
g57
(g73
g59
NtRp4533
(dp4534
g62
(dp4535
sg71
g4529
sg64
(lp4536
g57
(g78
g59
NtRp4537
(dp4538
g62
(dp4539
sg71
g4533
sg64
(lp4540
g57
(g58
g59
NtRp4541
(dp4542
g62
(dp4543
g70
I1
ssg71
g4537
sg64
(lp4544
g4404
(S's\n\x00\x00\x00Grant Role'
tRp4545
asbasbasbag57
(g73
g59
NtRp4546
(dp4547
g62
(dp4548
sg71
g4529
sg64
(lp4549
g57
(g78
g59
NtRp4550
(dp4551
g62
(dp4552
sg71
g4546
sg64
(lp4553
g57
(g58
g59
NtRp4554
(dp4555
g62
(dp4556
g70
I1
ssg71
g4550
sg64
(lp4557
I00
asbasbasbag57
(g73
g59
NtRp4558
(dp4559
g62
(dp4560
sg71
g4529
sg64
(lp4561
g57
(g78
g59
NtRp4562
(dp4563
g62
(dp4564
sg71
g4558
sg64
(lp4565
g57
(g58
g59
NtRp4566
(dp4567
g62
(dp4568
g70
I1
ssg71
g4562
sg64
(lp4569
S'/DEV_bootstrap_ch/default/roles/1'
p4570
asbasbasbasbasbasbasbag57
(g73
g59
NtRp4571
(dp4572
g62
(dp4573
sg71
g4513
sg64
(lp4574
g57
(g78
g59
NtRp4575
(dp4576
g62
(dp4577
sg71
g4571
sg64
(lp4578
g57
(g58
g59
NtRp4579
(dp4580
g62
(dp4581
g70
I2
ssg71
g4575
sg64
(lp4582
g57
(g66
g59
NtRp4583
(dp4584
g62
(dp4585
g70
I1
ssg71
Nsg64
(lp4586
g57
(g73
g59
NtRp4587
(dp4588
g62
(dp4589
sg71
g4583
sg64
(lp4590
g57
(g78
g59
NtRp4591
(dp4592
g62
(dp4593
sg71
g4587
sg64
(lp4594
g57
(g58
g59
NtRp4595
(dp4596
g62
(dp4597
g70
I1
ssg71
g4591
sg64
(lp4598
g4404
(S's\x0c\x00\x00\x00Edit Project'
tRp4599
asbasbasbag57
(g73
g59
NtRp4600
(dp4601
g62
(dp4602
sg71
g4583
sg64
(lp4603
g57
(g78
g59
NtRp4604
(dp4605
g62
(dp4606
sg71
g4600
sg64
(lp4607
g57
(g58
g59
NtRp4608
(dp4609
g62
(dp4610
g70
I1
ssg71
g4604
sg64
(lp4611
I00
asbasbasbag57
(g73
g59
NtRp4612
(dp4613
g62
(dp4614
sg71
g4583
sg64
(lp4615
g57
(g78
g59
NtRp4616
(dp4617
g62
(dp4618
sg71
g4612
sg64
(lp4619
g57
(g58
g59
NtRp4620
(dp4621
g62
(dp4622
g70
I1
ssg71
g4616
sg64
(lp4623
S'/DEV_bootstrap_ch/default/edit_project/1'
p4624
asbasbasbasbasbasbasbag57
(g73
g59
NtRp4625
(dp4626
g62
(dp4627
sg71
g4513
sg64
(lp4628
g57
(g78
g59
NtRp4629
(dp4630
g62
(dp4631
sg71
g4625
sg64
(lp4632
g57
(g58
g59
NtRp4633
(dp4634
g62
(dp4635
g70
I2
ssg71
g4629
sg64
(lp4636
g57
(g66
g59
NtRp4637
(dp4638
g62
(dp4639
g70
I1
ssg71
Nsg64
(lp4640
g57
(g73
g59
NtRp4641
(dp4642
g62
(dp4643
sg71
g4637
sg64
(lp4644
g57
(g78
g59
NtRp4645
(dp4646
g62
(dp4647
sg71
g4641
sg64
(lp4648
g57
(g58
g59
NtRp4649
(dp4650
g62
(dp4651
g70
I1
ssg71
g4645
sg64
(lp4652
g4404
(S't\x06\x00\x00\x00SignUP'
tRp4653
asbasbasbag57
(g73
g59
NtRp4654
(dp4655
g62
(dp4656
sg71
g4637
sg64
(lp4657
g57
(g78
g59
NtRp4658
(dp4659
g62
(dp4660
sg71
g4654
sg64
(lp4661
g57
(g58
g59
NtRp4662
(dp4663
g62
(dp4664
g70
I1
ssg71
g4658
sg64
(lp4665
I00
asbasbasbag57
(g73
g59
NtRp4666
(dp4667
g62
(dp4668
sg71
g4637
sg64
(lp4669
g57
(g78
g59
NtRp4670
(dp4671
g62
(dp4672
sg71
g4666
sg64
(lp4673
g57
(g58
g59
NtRp4674
(dp4675
g62
(dp4676
g70
I1
ssg71
g4670
sg64
(lp4677
S'/DEV_bootstrap_ch/default/reg_project/1'
p4678
asbasbasbasbasbasbasbasbasbasbasbasbasbasbasbasbasbasbasbag57
(g73
g59
NtRp4679
(dp4680
g62
(dp4681
sg71
g3693
sg64
(lp4682
g57
(g78
g59
NtRp4683
(dp4684
g62
(dp4685
g82
g83
ssg71
g4679
sg64
(lp4686
S'meta'
p4687
asbag57
(g78
g59
NtRp4688
(dp4689
g62
(dp4690
g89
g90
ssg71
g4679
sg64
(lp4691
S':'
asbag57
(g78
g59
NtRp4692
(dp4693
g62
(dp4694
sg71
g4679
sg64
(lp4695
g57
(g58
g59
NtRp4696
(dp4697
g62
(dp4698
g70
I5
ssg71
g4692
sg64
(lp4699
g57
(g66
g59
NtRp4700
(dp4701
g62
(dp4702
g70
I4
ssg71
Nsg64
(lp4703
g57
(g73
g59
NtRp4704
(dp4705
g62
(dp4706
sg71
g4700
sg64
(lp4707
g57
(g78
g59
NtRp4708
(dp4709
g62
(dp4710
g82
g83
ssg71
g4704
sg64
(lp4711
S'author'
p4712
asbag57
(g78
g59
NtRp4713
(dp4714
g62
(dp4715
g89
g90
ssg71
g4704
sg64
(lp4716
S':'
asbag57
(g78
g59
NtRp4717
(dp4718
g62
(dp4719
sg71
g4704
sg64
(lp4720
g57
(g58
g59
NtRp4721
(dp4722
g62
(dp4723
g70
I4
ssg71
g4717
sg64
(lp4724
S'Vikram Pudi <vikram@iiit.ac.in>'
p4725
asbasbasbag57
(g73
g59
NtRp4726
(dp4727
g62
(dp4728
sg71
g4700
sg64
(lp4729
g57
(g78
g59
NtRp4730
(dp4731
g62
(dp4732
g82
g83
ssg71
g4726
sg64
(lp4733
S'copyright'
p4734
asbag57
(g78
g59
NtRp4735
(dp4736
g62
(dp4737
g89
g90
ssg71
g4726
sg64
(lp4738
S':'
asbag57
(g78
g59
NtRp4739
(dp4740
g62
(dp4741
sg71
g4726
sg64
(lp4742
g57
(g58
g59
NtRp4743
(dp4744
g62
(dp4745
g70
I4
ssg71
g4739
sg64
(lp4746
S'Copyright 2011'
p4747
asbasbasbag57
(g73
g59
NtRp4748
(dp4749
g62
(dp4750
sg71
g4700
sg64
(lp4751
g57
(g78
g59
NtRp4752
(dp4753
g62
(dp4754
g82
g83
ssg71
g4748
sg64
(lp4755
S'description'
p4756
asbag57
(g78
g59
NtRp4757
(dp4758
g62
(dp4759
g89
g90
ssg71
g4748
sg64
(lp4760
S':'
asbag57
(g78
g59
NtRp4761
(dp4762
g62
(dp4763
sg71
g4748
sg64
(lp4764
g57
(g58
g59
NtRp4765
(dp4766
g62
(dp4767
g70
I4
ssg71
g4761
sg64
(lp4768
S'Computational Core for Plant Metabolomics -- A project sanctioned by DBT, Govt. of India'
p4769
asbasbasbag57
(g73
g59
NtRp4770
(dp4771
g62
(dp4772
sg71
g4700
sg64
(lp4773
g57
(g78
g59
NtRp4774
(dp4775
g62
(dp4776
g82
g83
ssg71
g4770
sg64
(lp4777
S'generator'
p4778
asbag57
(g78
g59
NtRp4779
(dp4780
g62
(dp4781
g89
g90
ssg71
g4770
sg64
(lp4782
S':'
asbag57
(g78
g59
NtRp4783
(dp4784
g62
(dp4785
sg71
g4770
sg64
(lp4786
g57
(g58
g59
NtRp4787
(dp4788
g62
(dp4789
g70
I4
ssg71
g4783
sg64
(lp4790
S'Web2py Web Framework'
p4791
asbasbasbag57
(g73
g59
NtRp4792
(dp4793
g62
(dp4794
sg71
g4700
sg64
(lp4795
g57
(g78
g59
NtRp4796
(dp4797
g62
(dp4798
g82
g83
ssg71
g4792
sg64
(lp4799
S'keywords'
p4800
asbag57
(g78
g59
NtRp4801
(dp4802
g62
(dp4803
g89
g90
ssg71
g4792
sg64
(lp4804
S':'
asbag57
(g78
g59
NtRp4805
(dp4806
g62
(dp4807
sg71
g4792
sg64
(lp4808
g57
(g58
g59
NtRp4809
(dp4810
g62
(dp4811
g70
I4
ssg71
g4805
sg64
(lp4812
S'web2py, python, metabolome, metabolomics'
p4813
asbasbasbasbasbasbasbag57
(g73
g59
NtRp4814
(dp4815
g62
(dp4816
sg71
g3693
sg64
(lp4817
g57
(g78
g59
NtRp4818
(dp4819
g62
(dp4820
g82
g83
ssg71
g4814
sg64
(lp4821
S'models_to_run'
p4822
asbag57
(g78
g59
NtRp4823
(dp4824
g62
(dp4825
g89
g90
ssg71
g4814
sg64
(lp4826
S':'
asbag57
(g78
g59
NtRp4827
(dp4828
g62
(dp4829
sg71
g4814
sg64
(lp4830
g57
(g58
g59
NtRp4831
(dp4832
g62
(dp4833
g70
I5
ssg71
g4827
sg64
(lp4834
g57
(g66
g59
NtRp4835
(dp4836
g62
(dp4837
g70
I4
ssg71
Nsg64
(lp4838
g57
(g73
g59
NtRp4839
(dp4840
g62
(dp4841
sg71
g4835
sg64
(lp4842
g57
(g78
g59
NtRp4843
(dp4844
g62
(dp4845
sg71
g4839
sg64
(lp4846
g57
(g58
g59
NtRp4847
(dp4848
g62
(dp4849
g70
I4
ssg71
g4843
sg64
(lp4850
S'^\\w+\\.py$'
p4851
asbasbasbag57
(g73
g59
NtRp4852
(dp4853
g62
(dp4854
sg71
g4835
sg64
(lp4855
g57
(g78
g59
NtRp4856
(dp4857
g62
(dp4858
sg71
g4852
sg64
(lp4859
g57
(g58
g59
NtRp4860
(dp4861
g62
(dp4862
g70
I4
ssg71
g4856
sg64
(lp4863
S'^default/\\w+\\.py$'
p4864
asbasbasbag57
(g73
g59
NtRp4865
(dp4866
g62
(dp4867
sg71
g4835
sg64
(lp4868
g57
(g78
g59
NtRp4869
(dp4870
g62
(dp4871
sg71
g4865
sg64
(lp4872
g57
(g58
g59
NtRp4873
(dp4874
g62
(dp4875
g70
I4
ssg71
g4869
sg64
(lp4876
S'^default/project_viewer/\\w+\\.py$'
p4877
asbasbasbasbasbasbasbag57
(g73
g59
NtRp4878
(dp4879
g62
(dp4880
sg71
g3693
sg64
(lp4881
g57
(g78
g59
NtRp4882
(dp4883
g62
(dp4884
g82
g83
ssg71
g4878
sg64
(lp4885
S'postprocessing'
p4886
asbag57
(g78
g59
NtRp4887
(dp4888
g62
(dp4889
g89
g90
ssg71
g4878
sg64
(lp4890
S':'
asbag57
(g78
g59
NtRp4891
(dp4892
g62
(dp4893
sg71
g4878
sg64
(lp4894
g57
(g58
g59
NtRp4895
(dp4896
g62
(dp4897
g70
I5
ssg71
g4891
sg64
(lp4898
g57
(g66
g59
NtRp4899
(dp4900
g62
(dp4901
g70
I4
ssg71
Nsg64
(lp4902
sbasbasbasbag57
(g73
g59
NtRp4903
(dp4904
g62
(dp4905
sg71
g3693
sg64
(lp4906
g57
(g78
g59
NtRp4907
(dp4908
g62
(dp4909
g82
g83
ssg71
g4903
sg64
(lp4910
S'session_cookie_expires'
p4911
asbag57
(g78
g59
NtRp4912
(dp4913
g62
(dp4914
g89
g90
ssg71
g4903
sg64
(lp4915
S':'
asbag57
(g78
g59
NtRp4916
(dp4917
g62
(dp4918
sg71
g4903
sg64
(lp4919
g57
(g58
g59
NtRp4920
(dp4921
g62
(dp4922
g70
I5
ssg71
g4916
sg64
(lp4923
S'None'
p4924
asbasbasbag57
(g73
g59
NtRp4925
(dp4926
g62
(dp4927
sg71
g3693
sg64
(lp4928
g57
(g78
g59
NtRp4929
(dp4930
g62
(dp4931
g82
g83
ssg71
g4925
sg64
(lp4932
S'session_data_name'
p4933
asbag57
(g78
g59
NtRp4934
(dp4935
g62
(dp4936
g89
g90
ssg71
g4925
sg64
(lp4937
S':'
asbag57
(g78
g59
NtRp4938
(dp4939
g62
(dp4940
sg71
g4925
sg64
(lp4941
g57
(g58
g59
NtRp4942
(dp4943
g62
(dp4944
g70
I5
ssg71
g4938
sg64
(lp4945
S'session_data_dev_bootstrap_ch'
p4946
asbasbasbag57
(g73
g59
NtRp4947
(dp4948
g62
(dp4949
sg71
g3693
sg64
(lp4950
g57
(g78
g59
NtRp4951
(dp4952
g62
(dp4953
g82
g83
ssg71
g4947
sg64
(lp4954
S'session_file'
p4955
asbag57
(g78
g59
NtRp4956
(dp4957
g62
(dp4958
g89
g90
ssg71
g4947
sg64
(lp4959
S':'
asbag57
(g78
g59
NtRp4960
(dp4961
g62
(dp4962
sg71
g4947
sg64
(lp4963
g57
(g58
g59
NtRp4964
(dp4965
g62
(dp4966
g70
I5
ssg71
g4960
sg64
(lp4967
S"<open file '/home/anil/Downloads/web2py/applications/DEV_bootstrap_ch/sessions/127.0.0.1-0786449f-0f57-4893-b642-5d65efb22480', mode 'rb+' at 0xb6433650>"
p4968
asbasbasbag57
(g73
g59
NtRp4969
(dp4970
g62
(dp4971
sg71
g3693
sg64
(lp4972
g57
(g78
g59
NtRp4973
(dp4974
g62
(dp4975
g82
g83
ssg71
g4969
sg64
(lp4976
S'session_filename'
p4977
asbag57
(g78
g59
NtRp4978
(dp4979
g62
(dp4980
g89
g90
ssg71
g4969
sg64
(lp4981
S':'
asbag57
(g78
g59
NtRp4982
(dp4983
g62
(dp4984
sg71
g4969
sg64
(lp4985
g57
(g58
g59
NtRp4986
(dp4987
g62
(dp4988
g70
I5
ssg71
g4982
sg64
(lp4989
S'/home/anil/Downloads/web2py/applications/DEV_bootstrap_ch/sessions/127.0.0.1-0786449f-0f57-4893-b642-5d65efb22480'
p4990
asbasbasbag57
(g73
g59
NtRp4991
(dp4992
g62
(dp4993
sg71
g3693
sg64
(lp4994
g57
(g78
g59
NtRp4995
(dp4996
g62
(dp4997
g82
g83
ssg71
g4991
sg64
(lp4998
S'session_id'
p4999
asbag57
(g78
g59
NtRp5000
(dp5001
g62
(dp5002
g89
g90
ssg71
g4991
sg64
(lp5003
S':'
asbag57
(g78
g59
NtRp5004
(dp5005
g62
(dp5006
sg71
g4991
sg64
(lp5007
g57
(g58
g59
NtRp5008
(dp5009
g62
(dp5010
g70
I5
ssg71
g5004
sg64
(lp5011
g487
asbasbasbag57
(g73
g59
NtRp5012
(dp5013
g62
(dp5014
sg71
g3693
sg64
(lp5015
g57
(g78
g59
NtRp5016
(dp5017
g62
(dp5018
g82
g83
ssg71
g5012
sg64
(lp5019
S'session_id_name'
p5020
asbag57
(g78
g59
NtRp5021
(dp5022
g62
(dp5023
g89
g90
ssg71
g5012
sg64
(lp5024
S':'
asbag57
(g78
g59
NtRp5025
(dp5026
g62
(dp5027
sg71
g5012
sg64
(lp5028
g57
(g58
g59
NtRp5029
(dp5030
g62
(dp5031
g70
I5
ssg71
g5025
sg64
(lp5032
g3750
asbasbasbag57
(g73
g59
NtRp5033
(dp5034
g62
(dp5035
sg71
g3693
sg64
(lp5036
g57
(g78
g59
NtRp5037
(dp5038
g62
(dp5039
g82
g83
ssg71
g5033
sg64
(lp5040
S'session_locked'
p5041
asbag57
(g78
g59
NtRp5042
(dp5043
g62
(dp5044
g89
g90
ssg71
g5033
sg64
(lp5045
S':'
asbag57
(g78
g59
NtRp5046
(dp5047
g62
(dp5048
sg71
g5033
sg64
(lp5049
g57
(g58
g59
NtRp5050
(dp5051
g62
(dp5052
g70
I5
ssg71
g5046
sg64
(lp5053
g1617
asbasbasbag57
(g73
g59
NtRp5054
(dp5055
g62
(dp5056
sg71
g3693
sg64
(lp5057
g57
(g78
g59
NtRp5058
(dp5059
g62
(dp5060
g82
g83
ssg71
g5054
sg64
(lp5061
S'session_new'
p5062
asbag57
(g78
g59
NtRp5063
(dp5064
g62
(dp5065
g89
g90
ssg71
g5054
sg64
(lp5066
S':'
asbag57
(g78
g59
NtRp5067
(dp5068
g62
(dp5069
sg71
g5054
sg64
(lp5070
g57
(g58
g59
NtRp5071
(dp5072
g62
(dp5073
g70
I5
ssg71
g5067
sg64
(lp5074
g100
asbasbasbag57
(g73
g59
NtRp5075
(dp5076
g62
(dp5077
sg71
g3693
sg64
(lp5078
g57
(g78
g59
NtRp5079
(dp5080
g62
(dp5081
g82
g83
ssg71
g5075
sg64
(lp5082
S'session_storage_type'
p5083
asbag57
(g78
g59
NtRp5084
(dp5085
g62
(dp5086
g89
g90
ssg71
g5075
sg64
(lp5087
S':'
asbag57
(g78
g59
NtRp5088
(dp5089
g62
(dp5090
sg71
g5075
sg64
(lp5091
g57
(g58
g59
NtRp5092
(dp5093
g62
(dp5094
g70
I5
ssg71
g5088
sg64
(lp5095
g3069
asbasbasbag57
(g73
g59
NtRp5096
(dp5097
g62
(dp5098
sg71
g3693
sg64
(lp5099
g57
(g78
g59
NtRp5100
(dp5101
g62
(dp5102
g82
g83
ssg71
g5096
sg64
(lp5103
S'status'
p5104
asbag57
(g78
g59
NtRp5105
(dp5106
g62
(dp5107
g89
g90
ssg71
g5096
sg64
(lp5108
S':'
asbag57
(g78
g59
NtRp5109
(dp5110
g62
(dp5111
sg71
g5096
sg64
(lp5112
g57
(g58
g59
NtRp5113
(dp5114
g62
(dp5115
g70
I5
ssg71
g5109
sg64
(lp5116
S'200'
p5117
asbasbasbag57
(g73
g59
NtRp5118
(dp5119
g62
(dp5120
sg71
g3693
sg64
(lp5121
g57
(g78
g59
NtRp5122
(dp5123
g62
(dp5124
g82
g83
ssg71
g5118
sg64
(lp5125
S'subtitle'
p5126
asbag57
(g78
g59
NtRp5127
(dp5128
g62
(dp5129
g89
g90
ssg71
g5118
sg64
(lp5130
S':'
asbag57
(g78
g59
NtRp5131
(dp5132
g62
(dp5133
sg71
g5118
sg64
(lp5134
g57
(g58
g59
NtRp5135
(dp5136
g62
(dp5137
g70
I5
ssg71
g5131
sg64
(lp5138
g4404
(S's)\x00\x00\x00Computational Core for Plant Metabolomics'
tRp5139
asbasbasbag57
(g73
g59
NtRp5140
(dp5141
g62
(dp5142
sg71
g3693
sg64
(lp5143
g57
(g78
g59
NtRp5144
(dp5145
g62
(dp5146
g82
g83
ssg71
g5140
sg64
(lp5147
g3603
asbag57
(g78
g59
NtRp5148
(dp5149
g62
(dp5150
g89
g90
ssg71
g5140
sg64
(lp5151
S':'
asbag57
(g78
g59
NtRp5152
(dp5153
g62
(dp5154
sg71
g5140
sg64
(lp5155
g57
(g58
g59
NtRp5156
(dp5157
g62
(dp5158
g70
I5
ssg71
g5152
sg64
(lp5159
g122
asbasbasbag57
(g73
g59
NtRp5160
(dp5161
g62
(dp5162
sg71
g3693
sg64
(lp5163
g57
(g78
g59
NtRp5164
(dp5165
g62
(dp5166
g82
g83
ssg71
g5160
sg64
(lp5167
S'view'
p5168
asbag57
(g78
g59
NtRp5169
(dp5170
g62
(dp5171
g89
g90
ssg71
g5160
sg64
(lp5172
S':'
asbag57
(g78
g59
NtRp5173
(dp5174
g62
(dp5175
sg71
g5160
sg64
(lp5176
g57
(g58
g59
NtRp5177
(dp5178
g62
(dp5179
g70
I5
ssg71
g5173
sg64
(lp5180
S'default/project_viewer.html'
p5181
asbasbasbasbasbsS'locals'
p5182
(dp5183
S'Service'
p5184
S"<class 'gluon.tools.Service'>"
p5185
sS'OBJECT'
p5186
S"<class 'gluon.html.OBJECT'>"
p5187
sS'myroles'
p5188
S"['project_coordinator']"
p5189
sS'datetime'
p5190
S"<module 'datetime' from '/usr/lib/python2.7/lib-dynload/datetime.so'>"
p5191
sg3124
S"<Storage {'_formkey[project/create]': 'bea9fc1d-...n7@gmail.com'}>, 'user_groups': {1: 'user_1'}}>}>"
p5192
sS'LINK'
p5193
S"<class 'gluon.html.LINK'>"
p5194
sS'BR'
p5195
S"<class 'gluon.html.BR'>"
p5196
sS'local_import'
p5197
S'<function <lambda>>'
p5198
sS'OPTGROUP'
p5199
S"<class 'gluon.html.OPTGROUP'>"
p5200
sS'__package__'
p5201
S'None'
p5202
sS'XHTML'
p5203
S"<class 'gluon.html.XHTML'>"
p5204
sS'PRE'
p5205
S"<class 'gluon.html.PRE'>"
p5206
sS'IS_INT_IN_RANGE'
p5207
S"<class 'gluon.validators.IS_INT_IN_RANGE'>"
p5208
sS'left_sidebar_enabled'
p5209
g100
sS'IS_LOWER'
p5210
S"<class 'gluon.validators.IS_LOWER'>"
p5211
sS'IS_STRONG'
p5212
S"<class 'gluon.validators.IS_STRONG'>"
p5213
sS'cache'
p5214
S'<gluon.cache.Cache object>'
p5215
sS'IS_IN_DB'
p5216
S"<class 'gluon.validators.IS_IN_DB'>"
p5217
sS'TAG'
p5218
S'<gluon.html.__TAG__ object>'
p5219
sS'SQLField'
p5220
S"<class 'gluon.dal.Field'>"
p5221
sS'mail'
p5222
S'<gluon.tools.Mail object>'
p5223
sS'BODY'
p5224
S"<class 'gluon.html.BODY'>"
p5225
sS'IS_DATE_IN_RANGE'
p5226
S"<class 'gluon.validators.IS_DATE_IN_RANGE'>"
p5227
sS'IFRAME'
p5228
S"<class 'gluon.html.IFRAME'>"
p5229
sS'URL'
p5230
S'<function URL>'
p5231
sS'__file__'
p5232
S"'/home/anil/Downloads/web2py/applications/DEV_bootstrap_ch/views/default/project_viewer.html'"
p5233
sS'db'
p5234
S'<DAL uri="sqlite://storage.sqlite">'
p5235
sS'auth'
p5236
S'<gluon.tools.Auth object>'
p5237
sS'P'
S"<class 'gluon.html.P'>"
p5238
sS'TFOOT'
p5239
S"<class 'gluon.html.TFOOT'>"
p5240
sS'plugin_wiki_theme'
p5241
S"'redmond'"
p5242
sS'role_list'
p5243
S"['investigator', 'co_investigator', 'collaborator', 'analyst', 'experimentalist', 'member', 'project_coordinator']"
p5244
sg2253
S'datetime.datetime(2013, 3, 8, 19, 58, 52, 988910)'
p5245
sS'ON'
p5246
g1617
sS'OL'
p5247
S"<class 'gluon.html.OL'>"
p5248
sS'bar'
p5249
S'<gluon.html.SPAN object>'
p5250
sS'name'
p5251
S'<function name>'
p5252
sS'TEXTAREA'
p5253
S"<class 'gluon.html.TEXTAREA'>"
p5254
sS'MENU'
p5255
S"<class 'gluon.html.MENU'>"
p5256
sS'plugin_wiki_widgets'
p5257
S"'all'"
p5258
sS'IS_IMAGE'
p5259
S"<class 'gluon.validators.IS_IMAGE'>"
p5260
sS'EM'
p5261
S"<class 'gluon.html.EM'>"
p5262
sS'CODE'
p5263
S"<class 'gluon.html.CODE'>"
p5264
sS'HTTP'
p5265
S"<class 'gluon.http.HTTP'>"
p5266
sS'HR'
p5267
S"<class 'gluon.html.HR'>"
p5268
sS'IS_DATETIME'
p5269
S"<class 'gluon.validators.IS_DATETIME'>"
p5270
sS'STYLE'
p5271
S"<class 'gluon.html.STYLE'>"
p5272
sS'LABEL'
p5273
S"<class 'gluon.html.LABEL'>"
p5274
sS'CLEANUP'
p5275
S"<class 'gluon.validators.CLEANUP'>"
p5276
sS'PluginWikiWidgets'
p5277
S"<class '__restricted__.PluginWikiWidgets'>"
p5278
sS'plugins'
p5279
S'<gluon.tools.PluginManager object>'
p5280
sS'SELECT'
p5281
S"<class 'gluon.html.SELECT'>"
p5282
sS'use_janrain'
p5283
S'<function use_janrain>'
p5284
sS'CENTER'
p5285
S"<class 'gluon.html.CENTER'>"
p5286
sS'prettydate'
p5287
S'<function prettydate>'
p5288
sS'Crud'
p5289
S"<class 'gluon.tools.Crud'>"
p5290
sS'Auth'
p5291
S"<class 'gluon.tools.Auth'>"
p5292
sS'__builtins__'
p5293
S"{'ArithmeticError': <type 'exceptions.ArithmeticError'>, 'AssertionError': <type 'exceptions.AssertionError'>, 'AttributeError': <type 'exceptions.AttributeError'>, 'BaseException': <type 'exceptions.BaseException'>, 'BufferError': <type 'exceptions.BufferError'>, 'BytesWarning': <type 'exceptions.BytesWarning'>, 'DeprecationWarning': <type 'exceptions.DeprecationWarning'>, 'EOFError': <type 'exceptions.EOFError'>, 'Ellipsis': Ellipsis, 'EnvironmentError': <type 'exceptions.EnvironmentError'>, ...}"
p5294
sS'HTML'
p5295
S"<class 'gluon.html.HTML'>"
p5296
sS'is_coordinator'
p5297
S"<Row {'code': 'gfds', 'name': 'tomatodf', 'proje...ordinator': 1, 'project_publication_date': None}>"
p5298
sS'SQLFORM'
p5299
S"<class 'gluon.sqlhtml.SQLFORM'>"
p5300
sS'LOAD'
p5301
S'<function LOAD>'
p5302
sS'redirect'
p5303
S'<function redirect>'
p5304
sS'FIELDSET'
p5305
S"<class 'gluon.html.FIELDSET'>"
p5306
sS'IS_EQUAL_TO'
p5307
S"<class 'gluon.validators.IS_EQUAL_TO'>"
p5308
sS'embed64'
p5309
S'<function embed64>'
p5310
sS'IS_LIST_OF'
p5311
S"<class 'gluon.validators.IS_LIST_OF'>"
p5312
sS'__name__'
p5313
S"'__restricted__'"
p5314
sS'EMBED'
p5315
S"<class 'gluon.html.EMBED'>"
p5316
sS'_'
S'<function _>'
p5317
sS'PluginWiki'
p5318
S"<class '__restricted__.PluginWiki'>"
p5319
sS'width_content'
p5320
S"'100%'"
p5321
sS'H2'
p5322
S"<class 'gluon.html.H2'>"
p5323
sS'H3'
p5324
S"<class 'gluon.html.H3'>"
p5325
sS'BUTTON'
p5326
S"<class 'gluon.html.BUTTON'>"
p5327
sS'H1'
p5328
S"<class 'gluon.html.H1'>"
p5329
sS'H6'
p5330
S"<class 'gluon.html.H6'>"
p5331
sS'plugin_wiki_level'
p5332
S'3'
sS'H5'
p5333
S"<class 'gluon.html.H5'>"
p5334
sS'UL'
p5335
S"<class 'gluon.html.UL'>"
p5336
sS'IS_UPPER'
p5337
S"<class 'gluon.validators.IS_UPPER'>"
p5338
sS'xmlescape'
p5339
S'<function xmlescape>'
p5340
sS'IS_TIME'
p5341
S"<class 'gluon.validators.IS_TIME'>"
p5342
sS'OPTION'
p5343
S"<class 'gluon.html.OPTION'>"
p5344
sS'TITLE'
p5345
S"<class 'gluon.html.TITLE'>"
p5346
sS'DEFAULT'
p5347
S"{'authorize_attachments': False, 'editor': False, 'level': 3, 'migrate': True, 'mode': 'markmin', 'theme': 'redmond', 'widgets': 'all'}"
p5348
sS'CRYPT'
p5349
S"<class 'gluon.validators.CRYPT'>"
p5350
sS'IS_EMPTY_OR'
p5351
S"<class 'gluon.validators.IS_EMPTY_OR'>"
p5352
sS'MARKMIN'
p5353
S"<class 'gluon.html.MARKMIN'>"
p5354
sS'INPUT'
p5355
S"<class 'gluon.html.INPUT'>"
p5356
sS'STRONG'
p5357
S"<class 'gluon.html.STRONG'>"
p5358
sS'COL'
p5359
S"<class 'gluon.html.COL'>"
p5360
sS'service'
p5361
S'<gluon.tools.Service object>'
p5362
sS'SCRIPT'
p5363
S"<class 'gluon.html.SCRIPT'>"
p5364
sS'today_date'
p5365
S'datetime.datetime(2013, 3, 8, 19, 58, 52, 988949)'
p5366
sS'TABLE'
p5367
S"<class 'gluon.html.TABLE'>"
p5368
sS'IS_IPV4'
p5369
S"<class 'gluon.validators.IS_IPV4'>"
p5370
sS'IS_LENGTH'
p5371
S"<class 'gluon.validators.IS_LENGTH'>"
p5372
sS'XML'
p5373
S"<class 'gluon.html.XML'>"
p5374
sS'plugin_wiki'
p5375
S'<__restricted__.PluginWiki object>'
p5376
sS'IMG'
p5377
S"<class 'gluon.html.IMG'>"
p5378
sS'SQLTABLE'
p5379
S"<class 'gluon.sqlhtml.SQLTABLE'>"
p5380
sS'IS_MATCH'
p5381
S"<class 'gluon.validators.IS_MATCH'>"
p5382
sS'IS_ALPHANUMERIC'
p5383
S"<class 'gluon.validators.IS_ALPHANUMERIC'>"
p5384
sS'_f'
p5385
S"'plugin_wiki/rating/jquery.rating.js'"
p5386
sS'SPAN'
p5387
S"<class 'gluon.html.SPAN'>"
p5388
sS'plugin_wiki_editor'
p5389
g100
sS'IS_SLUG'
p5390
S"<class 'gluon.validators.IS_SLUG'>"
p5391
sS'project'
p5392
S"<Row {'code': 'gfds', 'name': 'tomatodf', 'proje...ordinator': 1, 'project_publication_date': None}>"
p5393
sS'BEAUTIFY'
p5394
S"<class 'gluon.html.BEAUTIFY'>"
p5395
sS'META'
p5396
S"<class 'gluon.html.META'>"
p5397
sS'SQLDB'
p5398
S"<class 'gluon.dal.DAL'>"
p5399
sS'plugin_wiki_migrate'
p5400
g1617
sS'IS_URL'
p5401
S"<class 'gluon.validators.IS_URL'>"
p5402
sS'k'
S"<Row {'approval_status': '1', 'member_since': '2..., 'project': 1, 'role': '6', 'user': 1, 'id': 1}>"
p5403
sS'result'
p5404
S'<Rows (1)>'
p5405
sS'IS_DATE'
p5406
S"<class 'gluon.validators.IS_DATE'>"
p5407
sS'IS_EMAIL'
p5408
S"<class 'gluon.validators.IS_EMAIL'>"
p5409
sS'IS_NOT_EMPTY'
p5410
S"<class 'gluon.validators.IS_NOT_EMPTY'>"
p5411
sS'IS_FLOAT_IN_RANGE'
p5412
S"<class 'gluon.validators.IS_FLOAT_IN_RANGE'>"
p5413
sS'pid'
p5414
S"'1'"
p5415
sS'TBODY'
p5416
S"<class 'gluon.html.TBODY'>"
p5417
sS'CAT'
p5418
S"<class 'gluon.html.CAT'>"
p5419
sS'Field'
p5420
S"<class 'gluon.dal.Field'>"
p5421
sS'B'
S"<class 'gluon.html.B'>"
p5422
sS'H4'
p5423
S"<class 'gluon.html.H4'>"
p5424
sS'DIV'
p5425
S"<class 'gluon.html.DIV'>"
p5426
sS'LEGEND'
p5427
S"<class 'gluon.html.LEGEND'>"
p5428
sS'COLGROUP'
p5429
S"<class 'gluon.html.COLGROUP'>"
p5430
sS'DAL'
p5431
S"<class 'gluon.dal.DAL'>"
p5432
sS'TT'
p5433
S"<class 'gluon.html.TT'>"
p5434
sS'TR'
p5435
S"<class 'gluon.html.TR'>"
p5436
sS'plugin_wiki_authorize_attachments'
p5437
g100
sS'LI'
p5438
S"<class 'gluon.html.LI'>"
p5439
sS'right_sidebar_enabled'
p5440
g100
sS'TH'
p5441
S"<class 'gluon.html.TH'>"
p5442
sS'TD'
p5443
S"<class 'gluon.html.TD'>"
p5444
sS'PluginManager'
p5445
S"<class 'gluon.tools.PluginManager'>"
p5446
sS'cord'
p5447
S"<Row {'last_name': 'Nalamalapu', 'reset_password...885334113', 'country': 'India', 'position': '2'}>"
p5448
sS'A'
S"<class 'gluon.html.A'>"
p5449
sS'HEAD'
p5450
S"<class 'gluon.html.HEAD'>"
p5451
sS'IS_DATETIME_IN_RANGE'
p5452
S"<class 'gluon.validators.IS_DATETIME_IN_RANGE'>"
p5453
sS'users'
p5454
S'<Rows (1)>'
p5455
sS'FORM'
p5456
S"<class 'gluon.html.FORM'>"
p5457
sS'I'
S"<class 'gluon.html.I'>"
p5458
sS'crud'
p5459
S'<gluon.tools.Crud object>'
p5460
sS'right_sidebar_style'
p5461
S'\'style="display: none;"\''
p5462
sS'IS_NOT_IN_DB'
p5463
S"<class 'gluon.validators.IS_NOT_IN_DB'>"
p5464
sg3688
S"<Storage {'body': <cStringIO.StringO object at 0...0346684>, 'view': 'default/project_viewer.html'}>"
p5465
sS'THEAD'
p5466
S"<class 'gluon.html.THEAD'>"
p5467
sS'IS_NULL_OR'
p5468
S"<class 'gluon.validators.IS_EMPTY_OR'>"
p5469
sS'left_sidebar_style'
p5470
S'\'style="display: none;"\''
p5471
sS'plugin_wiki_mode'
p5472
S"'markmin'"
p5473
sg56
S"<Storage {'function': 'project_viewer', 'body': ...s/DEV_bootstrap_ch/', 'post_vars': <Storage {}>}>"
p5474
sS'IS_EXPR'
p5475
S"<class 'gluon.validators.IS_EXPR'>"
p5476
sS'T'
S'<gluon.languages.translator object>'
p5477
sS'IS_IN_SET'
p5478
S"<class 'gluon.validators.IS_IN_SET'>"
p5479
sS'IS_UPLOAD_FILENAME'
p5480
S"<class 'gluon.validators.IS_UPLOAD_FILENAME'>"
p5481
sS'style_content'
p5482
S'\'style="width: 100%"\''
p5483
sS'IS_DECIMAL_IN_RANGE'
p5484
S"<class 'gluon.validators.IS_DECIMAL_IN_RANGE'>"
p5485
sssS'traceback'
p5486
S'Traceback (most recent call last):\n  File "/home/anil/Downloads/web2py/gluon/restricted.py", line 212, in restricted\n    exec ccode in environment\n  File "/home/anil/Downloads/web2py/applications/DEV_bootstrap_ch/views/default/project_viewer.html", line 136, in <module>\n    </td>\nTypeError: cannot concatenate \'str\' and \'NoneType\' objects\n'
p5487
s.