(dp1
S'output'
p2
S"<type 'exceptions.TypeError'> redirect() got an unexpected keyword argument 'args'"
p3
sS'layer'
p4
S'/home/anil/bootstrap/web2py/applications/DEV_bootstrap_ch/controllers/default.py'
p5
sS'code'
p6
S'import rpy2.robjects as robjects\n# -*- coding: utf-8 -*-\n# this file is released under public domain and you can use without limitations\n\n#########################################################################\n## This is a samples controller\n## - index is the default action of any application\n## - user is required for authentication and authorization\n## - download is for downloading files uploaded in the db (does streaming)\n## - call exposes all registered services (none by default)\n#########################################################################\n\ndef index():\n    """\n    example action using the internationalization operator T and flash\n    rendered by views/default/index.html or views/generic.html\n    """\n    redirect(URL(\'default\',\'list_all_projects\'))\n    #redirect(URL(\'plugin_wiki\',\'page/home\'))\n\ndef user():\n    """\n    exposes:\n    http://..../[app]/default/user/login\n    http://..../[app]/default/user/logout\n    http://..../[app]/default/user/register\n    http://..../[app]/default/user/profile\n    http://..../[app]/default/user/retrieve_password\n    http://..../[app]/default/user/change_password\n    use @auth.requires_login()\n        @auth.requires_membership(\'group name\')\n        @auth.requires_permission(\'read\',\'table name\',record_id)\n    to decorate functions that need access control\n    """\n    return dict(form=auth())\n\ndef download():\n    """\n    allows downloading of uploaded files\n    http://..../[app]/default/download/[filename]\n    """\n    return response.download(request,db)\n\n\ndef call():\n    """\n    exposes services. for example:\n    http://..../[app]/default/call/jsonrpc\n    decorate with @services.jsonrpc the functions to expose\n    supports xml, json, xmlrpc, jsonrpc, amfrpc, rss, csv\n    """\n    return service()\n\n\ndef authenticate(uid,pid,func):   \n   result = db(db.role.user == uid)(db.role.project == pid).select(db.role.ALL)\n   myroles = [role_list[int(k.role)] for k in result]\n   is_coordinator = db(db.project.project_coordinator == uid).select(db.project.ALL)\n   if func == \'roles\':\n\tif len(is_coordinator):\n\t  error = \'\'\n\telse:\n\t   error = \'You must be a project co-ordinator to manage roles\'\n\treturn error  \n   if func == \'add_project\':\n\tif len(is_coordinator):\n\t  error = \'\'\n\telse:\n\t   error = \'\'\n        return error\n   if func == \'add_sample\':\n\tif \'experimentalist\' in myroles:\n\t  error = \'\'\n\telse:\n\t   error = \'SignUp for  "Experimentalist Role" in this project to add a sample. Use Browser back button to navigate to Project View.\'\n        return error\n   if func == \'experimentalist\':\n\tif \'experimentalist\' in myroles:\n\t  error = \'\'\n\telse:\n\t   error = \'You must be an experimentalist to add the biosource information of a sample\'\n        return error\n   if func == \'my_samples\':\n\tif  \'experimentalist\' in myroles:\n\t  error = \'\'\n\telse:\n\t   error = \'You are not authorized to view this page\'\n        return error\n\ndef basic_groups(pid):\n    """ creates the basic groups on general basis or id basis """\n    if not pid:\n        for i in role_list:\n\t   auth.add_group(i,i) \n    else:\n        pid_groups = [str(pid)+\'#\'+i for i in role_list]\n\tfor k in pid_groups:\n\t   auth.add_group(k,k)\n    return locals()\t   \n\n\ndef add_project():\n    error = authenticate(auth.user.id,\'\',\'add_project\')\n    form = SQLFORM(db.project,fields=[\'name\',\'code\',\'start_date\',\'project_description\',\'project_literature_reference\',\'project_journal_name\',\'project_publication_date\',\'project_pubmed_id\'],showid=False)\n    form.vars.project_coordinator = auth.user.id\n    if form.process().accepted:\n       response.flash =\'accepted\'\n       result = db(db.project.name == form.vars.name).select(db.project.ALL).first()\n       basic_groups(result.id)\n       db.role.insert(user=auth.user.id,project=result.id,role=6,approval_status=1,member_since=now)\n       redirect(URL(\'project_viewer\',args = form.vars.id))\n    elif form.errors:\n       response.flash = \'errors\'\n    return locals()\n\ndef remove_project():\n    response.menu = [\n    (T(\'Home\'), False, URL(\'default\',\'list_all_projects\'), [])\n    ]\n    """takes an id and removes the project """ \n    pid  = request.args(0)\n    pid_groups = [str(pid)+\'#\'+i for i in role_list]\n    for z in pid_groups:\n\tpgid = auth.id_group(z)\n\tauth.del_group(pgid)\n    del db.project[pid]\n    return locals()\n\ndef add_experiment():\n    grid = SQLFORM.grid(db.experiment)\n    return locals()\n\ndef new_affiliation():\n    form = SQLFORM(db.affiliation)\n    return locals()\n\ndef edit_project():\n    response.menu = [\n    (T(\'Home\'), False, URL(\'default\',\'list_all_projects\'), []),\n    (T(\'Project\'), False, URL(\'default\',\'project_viewer\',args=request.args),[])\n    ]\n    crud.settings.update_next = URL(\'project_viewer\',args=request.args)\n    form=crud.update(db.project,request.args(0),deletable=False)\n    return locals();\n \n@auth.requires_login()\ndef project_viewer():\n    pid = request.args[-1]\n    project=db(db.project.id==pid).select(db.project.ALL).first()\n    cord = db(db.auth_user.id==project.project_coordinator).select(db.auth_user.ALL).first()\n    \n    if authenticate(auth.user.id,\'\',\'roles\') == \'\':\n      response.menu = [\n      (T(\'Home\'), False, URL(\'default\',\'list_all_projects\'), []),\n      (T(\'Project\'), False, URL(\'default\',\'project_viewer\',args=request.args[-1]),[\n      (T(\'Grant Role\'),False,URL(\'roles\',args=project.id)),\n      (T(\'Edit Project\'),False,URL(\'edit_project\',args=project.id)),\n      (T(\'SignUP\'),False,URL(\'reg_project\',args=project.id))]\n      )\n      ]\n    else :\n      response.menu = [\n      (T(\'Home\'), False, URL(\'default\',\'list_all_projects\'), []),\n      (T(\'Project\'), False, URL(\'default\',\'project_viewer\',args=request.args[-1]),[\n      (T(\'SignUP\'),False,URL(\'reg_project\',args=project.id))]\n      )\n      ]\n      \n    if project.project_status == \'1\':\n      response.menu+= [\n      (T(\'Published Samples\'), False,URL(\'list_all_pub_samples\',args=(pid)),[])\n      ]\n    elif authenticate(auth.user.id,pid,\'add_sample\')==\'\':\n        response.menu+= [\n        (T(\'Samples\'), False,URL(\'my_samples\',args=(pid)),[\n        (T(\'My Samples\'), False,URL(\'my_samples\',args=(pid))),\n        ])\n        ]\n      \n    users=db(db.role.project==pid)(db.role.project == db.project.id)(db.role.user==db.auth_user.id).select(db.role.ALL,db.auth_user.ALL)\n    is_coordinator = \'\'\n    myroles = \'\'\n    if auth.user:\n      is_coordinator = db(db.project.id == pid)(db.project.project_coordinator == auth.user.id).select(db.project.ALL).first()\n      result = db(db.role.user == auth.user.id)(db.role.project == pid).select(db.role.ALL)\n      myroles = [role_list[int(k.role)] for k in result]\n      \n    return locals()\n\n\ndef add_sample():\n  """ creates a exp on an project basis and should continue to fill the bio source data """\n  """ available to the experimentalist """ \n  response.menu = [\n  (T(\'Home\'), False, URL(\'default\',\'list_all_projects\'), [])\n  ]\n  if \'new\' in request.args:\n   pid = request.args[-3]\n  else:\n   pid = request.args(0)\n  error = authenticate(auth.user.id,pid,\'add_sample\') \n  form = SQLFORM(db.sample,fields=[\'name\',\'code\',\'description\',\'scientific_name\'],showid=False)\n#added a field project in sample table\n#added two more fields in form insert root/replica etc and scientific name\n  if form.validate():\n      i = db.sample.insert(experimentalist=auth.user.id,name=form.vars.name,code=form.vars.code ,description=form.vars.description,experiment=pid,scientific_name=form.vars.scientific_name,working_status=1,publication_status=0)\n      response.flash = \'sample has been created\'\n      redirect(URL(\'list_all_dev_projects\',args=[\'project\',\'sample.project\',pid])) \n      # redirect to the sample creation \n  elif form.errors:\n      response.flash = \'Form has errors\'\n  return locals()\n\ndef sample_viewer():\n   response.menu = [\n   (T(\'Home\'), False, URL(\'default\',\'list_all_projects\'), [])\n   ]\n   i = request.args[-1]\n   if \'view\' in request.args: \n\tform = SQLFORM(db.sample, i,readonly =True,showid=False)\n   if \'edit\' in request.args: \n\tform = SQLFORM(db.sample, i,showid=False)\n   if form.process().accepted:\n\tresponse.flash = \'form accepted\'\n\tredirect(URL(\'list_all_dev_projects\',args = request.args[0:-3])) \n   elif form.errors:\n\tresponse.flash = \'form has errors\'\n   return dict(form=form)\n\ndef list_all_projects():\n    response.menu = [\n    (T(\'Home\'), False, URL(\'default\',\'index\'), [])\n    #(T(\'Home\'), False, URL(\'default\',\'list_all_projects\'), []),\n    #(T(\'Project\'), False, URL(\'default\',\'list_all_projects\'), [(T(\'Add Project\'),False,URL(\'default\',\'add_project\'))])\n    ]\n    form=FORM(\n              INPUT(_name=\'name\', requires=IS_NOT_EMPTY()),\n              INPUT(_type=\'submit\'))\n    form.elements(\'input[type=submit]\')[0]["_value"] = "Search"\n    if form.accepts(request,session):\n      redirect(URL(\'grid?keywords=tomato\')) \n    \n    #form=FORM(\'\',INPUT(_name=\'name\') ,INPUT(_type=\'submit\'))\n    #if form.process().accepted:\n      #redirect(URL(\'grid\')) \n    pub_projects = db(db.project.project_status == 1).select(db.project.ALL)\n    dev_projects = db(db.project.project_status == 0).select(db.project.ALL)\n    authenticated = \'no\'\n    if auth.user:\n     authenticated = authenticate(auth.user.id,\'\',\'add_project\')\n    pi = robjects.r[\'pi\']\n    return locals()\n\ndef grid():\n  # query=((db.project.project_status==0)&(db.experiment.project==db.project.id)&(db.sample.experiment==db.experiment.id)&(db.biosource.sample_name==db.sample.id))\n   query=((db.project.project_status==0)&(db.experiment.project==db.project.id)&(db.sample.experiment==db.experiment.id)&(db.sample.id==db.biosource.sample_name))\n   #query=((db.project.project_status==0))\n#   query=((db.sample.experiment==db.experiment.id)&((db.sample.id==db.biosource.sample_name)|(db.sample.id==db.plant_growth_condition.sample_name)))\n   grid = SQLFORM.grid(query)\n   return locals() \n\ndef temp():\n   q1 = (db.project.project_status ==  0)\n   q2 = (db.sample.publication_status == True)\n   ck = {}\n   fi = [db.project.name,db.project.project_coordinator,db.project.start_date,db.project.project_status,db.experiment.code,db.sample.name,db.sample.code,db.biosource.sample_name,db.plant_growth_condition.sample_name,db.treatments.sample_name,db.harvests.sample_name,db.extraction_preparation.sample_name,db.gas_chromatography.sample_name,db.liquid_chromatography.sample_name,db.mass_spectroscopy.sample_name,db.raw_data_storage_information.sample_name]\n   l1=[lambda row: A(\'View Post\',_href=URL("default","view",args=[row.id]))]\n   links={\'project\':l1}\n   grid = SQLFORM.smartgrid(db.project,ck,fields=fi,links=links,linked_tables=[\'experiment\',\'sample\',\'biosource\',\'plant_growth_condition\',\'treatments\',\'harvests\',\'extraction_preparation\',\'gas_chromatography\',\'liquid_chromatography\',\'mass_spectroscopy\',\'raw_data_storage_information\']) \n   return locals() \n\ndef list_all_pub_projects():\n    response.menu = [\n    (T(\'Home\'), False, URL(\'default\',\'list_all_projects\'), [])\n    ]\n    q1 = (db.project.project_status ==  1)\n    q2 = (db.sample.publication_status == True)\n    ck = {\'project\':q1,\'sample\':q2}\n    fi = [db.project.name,db.project.project_coordinator,db.project.start_date,db.project.project_status,db.experiment.code,db.sample.name,db.sample.code,db.sample.replica,db.biosource.sample_name,db.plant_growth_condition.sample_name,db.treatments.sample_name,db.harvests.sample_name,db.extraction_preparation.sample_name,db.gas_chromatography.sample_name,db.liquid_chromatography.sample_name,db.mass_spectroscopy.sample_name,db.raw_data_storage_information.sample_name]\n    if \'view\' in request.args or \'edit\' in request.args or \'new\' in request.args:\n    \trouter(request.args)\n    grid = SQLFORM.smartgrid(db.project,ck,fields=fi,editable=False,deletable=False,create = False,linked_tables=[\'experiment\',\'sample\',\'biosource\',\'plant_growth_condition\',\'treatments\',\'harvests\',\'extraction_preparation\',\'gas_chromatography\',\'liquid_chromatography\',\'mass_spectroscopy\',\'raw_data_storage_information\']) \n    \n    return locals()\n\ndef list_all_dev_projects():\n    response.menu = [\n    (T(\'Home\'), False, URL(\'default\',\'list_all_projects\'), [])\n    ]\n    db.sample.experimentalist.default=auth.user.id\n    db.sample.experiment.writable = False\n    q1 = (db.project.project_status ==  0)\n    q2 = (db.sample.experimentalist == auth.user.id)\n    ck = {\'project\':q1,\'sample\':q2}\n    fi = [db.project.name,db.project.project_coordinator,db.project.start_date,db.project.project_status,db.experiment.code,db.sample.name,db.sample.code,db.sample.replica,db.sample.publication_status,db.biosource.sample_name,db.plant_growth_condition.sample_name,db.treatments.sample_name,db.harvests.sample_name,db.extraction_preparation.sample_name,db.gas_chromatography.sample_name,db.liquid_chromatography.sample_name,db.mass_spectroscopy.sample_name,db.spectrophotometry.sample_name,db.raw_data_storage_information.sample_name]\n    edit_dict = {\'project\':False}\n    delete_dict = {\'project\':False}\n#Allow only one original sample to be added in an experiment others are replicates\n    addsample = True\n    if \'sample\' in request.args and \'new\' in request.args:\n         count = db(db.sample.experiment==request.args[-3]).count()\n         if(count>0):\n           db.sample.replica.default = \'replicate\'\n           db.sample.replica.requires=IS_IN_SET([\'replicate\',\'alicot\'])\n         else:\n           db.sample.replica.default = \'Original\'\n           db.sample.replica.writable = False\n           \n    create_dict = {\'project\':False,\'sample\':addsample}\n#Links for replicating samples  \n    args= request.args\n    l1=[lambda row: A(\'copy\',_href=URL("default","replicate",args=[\'project\',request.args[1],request.args[2],request.args[3],request.args[4],row.id]))]\n    links={\'sample\':l1}\n#customized Views for certain forms using router   \n    if \'view\' in request.args or \'edit\' in request.args or \'new\' in request.args:\n     \trouter(request.args)\n    grid = SQLFORM.smartgrid(db.project,ck,fields=fi,editable=edit_dict,create=create_dict,deletable=delete_dict,links=links,linked_tables=[\'experiment\',\'sample\',\'biosource\',\'plant_growth_condition\',\'treatments\',\'harvests\',\'extraction_preparation\',\'gas_chromatography\',\'liquid_chromatography\',\'mass_spectroscopy\',\'spectrophotometry\',\'raw_data_storage_information\']) \n    return locals()\n\n#gets table name and rowid as input and creates another row with same details as rowid recod has\ndef replicate():\n    if db(db.template.user==auth.user.id).count() == 0:\n       db.template.insert(user=auth.user.id, sample=request.args[-1])\n    else:   \n       db(db.template.user == auth.user.id).update(sample=request.args[-1])\n    redirect(URL(\'list_all_dev_projects\',args=request.args[0:-1]))\n    #Unique fields take care\n    #product.update(sampleid=\'temp\')\n    return() \n\ndef my_samples():\n    response.menu = [\n    (T(\'Home\'), False, URL(\'default\',\'list_all_projects\'), [])\n    ]\n    """ all my samples in the project with permissions to edit delete publish/unpublish samples """\n    error = authenticate(auth.user.id,request.args(0),\'add_sample\') \n    l =  [\'project\',\'experiment.project\',request.args(0)]\n    if error == \'\':\n      redirect(URL(\'list_all_dev_projects\',args=l))\n    return locals()\n\ndef list_all_samples1():\n    proj_id = request.args(0)\n    pub_samples = db((db.sample.working_status == 1)&(db.sample.project == proj_id)).select(db.sample.ALL)\n    dev_samples = db((db.sample.working_status == 0)&(db.sample.project == proj_id)).select(db.sample.ALL)\n    return locals()\n\ndef view_published_samples():\n    proj_id = request.args(0)\n    return locals() \n\ndef router(l):\n\tif \'biosource\' in l:\n\t  redirect(URL(\'insert_biosource\',args = l))\n\telif \'plant_growth_condition\' in l:\n\t  redirect(URL(\'insert_pgc\',args = l))\n\telif \'treatments\' in l:\n\t  redirect(URL(\'insert_treatments\',args = l))\n\telif \'harvests\' in l:\n\t  redirect(URL(\'insert_harvests\',args = l))\n\telif \'extraction_preparation\' in l:\n\t  redirect(URL(\'insert_ep\',args = l))\n\telif \'gas_chromatography\' in l:\n\t  redirect(URL(\'insert_gc\',args = l))\n\telif \'liquid_chromatography\' in l:\n\t  redirect(URL(\'insert_lc\',args = l))\n\telif \'mass_spectroscopy\' in l:\n\t  redirect(URL(\'insert_ms\',args = l))\n        elif \'raw_data_storage_information\' in l:\n          redirect(URL(\'insert_raw_data\',args = l))\n\telif \'sample\' in l and \'view\' in l:\t\t\n\t  redirect(URL(\'sample\',args=l))\n        else:\n          return()\n\n\'\'\'\telif \'sample\' in l and \'new\' in l:\t\t\n\t  redirect(URL(\'add_sample\',args = l))\n\telif \'sample\' in l:\t\t\n\t  redirect(URL(\'sample_viewer\',args = l))\n\telif \'project\' in l:\n\t  redirect(URL(\'project_viewer\',args=l))\n\telse : \n\t  redirect(URL(\'index\'))\'\'\'\n\ndef list_all_pub_samples():\n#    proj_id = request.args(0)\n#    pub = request.args(1) # if pub == 1 show published samples otherwise non published samples\n#   pub_query = (db.sample.working_status == 1 and db.sample.project == proj_id)\n#   unpub_query = (db.sample.working_status == 0 and db.sample.project == proj_id)\n#   pquery_dict = {\'sample\':pub_query}\n#   nquery_dict = {\'sample\':unpub_query}\n#    if \'view\' in request.args or \'edit\' in request.args or \'new\' in request.args:\n#       router(request.args)\n#    if \'view\' in request.args or \'edit\' in request.args or \'new\' in request.args:\n#     \trouter(request.args)\n    \n    """an argument to display published and non-published samples"""\n    """ request.args(0) - project  , request.args(1) published"""\n\n    redirect(URL(\'list_all_pub_projects\',args=[\'project\',\'experiment.project\',request.args(0)]))\n    \ndef list_all_dev_samples():\n   \n    redirect(URL(\'list_all_dev_projects\',args=[\'project\',\'sample.project\',request.args(0)]))\n    return locals()\n\ndef ajx_role():\n    """ an ajax call back which takes care of insert , update and delete in the roles table """\n    rid = request.args(1)\n    if request.args(0) == \'accept\':\n       row = db(db.role.id == rid).update(approval_status = 1)\n       result = db(db.role.id == rid).select(db.role.ALL).first()\n       gid = auth.id_group(role_list[int(result.role)])\n       auth.add_membership(gid,result.user)\n    if request.args(0) == \'unblock\':\n       del db.role[rid] \n    if request.args(0) == \'block\':\n       row = db(db.role.id == rid).update(approval_status = 2)\n    if request.args(0) == \'delete\' or request.args(0) == \'deny\':\n       result = db(db.role.id == rid).select(db.role.ALL).first()\n       gid = auth.id_group(role_list[int(result.role)])\n       auth.del_membership(gid,result.user)\n       del db.role[rid] \n    return locals()\n\ndef reg_project():\n    response.menu = [\n    (T(\'Home\'), False, URL(\'default\',\'list_all_projects\'), []),\n    (T(\'Project\'), False, URL(\'default\',\'project_viewer\',args=request.args),[])\n    ]\n    """ takes an id for the project and registers """\n    import datetime\n    now = datetime.datetime.now()\n    """ already requested """\n    pid = request.args(0)\n    ptitle = db(db.project.id == pid).select(db.project.ALL).first()\n    form = SQLFORM(db.role,fields=[\'role\'],showid=False)\n    if form.validate():\n       requested = db(db.role.user == auth.user.id)(db.role.project == pid)(db.role.approval_status == 0)(db.role.role==form.vars.role).count()\n       if requested == 0: \n        db.role.insert(user=auth.user.id,approval_status=0,project=pid,member_since=now,role=form.vars.role)\n        response.flash = \'accepted\'\n       else:\n        response.flash = \'You already hold the applied role\' \n    return locals() \n\ndef ajx_publish():\n    """ an ajax call back which takes care of publication status """\n    eid = request.args(1)\n    if request.args(0) == \'publish\':\n     row = db(db.project.id == eid).update(project_status = "1")\n    elif request.args(0) == \'unpublish\':\n     row = db(db.project.id == eid).update(project_status = "0")\n    redirect(\'project_viewer\',args = eid)\n    return locals() \n\ndef roles():\n    response.menu = [\n    (T(\'Home\'), False, URL(\'default\',\'list_all_projects\'), []),\n    (T(\'Project\'), False, URL(\'default\',\'project_viewer\',args=request.args),[])\n    ]\n    """ complete interface for managing roles for a particular project"""\n    """ should be accessible to only project co-ordinators """\n    pid = request.args(0)\n    error = authenticate(auth.user.id,pid,\'roles\')\n    accepted = db(db.auth_user.id == db.role.user)(db.role.approval_status == 1)(db.role.project == pid).select(db.role.ALL,db.auth_user.ALL)\n    pending = db(db.auth_user.id == db.role.user)(db.role.approval_status == 0)(db.role.project == pid).select(db.role.ALL,db.auth_user.ALL)\n    blocked = db(db.auth_user.id == db.role.user)(db.role.approval_status == 2)(db.role.project == pid).select(db.role.ALL,db.auth_user.ALL)\n    return locals()\n   \ndef home_page():\n    """ home page for a user , shows list of projects he is working on and his past work """\n    uid = request.args(0)\n    #my roles \n    \n    roles = db(db.role.user == uid)(db.role.project == db.project.id).select(db.role.ALL,db.project.name) \n    myroles = [role_list[int(p.role.role)] for p in roles]\n    k = {}\n    """\n    is_coordinator = db(db.project.project_coordinator==uid).select(db.project.ALL)\n    coordinating_projects = [row.name for row in is_coordinator]\n    value=\'\'\n    for p in coordinating_projects:\n       value = value + \',\'+ p\n\t  \n    k[6] = value[1:] """\n    for row in roles:\n       if row.role.role not in k:\n          k[row.role.role] = row.project.name\n       else:\n          k[row.role.role] = k[row.role.role] + \',\' + row.project.name\n    com_exps = db(db.sample.working_status == 1)(db.sample.experimentalist == uid)(db.sample.project == db.project.id).select(db.sample.ALL,db.project.id,db.project.name,orderby=db.sample.code)\n    incom_exps = db(db.sample.working_status == 1)(db.sample.experimentalist == uid)(db.sample.project == db.project.id).select(db.sample.ALL,db.project.id,db.project.name,orderby=db.sample.code)\n    pub_exps = db(db.sample.working_status == 0)(db.sample.publication_status == True)(db.sample.experimentalist == uid)(db.sample.project == db.project.id).select(db.sample.ALL,db.project.id,db.project.name,orderby=db.sample.code)\n    unpub_exps = db(db.sample.working_status == 0)(db.sample.publication_status == False) (db.sample.experimentalist == uid)(db.sample.project == db.project.id).select(db.sample.ALL,db.project.id,db.project.name,orderby=db.sample.code)\n    for p in k:\n       list_projects = k[p].split(\',\')\n       proj = \'\' \n       for d in list_projects:\n          res = db(db.project.name == d).select(db.project.ALL).first()\n          cat = \'\'\n          if res:\n             cat = A(res.name,_href=URL(\'project_viewer\',args=res.id))\n          if proj == \'\':\n             proj=SPAN(cat)\n          else:\n           proj = SPAN(proj,\',\',cat)\n       k[p] = proj \n    return locals()\n\ndef download():\n    return response.download(request, db)\n\ndef insert_biosource():\n#prepopulating records  \n   if \'clear\' not in request.args:    \n    trows = db(db.template.user==auth.user.id).select()\n    count = db(db.template.user==auth.user.id).count()\n    if count > 0:\n     rows = db(db.biosource.sample_name==trows[0].sample).select()\n     count1 = db(db.biosource.sample_name==trows[0].sample).count()\n     if count1 > 0:\n      row = rows[0]\n      for fieldname in db.biosource.fields:\n       if fieldname!=\'id\': \n        db.biosource[fieldname].default=row[fieldname]\n   else : \n    request.args.pop()\n   #result = db(db.sample.id == request.args[-3]).select(db.sample.ALL).first()\n#  error = authenticate(auth.user.id,result.project,\'insert_biosource\')\n   response.menu = [\n   (T(\'Home\'), False, URL(\'default\',\'list_all_projects\'), [])\n   ]\n   redirect_args = request.args[0:-3]\n   form = SQLFORM(db.biosource)\n   if \'view\' in request.args: \n\t       form=SQLFORM(db.biosource,request.args[-1],readonly = True,showid=False)\t  \n   elif \'edit\' in request.args: \n\t       form=SQLFORM(db.biosource,request.args[-1],showid=False)\n   elif \'new\' in request.args:\n               db.biosource.sample_name.readable = False \n               hid = {}   \n\t       form=SQLFORM(db.biosource,showid=False)\n\t       form.vars.sample_name = request.args[-3]\n \t       redirect_args = request.args[0:-4]\n   i=1\n   f1=form[0][:i+2]\n   fs1=form[0][i+2:i+7]\n   f2=form[0][i+7:]\n   form[0]=TABLE(TABLE(f1),\n      FIELDSET(TAG.legend("Genotype"),TABLE(fs1)),TABLE(f2))\n   if form.process().accepted:\n     redirect(URL(\'list_all_dev_projects\',args=redirect_args)) \n     response.flash="Inserted entry"\n   return locals()\n\ndef insert_pgc():\n#prepopulating records  \n  trows = db(db.template.user==auth.user.id).select()\n  count = db(db.template.user==auth.user.id).count()\n  if count > 0:\n    rows = db(db.plant_growth_condition.sample_name==trows[0].sample).select()\n    count1 = db(db.plant_growth_condition.sample_name==trows[0].sample).count()\n    if count1 > 0:\n     row = rows[0]\n     for fieldname in db.plant_growth_condition.fields:\n      if fieldname!=\'id\': \n       db.plant_growth_condition[fieldname].default=row[fieldname]\n  #result = db(db.sample.id == request.args[-1]).select(db.sample.ALL).first()\n  response.menu = [\n  (T(\'Home\'), False, URL(\'default\',\'list_all_projects\'), [])\n  ]\n  redirect_args = request.args[0:-3]\t \n  form = SQLFORM(db.plant_growth_condition) \n  if \'view\' in request.args: \n\tform=SQLFORM(db.plant_growth_condition,request.args[-1],readonly = True,upload=URL(\'download\'),showid=False)\n  elif \'edit\' in request.args: \n\tform=SQLFORM(db.plant_growth_condition,request.args[-1],upload=URL(\'download\'),showid=False)\n  elif \'new\' in request.args:\n        db.plant_growth_condition.sample_name.readable = False \n\tform=SQLFORM(db.plant_growth_condition,showid=False)\n        form.vars.sample_name = request.args[-3]\n\tredirect_args = request.args[0:-2]\t \n  i=1\n  fs1=form[0][:i+5]\n  fss1=form[0][i+5:i+9]\n  fss2=form[0][i+9:i+10]\n  fss3=form[0][i+10:i+15]\n  f2=form[0][i+15:i+18]\n  fs2=form[0][i+18:i+21]\n  fs3=form[0][i+21:i+27]\n  f3=form[0][i+27:]\n  t2=TABLE(FIELDSET(TAG.legend("Growth Support"),TABLE(fs1)))\n  t3=TABLE(FIELDSET(TAG.legend("Location"),TABLE(FIELDSET(TAG.legend("Field trail"),TABLE(fss1))),TABLE(fss2),TABLE(FIELDSET(TAG.legend("Green house"),TABLE(fss3)))))\n  t4=TABLE(FIELDSET(TAG.legend("Nutritional Regime"),TABLE(fs2)))\n  t5=TABLE(FIELDSET(TAG.legend("Date of Plant Establishment(YYYY-MM-DD)"),TABLE(fs3)))\n  form[0]=TABLE(FIELDSET(t2,t3,TABLE(f2),t4,t5,TABLE(f3)))\n  if form.process().accepted:\n    redirect(URL(\'list_all_dev_projects\',args=redirect_args)) \n    response.flash="form accepted"\n# redirect(URL(\'list_all_samples\',args=[\'sample\'])) \n  else:\n    response.flsh="form has some errors"\n  return locals()\n\ndef insert_ep():\n#prepopulating records  \n  trows = db(db.template.user==auth.user.id).select()\n  count = db(db.template.user==auth.user.id).count()\n  if count > 0:\n    rows = db(db.extraction_preparation.sample_name==trows[0].sample).select()\n    count1 = db(db.extraction_preparation.sample_name==trows[0].sample).count()\n    if count1 > 0:\n     row = rows[0]\n     for fieldname in db.extraction_preparation.fields:\n      if fieldname!=\'id\': \n       db.extraction_preparation[fieldname].default=row[fieldname]\n  #result = db(db.sample.id == request.args[-1]).select(db.sample.ALL).first()\n  response.menu = [\n  (T(\'Home\'), False, URL(\'default\',\'list_all_projects\'), [])\n  ]\n  redirect_args = request.args[0:-3]\t \n  if \'view\' in request.args: \n       form=SQLFORM(db.extraction_preparation,request.args[-1],readonly = True,upload=URL(\'download\'),showid=False)\n  if \'edit\' in request.args: \n       form=SQLFORM(db.extraction_preparation,request.args[-1],upload=URL(\'download\'),showid=False)\n  if \'new\' in request.args:\n       db.extraction_preparation.sample_name.readable=False\n       form=SQLFORM(db.extraction_preparation,showid=False)\n       form.vars.sample_name = request.args[-3]\n       redirect_args = request.args[0:-2]\t \n  i=1\n  t1=TABLE(FIELDSET(TAG.legend("SAMPLE EXTRACTION"),TABLE(form[0][:i+8]),TABLE(FIELDSET(TAG.legend("Extract Storage:"),TABLE(form[0][i+8:i+12])))))\n  t2=TABLE(FIELDSET(TAG.legend("SAMPLE PREPARATION"),TABLE(form[0][i+12:])))\n  form[0]=TABLE(FIELDSET(t1,t2))\n  if form.process().accepted:\n       response.flash="Inserted entry"\n       redirect(URL(\'list_all_dev_projects\',args=redirect_args)) \n  return locals()\n\ndef insert_treatments():\n#prepopulating records  \n  trows = db(db.template.user==auth.user.id).select()\n  count = db(db.template.user==auth.user.id).count()\n  if count > 0:\n    rows = db(db.treatments.sample_name==trows[0].sample).select()\n    count1 = db(db.treatments.sample_name==trows[0].sample).count()\n    if count1 > 0:\n     row = rows[0]\n     for fieldname in db.treatments.fields:\n      if fieldname!=\'id\': \n       db.treatments[fieldname].default=row[fieldname]\n  #result = db(db.sample.id == request.args[-1]).select(db.sample.ALL).first()\n  response.menu = [\n  (T(\'Home\'), False, URL(\'default\',\'list_all_projects\'), [])\n  ]\n  redirect_args = request.args[0:-3]\t \n  if \'view\' in request.args: \n       form=SQLFORM(db.treatments,request.args[-1],readonly = True,upload=URL(\'download\'),showid=False)\n  if \'edit\' in request.args: \n       form=SQLFORM(db.treatments,request.args[-1],upload=URL(\'download\'),showid=False)\n  if \'new\' in request.args:\n       db.treatments.sample_name.readable=False\n       form=SQLFORM(db.treatments,showid=False)\n       form.vars.sample_name = request.args[-3] \n       redirect_args = request.args[0:-2]\t \n  i=1\n  t1=TABLE(FIELDSET(TAG.legend("Treatment Factor"),TABLE(form[0][:i+3])))\n  form[0]=TABLE(FIELDSET(t1,TABLE(form[0][i+3:])))\n  if form.process().accepted:\n      response.flash="Inserted entry"\n      redirect(URL(\'list_all_dev_projects\',args=redirect_args)) \n  return locals()\n\ndef insert_harvests():\n#prepopulating records  \n  trows = db(db.template.user==auth.user.id).select()\n  count = db(db.template.user==auth.user.id).count()\n  if count > 0:\n    rows = db(db.harvests.sample_name==trows[0].sample).select()\n    count1 = db(db.harvests.sample_name==trows[0].sample).count()\n    if count1 > 0:\n     row = rows[0]\n     for fieldname in db.harvests.fields:\n      if fieldname!=\'id\': \n       db.harvests[fieldname].default=row[fieldname]\n  #result = db(db.sample.id == request.args[-1]).select(db.sample.ALL).first()\n  response.menu = [\n  (T(\'Home\'), False, URL(\'default\',\'list_all_projects\'), [])\n  ]\n  redirect_args = request.args[0:-3]\t \n  if \'view\' in request.args: \n       form=SQLFORM(db.harvests,request.args[-1],readonly = True,upload=URL(\'download\'),showid=False)\n  if \'edit\' in request.args: \n       form=SQLFORM(db.harvests,request.args[-1],upload=URL(\'download\'),showid=False)\n  if \'new\' in request.args:\n       db.harvests.sample_name.readable=False\n       form=SQLFORM(db.harvests,showid=False)\n       form.vars.sample_name = request.args[-3]\n       redirect_args = request.args[0:-2]\n  i=1\t \n  t1=TABLE(FIELDSET(TAG.legend("Sample Storage"),TABLE(form[0][i+7:])))\n  form[0]=TABLE(FIELDSET(TABLE(form[0][:i+7]),t1))\n  if form.process().accepted:\n      response.flash="Inserted entry"\n      redirect(URL(\'list_all_dev_projects\',args=redirect_args)) \n  return locals()\n\t  \t\ndef insert_gc():\n#prepopulating records  \n  trows = db(db.template.user==auth.user.id).select()\n  count = db(db.template.user==auth.user.id).count()\n  if count > 0:\n    rows = db(db.gas_chromatography.sample_name==trows[0].sample).select()\n    count1 = db(db.gas_chromatography.sample_name==trows[0].sample).count()\n    if count1 > 0:\n     row = rows[0]\n     for fieldname in db.gas_chromatography.fields:\n      if fieldname!=\'id\': \n       db.gas_chromatography[fieldname].default=row[fieldname]\n  #result = db(db.sample.id == request.args[-1]).select(db.sample.ALL).first()\n  response.menu = [\n  (T(\'Home\'), False, URL(\'default\',\'list_all_projects\'), [])\n  ]\n  redirect_args = request.args[0:-3]\t \n  if \'view\' in request.args: \n\tform=SQLFORM(db.gas_chromatography,request.args[-1],readonly = True,pload=URL(\'download\'),showid=False)\n  elif \'edit\' in request.args: \n        form=SQLFORM(db.gas_chromatography,request.args[-1],upload=URL(\'download\'),showid=False)\n  elif \'new\' in request.args:\n        db.gas_chromatography.sample_name.readable=False\n        redirect_args = request.args[0:-2]\t \n        form=SQLFORM(db.gas_chromatography,showid=False)\n        form.vars.sample_name = request.args[-3]\n  j=1\n  t_ep_1=TABLE(FIELDSET(TAG.legend("SAMPLE EXTRACTION"),TABLE(form[0][:j+7]),TABLE(FIELDSET(TAG.legend("Extract Storage:"),TABLE(form[0][j+7:j+11])))))\n  t_ep_2=TABLE(FIELDSET(TAG.legend("SAMPLE PREPARATION"),TABLE(form[0][j+11:15])))\n  i=15\n  t1=TABLE(FIELDSET(TAG.legend("CHROMATOGRAPHY INSTRUMENTAL"),TABLE(form[0][15:i+4])))\n  t2=TABLE(FIELDSET(TAG.legend("DERIVATIZATION"),TABLE(form[0][i+4:i+8])))\n  t3=TABLE(FIELDSET(TAG.legend("AUTO-INJECTOR DETAILS"),TABLE(form[0][i+8:i+15])))\n  t4=TABLE(FIELDSET(TAG.legend("SEPERATION COLUMN AND PRE/GUARD COLUMN"),TABLE(form[0][i+15:i+23])))\n  t5=TABLE(FIELDSET(TAG.legend("SEPERATION PARAMETERS"),TABLE(form[0][i+23:i+30])))\n  t6=TABLE(FIELDSET(TAG.legend("QUALITY CONTROL"),TABLE(form[0][i+30:i+33]),TABLE(FIELDSET(TAG.legend("Cycle per"),TABLE(form[0][i+33:i+37])))))\n  t7=TABLE(FIELDSET(TAG.legend("DATA ACQUISITION"),TABLE(form[0][i+37:])))\n  form[0]=TABLE(FIELDSET(t_ep_1,t_ep_2,t1,t2,t3,t4,t5,t6,t7))\n  if form.process().accepted:\n\tresponse.flash="Inserted entry"\n\tredirect(URL(\'list_all_dev_projects\',args=redirect_args)) \n#       redirect(URL(\'list_all_samples\',args=[\'sample\'])) \n  return locals()\n\ndef insert_lc():\n#prepopulating records  \n  trows = db(db.template.user==auth.user.id).select()\n  count = db(db.template.user==auth.user.id).count()\n  if count > 0:\n    rows = db(db.liquid_chromatography.sample_name==trows[0].sample).select()\n    count1 = db(db.liquid_chromatography.sample_name==trows[0].sample).count()\n    if count1 > 0:\n     row = rows[0]\n     for fieldname in db.liquid_chromatography.fields:\n      if fieldname!=\'id\': \n       db.liquid_chromatography[fieldname].default=row[fieldname]\n  #result = db(db.sample.id == request.args[-1]).select(db.sample.ALL).first()\n  response.menu = [\n  (T(\'Home\'), False, URL(\'default\',\'list_all_projects\'), [])\n  ]\n  redirect_args = request.args[0:-3]\t \n  form = SQLFORM(db.liquid_chromatography)\n  if \'view\' in request.args: \n      form=SQLFORM(db.liquid_chromatography,request.args[-1],readonly = True,upload=URL(\'download\'),showid=False)\n  if \'edit\' in request.args: \n      form=SQLFORM(db.liquid_chromatography,request.args[-1],upload=URL(\'download\'),showid=False)\n  if \'new\' in request.args:\n      db.liquid_chromatography.sample_name.readable=False\n      redirect_args = request.args[0:-2]\t \n      form=SQLFORM(db.liquid_chromatography,showid=False)\n      form.vars.sample_name = request.args[-3] \n  j=1\n  t_ep_1=TABLE(FIELDSET(TAG.legend("SAMPLE EXTRACTION"),TABLE(form[0][:j+7]),TABLE(FIELDSET(TAG.legend("Extract Storage:"),TABLE(form[0][j+7:j+11])))))\n  t_ep_2=TABLE(FIELDSET(TAG.legend("SAMPLE PREPARATION"),TABLE(form[0][j+11:15])))\n  i=15\n  t1=TABLE(FIELDSET(TAG.legend("CHROMATOGRAPHY INSTRUMENTAL"),TABLE(form[0][15:i+4])))\n  t3=TABLE(FIELDSET(TAG.legend("AUTO-INJECTOR DETAILS"),TABLE(form[0][i+4:i+11])))\n  t4=TABLE(FIELDSET(TAG.legend("SEPERATION COLUMN AND PRE/GUARD COLUMN"),TABLE(form[0][i+11:i+19])))\n  t5=TABLE(FIELDSET(TAG.legend("SEPERATION PARAMETERS"),TABLE(form[0][i+19:i+26])))\n  t6=TABLE(FIELDSET(TAG.legend("QUALITY CONTROL"),TABLE(form[0][i+26:i+29]),TABLE(FIELDSET(TAG.legend("Cycle per"),TABLE(form[0][i+29:i+33])))))\n  t7=TABLE(FIELDSET(TAG.legend("DATA ACQUISITION"),TABLE(form[0][i+33:])))\n  form[0]=TABLE(FIELDSET(t_ep_1,t_ep_2,t1,t3,t4,t5,t6,t7))\n  if form.process().accepted:\n      response.flash="Inserted entry"\n      redirect(URL(\'list_all_dev_projects\',args=redirect_args)) \n#     redirect(URL(\'list_all_samples\',args=[\'sample\'])) \n  return locals()\n\ndef insert_ms():\n#prepopulating records  \n  trows = db(db.template.user==auth.user.id).select()\n  count = db(db.template.user==auth.user.id).count()\n  if count > 0:\n    rows = db(db.mass_spectroscopy.sample_name==trows[0].sample).select()\n    count1 = db(db.mass_spectroscopy.sample_name==trows[0].sample).count()\n    if count1 > 0:\n     row = rows[0]\n     for fieldname in db.mass_spectroscopy.fields:\n      if fieldname!=\'id\': \n       db.mass_spectroscopy[fieldname].default=row[fieldname]\n  #result = db(db.sample.id == request.args[-1]).select(db.sample.ALL).first()\n  response.menu = [\n  (T(\'Home\'), False, URL(\'default\',\'list_all_projects\'), [])\n  ]\n  redirect_args = request.args[0:-3]\t \n  if \'view\' in request.args: \n    form=SQLFORM(db.mass_spectroscopy,request.args[-1],readonly = True,upload=URL(\'download\'),showid=False)\n  elif \'edit\' in request.args: \n    form=SQLFORM(db.mass_spectroscopy,request.args[-1],upload=URL(\'download\'),showid=False)\n  elif \'new\' in request.args:\n    db.mass_spectroscopy.sample_name.readable=False\n    redirect_args = request.args[0:-2]\t \n    form=SQLFORM(db.mass_spectroscopy,showid=False)\n    form.vars.sample_name = request.args[-3]\n  i=1\n  t1=TABLE(FIELDSET(TAG.legend("INSTRUMENTAL DETAILS"),TABLE(form[0][:i+4])))\n  t2=TABLE(FIELDSET(TAG.legend("IONISATION SOURCE"),TABLE(form[0][i+4:i+10])))\n  t3=TABLE(FIELDSET(TAG.legend("MASS ANALYZER"),TABLE(form[0][i+10:i+18]),TABLE(FIELDSET(TAG.legend("Lock spray"),TABLE(form[0][i+18:i+22]))),TABLE(form[0][i+22:i+23])))\n  t4=TABLE(FIELDSET(TAG.legend("QUALITY CONTROL"),TABLE(form[0][i+23:i+27])))\n  t5=TABLE(FIELDSET(TAG.legend("DATA ACQUISITION"),TABLE(form[0][i+27:])))\n  form[0]=TABLE(FIELDSET(t1,t2,t3,t4,t5))\n  if form.process().accepted:\n      \tresponse.flash="Inserted entry"\n        redirect(URL(\'list_all_dev_projects\',args=redirect_args)) \n#     \tredirect(URL(\'list_all_samples\'),args=[\'sample\']) \n  return locals()\n\ndef insert_raw_data():\n#prepopulating records  \n  trows = db(db.template.user==auth.user.id).select()\n  count = db(db.template.user==auth.user.id).count()\n  if count > 0:\n    rows = db(db.raw_data_storage_information.sample_name==trows[0].sample).select()\n    count1 = db(db.raw_data_storage_information.sample_name==trows[0].sample).count()\n    if count1 > 0:\n     row = rows[0]\n     for fieldname in db.raw_data_storage_information.fields:\n      if fieldname!=\'id\': \n       db.raw_data_storage_information[fieldname].default=row[fieldname]\n  response.menu = [\n  (T(\'Home\'), False, URL(\'default\',\'list_all_projects\'), [])\n  ]\n  redirect_args = request.args[0:-3]\t \n  if \'view\' in request.args: \n    form=SQLFORM(db.raw_data_storage_information,request.args[-1],readonly = True,upload=URL(\'download\'),showid=False)\n  elif \'edit\' in request.args: \n    form=SQLFORM(db.raw_data_storage_information,request.args[-1],upload=URL(\'download\'),showid=False)\n  elif \'new\' in request.args:\n    db.raw_data_storage_information.sample_name.readable=False\n    redirect_args = request.args[0:-2]\t \n    form=SQLFORM(db.raw_data_storage_information,showid=False)\n    form.vars.sample_name = request.args[-3]\n    form.vars.email_id_of_person=auth.user.email \n  if form.process().accepted:\n      \tresponse.flash="Inserted entry"\n        redirect(URL(\'list_all_dev_projects\',args=redirect_args)) \n#     \tredirect(URL(\'list_all_samples\'),args=[\'sample\']) \n  return locals()\n\ndef insert_spectrophotometry():\n#prepopulating records  \n  trows = db(db.template.user==auth.user.id).select()\n  count = db(db.template.user==auth.user.id).count()\n  if count > 0:\n    rows = db(db.spectrophotometry.sample_name==trows[0].sample).select()\n    count1 = db(db.spectrophotometry.sample_name==trows[0].sample).count()\n    if count1 > 0:\n     row = rows[0]\n     for fieldname in db.spectrophotometry.fields:\n      if fieldname!=\'id\': \n       db.spectrophotometry[fieldname].default=row[fieldname]\n  response.menu = [\n  (T(\'Home\'), False, URL(\'default\',\'list_all_projects\'), [])\n  ]\n  redirect_args = request.args[0:-3]\t \n  if \'view\' in request.args: \n    form=SQLFORM(db.spectrophotometry,request.args[-1],readonly = True,upload=URL(\'download\'),showid=False)\n  elif \'edit\' in request.args: \n    form=SQLFORM(db.spectrophotometry,request.args[-1],upload=URL(\'download\'),showid=False)\n  elif \'new\' in request.args:\n    db.spectrophotometry.sample_name.readable=False\n    redirect_args = request.args[0:-2]\t \n    form=SQLFORM(db.spectrophotometry,showid=False)\n    form.vars.sample_name = request.args[-3]\n  if form.process().accepted:\n      \tresponse.flash="Inserted entry"\n        redirect(URL(\'list_all_dev_projects\',args=redirect_args)) \n#     \tredirect(URL(\'list_all_samples\'),args=[\'sample\']) \n  return locals()\n\n\n@auth.requires_signature()\ndef data():\n    """\n    http://..../[app]/default/data/tables\n    http://..../[app]/default/data/create/[table]\n    http://..../[app]/default/data/read/[table]/[id]\n    http://..../[app]/default/data/update/[table]/[id]\n    http://..../[app]/default/data/delete/[table]/[id]\n    http://..../[app]/default/data/select/[table]\n    http://..../[app]/default/data/search/[table]\n    but URLs must be signed, i.e. linked with\n      A(\'table\',_href=URL(\'data/tables\',user_signature=True))\n    or with the signed load operator\n      LOAD(\'default\',\'data.load\',args=\'tables\',ajax=True,user_signature=True)\n    """\n    return dict(form=crud())\n\n#def drop_tables():\n    #are you sure you want to do this?\n    #for t in [\'auth_user\',\'auth_group\', \'auth_membership\', \'auth_permission\', \'auth_event\',\'sample\',\'biosource\',\'affiliation\',\'project\',\'role\',\'template\',\'experiment\',\'project_meta\',\'plant_growth_condition\',\'treatments\',\'harvests\',\'extraction_preparation\',\'gas_chromatography\',\'liquid_chromatography\',\'mass_spectroscopy\',\'spectrophotometry\',\'feedback\',\'sample_files\']:\n    #    db[t].drop()\n    # pass\n    #return \n\ndef show_feedback():\n    grid = SQLFORM.smartgrid(db.feedback)\n    return locals()\n\n \ndef post_feedback():\n    """ allows to post feedback to the table feedback """ \n    past_feeds = db(db.feedback.feedback_on == request.env.http_referer).select(db.feedback.feedback_body,db.feedback.id)\n    form = SQLFORM(db.feedback,fields=[\'feedback_body\'],labels={\'feedback_body\':\'Your feedback about this page\'})\n    feedback_by = \'\'\n    if form.validate():\n\tif auth.user:\n            feedback_by = auth.user.id\n        else:\n\t   feedback_by = \'\'\n\tdb.feedback.insert(feedback_on=request.env.http_referer,feedback_body=form.vars.feedback_body,feedback_by=feedback_by)\n\tresponse.flash = "feedback has been duly noted and will be taken care of "\n    return locals()\n\n\ndef user_viewer():\n   """shows the user details """\n   uid = request.args(0)\n   record = db.auth_user(uid)\n   form = SQLFORM(db.auth_user,record,readonly=True,showid=False,fields=[\'first_name\',\'last_name\',\'email\',\'affiliated_to\',\'phone\',\'mobile\',\'city\'])\n   return locals()\n\n\ndef dict_dump(obj,inp):\n  ans = \'<dl class="dl-horizontal">\'\n  for key in inp.keys():\n     add = \'<dt>\'+str(inp[key])+\'</dt>\'+\'<dd>\'+str(obj[key])+\'</dd>\'\n     ans = ans+add\n  return ans\t\n\n\ndef sample():\n  """gets all the information regarding a sample in a single page """\n  sid = request.args[-1]\n  sample = db(db.sample.id == sid).select(db.sample.ALL).first()\n  user = db(db.auth_user.id == sample.experimentalist).select(db.auth_user.ALL).first()\n  experiment = db(db.experiment.id == sample.experiment).select(db.experiment.ALL).first()\n  biosource = db(db.biosource.sample_name == sid).select(db.biosource.ALL)\n  plant_growth = db(db.plant_growth_condition.sample_name == sid).select(db.plant_growth_condition.ALL)\n  treatment = db(db.treatments.sample_name == sid).select(db.treatments.ALL)\n  harvest = db(db.harvests.sample_name == sid).select(db.harvests.ALL)\n  extraction_preparation = db(db.extraction_preparation.sample_name == sid).select(db.extraction_preparation.ALL)\n  gc = db(db.gas_chromatography.sample_name == sid).select(db.gas_chromatography.ALL)\n  lc = db(db.liquid_chromatography.sample_name == sid).select(db.liquid_chromatography.ALL)\n  ms = db(db.mass_spectroscopy.sample_name == sid).select(db.mass_spectroscopy.ALL)\n  raw_storage = db(db.raw_data_storage_information.sample_name == sid).select(db.raw_data_storage_information.ALL)\n  biosource_forms = [] #a list of forms\n  for each in biosource:\n\tform = SQLFORM(db.biosource,each.id,showid=False,readonly=True)\n\ti=1\n\tf1=form[0][:i+2]\n\tfs1=form[0][i+2:i+7]\n\tf2=form[0][i+7:]\n\tform[0]=TABLE(TABLE(f1),FIELDSET(TAG.legend("Genotype"),TABLE(fs1)),TABLE(f2))\n\tbiosource_forms.append(form[0])\n        \n  pgc_forms = []\n  for each in plant_growth:\n     form = SQLFORM(db.plant_growth_condition,each.id,showid=False,readonly=True)\n     i=1\n     fs1=form[0][:i+5]\n     fss1=form[0][i+5:i+9]\n     fss2=form[0][i+9:i+10]\n     fss3=form[0][i+10:i+15]\n     f2=form[0][i+15:i+18]\n     fs2=form[0][i+18:i+21]\n     fs3=form[0][i+21:i+27]\n     f3=form[0][i+27:]\n     t2=TABLE(FIELDSET(TAG.legend("Growth Support"),TABLE(fs1)))\n     t3=TABLE(FIELDSET(TAG.legend("Location"),TABLE(FIELDSET(TAG.legend("Field trail"),TABLE(fss1))),TABLE(fss2),TABLE(FIELDSET(TAG.legend("Green house"),TABLE(fss3)))))\n     t4=TABLE(FIELDSET(TAG.legend("Nutritional Regime"),TABLE(fs2)))\n     t5=TABLE(FIELDSET(TAG.legend("Date of Plant Establishment(YYYY-MM-DD)"),TABLE(fs3)))\n     form[0]=TABLE(FIELDSET(t2,t3,TABLE(f2),t4,t5,TABLE(f3)))\n     pgc_forms.append(form[0])\n  \n  treatment_forms = []\n  for each in treatment:\n     form = SQLFORM(db.treatments,each.id,showid=False,readonly=True)\n     i=1\n     t1=TABLE(FIELDSET(TAG.legend("Treatment Factor"),TABLE(form[0][:i+3])))\n     form[0]=TABLE(FIELDSET(t1,TABLE(form[0][i+3:])))\n\n\n  harvest_forms = []\n  for each in harvest:\n     form = SQLFORM(db.harvests,each.id,showid=False,readonly=True)\n     i=1\n     t1=TABLE(FIELDSET(TAG.legend("Sample Storage"),TABLE(form[0][i+7:])))\n     form[0]=TABLE(FIELDSET(TABLE(form[0][:i+7]),t1))\n     harvest_forms.append(form[0])\n\n  gc_forms = []\n  for each in gc:\n     form = SQLFORM(db.gas_chromatography,each.id,showid=False,readonly=True)\n     j=1\n     t_ep_1=TABLE(FIELDSET(TAG.legend("SAMPLE EXTRACTION"),TABLE(form[0][:j+7]),TABLE(FIELDSET(TAG.legend("Extract Storage:"),TABLE(form[0][j+7:j+11])))))\n     t_ep_2=TABLE(FIELDSET(TAG.legend("SAMPLE PREPARATION"),TABLE(form[0][j+11:15])))\n     i=15\n     t1=TABLE(FIELDSET(TAG.legend("CHROMATOGRAPHY INSTRUMENTAL"),TABLE(form[0][15:i+4])))\n     t2=TABLE(FIELDSET(TAG.legend("DERIVATIZATION"),TABLE(form[0][i+4:i+8])))\n     t3=TABLE(FIELDSET(TAG.legend("AUTO-INJECTOR DETAILS"),TABLE(form[0][i+8:i+15])))\n     t4=TABLE(FIELDSET(TAG.legend("SEPERATION COLUMN AND PRE/GUARD COLUMN"),TABLE(form[0][i+15:i+23])))\n     t5=TABLE(FIELDSET(TAG.legend("SEPERATION PARAMETERS"),TABLE(form[0][i+23:i+30])))\n     t6=TABLE(FIELDSET(TAG.legend("QUALITY CONTROL"),TABLE(form[0][i+30:i+33]),TABLE(FIELDSET(TAG.legend("Cycle per"),TABLE(form[0][i+33:i+37])))))\n     t7=TABLE(FIELDSET(TAG.legend("DATA ACQUISITION"),TABLE(form[0][i+37:])))\n     form[0]=TABLE(FIELDSET(t_ep_1,t_ep_2,t1,t2,t3,t4,t5,t6,t7))\n\n     gc_forms.append(form[0])\n \n  lc_forms = []\n  \n  for each in lc:\n    form = SQLFORM(db.gas_chromatography,each.id,showid=False,readonly=True)\n    j=1\n    t_ep_1=TABLE(FIELDSET(TAG.legend("SAMPLE EXTRACTION"),TABLE(form[0][:j+7]),TABLE(FIELDSET(TAG.legend("Extract Storage:"),TABLE(form[0][j+7:j+11])))))\n    t_ep_2=TABLE(FIELDSET(TAG.legend("SAMPLE PREPARATION"),TABLE(form[0][j+11:15])))\n    i=15\n    t1=TABLE(FIELDSET(TAG.legend("CHROMATOGRAPHY INSTRUMENTAL"),TABLE(form[0][15:i+4])))\n    t3=TABLE(FIELDSET(TAG.legend("AUTO-INJECTOR DETAILS"),TABLE(form[0][i+4:i+11])))\n    t4=TABLE(FIELDSET(TAG.legend("SEPERATION COLUMN AND PRE/GUARD COLUMN"),TABLE(form[0][i+11:i+19])))\n    t5=TABLE(FIELDSET(TAG.legend("SEPERATION PARAMETERS"),TABLE(form[0][i+19:i+26])))\n    t6=TABLE(FIELDSET(TAG.legend("QUALITY CONTROL"),TABLE(form[0][i+26:i+29]),TABLE(FIELDSET(TAG.legend("Cycle per"),TABLE(form[0][i+29:i+33])))))\n    t7=TABLE(FIELDSET(TAG.legend("DATA ACQUISITION"),TABLE(form[0][i+33:])))\n    form[0]=TABLE(FIELDSET(t_ep_1,t_ep_2,t1,t3,t4,t5,t6,t7))\n    lc_forms.append(form[0])\n \n  ms_forms = []\n  for each in ms:\n    form = SQLFORM(db.mass_spectroscopy,each.id,showid=False,readonly=True)\n    i=1\n    t1=TABLE(FIELDSET(TAG.legend("INSTRUMENTAL DETAILS"),TABLE(form[0][:i+4])))\n    t2=TABLE(FIELDSET(TAG.legend("IONISATION SOURCE"),TABLE(form[0][i+4:i+10])))\n    t3=TABLE(FIELDSET(TAG.legend("MASS ANALYZER"),TABLE(form[0][i+10:i+18]),TABLE(FIELDSET(TAG.legend("Lock spray"),TABLE(form[0][i+18:i+22]))),TABLE(form[0][i+22:i+23])))\n    t4=TABLE(FIELDSET(TAG.legend("QUALITY CONTROL"),TABLE(form[0][i+23:i+27])))\n    t5=TABLE(FIELDSET(TAG.legend("DATA ACQUISITION"),TABLE(form[0][i+27:])))\n    form[0]=TABLE(FIELDSET(t1,t2,t3,t4,t5))  \n    ms_forms.append(form[0])\n\n  raw_forms = []\n  for each in raw_storage:\n     form = SQLFORM(db.raw_data_storage_information,each.id,showid=False,readonly=True)\n     raw_forms.append(form[0])\n\n\n  return locals() \n\n#def grid():\n  # query=((db.project.project_status==0)&(db.experiment.project==db.project.id)&(db.sample.experiment==db.experiment.id)&(db.biosource.sample_name==db.sample.id))\n   #query=((db.sample.project==db.project.id)&(db.project.id>0))\n   #query=((db.project.id>0)&(db.sample.project==db.project.id)&((db.sample.id==db.biosource.sample_name)&(db.sample.id==db.plant_growth_condition.sample_name)))\n#   query=((db.sample.experiment==db.experiment.id)&((db.sample.id==db.biosource.sample_name)|(db.sample.id==db.plant_growth_condition.sample_name)))\n#   grid = SQLFORM.grid(query)\n#   return locals()\n\n\ndef search():\n    form=FORM(\'Your name:\',\n              INPUT(_name=\'name\', requires=IS_NOT_EMPTY()),\n              INPUT(_type=\'submit\'))\n    if form.accepts(request,session):\n      redirect(URL(\'sample\',args=form.vars.name)) \n    return locals()\n    \ndef multiple_files():\n   """allows an experimentalist to add multiple images and files and displays it in the consolidated sample view form """\n   """ per sample . takes id of the sample as the input """\n   sid = request.args(0)\n   sample = db(db.sample.id == sid).select().first() \n   old = db(db.sample_files.sample == sid).select(db.sample_files.ALL)\n   form = SQLFORM(db.sample_files)\n   form.vars.sample = sid\n   return locals()\n\n\n\nresponse._vars=response._caller(ajx_publish)\n'
p7
sS'snapshot'
p8
(dp9
S'exception'
p10
(dp11
S'__hash__'
p12
S"<method-wrapper '__hash__' of exceptions.TypeError object>"
p13
sS'__setattr__'
p14
S"<method-wrapper '__setattr__' of exceptions.TypeError object>"
p15
sS'__reduce_ex__'
p16
S'<built-in method __reduce_ex__ of exceptions.TypeError object>'
p17
sS'__getslice__'
p18
S"<method-wrapper '__getslice__' of exceptions.TypeError object>"
p19
sS'__getitem__'
p20
S"<method-wrapper '__getitem__' of exceptions.TypeError object>"
p21
sS'__setstate__'
p22
S'<built-in method __setstate__ of exceptions.TypeError object>'
p23
sS'__reduce__'
p24
S'<built-in method __reduce__ of exceptions.TypeError object>'
p25
sS'__str__'
p26
S"<method-wrapper '__str__' of exceptions.TypeError object>"
p27
sS'__format__'
p28
S'<built-in method __format__ of exceptions.TypeError object>'
p29
sS'__getattribute__'
p30
S"<method-wrapper '__getattribute__' of exceptions.TypeError object>"
p31
sS'__class__'
p32
S"<type 'exceptions.TypeError'>"
p33
sS'__unicode__'
p34
S'<built-in method __unicode__ of exceptions.TypeError object>'
p35
sS'__delattr__'
p36
S"<method-wrapper '__delattr__' of exceptions.TypeError object>"
p37
sS'__subclasshook__'
p38
S'<built-in method __subclasshook__ of type object>'
p39
sS'__repr__'
p40
S"<method-wrapper '__repr__' of exceptions.TypeError object>"
p41
sS'args'
p42
S'("redirect() got an unexpected keyword argument \'args\'",)'
p43
sS'__dict__'
p44
S'{}'
p45
sS'__sizeof__'
p46
S'<built-in method __sizeof__ of exceptions.TypeError object>'
p47
sS'__doc__'
p48
S"'Inappropriate argument type.'"
p49
sS'__init__'
p50
S"<method-wrapper '__init__' of exceptions.TypeError object>"
p51
sS'__new__'
p52
S'<built-in method __new__ of type object>'
p53
ssS'evalue'
p54
S"redirect() got an unexpected keyword argument 'args'"
p55
sS'request'
p56
ccopy_reg
_reconstructor
p57
(cgluon.html
BEAUTIFY
p58
c__builtin__
object
p59
NtRp60
(dp61
S'attributes'
p62
(dp63
sS'components'
p64
(lp65
g57
(cgluon.html
TABLE
p66
g59
NtRp67
(dp68
g62
(dp69
S'level'
p70
I5
ssS'parent'
p71
Nsg64
(lp72
g57
(cgluon.html
TR
p73
g59
NtRp74
(dp75
g62
(dp76
sg71
g67
sg64
(lp77
g57
(cgluon.html
TD
p78
g59
NtRp79
(dp80
g62
(dp81
S'_style'
p82
S'font-weight:bold;vertical-align:top'
p83
ssg71
g74
sg64
(lp84
S'ajax'
p85
asbag57
(g78
g59
NtRp86
(dp87
g62
(dp88
S'_valign'
p89
S'top'
p90
ssg71
g74
sg64
(lp91
S':'
asbag57
(g78
g59
NtRp92
(dp93
g62
(dp94
sg71
g74
sg64
(lp95
g57
(g58
g59
NtRp96
(dp97
g62
(dp98
g70
I5
ssg71
g92
sg64
(lp99
S'False'
p100
asbasbasbag57
(g73
g59
NtRp101
(dp102
g62
(dp103
sg71
g67
sg64
(lp104
g57
(g78
g59
NtRp105
(dp106
g62
(dp107
g82
g83
ssg71
g101
sg64
(lp108
S'application'
p109
asbag57
(g78
g59
NtRp110
(dp111
g62
(dp112
g89
g90
ssg71
g101
sg64
(lp113
S':'
asbag57
(g78
g59
NtRp114
(dp115
g62
(dp116
sg71
g101
sg64
(lp117
g57
(g58
g59
NtRp118
(dp119
g62
(dp120
g70
I5
ssg71
g114
sg64
(lp121
S'DEV_bootstrap_ch'
p122
asbasbasbag57
(g73
g59
NtRp123
(dp124
g62
(dp125
sg71
g67
sg64
(lp126
g57
(g78
g59
NtRp127
(dp128
g62
(dp129
g82
g83
ssg71
g123
sg64
(lp130
g42
asbag57
(g78
g59
NtRp131
(dp132
g62
(dp133
g89
g90
ssg71
g123
sg64
(lp134
S':'
asbag57
(g78
g59
NtRp135
(dp136
g62
(dp137
sg71
g123
sg64
(lp138
g57
(g58
g59
NtRp139
(dp140
g62
(dp141
g70
I5
ssg71
g135
sg64
(lp142
g57
(g66
g59
NtRp143
(dp144
g62
(dp145
g70
I4
ssg71
Nsg64
(lp146
g57
(g73
g59
NtRp147
(dp148
g62
(dp149
sg71
g143
sg64
(lp150
g57
(g78
g59
NtRp151
(dp152
g62
(dp153
sg71
g147
sg64
(lp154
g57
(g58
g59
NtRp155
(dp156
g62
(dp157
g70
I4
ssg71
g151
sg64
(lp158
S'unpublish'
p159
asbasbasbag57
(g73
g59
NtRp160
(dp161
g62
(dp162
sg71
g143
sg64
(lp163
g57
(g78
g59
NtRp164
(dp165
g62
(dp166
sg71
g160
sg64
(lp167
g57
(g58
g59
NtRp168
(dp169
g62
(dp170
g70
I4
ssg71
g164
sg64
(lp171
S'2'
asbasbasbasbasbasbasbag57
(g73
g59
NtRp172
(dp173
g62
(dp174
sg71
g67
sg64
(lp175
g57
(g78
g59
NtRp176
(dp177
g62
(dp178
g82
g83
ssg71
g172
sg64
(lp179
S'body'
p180
asbag57
(g78
g59
NtRp181
(dp182
g62
(dp183
g89
g90
ssg71
g172
sg64
(lp184
S':'
asbag57
(g78
g59
NtRp185
(dp186
g62
(dp187
sg71
g172
sg64
(lp188
g57
(g58
g59
NtRp189
(dp190
g62
(dp191
g70
I5
ssg71
g185
sg64
(lp192
S'<cStringIO.StringO object at 0xad467ec0>'
p193
asbasbasbag57
(g73
g59
NtRp194
(dp195
g62
(dp196
sg71
g67
sg64
(lp197
g57
(g78
g59
NtRp198
(dp199
g62
(dp200
g82
g83
ssg71
g194
sg64
(lp201
S'cid'
p202
asbag57
(g78
g59
NtRp203
(dp204
g62
(dp205
g89
g90
ssg71
g194
sg64
(lp206
S':'
asbag57
(g78
g59
NtRp207
(dp208
g62
(dp209
sg71
g194
sg64
(lp210
g57
(g58
g59
NtRp211
(dp212
g62
(dp213
g70
I5
ssg71
g207
sg64
(lp214
S'None'
p215
asbasbasbag57
(g73
g59
NtRp216
(dp217
g62
(dp218
sg71
g67
sg64
(lp219
g57
(g78
g59
NtRp220
(dp221
g62
(dp222
g82
g83
ssg71
g216
sg64
(lp223
S'client'
p224
asbag57
(g78
g59
NtRp225
(dp226
g62
(dp227
g89
g90
ssg71
g216
sg64
(lp228
S':'
asbag57
(g78
g59
NtRp229
(dp230
g62
(dp231
sg71
g216
sg64
(lp232
g57
(g58
g59
NtRp233
(dp234
g62
(dp235
g70
I5
ssg71
g229
sg64
(lp236
S'127.0.0.1'
p237
asbasbasbag57
(g73
g59
NtRp238
(dp239
g62
(dp240
sg71
g67
sg64
(lp241
g57
(g78
g59
NtRp242
(dp243
g62
(dp244
g82
g83
ssg71
g238
sg64
(lp245
S'controller'
p246
asbag57
(g78
g59
NtRp247
(dp248
g62
(dp249
g89
g90
ssg71
g238
sg64
(lp250
S':'
asbag57
(g78
g59
NtRp251
(dp252
g62
(dp253
sg71
g238
sg64
(lp254
g57
(g58
g59
NtRp255
(dp256
g62
(dp257
g70
I5
ssg71
g251
sg64
(lp258
S'default'
p259
asbasbasbag57
(g73
g59
NtRp260
(dp261
g62
(dp262
sg71
g67
sg64
(lp263
g57
(g78
g59
NtRp264
(dp265
g62
(dp266
g82
g83
ssg71
g260
sg64
(lp267
S'cookies'
p268
asbag57
(g78
g59
NtRp269
(dp270
g62
(dp271
g89
g90
ssg71
g260
sg64
(lp272
S':'
asbag57
(g78
g59
NtRp273
(dp274
g62
(dp275
sg71
g260
sg64
(lp276
g57
(g58
g59
NtRp277
(dp278
g62
(dp279
g70
I5
ssg71
g273
sg64
(lp280
g57
(g66
g59
NtRp281
(dp282
g62
(dp283
g70
I4
ssg71
Nsg64
(lp284
g57
(g73
g59
NtRp285
(dp286
g62
(dp287
sg71
g281
sg64
(lp288
g57
(g78
g59
NtRp289
(dp290
g62
(dp291
g82
g83
ssg71
g285
sg64
(lp292
S'session_id_admin'
p293
asbag57
(g78
g59
NtRp294
(dp295
g62
(dp296
g89
g90
ssg71
g285
sg64
(lp297
S':'
asbag57
(g78
g59
NtRp298
(dp299
g62
(dp300
sg71
g285
sg64
(lp301
g57
(g58
g59
NtRp302
(dp303
g62
(dp304
g70
I4
ssg71
g298
sg64
(lp305
S'127.0.0.1-b7350e97-8084-4a01-827d-4833179b30ac'
p306
ag57
(g66
g59
NtRp307
(dp308
g62
(dp309
g70
I3
ssg71
Nsg64
(lp310
g57
(g73
g59
NtRp311
(dp312
g62
(dp313
sg71
g307
sg64
(lp314
g57
(g78
g59
NtRp315
(dp316
g62
(dp317
g82
g83
ssg71
g311
sg64
(lp318
S'comment'
p319
asbag57
(g78
g59
NtRp320
(dp321
g62
(dp322
g89
g90
ssg71
g311
sg64
(lp323
S':'
asbag57
(g78
g59
NtRp324
(dp325
g62
(dp326
sg71
g311
sg64
(lp327
g57
(g58
g59
NtRp328
(dp329
g62
(dp330
g70
I3
ssg71
g324
sg64
(lp331
S''
asbasbasbag57
(g73
g59
NtRp332
(dp333
g62
(dp334
sg71
g307
sg64
(lp335
g57
(g78
g59
NtRp336
(dp337
g62
(dp338
g82
g83
ssg71
g332
sg64
(lp339
S'domain'
p340
asbag57
(g78
g59
NtRp341
(dp342
g62
(dp343
g89
g90
ssg71
g332
sg64
(lp344
S':'
asbag57
(g78
g59
NtRp345
(dp346
g62
(dp347
sg71
g332
sg64
(lp348
g57
(g58
g59
NtRp349
(dp350
g62
(dp351
g70
I3
ssg71
g345
sg64
(lp352
S''
asbasbasbag57
(g73
g59
NtRp353
(dp354
g62
(dp355
sg71
g307
sg64
(lp356
g57
(g78
g59
NtRp357
(dp358
g62
(dp359
g82
g83
ssg71
g353
sg64
(lp360
S'expires'
p361
asbag57
(g78
g59
NtRp362
(dp363
g62
(dp364
g89
g90
ssg71
g353
sg64
(lp365
S':'
asbag57
(g78
g59
NtRp366
(dp367
g62
(dp368
sg71
g353
sg64
(lp369
g57
(g58
g59
NtRp370
(dp371
g62
(dp372
g70
I3
ssg71
g366
sg64
(lp373
S''
asbasbasbag57
(g73
g59
NtRp374
(dp375
g62
(dp376
sg71
g307
sg64
(lp377
g57
(g78
g59
NtRp378
(dp379
g62
(dp380
g82
g83
ssg71
g374
sg64
(lp381
S'httponly'
p382
asbag57
(g78
g59
NtRp383
(dp384
g62
(dp385
g89
g90
ssg71
g374
sg64
(lp386
S':'
asbag57
(g78
g59
NtRp387
(dp388
g62
(dp389
sg71
g374
sg64
(lp390
g57
(g58
g59
NtRp391
(dp392
g62
(dp393
g70
I3
ssg71
g387
sg64
(lp394
S''
asbasbasbag57
(g73
g59
NtRp395
(dp396
g62
(dp397
sg71
g307
sg64
(lp398
g57
(g78
g59
NtRp399
(dp400
g62
(dp401
g82
g83
ssg71
g395
sg64
(lp402
S'max-age'
p403
asbag57
(g78
g59
NtRp404
(dp405
g62
(dp406
g89
g90
ssg71
g395
sg64
(lp407
S':'
asbag57
(g78
g59
NtRp408
(dp409
g62
(dp410
sg71
g395
sg64
(lp411
g57
(g58
g59
NtRp412
(dp413
g62
(dp414
g70
I3
ssg71
g408
sg64
(lp415
S''
asbasbasbag57
(g73
g59
NtRp416
(dp417
g62
(dp418
sg71
g307
sg64
(lp419
g57
(g78
g59
NtRp420
(dp421
g62
(dp422
g82
g83
ssg71
g416
sg64
(lp423
S'path'
p424
asbag57
(g78
g59
NtRp425
(dp426
g62
(dp427
g89
g90
ssg71
g416
sg64
(lp428
S':'
asbag57
(g78
g59
NtRp429
(dp430
g62
(dp431
sg71
g416
sg64
(lp432
g57
(g58
g59
NtRp433
(dp434
g62
(dp435
g70
I3
ssg71
g429
sg64
(lp436
S''
asbasbasbag57
(g73
g59
NtRp437
(dp438
g62
(dp439
sg71
g307
sg64
(lp440
g57
(g78
g59
NtRp441
(dp442
g62
(dp443
g82
g83
ssg71
g437
sg64
(lp444
S'secure'
p445
asbag57
(g78
g59
NtRp446
(dp447
g62
(dp448
g89
g90
ssg71
g437
sg64
(lp449
S':'
asbag57
(g78
g59
NtRp450
(dp451
g62
(dp452
sg71
g437
sg64
(lp453
g57
(g58
g59
NtRp454
(dp455
g62
(dp456
g70
I3
ssg71
g450
sg64
(lp457
S''
asbasbasbag57
(g73
g59
NtRp458
(dp459
g62
(dp460
sg71
g307
sg64
(lp461
g57
(g78
g59
NtRp462
(dp463
g62
(dp464
g82
g83
ssg71
g458
sg64
(lp465
S'version'
p466
asbag57
(g78
g59
NtRp467
(dp468
g62
(dp469
g89
g90
ssg71
g458
sg64
(lp470
S':'
asbag57
(g78
g59
NtRp471
(dp472
g62
(dp473
sg71
g458
sg64
(lp474
g57
(g58
g59
NtRp475
(dp476
g62
(dp477
g70
I3
ssg71
g471
sg64
(lp478
S''
asbasbasbasbasbasbasbag57
(g73
g59
NtRp479
(dp480
g62
(dp481
sg71
g281
sg64
(lp482
g57
(g78
g59
NtRp483
(dp484
g62
(dp485
g82
g83
ssg71
g479
sg64
(lp486
S'session_id_demo'
p487
asbag57
(g78
g59
NtRp488
(dp489
g62
(dp490
g89
g90
ssg71
g479
sg64
(lp491
S':'
asbag57
(g78
g59
NtRp492
(dp493
g62
(dp494
sg71
g479
sg64
(lp495
g57
(g58
g59
NtRp496
(dp497
g62
(dp498
g70
I4
ssg71
g492
sg64
(lp499
S'127.0.0.1-25708396-7470-407a-8d38-08ed3cbb5ed9'
p500
ag57
(g66
g59
NtRp501
(dp502
g62
(dp503
g70
I3
ssg71
Nsg64
(lp504
g57
(g73
g59
NtRp505
(dp506
g62
(dp507
sg71
g501
sg64
(lp508
g57
(g78
g59
NtRp509
(dp510
g62
(dp511
g82
g83
ssg71
g505
sg64
(lp512
g319
asbag57
(g78
g59
NtRp513
(dp514
g62
(dp515
g89
g90
ssg71
g505
sg64
(lp516
S':'
asbag57
(g78
g59
NtRp517
(dp518
g62
(dp519
sg71
g505
sg64
(lp520
g57
(g58
g59
NtRp521
(dp522
g62
(dp523
g70
I3
ssg71
g517
sg64
(lp524
S''
asbasbasbag57
(g73
g59
NtRp525
(dp526
g62
(dp527
sg71
g501
sg64
(lp528
g57
(g78
g59
NtRp529
(dp530
g62
(dp531
g82
g83
ssg71
g525
sg64
(lp532
g340
asbag57
(g78
g59
NtRp533
(dp534
g62
(dp535
g89
g90
ssg71
g525
sg64
(lp536
S':'
asbag57
(g78
g59
NtRp537
(dp538
g62
(dp539
sg71
g525
sg64
(lp540
g57
(g58
g59
NtRp541
(dp542
g62
(dp543
g70
I3
ssg71
g537
sg64
(lp544
S''
asbasbasbag57
(g73
g59
NtRp545
(dp546
g62
(dp547
sg71
g501
sg64
(lp548
g57
(g78
g59
NtRp549
(dp550
g62
(dp551
g82
g83
ssg71
g545
sg64
(lp552
g361
asbag57
(g78
g59
NtRp553
(dp554
g62
(dp555
g89
g90
ssg71
g545
sg64
(lp556
S':'
asbag57
(g78
g59
NtRp557
(dp558
g62
(dp559
sg71
g545
sg64
(lp560
g57
(g58
g59
NtRp561
(dp562
g62
(dp563
g70
I3
ssg71
g557
sg64
(lp564
S''
asbasbasbag57
(g73
g59
NtRp565
(dp566
g62
(dp567
sg71
g501
sg64
(lp568
g57
(g78
g59
NtRp569
(dp570
g62
(dp571
g82
g83
ssg71
g565
sg64
(lp572
g382
asbag57
(g78
g59
NtRp573
(dp574
g62
(dp575
g89
g90
ssg71
g565
sg64
(lp576
S':'
asbag57
(g78
g59
NtRp577
(dp578
g62
(dp579
sg71
g565
sg64
(lp580
g57
(g58
g59
NtRp581
(dp582
g62
(dp583
g70
I3
ssg71
g577
sg64
(lp584
S''
asbasbasbag57
(g73
g59
NtRp585
(dp586
g62
(dp587
sg71
g501
sg64
(lp588
g57
(g78
g59
NtRp589
(dp590
g62
(dp591
g82
g83
ssg71
g585
sg64
(lp592
g403
asbag57
(g78
g59
NtRp593
(dp594
g62
(dp595
g89
g90
ssg71
g585
sg64
(lp596
S':'
asbag57
(g78
g59
NtRp597
(dp598
g62
(dp599
sg71
g585
sg64
(lp600
g57
(g58
g59
NtRp601
(dp602
g62
(dp603
g70
I3
ssg71
g597
sg64
(lp604
S''
asbasbasbag57
(g73
g59
NtRp605
(dp606
g62
(dp607
sg71
g501
sg64
(lp608
g57
(g78
g59
NtRp609
(dp610
g62
(dp611
g82
g83
ssg71
g605
sg64
(lp612
g424
asbag57
(g78
g59
NtRp613
(dp614
g62
(dp615
g89
g90
ssg71
g605
sg64
(lp616
S':'
asbag57
(g78
g59
NtRp617
(dp618
g62
(dp619
sg71
g605
sg64
(lp620
g57
(g58
g59
NtRp621
(dp622
g62
(dp623
g70
I3
ssg71
g617
sg64
(lp624
S''
asbasbasbag57
(g73
g59
NtRp625
(dp626
g62
(dp627
sg71
g501
sg64
(lp628
g57
(g78
g59
NtRp629
(dp630
g62
(dp631
g82
g83
ssg71
g625
sg64
(lp632
g445
asbag57
(g78
g59
NtRp633
(dp634
g62
(dp635
g89
g90
ssg71
g625
sg64
(lp636
S':'
asbag57
(g78
g59
NtRp637
(dp638
g62
(dp639
sg71
g625
sg64
(lp640
g57
(g58
g59
NtRp641
(dp642
g62
(dp643
g70
I3
ssg71
g637
sg64
(lp644
S''
asbasbasbag57
(g73
g59
NtRp645
(dp646
g62
(dp647
sg71
g501
sg64
(lp648
g57
(g78
g59
NtRp649
(dp650
g62
(dp651
g82
g83
ssg71
g645
sg64
(lp652
g466
asbag57
(g78
g59
NtRp653
(dp654
g62
(dp655
g89
g90
ssg71
g645
sg64
(lp656
S':'
asbag57
(g78
g59
NtRp657
(dp658
g62
(dp659
sg71
g645
sg64
(lp660
g57
(g58
g59
NtRp661
(dp662
g62
(dp663
g70
I3
ssg71
g657
sg64
(lp664
S''
asbasbasbasbasbasbasbag57
(g73
g59
NtRp665
(dp666
g62
(dp667
sg71
g281
sg64
(lp668
g57
(g78
g59
NtRp669
(dp670
g62
(dp671
g82
g83
ssg71
g665
sg64
(lp672
S'session_id_dev_bootstrap'
p673
asbag57
(g78
g59
NtRp674
(dp675
g62
(dp676
g89
g90
ssg71
g665
sg64
(lp677
S':'
asbag57
(g78
g59
NtRp678
(dp679
g62
(dp680
sg71
g665
sg64
(lp681
g57
(g58
g59
NtRp682
(dp683
g62
(dp684
g70
I4
ssg71
g678
sg64
(lp685
S'127.0.0.1-4e736276-fb30-4d0d-9bbc-59a206f1e27c'
p686
ag57
(g66
g59
NtRp687
(dp688
g62
(dp689
g70
I3
ssg71
Nsg64
(lp690
g57
(g73
g59
NtRp691
(dp692
g62
(dp693
sg71
g687
sg64
(lp694
g57
(g78
g59
NtRp695
(dp696
g62
(dp697
g82
g83
ssg71
g691
sg64
(lp698
g319
asbag57
(g78
g59
NtRp699
(dp700
g62
(dp701
g89
g90
ssg71
g691
sg64
(lp702
S':'
asbag57
(g78
g59
NtRp703
(dp704
g62
(dp705
sg71
g691
sg64
(lp706
g57
(g58
g59
NtRp707
(dp708
g62
(dp709
g70
I3
ssg71
g703
sg64
(lp710
S''
asbasbasbag57
(g73
g59
NtRp711
(dp712
g62
(dp713
sg71
g687
sg64
(lp714
g57
(g78
g59
NtRp715
(dp716
g62
(dp717
g82
g83
ssg71
g711
sg64
(lp718
g340
asbag57
(g78
g59
NtRp719
(dp720
g62
(dp721
g89
g90
ssg71
g711
sg64
(lp722
S':'
asbag57
(g78
g59
NtRp723
(dp724
g62
(dp725
sg71
g711
sg64
(lp726
g57
(g58
g59
NtRp727
(dp728
g62
(dp729
g70
I3
ssg71
g723
sg64
(lp730
S''
asbasbasbag57
(g73
g59
NtRp731
(dp732
g62
(dp733
sg71
g687
sg64
(lp734
g57
(g78
g59
NtRp735
(dp736
g62
(dp737
g82
g83
ssg71
g731
sg64
(lp738
g361
asbag57
(g78
g59
NtRp739
(dp740
g62
(dp741
g89
g90
ssg71
g731
sg64
(lp742
S':'
asbag57
(g78
g59
NtRp743
(dp744
g62
(dp745
sg71
g731
sg64
(lp746
g57
(g58
g59
NtRp747
(dp748
g62
(dp749
g70
I3
ssg71
g743
sg64
(lp750
S''
asbasbasbag57
(g73
g59
NtRp751
(dp752
g62
(dp753
sg71
g687
sg64
(lp754
g57
(g78
g59
NtRp755
(dp756
g62
(dp757
g82
g83
ssg71
g751
sg64
(lp758
g382
asbag57
(g78
g59
NtRp759
(dp760
g62
(dp761
g89
g90
ssg71
g751
sg64
(lp762
S':'
asbag57
(g78
g59
NtRp763
(dp764
g62
(dp765
sg71
g751
sg64
(lp766
g57
(g58
g59
NtRp767
(dp768
g62
(dp769
g70
I3
ssg71
g763
sg64
(lp770
S''
asbasbasbag57
(g73
g59
NtRp771
(dp772
g62
(dp773
sg71
g687
sg64
(lp774
g57
(g78
g59
NtRp775
(dp776
g62
(dp777
g82
g83
ssg71
g771
sg64
(lp778
g403
asbag57
(g78
g59
NtRp779
(dp780
g62
(dp781
g89
g90
ssg71
g771
sg64
(lp782
S':'
asbag57
(g78
g59
NtRp783
(dp784
g62
(dp785
sg71
g771
sg64
(lp786
g57
(g58
g59
NtRp787
(dp788
g62
(dp789
g70
I3
ssg71
g783
sg64
(lp790
S''
asbasbasbag57
(g73
g59
NtRp791
(dp792
g62
(dp793
sg71
g687
sg64
(lp794
g57
(g78
g59
NtRp795
(dp796
g62
(dp797
g82
g83
ssg71
g791
sg64
(lp798
g424
asbag57
(g78
g59
NtRp799
(dp800
g62
(dp801
g89
g90
ssg71
g791
sg64
(lp802
S':'
asbag57
(g78
g59
NtRp803
(dp804
g62
(dp805
sg71
g791
sg64
(lp806
g57
(g58
g59
NtRp807
(dp808
g62
(dp809
g70
I3
ssg71
g803
sg64
(lp810
S''
asbasbasbag57
(g73
g59
NtRp811
(dp812
g62
(dp813
sg71
g687
sg64
(lp814
g57
(g78
g59
NtRp815
(dp816
g62
(dp817
g82
g83
ssg71
g811
sg64
(lp818
g445
asbag57
(g78
g59
NtRp819
(dp820
g62
(dp821
g89
g90
ssg71
g811
sg64
(lp822
S':'
asbag57
(g78
g59
NtRp823
(dp824
g62
(dp825
sg71
g811
sg64
(lp826
g57
(g58
g59
NtRp827
(dp828
g62
(dp829
g70
I3
ssg71
g823
sg64
(lp830
S''
asbasbasbag57
(g73
g59
NtRp831
(dp832
g62
(dp833
sg71
g687
sg64
(lp834
g57
(g78
g59
NtRp835
(dp836
g62
(dp837
g82
g83
ssg71
g831
sg64
(lp838
g466
asbag57
(g78
g59
NtRp839
(dp840
g62
(dp841
g89
g90
ssg71
g831
sg64
(lp842
S':'
asbag57
(g78
g59
NtRp843
(dp844
g62
(dp845
sg71
g831
sg64
(lp846
g57
(g58
g59
NtRp847
(dp848
g62
(dp849
g70
I3
ssg71
g843
sg64
(lp850
S''
asbasbasbasbasbasbasbag57
(g73
g59
NtRp851
(dp852
g62
(dp853
sg71
g281
sg64
(lp854
g57
(g78
g59
NtRp855
(dp856
g62
(dp857
g82
g83
ssg71
g851
sg64
(lp858
S'session_id_dev_bootstrap_ch'
p859
asbag57
(g78
g59
NtRp860
(dp861
g62
(dp862
g89
g90
ssg71
g851
sg64
(lp863
S':'
asbag57
(g78
g59
NtRp864
(dp865
g62
(dp866
sg71
g851
sg64
(lp867
g57
(g58
g59
NtRp868
(dp869
g62
(dp870
g70
I4
ssg71
g864
sg64
(lp871
S'127.0.0.1-270b038b-df00-4d5c-949a-e87692880510'
p872
ag57
(g66
g59
NtRp873
(dp874
g62
(dp875
g70
I3
ssg71
Nsg64
(lp876
g57
(g73
g59
NtRp877
(dp878
g62
(dp879
sg71
g873
sg64
(lp880
g57
(g78
g59
NtRp881
(dp882
g62
(dp883
g82
g83
ssg71
g877
sg64
(lp884
g319
asbag57
(g78
g59
NtRp885
(dp886
g62
(dp887
g89
g90
ssg71
g877
sg64
(lp888
S':'
asbag57
(g78
g59
NtRp889
(dp890
g62
(dp891
sg71
g877
sg64
(lp892
g57
(g58
g59
NtRp893
(dp894
g62
(dp895
g70
I3
ssg71
g889
sg64
(lp896
S''
asbasbasbag57
(g73
g59
NtRp897
(dp898
g62
(dp899
sg71
g873
sg64
(lp900
g57
(g78
g59
NtRp901
(dp902
g62
(dp903
g82
g83
ssg71
g897
sg64
(lp904
g340
asbag57
(g78
g59
NtRp905
(dp906
g62
(dp907
g89
g90
ssg71
g897
sg64
(lp908
S':'
asbag57
(g78
g59
NtRp909
(dp910
g62
(dp911
sg71
g897
sg64
(lp912
g57
(g58
g59
NtRp913
(dp914
g62
(dp915
g70
I3
ssg71
g909
sg64
(lp916
S''
asbasbasbag57
(g73
g59
NtRp917
(dp918
g62
(dp919
sg71
g873
sg64
(lp920
g57
(g78
g59
NtRp921
(dp922
g62
(dp923
g82
g83
ssg71
g917
sg64
(lp924
g361
asbag57
(g78
g59
NtRp925
(dp926
g62
(dp927
g89
g90
ssg71
g917
sg64
(lp928
S':'
asbag57
(g78
g59
NtRp929
(dp930
g62
(dp931
sg71
g917
sg64
(lp932
g57
(g58
g59
NtRp933
(dp934
g62
(dp935
g70
I3
ssg71
g929
sg64
(lp936
S''
asbasbasbag57
(g73
g59
NtRp937
(dp938
g62
(dp939
sg71
g873
sg64
(lp940
g57
(g78
g59
NtRp941
(dp942
g62
(dp943
g82
g83
ssg71
g937
sg64
(lp944
g382
asbag57
(g78
g59
NtRp945
(dp946
g62
(dp947
g89
g90
ssg71
g937
sg64
(lp948
S':'
asbag57
(g78
g59
NtRp949
(dp950
g62
(dp951
sg71
g937
sg64
(lp952
g57
(g58
g59
NtRp953
(dp954
g62
(dp955
g70
I3
ssg71
g949
sg64
(lp956
S''
asbasbasbag57
(g73
g59
NtRp957
(dp958
g62
(dp959
sg71
g873
sg64
(lp960
g57
(g78
g59
NtRp961
(dp962
g62
(dp963
g82
g83
ssg71
g957
sg64
(lp964
g403
asbag57
(g78
g59
NtRp965
(dp966
g62
(dp967
g89
g90
ssg71
g957
sg64
(lp968
S':'
asbag57
(g78
g59
NtRp969
(dp970
g62
(dp971
sg71
g957
sg64
(lp972
g57
(g58
g59
NtRp973
(dp974
g62
(dp975
g70
I3
ssg71
g969
sg64
(lp976
S''
asbasbasbag57
(g73
g59
NtRp977
(dp978
g62
(dp979
sg71
g873
sg64
(lp980
g57
(g78
g59
NtRp981
(dp982
g62
(dp983
g82
g83
ssg71
g977
sg64
(lp984
g424
asbag57
(g78
g59
NtRp985
(dp986
g62
(dp987
g89
g90
ssg71
g977
sg64
(lp988
S':'
asbag57
(g78
g59
NtRp989
(dp990
g62
(dp991
sg71
g977
sg64
(lp992
g57
(g58
g59
NtRp993
(dp994
g62
(dp995
g70
I3
ssg71
g989
sg64
(lp996
S''
asbasbasbag57
(g73
g59
NtRp997
(dp998
g62
(dp999
sg71
g873
sg64
(lp1000
g57
(g78
g59
NtRp1001
(dp1002
g62
(dp1003
g82
g83
ssg71
g997
sg64
(lp1004
g445
asbag57
(g78
g59
NtRp1005
(dp1006
g62
(dp1007
g89
g90
ssg71
g997
sg64
(lp1008
S':'
asbag57
(g78
g59
NtRp1009
(dp1010
g62
(dp1011
sg71
g997
sg64
(lp1012
g57
(g58
g59
NtRp1013
(dp1014
g62
(dp1015
g70
I3
ssg71
g1009
sg64
(lp1016
S''
asbasbasbag57
(g73
g59
NtRp1017
(dp1018
g62
(dp1019
sg71
g873
sg64
(lp1020
g57
(g78
g59
NtRp1021
(dp1022
g62
(dp1023
g82
g83
ssg71
g1017
sg64
(lp1024
g466
asbag57
(g78
g59
NtRp1025
(dp1026
g62
(dp1027
g89
g90
ssg71
g1017
sg64
(lp1028
S':'
asbag57
(g78
g59
NtRp1029
(dp1030
g62
(dp1031
sg71
g1017
sg64
(lp1032
g57
(g58
g59
NtRp1033
(dp1034
g62
(dp1035
g70
I3
ssg71
g1029
sg64
(lp1036
S''
asbasbasbasbasbasbasbag57
(g73
g59
NtRp1037
(dp1038
g62
(dp1039
sg71
g281
sg64
(lp1040
g57
(g78
g59
NtRp1041
(dp1042
g62
(dp1043
g82
g83
ssg71
g1037
sg64
(lp1044
S'session_id_welcome'
p1045
asbag57
(g78
g59
NtRp1046
(dp1047
g62
(dp1048
g89
g90
ssg71
g1037
sg64
(lp1049
S':'
asbag57
(g78
g59
NtRp1050
(dp1051
g62
(dp1052
sg71
g1037
sg64
(lp1053
g57
(g58
g59
NtRp1054
(dp1055
g62
(dp1056
g70
I4
ssg71
g1050
sg64
(lp1057
S'127.0.0.1-0db710be-f2d0-4466-92e0-a6b85a095a5c'
p1058
ag57
(g66
g59
NtRp1059
(dp1060
g62
(dp1061
g70
I3
ssg71
Nsg64
(lp1062
g57
(g73
g59
NtRp1063
(dp1064
g62
(dp1065
sg71
g1059
sg64
(lp1066
g57
(g78
g59
NtRp1067
(dp1068
g62
(dp1069
g82
g83
ssg71
g1063
sg64
(lp1070
g319
asbag57
(g78
g59
NtRp1071
(dp1072
g62
(dp1073
g89
g90
ssg71
g1063
sg64
(lp1074
S':'
asbag57
(g78
g59
NtRp1075
(dp1076
g62
(dp1077
sg71
g1063
sg64
(lp1078
g57
(g58
g59
NtRp1079
(dp1080
g62
(dp1081
g70
I3
ssg71
g1075
sg64
(lp1082
S''
asbasbasbag57
(g73
g59
NtRp1083
(dp1084
g62
(dp1085
sg71
g1059
sg64
(lp1086
g57
(g78
g59
NtRp1087
(dp1088
g62
(dp1089
g82
g83
ssg71
g1083
sg64
(lp1090
g340
asbag57
(g78
g59
NtRp1091
(dp1092
g62
(dp1093
g89
g90
ssg71
g1083
sg64
(lp1094
S':'
asbag57
(g78
g59
NtRp1095
(dp1096
g62
(dp1097
sg71
g1083
sg64
(lp1098
g57
(g58
g59
NtRp1099
(dp1100
g62
(dp1101
g70
I3
ssg71
g1095
sg64
(lp1102
S''
asbasbasbag57
(g73
g59
NtRp1103
(dp1104
g62
(dp1105
sg71
g1059
sg64
(lp1106
g57
(g78
g59
NtRp1107
(dp1108
g62
(dp1109
g82
g83
ssg71
g1103
sg64
(lp1110
g361
asbag57
(g78
g59
NtRp1111
(dp1112
g62
(dp1113
g89
g90
ssg71
g1103
sg64
(lp1114
S':'
asbag57
(g78
g59
NtRp1115
(dp1116
g62
(dp1117
sg71
g1103
sg64
(lp1118
g57
(g58
g59
NtRp1119
(dp1120
g62
(dp1121
g70
I3
ssg71
g1115
sg64
(lp1122
S''
asbasbasbag57
(g73
g59
NtRp1123
(dp1124
g62
(dp1125
sg71
g1059
sg64
(lp1126
g57
(g78
g59
NtRp1127
(dp1128
g62
(dp1129
g82
g83
ssg71
g1123
sg64
(lp1130
g382
asbag57
(g78
g59
NtRp1131
(dp1132
g62
(dp1133
g89
g90
ssg71
g1123
sg64
(lp1134
S':'
asbag57
(g78
g59
NtRp1135
(dp1136
g62
(dp1137
sg71
g1123
sg64
(lp1138
g57
(g58
g59
NtRp1139
(dp1140
g62
(dp1141
g70
I3
ssg71
g1135
sg64
(lp1142
S''
asbasbasbag57
(g73
g59
NtRp1143
(dp1144
g62
(dp1145
sg71
g1059
sg64
(lp1146
g57
(g78
g59
NtRp1147
(dp1148
g62
(dp1149
g82
g83
ssg71
g1143
sg64
(lp1150
g403
asbag57
(g78
g59
NtRp1151
(dp1152
g62
(dp1153
g89
g90
ssg71
g1143
sg64
(lp1154
S':'
asbag57
(g78
g59
NtRp1155
(dp1156
g62
(dp1157
sg71
g1143
sg64
(lp1158
g57
(g58
g59
NtRp1159
(dp1160
g62
(dp1161
g70
I3
ssg71
g1155
sg64
(lp1162
S''
asbasbasbag57
(g73
g59
NtRp1163
(dp1164
g62
(dp1165
sg71
g1059
sg64
(lp1166
g57
(g78
g59
NtRp1167
(dp1168
g62
(dp1169
g82
g83
ssg71
g1163
sg64
(lp1170
g424
asbag57
(g78
g59
NtRp1171
(dp1172
g62
(dp1173
g89
g90
ssg71
g1163
sg64
(lp1174
S':'
asbag57
(g78
g59
NtRp1175
(dp1176
g62
(dp1177
sg71
g1163
sg64
(lp1178
g57
(g58
g59
NtRp1179
(dp1180
g62
(dp1181
g70
I3
ssg71
g1175
sg64
(lp1182
S''
asbasbasbag57
(g73
g59
NtRp1183
(dp1184
g62
(dp1185
sg71
g1059
sg64
(lp1186
g57
(g78
g59
NtRp1187
(dp1188
g62
(dp1189
g82
g83
ssg71
g1183
sg64
(lp1190
g445
asbag57
(g78
g59
NtRp1191
(dp1192
g62
(dp1193
g89
g90
ssg71
g1183
sg64
(lp1194
S':'
asbag57
(g78
g59
NtRp1195
(dp1196
g62
(dp1197
sg71
g1183
sg64
(lp1198
g57
(g58
g59
NtRp1199
(dp1200
g62
(dp1201
g70
I3
ssg71
g1195
sg64
(lp1202
S''
asbasbasbag57
(g73
g59
NtRp1203
(dp1204
g62
(dp1205
sg71
g1059
sg64
(lp1206
g57
(g78
g59
NtRp1207
(dp1208
g62
(dp1209
g82
g83
ssg71
g1203
sg64
(lp1210
g466
asbag57
(g78
g59
NtRp1211
(dp1212
g62
(dp1213
g89
g90
ssg71
g1203
sg64
(lp1214
S':'
asbag57
(g78
g59
NtRp1215
(dp1216
g62
(dp1217
sg71
g1203
sg64
(lp1218
g57
(g58
g59
NtRp1219
(dp1220
g62
(dp1221
g70
I3
ssg71
g1215
sg64
(lp1222
S''
asbasbasbasbasbasbasbasbasbasbasbag57
(g73
g59
NtRp1223
(dp1224
g62
(dp1225
sg71
g67
sg64
(lp1226
g57
(g78
g59
NtRp1227
(dp1228
g62
(dp1229
g82
g83
ssg71
g1223
sg64
(lp1230
S'env'
p1231
asbag57
(g78
g59
NtRp1232
(dp1233
g62
(dp1234
g89
g90
ssg71
g1223
sg64
(lp1235
S':'
asbag57
(g78
g59
NtRp1236
(dp1237
g62
(dp1238
sg71
g1223
sg64
(lp1239
g57
(g58
g59
NtRp1240
(dp1241
g62
(dp1242
g70
I5
ssg71
g1236
sg64
(lp1243
g57
(g66
g59
NtRp1244
(dp1245
g62
(dp1246
g70
I4
ssg71
Nsg64
(lp1247
g57
(g73
g59
NtRp1248
(dp1249
g62
(dp1250
sg71
g1244
sg64
(lp1251
g57
(g78
g59
NtRp1252
(dp1253
g62
(dp1254
g82
g83
ssg71
g1248
sg64
(lp1255
S'app_folders'
p1256
asbag57
(g78
g59
NtRp1257
(dp1258
g62
(dp1259
g89
g90
ssg71
g1248
sg64
(lp1260
S':'
asbag57
(g78
g59
NtRp1261
(dp1262
g62
(dp1263
sg71
g1248
sg64
(lp1264
g57
(g58
g59
NtRp1265
(dp1266
g62
(dp1267
g70
I4
ssg71
g1261
sg64
(lp1268
S"set(['/home/anil/bootstrap/web2py/applications/admin/', '/home/anil/bootstrap/web2py/applications/welcome/', '/home/anil/bootstrap/web2py/applications/DEV_bootstrap_ch/'])"
p1269
asbasbasbag57
(g73
g59
NtRp1270
(dp1271
g62
(dp1272
sg71
g1244
sg64
(lp1273
g57
(g78
g59
NtRp1274
(dp1275
g62
(dp1276
g82
g83
ssg71
g1270
sg64
(lp1277
S'applications_parent'
p1278
asbag57
(g78
g59
NtRp1279
(dp1280
g62
(dp1281
g89
g90
ssg71
g1270
sg64
(lp1282
S':'
asbag57
(g78
g59
NtRp1283
(dp1284
g62
(dp1285
sg71
g1270
sg64
(lp1286
g57
(g58
g59
NtRp1287
(dp1288
g62
(dp1289
g70
I4
ssg71
g1283
sg64
(lp1290
S'/home/anil/bootstrap/web2py'
p1291
asbasbasbag57
(g73
g59
NtRp1292
(dp1293
g62
(dp1294
sg71
g1244
sg64
(lp1295
g57
(g78
g59
NtRp1296
(dp1297
g62
(dp1298
g82
g83
ssg71
g1292
sg64
(lp1299
S'cmd_args'
p1300
asbag57
(g78
g59
NtRp1301
(dp1302
g62
(dp1303
g89
g90
ssg71
g1292
sg64
(lp1304
S':'
asbag57
(g78
g59
NtRp1305
(dp1306
g62
(dp1307
sg71
g1292
sg64
(lp1308
g57
(g58
g59
NtRp1309
(dp1310
g62
(dp1311
g70
I4
ssg71
g1305
sg64
(lp1312
g57
(g66
g59
NtRp1313
(dp1314
g62
(dp1315
g70
I3
ssg71
Nsg64
(lp1316
sbasbasbasbag57
(g73
g59
NtRp1317
(dp1318
g62
(dp1319
sg71
g1244
sg64
(lp1320
g57
(g78
g59
NtRp1321
(dp1322
g62
(dp1323
g82
g83
ssg71
g1317
sg64
(lp1324
S'cmd_options'
p1325
asbag57
(g78
g59
NtRp1326
(dp1327
g62
(dp1328
g89
g90
ssg71
g1317
sg64
(lp1329
S':'
asbag57
(g78
g59
NtRp1330
(dp1331
g62
(dp1332
sg71
g1317
sg64
(lp1333
g57
(g58
g59
NtRp1334
(dp1335
g62
(dp1336
g70
I4
ssg71
g1330
sg64
(lp1337
S"<Values at 0x9026c6c: {'verbose': False, 'ip': '127.0.0.1', 'with_scheduler': False, 'ips': [], 'shutdown_timeout': 5, 'taskbar': False, 'port': 8000, 'maxthreads': None, 'softcron': False, 'server_name': 'anil-Inspiron-1525', 'bpython': False, 'nogui': False, 'pid_filename': 'httpserver.pid', 'extcron': False, 'runcron': False, 'run_system_tests': False, 'test': None, 'folder': '/home/anil/bootstrap/web2py', 'config': '', 'import_models': False, 'winservice': '', 'shell': None, 'run': '', 'log_filename': 'httpserver.log', 'debuglevel': 30, 'args': [''], 'socket_timeout': 5, 'ssl_ca_certificate': None, 'scheduler': None, 'profiler_filename': None, 'ssl_private_key': '', 'scheduler_groups': None, 'password': '123', 'request_queue_size': 5, 'ssl_certificate': '', 'cronjob': False, 'numthreads': None, 'quiet': False, 'interfaces': None, 'minthreads': None, 'timeout': 10, 'plain': False, 'nobanner': False}>"
p1338
asbasbasbag57
(g73
g59
NtRp1339
(dp1340
g62
(dp1341
sg71
g1244
sg64
(lp1342
g57
(g78
g59
NtRp1343
(dp1344
g62
(dp1345
g82
g83
ssg71
g1339
sg64
(lp1346
S'db_sessions'
p1347
asbag57
(g78
g59
NtRp1348
(dp1349
g62
(dp1350
g89
g90
ssg71
g1339
sg64
(lp1351
S':'
asbag57
(g78
g59
NtRp1352
(dp1353
g62
(dp1354
sg71
g1339
sg64
(lp1355
g57
(g58
g59
NtRp1356
(dp1357
g62
(dp1358
g70
I4
ssg71
g1352
sg64
(lp1359
S'set([])'
p1360
asbasbasbag57
(g73
g59
NtRp1361
(dp1362
g62
(dp1363
sg71
g1244
sg64
(lp1364
g57
(g78
g59
NtRp1365
(dp1366
g62
(dp1367
g82
g83
ssg71
g1361
sg64
(lp1368
S'debugging'
p1369
asbag57
(g78
g59
NtRp1370
(dp1371
g62
(dp1372
g89
g90
ssg71
g1361
sg64
(lp1373
S':'
asbag57
(g78
g59
NtRp1374
(dp1375
g62
(dp1376
sg71
g1361
sg64
(lp1377
g57
(g58
g59
NtRp1378
(dp1379
g62
(dp1380
g70
I4
ssg71
g1374
sg64
(lp1381
g100
asbasbasbag57
(g73
g59
NtRp1382
(dp1383
g62
(dp1384
sg71
g1244
sg64
(lp1385
g57
(g78
g59
NtRp1386
(dp1387
g62
(dp1388
g82
g83
ssg71
g1382
sg64
(lp1389
S'gluon_parent'
p1390
asbag57
(g78
g59
NtRp1391
(dp1392
g62
(dp1393
g89
g90
ssg71
g1382
sg64
(lp1394
S':'
asbag57
(g78
g59
NtRp1395
(dp1396
g62
(dp1397
sg71
g1382
sg64
(lp1398
g57
(g58
g59
NtRp1399
(dp1400
g62
(dp1401
g70
I4
ssg71
g1395
sg64
(lp1402
S'/home/anil/bootstrap/web2py'
p1403
asbasbasbag57
(g73
g59
NtRp1404
(dp1405
g62
(dp1406
sg71
g1244
sg64
(lp1407
g57
(g78
g59
NtRp1408
(dp1409
g62
(dp1410
g82
g83
ssg71
g1404
sg64
(lp1411
S'http_accept'
p1412
asbag57
(g78
g59
NtRp1413
(dp1414
g62
(dp1415
g89
g90
ssg71
g1404
sg64
(lp1416
S':'
asbag57
(g78
g59
NtRp1417
(dp1418
g62
(dp1419
sg71
g1404
sg64
(lp1420
g57
(g58
g59
NtRp1421
(dp1422
g62
(dp1423
g70
I4
ssg71
g1417
sg64
(lp1424
S'text/html,application/xhtml+xml,application/xml;q=0.9,*/*;q=0.8'
p1425
asbasbasbag57
(g73
g59
NtRp1426
(dp1427
g62
(dp1428
sg71
g1244
sg64
(lp1429
g57
(g78
g59
NtRp1430
(dp1431
g62
(dp1432
g82
g83
ssg71
g1426
sg64
(lp1433
S'http_accept_charset'
p1434
asbag57
(g78
g59
NtRp1435
(dp1436
g62
(dp1437
g89
g90
ssg71
g1426
sg64
(lp1438
S':'
asbag57
(g78
g59
NtRp1439
(dp1440
g62
(dp1441
sg71
g1426
sg64
(lp1442
g57
(g58
g59
NtRp1443
(dp1444
g62
(dp1445
g70
I4
ssg71
g1439
sg64
(lp1446
S'ISO-8859-1,utf-8;q=0.7,*;q=0.3'
p1447
asbasbasbag57
(g73
g59
NtRp1448
(dp1449
g62
(dp1450
sg71
g1244
sg64
(lp1451
g57
(g78
g59
NtRp1452
(dp1453
g62
(dp1454
g82
g83
ssg71
g1448
sg64
(lp1455
S'http_accept_encoding'
p1456
asbag57
(g78
g59
NtRp1457
(dp1458
g62
(dp1459
g89
g90
ssg71
g1448
sg64
(lp1460
S':'
asbag57
(g78
g59
NtRp1461
(dp1462
g62
(dp1463
sg71
g1448
sg64
(lp1464
g57
(g58
g59
NtRp1465
(dp1466
g62
(dp1467
g70
I4
ssg71
g1461
sg64
(lp1468
S'gzip,deflate,sdch'
p1469
asbasbasbag57
(g73
g59
NtRp1470
(dp1471
g62
(dp1472
sg71
g1244
sg64
(lp1473
g57
(g78
g59
NtRp1474
(dp1475
g62
(dp1476
g82
g83
ssg71
g1470
sg64
(lp1477
S'http_accept_language'
p1478
asbag57
(g78
g59
NtRp1479
(dp1480
g62
(dp1481
g89
g90
ssg71
g1470
sg64
(lp1482
S':'
asbag57
(g78
g59
NtRp1483
(dp1484
g62
(dp1485
sg71
g1470
sg64
(lp1486
g57
(g58
g59
NtRp1487
(dp1488
g62
(dp1489
g70
I4
ssg71
g1483
sg64
(lp1490
S'en-US,en;q=0.8'
p1491
asbasbasbag57
(g73
g59
NtRp1492
(dp1493
g62
(dp1494
sg71
g1244
sg64
(lp1495
g57
(g78
g59
NtRp1496
(dp1497
g62
(dp1498
g82
g83
ssg71
g1492
sg64
(lp1499
S'http_connection'
p1500
asbag57
(g78
g59
NtRp1501
(dp1502
g62
(dp1503
g89
g90
ssg71
g1492
sg64
(lp1504
S':'
asbag57
(g78
g59
NtRp1505
(dp1506
g62
(dp1507
sg71
g1492
sg64
(lp1508
g57
(g58
g59
NtRp1509
(dp1510
g62
(dp1511
g70
I4
ssg71
g1505
sg64
(lp1512
S'keep-alive'
p1513
asbasbasbag57
(g73
g59
NtRp1514
(dp1515
g62
(dp1516
sg71
g1244
sg64
(lp1517
g57
(g78
g59
NtRp1518
(dp1519
g62
(dp1520
g82
g83
ssg71
g1514
sg64
(lp1521
S'http_cookie'
p1522
asbag57
(g78
g59
NtRp1523
(dp1524
g62
(dp1525
g89
g90
ssg71
g1514
sg64
(lp1526
S':'
asbag57
(g78
g59
NtRp1527
(dp1528
g62
(dp1529
sg71
g1514
sg64
(lp1530
g57
(g58
g59
NtRp1531
(dp1532
g62
(dp1533
g70
I4
ssg71
g1527
sg64
(lp1534
S'session_id_demo=127.0.0.1-25708396-7470-407a-8d38-08ed3cbb5ed9; session_id_dev_bootstrap=127.0.0.1-4e736276-fb30-4d0d-9bbc-59a206f1e27c; session_id_welcome=127.0.0.1-0db710be-f2d0-4466-92e0-a6b85a095a5c; session_id_admin=127.0.0.1-b7350e97-8084-4a01-827d-4833179b30ac; session_id_dev_bootstrap_ch=127.0.0.1-270b038b-df00-4d5c-949a-e87692880510'
p1535
asbasbasbag57
(g73
g59
NtRp1536
(dp1537
g62
(dp1538
sg71
g1244
sg64
(lp1539
g57
(g78
g59
NtRp1540
(dp1541
g62
(dp1542
g82
g83
ssg71
g1536
sg64
(lp1543
S'http_host'
p1544
asbag57
(g78
g59
NtRp1545
(dp1546
g62
(dp1547
g89
g90
ssg71
g1536
sg64
(lp1548
S':'
asbag57
(g78
g59
NtRp1549
(dp1550
g62
(dp1551
sg71
g1536
sg64
(lp1552
g57
(g58
g59
NtRp1553
(dp1554
g62
(dp1555
g70
I4
ssg71
g1549
sg64
(lp1556
S'127.0.0.1:8000'
p1557
asbasbasbag57
(g73
g59
NtRp1558
(dp1559
g62
(dp1560
sg71
g1244
sg64
(lp1561
g57
(g78
g59
NtRp1562
(dp1563
g62
(dp1564
g82
g83
ssg71
g1558
sg64
(lp1565
S'http_referer'
p1566
asbag57
(g78
g59
NtRp1567
(dp1568
g62
(dp1569
g89
g90
ssg71
g1558
sg64
(lp1570
S':'
asbag57
(g78
g59
NtRp1571
(dp1572
g62
(dp1573
sg71
g1558
sg64
(lp1574
g57
(g58
g59
NtRp1575
(dp1576
g62
(dp1577
g70
I4
ssg71
g1571
sg64
(lp1578
S'http://127.0.0.1:8000/DEV_bootstrap_ch/default/project_viewer/2'
p1579
asbasbasbag57
(g73
g59
NtRp1580
(dp1581
g62
(dp1582
sg71
g1244
sg64
(lp1583
g57
(g78
g59
NtRp1584
(dp1585
g62
(dp1586
g82
g83
ssg71
g1580
sg64
(lp1587
S'http_user_agent'
p1588
asbag57
(g78
g59
NtRp1589
(dp1590
g62
(dp1591
g89
g90
ssg71
g1580
sg64
(lp1592
S':'
asbag57
(g78
g59
NtRp1593
(dp1594
g62
(dp1595
sg71
g1580
sg64
(lp1596
g57
(g58
g59
NtRp1597
(dp1598
g62
(dp1599
g70
I4
ssg71
g1593
sg64
(lp1600
S'Mozilla/5.0 (X11; Linux i686) AppleWebKit/537.11 (KHTML, like Gecko) Chrome/23.0.1271.64 Safari/537.11'
p1601
asbasbasbag57
(g73
g59
NtRp1602
(dp1603
g62
(dp1604
sg71
g1244
sg64
(lp1605
g57
(g78
g59
NtRp1606
(dp1607
g62
(dp1608
g82
g83
ssg71
g1602
sg64
(lp1609
S'is_jython'
p1610
asbag57
(g78
g59
NtRp1611
(dp1612
g62
(dp1613
g89
g90
ssg71
g1602
sg64
(lp1614
S':'
asbag57
(g78
g59
NtRp1615
(dp1616
g62
(dp1617
sg71
g1602
sg64
(lp1618
g57
(g58
g59
NtRp1619
(dp1620
g62
(dp1621
g70
I4
ssg71
g1615
sg64
(lp1622
g100
asbasbasbag57
(g73
g59
NtRp1623
(dp1624
g62
(dp1625
sg71
g1244
sg64
(lp1626
g57
(g78
g59
NtRp1627
(dp1628
g62
(dp1629
g82
g83
ssg71
g1623
sg64
(lp1630
S'is_pypy'
p1631
asbag57
(g78
g59
NtRp1632
(dp1633
g62
(dp1634
g89
g90
ssg71
g1623
sg64
(lp1635
S':'
asbag57
(g78
g59
NtRp1636
(dp1637
g62
(dp1638
sg71
g1623
sg64
(lp1639
g57
(g58
g59
NtRp1640
(dp1641
g62
(dp1642
g70
I4
ssg71
g1636
sg64
(lp1643
g100
asbasbasbag57
(g73
g59
NtRp1644
(dp1645
g62
(dp1646
sg71
g1244
sg64
(lp1647
g57
(g78
g59
NtRp1648
(dp1649
g62
(dp1650
g82
g83
ssg71
g1644
sg64
(lp1651
S'local_hosts'
p1652
asbag57
(g78
g59
NtRp1653
(dp1654
g62
(dp1655
g89
g90
ssg71
g1644
sg64
(lp1656
S':'
asbag57
(g78
g59
NtRp1657
(dp1658
g62
(dp1659
sg71
g1644
sg64
(lp1660
g57
(g58
g59
NtRp1661
(dp1662
g62
(dp1663
g70
I4
ssg71
g1657
sg64
(lp1664
g57
(g66
g59
NtRp1665
(dp1666
g62
(dp1667
g70
I3
ssg71
Nsg64
(lp1668
g57
(g73
g59
NtRp1669
(dp1670
g62
(dp1671
sg71
g1665
sg64
(lp1672
g57
(g78
g59
NtRp1673
(dp1674
g62
(dp1675
sg71
g1669
sg64
(lp1676
g57
(g58
g59
NtRp1677
(dp1678
g62
(dp1679
g70
I3
ssg71
g1673
sg64
(lp1680
S'::1'
p1681
asbasbasbag57
(g73
g59
NtRp1682
(dp1683
g62
(dp1684
sg71
g1665
sg64
(lp1685
g57
(g78
g59
NtRp1686
(dp1687
g62
(dp1688
sg71
g1682
sg64
(lp1689
g57
(g58
g59
NtRp1690
(dp1691
g62
(dp1692
g70
I3
ssg71
g1686
sg64
(lp1693
S'127.0.1.1'
p1694
asbasbasbag57
(g73
g59
NtRp1695
(dp1696
g62
(dp1697
sg71
g1665
sg64
(lp1698
g57
(g78
g59
NtRp1699
(dp1700
g62
(dp1701
sg71
g1695
sg64
(lp1702
g57
(g58
g59
NtRp1703
(dp1704
g62
(dp1705
g70
I3
ssg71
g1699
sg64
(lp1706
S'::ffff:127.0.0.1'
p1707
asbasbasbag57
(g73
g59
NtRp1708
(dp1709
g62
(dp1710
sg71
g1665
sg64
(lp1711
g57
(g78
g59
NtRp1712
(dp1713
g62
(dp1714
sg71
g1708
sg64
(lp1715
g57
(g58
g59
NtRp1716
(dp1717
g62
(dp1718
g70
I3
ssg71
g1712
sg64
(lp1719
S'127.0.0.1'
p1720
asbasbasbag57
(g73
g59
NtRp1721
(dp1722
g62
(dp1723
sg71
g1665
sg64
(lp1724
g57
(g78
g59
NtRp1725
(dp1726
g62
(dp1727
sg71
g1721
sg64
(lp1728
g57
(g58
g59
NtRp1729
(dp1730
g62
(dp1731
g70
I3
ssg71
g1725
sg64
(lp1732
S'anil-Inspiron-1525'
p1733
asbasbasbasbasbasbasbag57
(g73
g59
NtRp1734
(dp1735
g62
(dp1736
sg71
g1244
sg64
(lp1737
g57
(g78
g59
NtRp1738
(dp1739
g62
(dp1740
g82
g83
ssg71
g1734
sg64
(lp1741
S'path_info'
p1742
asbag57
(g78
g59
NtRp1743
(dp1744
g62
(dp1745
g89
g90
ssg71
g1734
sg64
(lp1746
S':'
asbag57
(g78
g59
NtRp1747
(dp1748
g62
(dp1749
sg71
g1734
sg64
(lp1750
g57
(g58
g59
NtRp1751
(dp1752
g62
(dp1753
g70
I4
ssg71
g1747
sg64
(lp1754
S'/DEV_bootstrap_ch/default/ajx_publish/unpublish/2'
p1755
asbasbasbag57
(g73
g59
NtRp1756
(dp1757
g62
(dp1758
sg71
g1244
sg64
(lp1759
g57
(g78
g59
NtRp1760
(dp1761
g62
(dp1762
g82
g83
ssg71
g1756
sg64
(lp1763
S'query_string'
p1764
asbag57
(g78
g59
NtRp1765
(dp1766
g62
(dp1767
g89
g90
ssg71
g1756
sg64
(lp1768
S':'
asbag57
(g78
g59
NtRp1769
(dp1770
g62
(dp1771
sg71
g1756
sg64
(lp1772
g57
(g58
g59
NtRp1773
(dp1774
g62
(dp1775
g70
I4
ssg71
g1769
sg64
(lp1776
S''
asbasbasbag57
(g73
g59
NtRp1777
(dp1778
g62
(dp1779
sg71
g1244
sg64
(lp1780
g57
(g78
g59
NtRp1781
(dp1782
g62
(dp1783
g82
g83
ssg71
g1777
sg64
(lp1784
S'remote_addr'
p1785
asbag57
(g78
g59
NtRp1786
(dp1787
g62
(dp1788
g89
g90
ssg71
g1777
sg64
(lp1789
S':'
asbag57
(g78
g59
NtRp1790
(dp1791
g62
(dp1792
sg71
g1777
sg64
(lp1793
g57
(g58
g59
NtRp1794
(dp1795
g62
(dp1796
g70
I4
ssg71
g1790
sg64
(lp1797
g237
asbasbasbag57
(g73
g59
NtRp1798
(dp1799
g62
(dp1800
sg71
g1244
sg64
(lp1801
g57
(g78
g59
NtRp1802
(dp1803
g62
(dp1804
g82
g83
ssg71
g1798
sg64
(lp1805
S'remote_port'
p1806
asbag57
(g78
g59
NtRp1807
(dp1808
g62
(dp1809
g89
g90
ssg71
g1798
sg64
(lp1810
S':'
asbag57
(g78
g59
NtRp1811
(dp1812
g62
(dp1813
sg71
g1798
sg64
(lp1814
g57
(g58
g59
NtRp1815
(dp1816
g62
(dp1817
g70
I4
ssg71
g1811
sg64
(lp1818
S'38059'
p1819
asbasbasbag57
(g73
g59
NtRp1820
(dp1821
g62
(dp1822
sg71
g1244
sg64
(lp1823
g57
(g78
g59
NtRp1824
(dp1825
g62
(dp1826
g82
g83
ssg71
g1820
sg64
(lp1827
S'request_method'
p1828
asbag57
(g78
g59
NtRp1829
(dp1830
g62
(dp1831
g89
g90
ssg71
g1820
sg64
(lp1832
S':'
asbag57
(g78
g59
NtRp1833
(dp1834
g62
(dp1835
sg71
g1820
sg64
(lp1836
g57
(g58
g59
NtRp1837
(dp1838
g62
(dp1839
g70
I4
ssg71
g1833
sg64
(lp1840
S'GET'
p1841
asbasbasbag57
(g73
g59
NtRp1842
(dp1843
g62
(dp1844
sg71
g1244
sg64
(lp1845
g57
(g78
g59
NtRp1846
(dp1847
g62
(dp1848
g82
g83
ssg71
g1842
sg64
(lp1849
S'request_uri'
p1850
asbag57
(g78
g59
NtRp1851
(dp1852
g62
(dp1853
g89
g90
ssg71
g1842
sg64
(lp1854
S':'
asbag57
(g78
g59
NtRp1855
(dp1856
g62
(dp1857
sg71
g1842
sg64
(lp1858
g57
(g58
g59
NtRp1859
(dp1860
g62
(dp1861
g70
I4
ssg71
g1855
sg64
(lp1862
g1755
asbasbasbag57
(g73
g59
NtRp1863
(dp1864
g62
(dp1865
sg71
g1244
sg64
(lp1866
g57
(g78
g59
NtRp1867
(dp1868
g62
(dp1869
g82
g83
ssg71
g1863
sg64
(lp1870
S'script_name'
p1871
asbag57
(g78
g59
NtRp1872
(dp1873
g62
(dp1874
g89
g90
ssg71
g1863
sg64
(lp1875
S':'
asbag57
(g78
g59
NtRp1876
(dp1877
g62
(dp1878
sg71
g1863
sg64
(lp1879
g57
(g58
g59
NtRp1880
(dp1881
g62
(dp1882
g70
I4
ssg71
g1876
sg64
(lp1883
S''
asbasbasbag57
(g73
g59
NtRp1884
(dp1885
g62
(dp1886
sg71
g1244
sg64
(lp1887
g57
(g78
g59
NtRp1888
(dp1889
g62
(dp1890
g82
g83
ssg71
g1884
sg64
(lp1891
S'server_name'
p1892
asbag57
(g78
g59
NtRp1893
(dp1894
g62
(dp1895
g89
g90
ssg71
g1884
sg64
(lp1896
S':'
asbag57
(g78
g59
NtRp1897
(dp1898
g62
(dp1899
sg71
g1884
sg64
(lp1900
g57
(g58
g59
NtRp1901
(dp1902
g62
(dp1903
g70
I4
ssg71
g1897
sg64
(lp1904
S'anil-Inspiron-1525'
p1905
asbasbasbag57
(g73
g59
NtRp1906
(dp1907
g62
(dp1908
sg71
g1244
sg64
(lp1909
g57
(g78
g59
NtRp1910
(dp1911
g62
(dp1912
g82
g83
ssg71
g1906
sg64
(lp1913
S'server_port'
p1914
asbag57
(g78
g59
NtRp1915
(dp1916
g62
(dp1917
g89
g90
ssg71
g1906
sg64
(lp1918
S':'
asbag57
(g78
g59
NtRp1919
(dp1920
g62
(dp1921
sg71
g1906
sg64
(lp1922
g57
(g58
g59
NtRp1923
(dp1924
g62
(dp1925
g70
I4
ssg71
g1919
sg64
(lp1926
S'8000'
p1927
asbasbasbag57
(g73
g59
NtRp1928
(dp1929
g62
(dp1930
sg71
g1244
sg64
(lp1931
g57
(g78
g59
NtRp1932
(dp1933
g62
(dp1934
g82
g83
ssg71
g1928
sg64
(lp1935
S'server_protocol'
p1936
asbag57
(g78
g59
NtRp1937
(dp1938
g62
(dp1939
g89
g90
ssg71
g1928
sg64
(lp1940
S':'
asbag57
(g78
g59
NtRp1941
(dp1942
g62
(dp1943
sg71
g1928
sg64
(lp1944
g57
(g58
g59
NtRp1945
(dp1946
g62
(dp1947
g70
I4
ssg71
g1941
sg64
(lp1948
S'HTTP/1.1'
p1949
asbasbasbag57
(g73
g59
NtRp1950
(dp1951
g62
(dp1952
sg71
g1244
sg64
(lp1953
g57
(g78
g59
NtRp1954
(dp1955
g62
(dp1956
g82
g83
ssg71
g1950
sg64
(lp1957
S'server_software'
p1958
asbag57
(g78
g59
NtRp1959
(dp1960
g62
(dp1961
g89
g90
ssg71
g1950
sg64
(lp1962
S':'
asbag57
(g78
g59
NtRp1963
(dp1964
g62
(dp1965
sg71
g1950
sg64
(lp1966
g57
(g58
g59
NtRp1967
(dp1968
g62
(dp1969
g70
I4
ssg71
g1963
sg64
(lp1970
S'Rocket 1.2.6'
p1971
asbasbasbag57
(g73
g59
NtRp1972
(dp1973
g62
(dp1974
sg71
g1244
sg64
(lp1975
g57
(g78
g59
NtRp1976
(dp1977
g62
(dp1978
g82
g83
ssg71
g1972
sg64
(lp1979
S'web2py_path'
p1980
asbag57
(g78
g59
NtRp1981
(dp1982
g62
(dp1983
g89
g90
ssg71
g1972
sg64
(lp1984
S':'
asbag57
(g78
g59
NtRp1985
(dp1986
g62
(dp1987
sg71
g1972
sg64
(lp1988
g57
(g58
g59
NtRp1989
(dp1990
g62
(dp1991
g70
I4
ssg71
g1985
sg64
(lp1992
g1291
asbasbasbag57
(g73
g59
NtRp1993
(dp1994
g62
(dp1995
sg71
g1244
sg64
(lp1996
g57
(g78
g59
NtRp1997
(dp1998
g62
(dp1999
g82
g83
ssg71
g1993
sg64
(lp2000
S'web2py_version'
p2001
asbag57
(g78
g59
NtRp2002
(dp2003
g62
(dp2004
g89
g90
ssg71
g1993
sg64
(lp2005
S':'
asbag57
(g78
g59
NtRp2006
(dp2007
g62
(dp2008
sg71
g1993
sg64
(lp2009
g57
(g58
g59
NtRp2010
(dp2011
g62
(dp2012
g70
I4
ssg71
g2006
sg64
(lp2013
g57
(g66
g59
NtRp2014
(dp2015
g62
(dp2016
g70
I3
ssg71
Nsg64
(lp2017
g57
(g73
g59
NtRp2018
(dp2019
g62
(dp2020
sg71
g2014
sg64
(lp2021
g57
(g78
g59
NtRp2022
(dp2023
g62
(dp2024
sg71
g2018
sg64
(lp2025
g57
(g58
g59
NtRp2026
(dp2027
g62
(dp2028
g70
I3
ssg71
g2022
sg64
(lp2029
S'2'
asbasbasbag57
(g73
g59
NtRp2030
(dp2031
g62
(dp2032
sg71
g2014
sg64
(lp2033
g57
(g78
g59
NtRp2034
(dp2035
g62
(dp2036
sg71
g2030
sg64
(lp2037
g57
(g58
g59
NtRp2038
(dp2039
g62
(dp2040
g70
I3
ssg71
g2034
sg64
(lp2041
S'3'
asbasbasbag57
(g73
g59
NtRp2042
(dp2043
g62
(dp2044
sg71
g2014
sg64
(lp2045
g57
(g78
g59
NtRp2046
(dp2047
g62
(dp2048
sg71
g2042
sg64
(lp2049
g57
(g58
g59
NtRp2050
(dp2051
g62
(dp2052
g70
I3
ssg71
g2046
sg64
(lp2053
S'2'
asbasbasbag57
(g73
g59
NtRp2054
(dp2055
g62
(dp2056
sg71
g2014
sg64
(lp2057
g57
(g78
g59
NtRp2058
(dp2059
g62
(dp2060
sg71
g2054
sg64
(lp2061
g57
(g58
g59
NtRp2062
(dp2063
g62
(dp2064
g70
I3
ssg71
g2058
sg64
(lp2065
S'datetime.datetime(2012, 12, 17, 15, 3, 30)'
p2066
asbasbasbag57
(g73
g59
NtRp2067
(dp2068
g62
(dp2069
sg71
g2014
sg64
(lp2070
g57
(g78
g59
NtRp2071
(dp2072
g62
(dp2073
sg71
g2067
sg64
(lp2074
g57
(g58
g59
NtRp2075
(dp2076
g62
(dp2077
g70
I3
ssg71
g2071
sg64
(lp2078
S'stable'
p2079
asbasbasbasbasbasbasbag57
(g73
g59
NtRp2080
(dp2081
g62
(dp2082
sg71
g1244
sg64
(lp2083
g57
(g78
g59
NtRp2084
(dp2085
g62
(dp2086
g82
g83
ssg71
g2080
sg64
(lp2087
S'wsgi_errors'
p2088
asbag57
(g78
g59
NtRp2089
(dp2090
g62
(dp2091
g89
g90
ssg71
g2080
sg64
(lp2092
S':'
asbag57
(g78
g59
NtRp2093
(dp2094
g62
(dp2095
sg71
g2080
sg64
(lp2096
g57
(g58
g59
NtRp2097
(dp2098
g62
(dp2099
g70
I4
ssg71
g2093
sg64
(lp2100
S"<open file '<stderr>', mode 'w' at 0xb72f00d0>"
p2101
asbasbasbag57
(g73
g59
NtRp2102
(dp2103
g62
(dp2104
sg71
g1244
sg64
(lp2105
g57
(g78
g59
NtRp2106
(dp2107
g62
(dp2108
g82
g83
ssg71
g2102
sg64
(lp2109
S'wsgi_file_wrapper'
p2110
asbag57
(g78
g59
NtRp2111
(dp2112
g62
(dp2113
g89
g90
ssg71
g2102
sg64
(lp2114
S':'
asbag57
(g78
g59
NtRp2115
(dp2116
g62
(dp2117
sg71
g2102
sg64
(lp2118
g57
(g58
g59
NtRp2119
(dp2120
g62
(dp2121
g70
I4
ssg71
g2115
sg64
(lp2122
S'<class wsgiref.util.FileWrapper at 0x8fafb9c>'
p2123
asbasbasbag57
(g73
g59
NtRp2124
(dp2125
g62
(dp2126
sg71
g1244
sg64
(lp2127
g57
(g78
g59
NtRp2128
(dp2129
g62
(dp2130
g82
g83
ssg71
g2124
sg64
(lp2131
S'wsgi_input'
p2132
asbag57
(g78
g59
NtRp2133
(dp2134
g62
(dp2135
g89
g90
ssg71
g2124
sg64
(lp2136
S':'
asbag57
(g78
g59
NtRp2137
(dp2138
g62
(dp2139
sg71
g2124
sg64
(lp2140
g57
(g58
g59
NtRp2141
(dp2142
g62
(dp2143
g70
I4
ssg71
g2137
sg64
(lp2144
S'<socket._fileobject object at 0xadba1bac>'
p2145
asbasbasbag57
(g73
g59
NtRp2146
(dp2147
g62
(dp2148
sg71
g1244
sg64
(lp2149
g57
(g78
g59
NtRp2150
(dp2151
g62
(dp2152
g82
g83
ssg71
g2146
sg64
(lp2153
S'wsgi_multiprocess'
p2154
asbag57
(g78
g59
NtRp2155
(dp2156
g62
(dp2157
g89
g90
ssg71
g2146
sg64
(lp2158
S':'
asbag57
(g78
g59
NtRp2159
(dp2160
g62
(dp2161
sg71
g2146
sg64
(lp2162
g57
(g58
g59
NtRp2163
(dp2164
g62
(dp2165
g70
I4
ssg71
g2159
sg64
(lp2166
g100
asbasbasbag57
(g73
g59
NtRp2167
(dp2168
g62
(dp2169
sg71
g1244
sg64
(lp2170
g57
(g78
g59
NtRp2171
(dp2172
g62
(dp2173
g82
g83
ssg71
g2167
sg64
(lp2174
S'wsgi_multithread'
p2175
asbag57
(g78
g59
NtRp2176
(dp2177
g62
(dp2178
g89
g90
ssg71
g2167
sg64
(lp2179
S':'
asbag57
(g78
g59
NtRp2180
(dp2181
g62
(dp2182
sg71
g2167
sg64
(lp2183
g57
(g58
g59
NtRp2184
(dp2185
g62
(dp2186
g70
I4
ssg71
g2180
sg64
(lp2187
S'True'
p2188
asbasbasbag57
(g73
g59
NtRp2189
(dp2190
g62
(dp2191
sg71
g1244
sg64
(lp2192
g57
(g78
g59
NtRp2193
(dp2194
g62
(dp2195
g82
g83
ssg71
g2189
sg64
(lp2196
S'wsgi_run_once'
p2197
asbag57
(g78
g59
NtRp2198
(dp2199
g62
(dp2200
g89
g90
ssg71
g2189
sg64
(lp2201
S':'
asbag57
(g78
g59
NtRp2202
(dp2203
g62
(dp2204
sg71
g2189
sg64
(lp2205
g57
(g58
g59
NtRp2206
(dp2207
g62
(dp2208
g70
I4
ssg71
g2202
sg64
(lp2209
g100
asbasbasbag57
(g73
g59
NtRp2210
(dp2211
g62
(dp2212
sg71
g1244
sg64
(lp2213
g57
(g78
g59
NtRp2214
(dp2215
g62
(dp2216
g82
g83
ssg71
g2210
sg64
(lp2217
S'wsgi_url_scheme'
p2218
asbag57
(g78
g59
NtRp2219
(dp2220
g62
(dp2221
g89
g90
ssg71
g2210
sg64
(lp2222
S':'
asbag57
(g78
g59
NtRp2223
(dp2224
g62
(dp2225
sg71
g2210
sg64
(lp2226
g57
(g58
g59
NtRp2227
(dp2228
g62
(dp2229
g70
I4
ssg71
g2223
sg64
(lp2230
S'http'
p2231
asbasbasbag57
(g73
g59
NtRp2232
(dp2233
g62
(dp2234
sg71
g1244
sg64
(lp2235
g57
(g78
g59
NtRp2236
(dp2237
g62
(dp2238
g82
g83
ssg71
g2232
sg64
(lp2239
S'wsgi_version'
p2240
asbag57
(g78
g59
NtRp2241
(dp2242
g62
(dp2243
g89
g90
ssg71
g2232
sg64
(lp2244
S':'
asbag57
(g78
g59
NtRp2245
(dp2246
g62
(dp2247
sg71
g2232
sg64
(lp2248
g57
(g58
g59
NtRp2249
(dp2250
g62
(dp2251
g70
I4
ssg71
g2245
sg64
(lp2252
g57
(g66
g59
NtRp2253
(dp2254
g62
(dp2255
g70
I3
ssg71
Nsg64
(lp2256
g57
(g73
g59
NtRp2257
(dp2258
g62
(dp2259
sg71
g2253
sg64
(lp2260
g57
(g78
g59
NtRp2261
(dp2262
g62
(dp2263
sg71
g2257
sg64
(lp2264
g57
(g58
g59
NtRp2265
(dp2266
g62
(dp2267
g70
I3
ssg71
g2261
sg64
(lp2268
S'1'
asbasbasbag57
(g73
g59
NtRp2269
(dp2270
g62
(dp2271
sg71
g2253
sg64
(lp2272
g57
(g78
g59
NtRp2273
(dp2274
g62
(dp2275
sg71
g2269
sg64
(lp2276
g57
(g58
g59
NtRp2277
(dp2278
g62
(dp2279
g70
I3
ssg71
g2273
sg64
(lp2280
S'0'
asbasbasbasbasbasbasbasbasbasbasbag57
(g73
g59
NtRp2281
(dp2282
g62
(dp2283
sg71
g67
sg64
(lp2284
g57
(g78
g59
NtRp2285
(dp2286
g62
(dp2287
g82
g83
ssg71
g2281
sg64
(lp2288
S'extension'
p2289
asbag57
(g78
g59
NtRp2290
(dp2291
g62
(dp2292
g89
g90
ssg71
g2281
sg64
(lp2293
S':'
asbag57
(g78
g59
NtRp2294
(dp2295
g62
(dp2296
sg71
g2281
sg64
(lp2297
g57
(g58
g59
NtRp2298
(dp2299
g62
(dp2300
g70
I5
ssg71
g2294
sg64
(lp2301
S'html'
p2302
asbasbasbag57
(g73
g59
NtRp2303
(dp2304
g62
(dp2305
sg71
g67
sg64
(lp2306
g57
(g78
g59
NtRp2307
(dp2308
g62
(dp2309
g82
g83
ssg71
g2303
sg64
(lp2310
S'folder'
p2311
asbag57
(g78
g59
NtRp2312
(dp2313
g62
(dp2314
g89
g90
ssg71
g2303
sg64
(lp2315
S':'
asbag57
(g78
g59
NtRp2316
(dp2317
g62
(dp2318
sg71
g2303
sg64
(lp2319
g57
(g58
g59
NtRp2320
(dp2321
g62
(dp2322
g70
I5
ssg71
g2316
sg64
(lp2323
S'/home/anil/bootstrap/web2py/applications/DEV_bootstrap_ch/'
p2324
asbasbasbag57
(g73
g59
NtRp2325
(dp2326
g62
(dp2327
sg71
g67
sg64
(lp2328
g57
(g78
g59
NtRp2329
(dp2330
g62
(dp2331
g82
g83
ssg71
g2325
sg64
(lp2332
S'function'
p2333
asbag57
(g78
g59
NtRp2334
(dp2335
g62
(dp2336
g89
g90
ssg71
g2325
sg64
(lp2337
S':'
asbag57
(g78
g59
NtRp2338
(dp2339
g62
(dp2340
sg71
g2325
sg64
(lp2341
g57
(g58
g59
NtRp2342
(dp2343
g62
(dp2344
g70
I5
ssg71
g2338
sg64
(lp2345
S'ajx_publish'
p2346
asbasbasbag57
(g73
g59
NtRp2347
(dp2348
g62
(dp2349
sg71
g67
sg64
(lp2350
g57
(g78
g59
NtRp2351
(dp2352
g62
(dp2353
g82
g83
ssg71
g2347
sg64
(lp2354
S'get_vars'
p2355
asbag57
(g78
g59
NtRp2356
(dp2357
g62
(dp2358
g89
g90
ssg71
g2347
sg64
(lp2359
S':'
asbag57
(g78
g59
NtRp2360
(dp2361
g62
(dp2362
sg71
g2347
sg64
(lp2363
g57
(g58
g59
NtRp2364
(dp2365
g62
(dp2366
g70
I5
ssg71
g2360
sg64
(lp2367
g57
(g66
g59
NtRp2368
(dp2369
g62
(dp2370
g70
I4
ssg71
Nsg64
(lp2371
sbasbasbasbag57
(g73
g59
NtRp2372
(dp2373
g62
(dp2374
sg71
g67
sg64
(lp2375
g57
(g78
g59
NtRp2376
(dp2377
g62
(dp2378
g82
g83
ssg71
g2372
sg64
(lp2379
S'global_settings'
p2380
asbag57
(g78
g59
NtRp2381
(dp2382
g62
(dp2383
g89
g90
ssg71
g2372
sg64
(lp2384
S':'
asbag57
(g78
g59
NtRp2385
(dp2386
g62
(dp2387
sg71
g2372
sg64
(lp2388
g57
(g58
g59
NtRp2389
(dp2390
g62
(dp2391
g70
I5
ssg71
g2385
sg64
(lp2392
g57
(g66
g59
NtRp2393
(dp2394
g62
(dp2395
g70
I4
ssg71
Nsg64
(lp2396
g57
(g73
g59
NtRp2397
(dp2398
g62
(dp2399
sg71
g2393
sg64
(lp2400
g57
(g78
g59
NtRp2401
(dp2402
g62
(dp2403
g82
g83
ssg71
g2397
sg64
(lp2404
g1256
asbag57
(g78
g59
NtRp2405
(dp2406
g62
(dp2407
g89
g90
ssg71
g2397
sg64
(lp2408
S':'
asbag57
(g78
g59
NtRp2409
(dp2410
g62
(dp2411
sg71
g2397
sg64
(lp2412
g57
(g58
g59
NtRp2413
(dp2414
g62
(dp2415
g70
I4
ssg71
g2409
sg64
(lp2416
S"set(['/home/anil/bootstrap/web2py/applications/admin/', '/home/anil/bootstrap/web2py/applications/welcome/', '/home/anil/bootstrap/web2py/applications/DEV_bootstrap_ch/'])"
p2417
asbasbasbag57
(g73
g59
NtRp2418
(dp2419
g62
(dp2420
sg71
g2393
sg64
(lp2421
g57
(g78
g59
NtRp2422
(dp2423
g62
(dp2424
g82
g83
ssg71
g2418
sg64
(lp2425
g1278
asbag57
(g78
g59
NtRp2426
(dp2427
g62
(dp2428
g89
g90
ssg71
g2418
sg64
(lp2429
S':'
asbag57
(g78
g59
NtRp2430
(dp2431
g62
(dp2432
sg71
g2418
sg64
(lp2433
g57
(g58
g59
NtRp2434
(dp2435
g62
(dp2436
g70
I4
ssg71
g2430
sg64
(lp2437
g1291
asbasbasbag57
(g73
g59
NtRp2438
(dp2439
g62
(dp2440
sg71
g2393
sg64
(lp2441
g57
(g78
g59
NtRp2442
(dp2443
g62
(dp2444
g82
g83
ssg71
g2438
sg64
(lp2445
g1300
asbag57
(g78
g59
NtRp2446
(dp2447
g62
(dp2448
g89
g90
ssg71
g2438
sg64
(lp2449
S':'
asbag57
(g78
g59
NtRp2450
(dp2451
g62
(dp2452
sg71
g2438
sg64
(lp2453
g57
(g58
g59
NtRp2454
(dp2455
g62
(dp2456
g70
I4
ssg71
g2450
sg64
(lp2457
g57
(g66
g59
NtRp2458
(dp2459
g62
(dp2460
g70
I3
ssg71
Nsg64
(lp2461
sbasbasbasbag57
(g73
g59
NtRp2462
(dp2463
g62
(dp2464
sg71
g2393
sg64
(lp2465
g57
(g78
g59
NtRp2466
(dp2467
g62
(dp2468
g82
g83
ssg71
g2462
sg64
(lp2469
g1325
asbag57
(g78
g59
NtRp2470
(dp2471
g62
(dp2472
g89
g90
ssg71
g2462
sg64
(lp2473
S':'
asbag57
(g78
g59
NtRp2474
(dp2475
g62
(dp2476
sg71
g2462
sg64
(lp2477
g57
(g58
g59
NtRp2478
(dp2479
g62
(dp2480
g70
I4
ssg71
g2474
sg64
(lp2481
S"<Values at 0x9026c6c: {'verbose': False, 'ip': '127.0.0.1', 'with_scheduler': False, 'ips': [], 'shutdown_timeout': 5, 'taskbar': False, 'port': 8000, 'maxthreads': None, 'softcron': False, 'server_name': 'anil-Inspiron-1525', 'bpython': False, 'nogui': False, 'pid_filename': 'httpserver.pid', 'extcron': False, 'runcron': False, 'run_system_tests': False, 'test': None, 'folder': '/home/anil/bootstrap/web2py', 'config': '', 'import_models': False, 'winservice': '', 'shell': None, 'run': '', 'log_filename': 'httpserver.log', 'debuglevel': 30, 'args': [''], 'socket_timeout': 5, 'ssl_ca_certificate': None, 'scheduler': None, 'profiler_filename': None, 'ssl_private_key': '', 'scheduler_groups': None, 'password': '123', 'request_queue_size': 5, 'ssl_certificate': '', 'cronjob': False, 'numthreads': None, 'quiet': False, 'interfaces': None, 'minthreads': None, 'timeout': 10, 'plain': False, 'nobanner': False}>"
p2482
asbasbasbag57
(g73
g59
NtRp2483
(dp2484
g62
(dp2485
sg71
g2393
sg64
(lp2486
g57
(g78
g59
NtRp2487
(dp2488
g62
(dp2489
g82
g83
ssg71
g2483
sg64
(lp2490
g1347
asbag57
(g78
g59
NtRp2491
(dp2492
g62
(dp2493
g89
g90
ssg71
g2483
sg64
(lp2494
S':'
asbag57
(g78
g59
NtRp2495
(dp2496
g62
(dp2497
sg71
g2483
sg64
(lp2498
g57
(g58
g59
NtRp2499
(dp2500
g62
(dp2501
g70
I4
ssg71
g2495
sg64
(lp2502
S'set([])'
p2503
asbasbasbag57
(g73
g59
NtRp2504
(dp2505
g62
(dp2506
sg71
g2393
sg64
(lp2507
g57
(g78
g59
NtRp2508
(dp2509
g62
(dp2510
g82
g83
ssg71
g2504
sg64
(lp2511
g1369
asbag57
(g78
g59
NtRp2512
(dp2513
g62
(dp2514
g89
g90
ssg71
g2504
sg64
(lp2515
S':'
asbag57
(g78
g59
NtRp2516
(dp2517
g62
(dp2518
sg71
g2504
sg64
(lp2519
g57
(g58
g59
NtRp2520
(dp2521
g62
(dp2522
g70
I4
ssg71
g2516
sg64
(lp2523
g100
asbasbasbag57
(g73
g59
NtRp2524
(dp2525
g62
(dp2526
sg71
g2393
sg64
(lp2527
g57
(g78
g59
NtRp2528
(dp2529
g62
(dp2530
g82
g83
ssg71
g2524
sg64
(lp2531
g1390
asbag57
(g78
g59
NtRp2532
(dp2533
g62
(dp2534
g89
g90
ssg71
g2524
sg64
(lp2535
S':'
asbag57
(g78
g59
NtRp2536
(dp2537
g62
(dp2538
sg71
g2524
sg64
(lp2539
g57
(g58
g59
NtRp2540
(dp2541
g62
(dp2542
g70
I4
ssg71
g2536
sg64
(lp2543
g1403
asbasbasbag57
(g73
g59
NtRp2544
(dp2545
g62
(dp2546
sg71
g2393
sg64
(lp2547
g57
(g78
g59
NtRp2548
(dp2549
g62
(dp2550
g82
g83
ssg71
g2544
sg64
(lp2551
g1610
asbag57
(g78
g59
NtRp2552
(dp2553
g62
(dp2554
g89
g90
ssg71
g2544
sg64
(lp2555
S':'
asbag57
(g78
g59
NtRp2556
(dp2557
g62
(dp2558
sg71
g2544
sg64
(lp2559
g57
(g58
g59
NtRp2560
(dp2561
g62
(dp2562
g70
I4
ssg71
g2556
sg64
(lp2563
g100
asbasbasbag57
(g73
g59
NtRp2564
(dp2565
g62
(dp2566
sg71
g2393
sg64
(lp2567
g57
(g78
g59
NtRp2568
(dp2569
g62
(dp2570
g82
g83
ssg71
g2564
sg64
(lp2571
g1631
asbag57
(g78
g59
NtRp2572
(dp2573
g62
(dp2574
g89
g90
ssg71
g2564
sg64
(lp2575
S':'
asbag57
(g78
g59
NtRp2576
(dp2577
g62
(dp2578
sg71
g2564
sg64
(lp2579
g57
(g58
g59
NtRp2580
(dp2581
g62
(dp2582
g70
I4
ssg71
g2576
sg64
(lp2583
g100
asbasbasbag57
(g73
g59
NtRp2584
(dp2585
g62
(dp2586
sg71
g2393
sg64
(lp2587
g57
(g78
g59
NtRp2588
(dp2589
g62
(dp2590
g82
g83
ssg71
g2584
sg64
(lp2591
g1652
asbag57
(g78
g59
NtRp2592
(dp2593
g62
(dp2594
g89
g90
ssg71
g2584
sg64
(lp2595
S':'
asbag57
(g78
g59
NtRp2596
(dp2597
g62
(dp2598
sg71
g2584
sg64
(lp2599
g57
(g58
g59
NtRp2600
(dp2601
g62
(dp2602
g70
I4
ssg71
g2596
sg64
(lp2603
g57
(g66
g59
NtRp2604
(dp2605
g62
(dp2606
g70
I3
ssg71
Nsg64
(lp2607
g57
(g73
g59
NtRp2608
(dp2609
g62
(dp2610
sg71
g2604
sg64
(lp2611
g57
(g78
g59
NtRp2612
(dp2613
g62
(dp2614
sg71
g2608
sg64
(lp2615
g57
(g58
g59
NtRp2616
(dp2617
g62
(dp2618
g70
I3
ssg71
g2612
sg64
(lp2619
g1681
asbasbasbag57
(g73
g59
NtRp2620
(dp2621
g62
(dp2622
sg71
g2604
sg64
(lp2623
g57
(g78
g59
NtRp2624
(dp2625
g62
(dp2626
sg71
g2620
sg64
(lp2627
g57
(g58
g59
NtRp2628
(dp2629
g62
(dp2630
g70
I3
ssg71
g2624
sg64
(lp2631
g1694
asbasbasbag57
(g73
g59
NtRp2632
(dp2633
g62
(dp2634
sg71
g2604
sg64
(lp2635
g57
(g78
g59
NtRp2636
(dp2637
g62
(dp2638
sg71
g2632
sg64
(lp2639
g57
(g58
g59
NtRp2640
(dp2641
g62
(dp2642
g70
I3
ssg71
g2636
sg64
(lp2643
g1707
asbasbasbag57
(g73
g59
NtRp2644
(dp2645
g62
(dp2646
sg71
g2604
sg64
(lp2647
g57
(g78
g59
NtRp2648
(dp2649
g62
(dp2650
sg71
g2644
sg64
(lp2651
g57
(g58
g59
NtRp2652
(dp2653
g62
(dp2654
g70
I3
ssg71
g2648
sg64
(lp2655
g1720
asbasbasbag57
(g73
g59
NtRp2656
(dp2657
g62
(dp2658
sg71
g2604
sg64
(lp2659
g57
(g78
g59
NtRp2660
(dp2661
g62
(dp2662
sg71
g2656
sg64
(lp2663
g57
(g58
g59
NtRp2664
(dp2665
g62
(dp2666
g70
I3
ssg71
g2660
sg64
(lp2667
g1733
asbasbasbasbasbasbasbag57
(g73
g59
NtRp2668
(dp2669
g62
(dp2670
sg71
g2393
sg64
(lp2671
g57
(g78
g59
NtRp2672
(dp2673
g62
(dp2674
g82
g83
ssg71
g2668
sg64
(lp2675
g2001
asbag57
(g78
g59
NtRp2676
(dp2677
g62
(dp2678
g89
g90
ssg71
g2668
sg64
(lp2679
S':'
asbag57
(g78
g59
NtRp2680
(dp2681
g62
(dp2682
sg71
g2668
sg64
(lp2683
g57
(g58
g59
NtRp2684
(dp2685
g62
(dp2686
g70
I4
ssg71
g2680
sg64
(lp2687
g57
(g66
g59
NtRp2688
(dp2689
g62
(dp2690
g70
I3
ssg71
Nsg64
(lp2691
g57
(g73
g59
NtRp2692
(dp2693
g62
(dp2694
sg71
g2688
sg64
(lp2695
g57
(g78
g59
NtRp2696
(dp2697
g62
(dp2698
sg71
g2692
sg64
(lp2699
g57
(g58
g59
NtRp2700
(dp2701
g62
(dp2702
g70
I3
ssg71
g2696
sg64
(lp2703
S'2'
asbasbasbag57
(g73
g59
NtRp2704
(dp2705
g62
(dp2706
sg71
g2688
sg64
(lp2707
g57
(g78
g59
NtRp2708
(dp2709
g62
(dp2710
sg71
g2704
sg64
(lp2711
g57
(g58
g59
NtRp2712
(dp2713
g62
(dp2714
g70
I3
ssg71
g2708
sg64
(lp2715
S'3'
asbasbasbag57
(g73
g59
NtRp2716
(dp2717
g62
(dp2718
sg71
g2688
sg64
(lp2719
g57
(g78
g59
NtRp2720
(dp2721
g62
(dp2722
sg71
g2716
sg64
(lp2723
g57
(g58
g59
NtRp2724
(dp2725
g62
(dp2726
g70
I3
ssg71
g2720
sg64
(lp2727
S'2'
asbasbasbag57
(g73
g59
NtRp2728
(dp2729
g62
(dp2730
sg71
g2688
sg64
(lp2731
g57
(g78
g59
NtRp2732
(dp2733
g62
(dp2734
sg71
g2728
sg64
(lp2735
g57
(g58
g59
NtRp2736
(dp2737
g62
(dp2738
g70
I3
ssg71
g2732
sg64
(lp2739
S'datetime.datetime(2012, 12, 17, 15, 3, 30)'
p2740
asbasbasbag57
(g73
g59
NtRp2741
(dp2742
g62
(dp2743
sg71
g2688
sg64
(lp2744
g57
(g78
g59
NtRp2745
(dp2746
g62
(dp2747
sg71
g2741
sg64
(lp2748
g57
(g58
g59
NtRp2749
(dp2750
g62
(dp2751
g70
I3
ssg71
g2745
sg64
(lp2752
g2079
asbasbasbasbasbasbasbasbasbasbasbag57
(g73
g59
NtRp2753
(dp2754
g62
(dp2755
sg71
g67
sg64
(lp2756
g57
(g78
g59
NtRp2757
(dp2758
g62
(dp2759
g82
g83
ssg71
g2753
sg64
(lp2760
S'is_https'
p2761
asbag57
(g78
g59
NtRp2762
(dp2763
g62
(dp2764
g89
g90
ssg71
g2753
sg64
(lp2765
S':'
asbag57
(g78
g59
NtRp2766
(dp2767
g62
(dp2768
sg71
g2753
sg64
(lp2769
g57
(g58
g59
NtRp2770
(dp2771
g62
(dp2772
g70
I5
ssg71
g2766
sg64
(lp2773
g100
asbasbasbag57
(g73
g59
NtRp2774
(dp2775
g62
(dp2776
sg71
g67
sg64
(lp2777
g57
(g78
g59
NtRp2778
(dp2779
g62
(dp2780
g82
g83
ssg71
g2774
sg64
(lp2781
S'is_local'
p2782
asbag57
(g78
g59
NtRp2783
(dp2784
g62
(dp2785
g89
g90
ssg71
g2774
sg64
(lp2786
S':'
asbag57
(g78
g59
NtRp2787
(dp2788
g62
(dp2789
sg71
g2774
sg64
(lp2790
g57
(g58
g59
NtRp2791
(dp2792
g62
(dp2793
g70
I5
ssg71
g2787
sg64
(lp2794
g2188
asbasbasbag57
(g73
g59
NtRp2795
(dp2796
g62
(dp2797
sg71
g67
sg64
(lp2798
g57
(g78
g59
NtRp2799
(dp2800
g62
(dp2801
g82
g83
ssg71
g2795
sg64
(lp2802
S'is_restful'
p2803
asbag57
(g78
g59
NtRp2804
(dp2805
g62
(dp2806
g89
g90
ssg71
g2795
sg64
(lp2807
S':'
asbag57
(g78
g59
NtRp2808
(dp2809
g62
(dp2810
sg71
g2795
sg64
(lp2811
g57
(g58
g59
NtRp2812
(dp2813
g62
(dp2814
g70
I5
ssg71
g2808
sg64
(lp2815
g100
asbasbasbag57
(g73
g59
NtRp2816
(dp2817
g62
(dp2818
sg71
g67
sg64
(lp2819
g57
(g78
g59
NtRp2820
(dp2821
g62
(dp2822
g82
g83
ssg71
g2816
sg64
(lp2823
S'now'
p2824
asbag57
(g78
g59
NtRp2825
(dp2826
g62
(dp2827
g89
g90
ssg71
g2816
sg64
(lp2828
S':'
asbag57
(g78
g59
NtRp2829
(dp2830
g62
(dp2831
sg71
g2816
sg64
(lp2832
g57
(g58
g59
NtRp2833
(dp2834
g62
(dp2835
g70
I5
ssg71
g2829
sg64
(lp2836
S'datetime.datetime(2013, 2, 18, 1, 28, 36, 514178)'
p2837
asbasbasbag57
(g73
g59
NtRp2838
(dp2839
g62
(dp2840
sg71
g67
sg64
(lp2841
g57
(g78
g59
NtRp2842
(dp2843
g62
(dp2844
g82
g83
ssg71
g2838
sg64
(lp2845
S'post_vars'
p2846
asbag57
(g78
g59
NtRp2847
(dp2848
g62
(dp2849
g89
g90
ssg71
g2838
sg64
(lp2850
S':'
asbag57
(g78
g59
NtRp2851
(dp2852
g62
(dp2853
sg71
g2838
sg64
(lp2854
g57
(g58
g59
NtRp2855
(dp2856
g62
(dp2857
g70
I5
ssg71
g2851
sg64
(lp2858
g57
(g66
g59
NtRp2859
(dp2860
g62
(dp2861
g70
I4
ssg71
Nsg64
(lp2862
sbasbasbasbag57
(g73
g59
NtRp2863
(dp2864
g62
(dp2865
sg71
g67
sg64
(lp2866
g57
(g78
g59
NtRp2867
(dp2868
g62
(dp2869
g82
g83
ssg71
g2863
sg64
(lp2870
S'raw_args'
p2871
asbag57
(g78
g59
NtRp2872
(dp2873
g62
(dp2874
g89
g90
ssg71
g2863
sg64
(lp2875
S':'
asbag57
(g78
g59
NtRp2876
(dp2877
g62
(dp2878
sg71
g2863
sg64
(lp2879
g57
(g58
g59
NtRp2880
(dp2881
g62
(dp2882
g70
I5
ssg71
g2876
sg64
(lp2883
S'unpublish/2'
p2884
asbasbasbag57
(g73
g59
NtRp2885
(dp2886
g62
(dp2887
sg71
g67
sg64
(lp2888
g57
(g78
g59
NtRp2889
(dp2890
g62
(dp2891
g82
g83
ssg71
g2885
sg64
(lp2892
S'raw_extension'
p2893
asbag57
(g78
g59
NtRp2894
(dp2895
g62
(dp2896
g89
g90
ssg71
g2885
sg64
(lp2897
S':'
asbag57
(g78
g59
NtRp2898
(dp2899
g62
(dp2900
sg71
g2885
sg64
(lp2901
g57
(g58
g59
NtRp2902
(dp2903
g62
(dp2904
g70
I5
ssg71
g2898
sg64
(lp2905
S'None'
p2906
asbasbasbag57
(g73
g59
NtRp2907
(dp2908
g62
(dp2909
sg71
g67
sg64
(lp2910
g57
(g78
g59
NtRp2911
(dp2912
g62
(dp2913
g82
g83
ssg71
g2907
sg64
(lp2914
S'url'
p2915
asbag57
(g78
g59
NtRp2916
(dp2917
g62
(dp2918
g89
g90
ssg71
g2907
sg64
(lp2919
S':'
asbag57
(g78
g59
NtRp2920
(dp2921
g62
(dp2922
sg71
g2907
sg64
(lp2923
g57
(g58
g59
NtRp2924
(dp2925
g62
(dp2926
g70
I5
ssg71
g2920
sg64
(lp2927
g1755
asbasbasbag57
(g73
g59
NtRp2928
(dp2929
g62
(dp2930
sg71
g67
sg64
(lp2931
g57
(g78
g59
NtRp2932
(dp2933
g62
(dp2934
g82
g83
ssg71
g2928
sg64
(lp2935
S'utcnow'
p2936
asbag57
(g78
g59
NtRp2937
(dp2938
g62
(dp2939
g89
g90
ssg71
g2928
sg64
(lp2940
S':'
asbag57
(g78
g59
NtRp2941
(dp2942
g62
(dp2943
sg71
g2928
sg64
(lp2944
g57
(g58
g59
NtRp2945
(dp2946
g62
(dp2947
g70
I5
ssg71
g2941
sg64
(lp2948
S'datetime.datetime(2013, 2, 17, 19, 58, 36, 514228)'
p2949
asbasbasbag57
(g73
g59
NtRp2950
(dp2951
g62
(dp2952
sg71
g67
sg64
(lp2953
g57
(g78
g59
NtRp2954
(dp2955
g62
(dp2956
g82
g83
ssg71
g2950
sg64
(lp2957
S'uuid'
p2958
asbag57
(g78
g59
NtRp2959
(dp2960
g62
(dp2961
g89
g90
ssg71
g2950
sg64
(lp2962
S':'
asbag57
(g78
g59
NtRp2963
(dp2964
g62
(dp2965
sg71
g2950
sg64
(lp2966
g57
(g58
g59
NtRp2967
(dp2968
g62
(dp2969
g70
I5
ssg71
g2963
sg64
(lp2970
S'DEV_bootstrap_ch/127.0.0.1.2013-02-18.01-28-36.9b9f7849-0b14-4646-b0af-bfa38c89f995'
p2971
asbasbasbag57
(g73
g59
NtRp2972
(dp2973
g62
(dp2974
sg71
g67
sg64
(lp2975
g57
(g78
g59
NtRp2976
(dp2977
g62
(dp2978
g82
g83
ssg71
g2972
sg64
(lp2979
S'vars'
p2980
asbag57
(g78
g59
NtRp2981
(dp2982
g62
(dp2983
g89
g90
ssg71
g2972
sg64
(lp2984
S':'
asbag57
(g78
g59
NtRp2985
(dp2986
g62
(dp2987
sg71
g2972
sg64
(lp2988
g57
(g58
g59
NtRp2989
(dp2990
g62
(dp2991
g70
I5
ssg71
g2985
sg64
(lp2992
g57
(g66
g59
NtRp2993
(dp2994
g62
(dp2995
g70
I4
ssg71
Nsg64
(lp2996
sbasbasbasbag57
(g73
g59
NtRp2997
(dp2998
g62
(dp2999
sg71
g67
sg64
(lp3000
g57
(g78
g59
NtRp3001
(dp3002
g62
(dp3003
g82
g83
ssg71
g2997
sg64
(lp3004
S'wsgi'
p3005
asbag57
(g78
g59
NtRp3006
(dp3007
g62
(dp3008
g89
g90
ssg71
g2997
sg64
(lp3009
S':'
asbag57
(g78
g59
NtRp3010
(dp3011
g62
(dp3012
sg71
g2997
sg64
(lp3013
g57
(g58
g59
NtRp3014
(dp3015
g62
(dp3016
g70
I5
ssg71
g3010
sg64
(lp3017
g57
(g66
g59
NtRp3018
(dp3019
g62
(dp3020
g70
I4
ssg71
Nsg64
(lp3021
g57
(g73
g59
NtRp3022
(dp3023
g62
(dp3024
sg71
g3018
sg64
(lp3025
g57
(g78
g59
NtRp3026
(dp3027
g62
(dp3028
g82
g83
ssg71
g3022
sg64
(lp3029
S'environ'
p3030
asbag57
(g78
g59
NtRp3031
(dp3032
g62
(dp3033
g89
g90
ssg71
g3022
sg64
(lp3034
S':'
asbag57
(g78
g59
NtRp3035
(dp3036
g62
(dp3037
sg71
g3022
sg64
(lp3038
g57
(g58
g59
NtRp3039
(dp3040
g62
(dp3041
g70
I4
ssg71
g3035
sg64
(lp3042
g57
(g66
g59
NtRp3043
(dp3044
g62
(dp3045
g70
I3
ssg71
Nsg64
(lp3046
g57
(g73
g59
NtRp3047
(dp3048
g62
(dp3049
sg71
g3043
sg64
(lp3050
g57
(g78
g59
NtRp3051
(dp3052
g62
(dp3053
g82
g83
ssg71
g3047
sg64
(lp3054
S'HTTP_ACCEPT'
p3055
asbag57
(g78
g59
NtRp3056
(dp3057
g62
(dp3058
g89
g90
ssg71
g3047
sg64
(lp3059
S':'
asbag57
(g78
g59
NtRp3060
(dp3061
g62
(dp3062
sg71
g3047
sg64
(lp3063
g57
(g58
g59
NtRp3064
(dp3065
g62
(dp3066
g70
I3
ssg71
g3060
sg64
(lp3067
g1425
asbasbasbag57
(g73
g59
NtRp3068
(dp3069
g62
(dp3070
sg71
g3043
sg64
(lp3071
g57
(g78
g59
NtRp3072
(dp3073
g62
(dp3074
g82
g83
ssg71
g3068
sg64
(lp3075
S'HTTP_ACCEPT_CHARSET'
p3076
asbag57
(g78
g59
NtRp3077
(dp3078
g62
(dp3079
g89
g90
ssg71
g3068
sg64
(lp3080
S':'
asbag57
(g78
g59
NtRp3081
(dp3082
g62
(dp3083
sg71
g3068
sg64
(lp3084
g57
(g58
g59
NtRp3085
(dp3086
g62
(dp3087
g70
I3
ssg71
g3081
sg64
(lp3088
g1447
asbasbasbag57
(g73
g59
NtRp3089
(dp3090
g62
(dp3091
sg71
g3043
sg64
(lp3092
g57
(g78
g59
NtRp3093
(dp3094
g62
(dp3095
g82
g83
ssg71
g3089
sg64
(lp3096
S'HTTP_ACCEPT_ENCODING'
p3097
asbag57
(g78
g59
NtRp3098
(dp3099
g62
(dp3100
g89
g90
ssg71
g3089
sg64
(lp3101
S':'
asbag57
(g78
g59
NtRp3102
(dp3103
g62
(dp3104
sg71
g3089
sg64
(lp3105
g57
(g58
g59
NtRp3106
(dp3107
g62
(dp3108
g70
I3
ssg71
g3102
sg64
(lp3109
g1469
asbasbasbag57
(g73
g59
NtRp3110
(dp3111
g62
(dp3112
sg71
g3043
sg64
(lp3113
g57
(g78
g59
NtRp3114
(dp3115
g62
(dp3116
g82
g83
ssg71
g3110
sg64
(lp3117
S'HTTP_ACCEPT_LANGUAGE'
p3118
asbag57
(g78
g59
NtRp3119
(dp3120
g62
(dp3121
g89
g90
ssg71
g3110
sg64
(lp3122
S':'
asbag57
(g78
g59
NtRp3123
(dp3124
g62
(dp3125
sg71
g3110
sg64
(lp3126
g57
(g58
g59
NtRp3127
(dp3128
g62
(dp3129
g70
I3
ssg71
g3123
sg64
(lp3130
g1491
asbasbasbag57
(g73
g59
NtRp3131
(dp3132
g62
(dp3133
sg71
g3043
sg64
(lp3134
g57
(g78
g59
NtRp3135
(dp3136
g62
(dp3137
g82
g83
ssg71
g3131
sg64
(lp3138
S'HTTP_CONNECTION'
p3139
asbag57
(g78
g59
NtRp3140
(dp3141
g62
(dp3142
g89
g90
ssg71
g3131
sg64
(lp3143
S':'
asbag57
(g78
g59
NtRp3144
(dp3145
g62
(dp3146
sg71
g3131
sg64
(lp3147
g57
(g58
g59
NtRp3148
(dp3149
g62
(dp3150
g70
I3
ssg71
g3144
sg64
(lp3151
g1513
asbasbasbag57
(g73
g59
NtRp3152
(dp3153
g62
(dp3154
sg71
g3043
sg64
(lp3155
g57
(g78
g59
NtRp3156
(dp3157
g62
(dp3158
g82
g83
ssg71
g3152
sg64
(lp3159
S'HTTP_COOKIE'
p3160
asbag57
(g78
g59
NtRp3161
(dp3162
g62
(dp3163
g89
g90
ssg71
g3152
sg64
(lp3164
S':'
asbag57
(g78
g59
NtRp3165
(dp3166
g62
(dp3167
sg71
g3152
sg64
(lp3168
g57
(g58
g59
NtRp3169
(dp3170
g62
(dp3171
g70
I3
ssg71
g3165
sg64
(lp3172
g1535
asbasbasbag57
(g73
g59
NtRp3173
(dp3174
g62
(dp3175
sg71
g3043
sg64
(lp3176
g57
(g78
g59
NtRp3177
(dp3178
g62
(dp3179
g82
g83
ssg71
g3173
sg64
(lp3180
S'HTTP_HOST'
p3181
asbag57
(g78
g59
NtRp3182
(dp3183
g62
(dp3184
g89
g90
ssg71
g3173
sg64
(lp3185
S':'
asbag57
(g78
g59
NtRp3186
(dp3187
g62
(dp3188
sg71
g3173
sg64
(lp3189
g57
(g58
g59
NtRp3190
(dp3191
g62
(dp3192
g70
I3
ssg71
g3186
sg64
(lp3193
g1557
asbasbasbag57
(g73
g59
NtRp3194
(dp3195
g62
(dp3196
sg71
g3043
sg64
(lp3197
g57
(g78
g59
NtRp3198
(dp3199
g62
(dp3200
g82
g83
ssg71
g3194
sg64
(lp3201
S'HTTP_REFERER'
p3202
asbag57
(g78
g59
NtRp3203
(dp3204
g62
(dp3205
g89
g90
ssg71
g3194
sg64
(lp3206
S':'
asbag57
(g78
g59
NtRp3207
(dp3208
g62
(dp3209
sg71
g3194
sg64
(lp3210
g57
(g58
g59
NtRp3211
(dp3212
g62
(dp3213
g70
I3
ssg71
g3207
sg64
(lp3214
g1579
asbasbasbag57
(g73
g59
NtRp3215
(dp3216
g62
(dp3217
sg71
g3043
sg64
(lp3218
g57
(g78
g59
NtRp3219
(dp3220
g62
(dp3221
g82
g83
ssg71
g3215
sg64
(lp3222
S'HTTP_USER_AGENT'
p3223
asbag57
(g78
g59
NtRp3224
(dp3225
g62
(dp3226
g89
g90
ssg71
g3215
sg64
(lp3227
S':'
asbag57
(g78
g59
NtRp3228
(dp3229
g62
(dp3230
sg71
g3215
sg64
(lp3231
g57
(g58
g59
NtRp3232
(dp3233
g62
(dp3234
g70
I3
ssg71
g3228
sg64
(lp3235
g1601
asbasbasbag57
(g73
g59
NtRp3236
(dp3237
g62
(dp3238
sg71
g3043
sg64
(lp3239
g57
(g78
g59
NtRp3240
(dp3241
g62
(dp3242
g82
g83
ssg71
g3236
sg64
(lp3243
S'PATH_INFO'
p3244
asbag57
(g78
g59
NtRp3245
(dp3246
g62
(dp3247
g89
g90
ssg71
g3236
sg64
(lp3248
S':'
asbag57
(g78
g59
NtRp3249
(dp3250
g62
(dp3251
sg71
g3236
sg64
(lp3252
g57
(g58
g59
NtRp3253
(dp3254
g62
(dp3255
g70
I3
ssg71
g3249
sg64
(lp3256
g1755
asbasbasbag57
(g73
g59
NtRp3257
(dp3258
g62
(dp3259
sg71
g3043
sg64
(lp3260
g57
(g78
g59
NtRp3261
(dp3262
g62
(dp3263
g82
g83
ssg71
g3257
sg64
(lp3264
S'QUERY_STRING'
p3265
asbag57
(g78
g59
NtRp3266
(dp3267
g62
(dp3268
g89
g90
ssg71
g3257
sg64
(lp3269
S':'
asbag57
(g78
g59
NtRp3270
(dp3271
g62
(dp3272
sg71
g3257
sg64
(lp3273
g57
(g58
g59
NtRp3274
(dp3275
g62
(dp3276
g70
I3
ssg71
g3270
sg64
(lp3277
S''
asbasbasbag57
(g73
g59
NtRp3278
(dp3279
g62
(dp3280
sg71
g3043
sg64
(lp3281
g57
(g78
g59
NtRp3282
(dp3283
g62
(dp3284
g82
g83
ssg71
g3278
sg64
(lp3285
S'REMOTE_ADDR'
p3286
asbag57
(g78
g59
NtRp3287
(dp3288
g62
(dp3289
g89
g90
ssg71
g3278
sg64
(lp3290
S':'
asbag57
(g78
g59
NtRp3291
(dp3292
g62
(dp3293
sg71
g3278
sg64
(lp3294
g57
(g58
g59
NtRp3295
(dp3296
g62
(dp3297
g70
I3
ssg71
g3291
sg64
(lp3298
g237
asbasbasbag57
(g73
g59
NtRp3299
(dp3300
g62
(dp3301
sg71
g3043
sg64
(lp3302
g57
(g78
g59
NtRp3303
(dp3304
g62
(dp3305
g82
g83
ssg71
g3299
sg64
(lp3306
S'REMOTE_PORT'
p3307
asbag57
(g78
g59
NtRp3308
(dp3309
g62
(dp3310
g89
g90
ssg71
g3299
sg64
(lp3311
S':'
asbag57
(g78
g59
NtRp3312
(dp3313
g62
(dp3314
sg71
g3299
sg64
(lp3315
g57
(g58
g59
NtRp3316
(dp3317
g62
(dp3318
g70
I3
ssg71
g3312
sg64
(lp3319
g1819
asbasbasbag57
(g73
g59
NtRp3320
(dp3321
g62
(dp3322
sg71
g3043
sg64
(lp3323
g57
(g78
g59
NtRp3324
(dp3325
g62
(dp3326
g82
g83
ssg71
g3320
sg64
(lp3327
S'REQUEST_METHOD'
p3328
asbag57
(g78
g59
NtRp3329
(dp3330
g62
(dp3331
g89
g90
ssg71
g3320
sg64
(lp3332
S':'
asbag57
(g78
g59
NtRp3333
(dp3334
g62
(dp3335
sg71
g3320
sg64
(lp3336
g57
(g58
g59
NtRp3337
(dp3338
g62
(dp3339
g70
I3
ssg71
g3333
sg64
(lp3340
g1841
asbasbasbag57
(g73
g59
NtRp3341
(dp3342
g62
(dp3343
sg71
g3043
sg64
(lp3344
g57
(g78
g59
NtRp3345
(dp3346
g62
(dp3347
g82
g83
ssg71
g3341
sg64
(lp3348
S'REQUEST_URI'
p3349
asbag57
(g78
g59
NtRp3350
(dp3351
g62
(dp3352
g89
g90
ssg71
g3341
sg64
(lp3353
S':'
asbag57
(g78
g59
NtRp3354
(dp3355
g62
(dp3356
sg71
g3341
sg64
(lp3357
g57
(g58
g59
NtRp3358
(dp3359
g62
(dp3360
g70
I3
ssg71
g3354
sg64
(lp3361
g1755
asbasbasbag57
(g73
g59
NtRp3362
(dp3363
g62
(dp3364
sg71
g3043
sg64
(lp3365
g57
(g78
g59
NtRp3366
(dp3367
g62
(dp3368
g82
g83
ssg71
g3362
sg64
(lp3369
S'SCRIPT_NAME'
p3370
asbag57
(g78
g59
NtRp3371
(dp3372
g62
(dp3373
g89
g90
ssg71
g3362
sg64
(lp3374
S':'
asbag57
(g78
g59
NtRp3375
(dp3376
g62
(dp3377
sg71
g3362
sg64
(lp3378
g57
(g58
g59
NtRp3379
(dp3380
g62
(dp3381
g70
I3
ssg71
g3375
sg64
(lp3382
S''
asbasbasbag57
(g73
g59
NtRp3383
(dp3384
g62
(dp3385
sg71
g3043
sg64
(lp3386
g57
(g78
g59
NtRp3387
(dp3388
g62
(dp3389
g82
g83
ssg71
g3383
sg64
(lp3390
S'SERVER_NAME'
p3391
asbag57
(g78
g59
NtRp3392
(dp3393
g62
(dp3394
g89
g90
ssg71
g3383
sg64
(lp3395
S':'
asbag57
(g78
g59
NtRp3396
(dp3397
g62
(dp3398
sg71
g3383
sg64
(lp3399
g57
(g58
g59
NtRp3400
(dp3401
g62
(dp3402
g70
I3
ssg71
g3396
sg64
(lp3403
g1905
asbasbasbag57
(g73
g59
NtRp3404
(dp3405
g62
(dp3406
sg71
g3043
sg64
(lp3407
g57
(g78
g59
NtRp3408
(dp3409
g62
(dp3410
g82
g83
ssg71
g3404
sg64
(lp3411
S'SERVER_PORT'
p3412
asbag57
(g78
g59
NtRp3413
(dp3414
g62
(dp3415
g89
g90
ssg71
g3404
sg64
(lp3416
S':'
asbag57
(g78
g59
NtRp3417
(dp3418
g62
(dp3419
sg71
g3404
sg64
(lp3420
g57
(g58
g59
NtRp3421
(dp3422
g62
(dp3423
g70
I3
ssg71
g3417
sg64
(lp3424
g1927
asbasbasbag57
(g73
g59
NtRp3425
(dp3426
g62
(dp3427
sg71
g3043
sg64
(lp3428
g57
(g78
g59
NtRp3429
(dp3430
g62
(dp3431
g82
g83
ssg71
g3425
sg64
(lp3432
S'SERVER_PROTOCOL'
p3433
asbag57
(g78
g59
NtRp3434
(dp3435
g62
(dp3436
g89
g90
ssg71
g3425
sg64
(lp3437
S':'
asbag57
(g78
g59
NtRp3438
(dp3439
g62
(dp3440
sg71
g3425
sg64
(lp3441
g57
(g58
g59
NtRp3442
(dp3443
g62
(dp3444
g70
I3
ssg71
g3438
sg64
(lp3445
g1949
asbasbasbag57
(g73
g59
NtRp3446
(dp3447
g62
(dp3448
sg71
g3043
sg64
(lp3449
g57
(g78
g59
NtRp3450
(dp3451
g62
(dp3452
g82
g83
ssg71
g3446
sg64
(lp3453
S'SERVER_SOFTWARE'
p3454
asbag57
(g78
g59
NtRp3455
(dp3456
g62
(dp3457
g89
g90
ssg71
g3446
sg64
(lp3458
S':'
asbag57
(g78
g59
NtRp3459
(dp3460
g62
(dp3461
sg71
g3446
sg64
(lp3462
g57
(g58
g59
NtRp3463
(dp3464
g62
(dp3465
g70
I3
ssg71
g3459
sg64
(lp3466
g1971
asbasbasbag57
(g73
g59
NtRp3467
(dp3468
g62
(dp3469
sg71
g3043
sg64
(lp3470
g57
(g78
g59
NtRp3471
(dp3472
g62
(dp3473
g82
g83
ssg71
g3467
sg64
(lp3474
S'wsgi.errors'
p3475
asbag57
(g78
g59
NtRp3476
(dp3477
g62
(dp3478
g89
g90
ssg71
g3467
sg64
(lp3479
S':'
asbag57
(g78
g59
NtRp3480
(dp3481
g62
(dp3482
sg71
g3467
sg64
(lp3483
g57
(g58
g59
NtRp3484
(dp3485
g62
(dp3486
g70
I3
ssg71
g3480
sg64
(lp3487
S"<open file '<stderr>', mode 'w' at 0xb72f00d0>"
p3488
asbasbasbag57
(g73
g59
NtRp3489
(dp3490
g62
(dp3491
sg71
g3043
sg64
(lp3492
g57
(g78
g59
NtRp3493
(dp3494
g62
(dp3495
g82
g83
ssg71
g3489
sg64
(lp3496
S'wsgi.file_wrapper'
p3497
asbag57
(g78
g59
NtRp3498
(dp3499
g62
(dp3500
g89
g90
ssg71
g3489
sg64
(lp3501
S':'
asbag57
(g78
g59
NtRp3502
(dp3503
g62
(dp3504
sg71
g3489
sg64
(lp3505
g57
(g58
g59
NtRp3506
(dp3507
g62
(dp3508
g70
I3
ssg71
g3502
sg64
(lp3509
S'<class wsgiref.util.FileWrapper at 0x8fafb9c>'
p3510
asbasbasbag57
(g73
g59
NtRp3511
(dp3512
g62
(dp3513
sg71
g3043
sg64
(lp3514
g57
(g78
g59
NtRp3515
(dp3516
g62
(dp3517
g82
g83
ssg71
g3511
sg64
(lp3518
S'wsgi.input'
p3519
asbag57
(g78
g59
NtRp3520
(dp3521
g62
(dp3522
g89
g90
ssg71
g3511
sg64
(lp3523
S':'
asbag57
(g78
g59
NtRp3524
(dp3525
g62
(dp3526
sg71
g3511
sg64
(lp3527
g57
(g58
g59
NtRp3528
(dp3529
g62
(dp3530
g70
I3
ssg71
g3524
sg64
(lp3531
S'<cStringIO.StringO object at 0xad467ec0>'
p3532
asbasbasbag57
(g73
g59
NtRp3533
(dp3534
g62
(dp3535
sg71
g3043
sg64
(lp3536
g57
(g78
g59
NtRp3537
(dp3538
g62
(dp3539
g82
g83
ssg71
g3533
sg64
(lp3540
S'wsgi.multiprocess'
p3541
asbag57
(g78
g59
NtRp3542
(dp3543
g62
(dp3544
g89
g90
ssg71
g3533
sg64
(lp3545
S':'
asbag57
(g78
g59
NtRp3546
(dp3547
g62
(dp3548
sg71
g3533
sg64
(lp3549
g57
(g58
g59
NtRp3550
(dp3551
g62
(dp3552
g70
I3
ssg71
g3546
sg64
(lp3553
g100
asbasbasbag57
(g73
g59
NtRp3554
(dp3555
g62
(dp3556
sg71
g3043
sg64
(lp3557
g57
(g78
g59
NtRp3558
(dp3559
g62
(dp3560
g82
g83
ssg71
g3554
sg64
(lp3561
S'wsgi.multithread'
p3562
asbag57
(g78
g59
NtRp3563
(dp3564
g62
(dp3565
g89
g90
ssg71
g3554
sg64
(lp3566
S':'
asbag57
(g78
g59
NtRp3567
(dp3568
g62
(dp3569
sg71
g3554
sg64
(lp3570
g57
(g58
g59
NtRp3571
(dp3572
g62
(dp3573
g70
I3
ssg71
g3567
sg64
(lp3574
g2188
asbasbasbag57
(g73
g59
NtRp3575
(dp3576
g62
(dp3577
sg71
g3043
sg64
(lp3578
g57
(g78
g59
NtRp3579
(dp3580
g62
(dp3581
g82
g83
ssg71
g3575
sg64
(lp3582
S'wsgi.run_once'
p3583
asbag57
(g78
g59
NtRp3584
(dp3585
g62
(dp3586
g89
g90
ssg71
g3575
sg64
(lp3587
S':'
asbag57
(g78
g59
NtRp3588
(dp3589
g62
(dp3590
sg71
g3575
sg64
(lp3591
g57
(g58
g59
NtRp3592
(dp3593
g62
(dp3594
g70
I3
ssg71
g3588
sg64
(lp3595
g100
asbasbasbag57
(g73
g59
NtRp3596
(dp3597
g62
(dp3598
sg71
g3043
sg64
(lp3599
g57
(g78
g59
NtRp3600
(dp3601
g62
(dp3602
g82
g83
ssg71
g3596
sg64
(lp3603
S'wsgi.url_scheme'
p3604
asbag57
(g78
g59
NtRp3605
(dp3606
g62
(dp3607
g89
g90
ssg71
g3596
sg64
(lp3608
S':'
asbag57
(g78
g59
NtRp3609
(dp3610
g62
(dp3611
sg71
g3596
sg64
(lp3612
g57
(g58
g59
NtRp3613
(dp3614
g62
(dp3615
g70
I3
ssg71
g3609
sg64
(lp3616
g2231
asbasbasbag57
(g73
g59
NtRp3617
(dp3618
g62
(dp3619
sg71
g3043
sg64
(lp3620
g57
(g78
g59
NtRp3621
(dp3622
g62
(dp3623
g82
g83
ssg71
g3617
sg64
(lp3624
S'wsgi.version'
p3625
asbag57
(g78
g59
NtRp3626
(dp3627
g62
(dp3628
g89
g90
ssg71
g3617
sg64
(lp3629
S':'
asbag57
(g78
g59
NtRp3630
(dp3631
g62
(dp3632
sg71
g3617
sg64
(lp3633
g57
(g58
g59
NtRp3634
(dp3635
g62
(dp3636
g70
I3
ssg71
g3630
sg64
(lp3637
S'1'
asbasbasbasbasbasbasbasbasbasbasbasbasbsS'frames'
p3638
(lp3639
(dp3640
S'file'
p3641
S'/home/anil/bootstrap/web2py/gluon/restricted.py'
p3642
sS'dump'
p3643
(dp3644
S'environment'
p3645
S"{'A': <class 'gluon.html.A'>, 'Auth': <class 'gluon.tools.Auth'>, 'B': <class 'gluon.html.B'>, 'BEAUTIFY': <class 'gluon.html.BEAUTIFY'>, 'BODY': <class 'gluon.html.BODY'>, 'BR': <class 'gluon.html.BR'>, 'BUTTON': <class 'gluon.html.BUTTON'>, 'CAT': <class 'gluon.html.CAT'>, 'CENTER': <class 'gluon.html.CENTER'>, 'CLEANUP': <class 'gluon.validators.CLEANUP'>, ...}"
p3646
sS'ccode'
p3647
S'<code object <module> at 0xae07d4a0, file "/home...DEV_bootstrap_ch/controllers/default.py", line 1>'
p3648
ssS'lnum'
p3649
I212
sS'lines'
p3650
(dp3651
I207
S'    try:'
p3652
sI208
S'        if isinstance(code, types.CodeType):'
p3653
sI209
S'            ccode = code'
p3654
sI210
S'        else:'
p3655
sI211
S'            ccode = compile2(code, layer)'
p3656
sI212
S'        exec ccode in environment'
p3657
sI213
S'    except HTTP:'
p3658
sI214
S'        raise'
p3659
sI215
S'    except RestrictedError:'
p3660
sI216
S'        # do not encapsulate (obfuscate) the original RestrictedError'
p3661
ssS'call'
p3662
S"(code='import rpy2.robjects as robjects\\n# -*- coding: u...\\n\\n\\n\\nresponse._vars=response._caller(ajx_publish)\\n', environment={'A': <class 'gluon.html.A'>, 'Auth': <class 'gluon.tools.Auth'>, 'B': <class 'gluon.html.B'>, 'BEAUTIFY': <class 'gluon.html.BEAUTIFY'>, 'BODY': <class 'gluon.html.BODY'>, 'BR': <class 'gluon.html.BR'>, 'BUTTON': <class 'gluon.html.BUTTON'>, 'CAT': <class 'gluon.html.CAT'>, 'CENTER': <class 'gluon.html.CENTER'>, 'CLEANUP': <class 'gluon.validators.CLEANUP'>, ...}, layer='/home/anil/bootstrap/web2py/applications/DEV_bootstrap_ch/controllers/default.py')"
p3663
sS'func'
p3664
S'restricted'
p3665
sa(dp3666
g3641
S'/home/anil/bootstrap/web2py/applications/DEV_bootstrap_ch/controllers/default.py'
p3667
sg3643
(dp3668
sg3649
I1104
sg3650
(dp3669
I1093
S'   """allows an experimentalist to add multiple images and files and displays it in the consolidated sample view form """'
p3670
sI1094
S'   """ per sample . takes id of the sample as the input """'
p3671
sI1095
S'   sid = request.args(0)'
p3672
sI1096
S'   sample = db(db.sample.id == sid).select().first()'
p3673
sI1097
S'   old = db(db.sample_files.sample == sid).select(db.sample_files.ALL)'
p3674
sI1098
S'   form = SQLFORM(db.sample_files)'
p3675
sI1099
S'   form.vars.sample = sid'
p3676
sI1100
S'   return locals()'
p3677
sI1101
S''
sI1102
S''
ssg3662
S'()'
p3678
sg3664
S'<module>'
p3679
sa(dp3680
g3641
S'/home/anil/bootstrap/web2py/gluon/globals.py'
p3681
sg3643
(dp3682
S'self'
p3683
S'undefined'
p3684
sS'f'
S'<function ajx_publish>'
p3685
ssg3649
I193
sg3650
(dp3686
I192
S'        self._vars = None'
p3687
sI193
S'        self._caller = lambda f: f()'
p3688
sI194
S'        self._view_environment = None'
p3689
sI195
S'        self._custom_commit = None'
p3690
sI196
S'        self._custom_rollback = None'
p3691
sI197
S''
sI188
S'        self.menu = []             # used by the default view layout'
p3692
sI189
S'        self.files = []            # used by web2py_ajax.html'
p3693
sI190
S'        self.generic_patterns = []  # patterns to allow generic views'
p3694
sI191
S"        self.delimiters = ('{{', '}}')"
p3695
ssg3662
S'(f=<function ajx_publish>)'
p3696
sg3664
S'<lambda>'
p3697
sa(dp3698
g3641
S'/home/anil/bootstrap/web2py/applications/DEV_bootstrap_ch/controllers/default.py'
p3699
sg3643
(dp3700
S'args'
p3701
g3684
sS'global redirect'
p3702
S'<function redirect>'
p3703
sS'eid'
p3704
S"'2'"
p3705
ssg3649
I454
sg3650
(dp3706
I449
S'    eid = request.args(1)'
p3707
sI450
S"    if request.args(0) == 'publish':"
p3708
sI451
S'     row = db(db.project.id == eid).update(project_status = "1")'
p3709
sI452
S"    elif request.args(0) == 'unpublish':"
p3710
sI453
S'     row = db(db.project.id == eid).update(project_status = "0")'
p3711
sI454
S"    redirect('project_viewer',args = eid)"
p3712
sI455
S'    return locals()'
p3713
sI456
S''
sI457
S'def roles():'
p3714
sI458
S'    response.menu = ['
p3715
ssg3662
S'()'
p3716
sg3664
S'ajx_publish'
p3717
sasS'pyver'
p3718
S'Python 2.7.3: /usr/bin/python'
p3719
sS'session'
p3720
g57
(g58
g59
NtRp3721
(dp3722
g62
(dp3723
sg64
(lp3724
g57
(g66
g59
NtRp3725
(dp3726
g62
(dp3727
g70
I5
ssg71
Nsg64
(lp3728
g57
(g73
g59
NtRp3729
(dp3730
g62
(dp3731
sg71
g3725
sg64
(lp3732
g57
(g78
g59
NtRp3733
(dp3734
g62
(dp3735
g82
g83
ssg71
g3729
sg64
(lp3736
S'auth'
p3737
asbag57
(g78
g59
NtRp3738
(dp3739
g62
(dp3740
g89
g90
ssg71
g3729
sg64
(lp3741
S':'
asbag57
(g78
g59
NtRp3742
(dp3743
g62
(dp3744
sg71
g3729
sg64
(lp3745
g57
(g58
g59
NtRp3746
(dp3747
g62
(dp3748
g70
I5
ssg71
g3742
sg64
(lp3749
g57
(g66
g59
NtRp3750
(dp3751
g62
(dp3752
g70
I4
ssg71
Nsg64
(lp3753
g57
(g73
g59
NtRp3754
(dp3755
g62
(dp3756
sg71
g3750
sg64
(lp3757
g57
(g78
g59
NtRp3758
(dp3759
g62
(dp3760
g82
g83
ssg71
g3754
sg64
(lp3761
S'expiration'
p3762
asbag57
(g78
g59
NtRp3763
(dp3764
g62
(dp3765
g89
g90
ssg71
g3754
sg64
(lp3766
S':'
asbag57
(g78
g59
NtRp3767
(dp3768
g62
(dp3769
sg71
g3754
sg64
(lp3770
g57
(g58
g59
NtRp3771
(dp3772
g62
(dp3773
g70
I4
ssg71
g3767
sg64
(lp3774
S'2592000'
p3775
asbasbasbag57
(g73
g59
NtRp3776
(dp3777
g62
(dp3778
sg71
g3750
sg64
(lp3779
g57
(g78
g59
NtRp3780
(dp3781
g62
(dp3782
g82
g83
ssg71
g3776
sg64
(lp3783
S'hmac_key'
p3784
asbag57
(g78
g59
NtRp3785
(dp3786
g62
(dp3787
g89
g90
ssg71
g3776
sg64
(lp3788
S':'
asbag57
(g78
g59
NtRp3789
(dp3790
g62
(dp3791
sg71
g3776
sg64
(lp3792
g57
(g58
g59
NtRp3793
(dp3794
g62
(dp3795
g70
I4
ssg71
g3789
sg64
(lp3796
S'11fc622b-02bf-4f2a-8e07-fc63863907e8'
p3797
asbasbasbag57
(g73
g59
NtRp3798
(dp3799
g62
(dp3800
sg71
g3750
sg64
(lp3801
g57
(g78
g59
NtRp3802
(dp3803
g62
(dp3804
g82
g83
ssg71
g3798
sg64
(lp3805
S'last_visit'
p3806
asbag57
(g78
g59
NtRp3807
(dp3808
g62
(dp3809
g89
g90
ssg71
g3798
sg64
(lp3810
S':'
asbag57
(g78
g59
NtRp3811
(dp3812
g62
(dp3813
sg71
g3798
sg64
(lp3814
g57
(g58
g59
NtRp3815
(dp3816
g62
(dp3817
g70
I4
ssg71
g3811
sg64
(lp3818
S'datetime.datetime(2013, 2, 18, 0, 21, 50, 823546)'
p3819
asbasbasbag57
(g73
g59
NtRp3820
(dp3821
g62
(dp3822
sg71
g3750
sg64
(lp3823
g57
(g78
g59
NtRp3824
(dp3825
g62
(dp3826
g82
g83
ssg71
g3820
sg64
(lp3827
S'remember'
p3828
asbag57
(g78
g59
NtRp3829
(dp3830
g62
(dp3831
g89
g90
ssg71
g3820
sg64
(lp3832
S':'
asbag57
(g78
g59
NtRp3833
(dp3834
g62
(dp3835
sg71
g3820
sg64
(lp3836
g57
(g58
g59
NtRp3837
(dp3838
g62
(dp3839
g70
I4
ssg71
g3833
sg64
(lp3840
g2188
asbasbasbag57
(g73
g59
NtRp3841
(dp3842
g62
(dp3843
sg71
g3750
sg64
(lp3844
g57
(g78
g59
NtRp3845
(dp3846
g62
(dp3847
g82
g83
ssg71
g3841
sg64
(lp3848
S'user'
p3849
asbag57
(g78
g59
NtRp3850
(dp3851
g62
(dp3852
g89
g90
ssg71
g3841
sg64
(lp3853
S':'
asbag57
(g78
g59
NtRp3854
(dp3855
g62
(dp3856
sg71
g3841
sg64
(lp3857
g57
(g58
g59
NtRp3858
(dp3859
g62
(dp3860
g70
I4
ssg71
g3854
sg64
(lp3861
g57
(g66
g59
NtRp3862
(dp3863
g62
(dp3864
g70
I3
ssg71
Nsg64
(lp3865
g57
(g73
g59
NtRp3866
(dp3867
g62
(dp3868
sg71
g3862
sg64
(lp3869
g57
(g78
g59
NtRp3870
(dp3871
g62
(dp3872
g82
g83
ssg71
g3866
sg64
(lp3873
S'address'
p3874
asbag57
(g78
g59
NtRp3875
(dp3876
g62
(dp3877
g89
g90
ssg71
g3866
sg64
(lp3878
S':'
asbag57
(g78
g59
NtRp3879
(dp3880
g62
(dp3881
sg71
g3866
sg64
(lp3882
g57
(g58
g59
NtRp3883
(dp3884
g62
(dp3885
g70
I3
ssg71
g3879
sg64
(lp3886
S'a'
asbasbasbag57
(g73
g59
NtRp3887
(dp3888
g62
(dp3889
sg71
g3862
sg64
(lp3890
g57
(g78
g59
NtRp3891
(dp3892
g62
(dp3893
g82
g83
ssg71
g3887
sg64
(lp3894
S'affiliated_to'
p3895
asbag57
(g78
g59
NtRp3896
(dp3897
g62
(dp3898
g89
g90
ssg71
g3887
sg64
(lp3899
S':'
asbag57
(g78
g59
NtRp3900
(dp3901
g62
(dp3902
sg71
g3887
sg64
(lp3903
g57
(g58
g59
NtRp3904
(dp3905
g62
(dp3906
g70
I3
ssg71
g3900
sg64
(lp3907
S'a'
asbasbasbag57
(g73
g59
NtRp3908
(dp3909
g62
(dp3910
sg71
g3862
sg64
(lp3911
g57
(g78
g59
NtRp3912
(dp3913
g62
(dp3914
g82
g83
ssg71
g3908
sg64
(lp3915
S'city'
p3916
asbag57
(g78
g59
NtRp3917
(dp3918
g62
(dp3919
g89
g90
ssg71
g3908
sg64
(lp3920
S':'
asbag57
(g78
g59
NtRp3921
(dp3922
g62
(dp3923
sg71
g3908
sg64
(lp3924
g57
(g58
g59
NtRp3925
(dp3926
g62
(dp3927
g70
I3
ssg71
g3921
sg64
(lp3928
S'a'
asbasbasbag57
(g73
g59
NtRp3929
(dp3930
g62
(dp3931
sg71
g3862
sg64
(lp3932
g57
(g78
g59
NtRp3933
(dp3934
g62
(dp3935
g82
g83
ssg71
g3929
sg64
(lp3936
S'country'
p3937
asbag57
(g78
g59
NtRp3938
(dp3939
g62
(dp3940
g89
g90
ssg71
g3929
sg64
(lp3941
S':'
asbag57
(g78
g59
NtRp3942
(dp3943
g62
(dp3944
sg71
g3929
sg64
(lp3945
g57
(g58
g59
NtRp3946
(dp3947
g62
(dp3948
g70
I3
ssg71
g3942
sg64
(lp3949
S'India'
p3950
asbasbasbag57
(g73
g59
NtRp3951
(dp3952
g62
(dp3953
sg71
g3862
sg64
(lp3954
g57
(g78
g59
NtRp3955
(dp3956
g62
(dp3957
g82
g83
ssg71
g3951
sg64
(lp3958
S'email'
p3959
asbag57
(g78
g59
NtRp3960
(dp3961
g62
(dp3962
g89
g90
ssg71
g3951
sg64
(lp3963
S':'
asbag57
(g78
g59
NtRp3964
(dp3965
g62
(dp3966
sg71
g3951
sg64
(lp3967
g57
(g58
g59
NtRp3968
(dp3969
g62
(dp3970
g70
I3
ssg71
g3964
sg64
(lp3971
S'anil.iiith@gmail.com'
p3972
asbasbasbag57
(g73
g59
NtRp3973
(dp3974
g62
(dp3975
sg71
g3862
sg64
(lp3976
g57
(g78
g59
NtRp3977
(dp3978
g62
(dp3979
g82
g83
ssg71
g3973
sg64
(lp3980
S'first_name'
p3981
asbag57
(g78
g59
NtRp3982
(dp3983
g62
(dp3984
g89
g90
ssg71
g3973
sg64
(lp3985
S':'
asbag57
(g78
g59
NtRp3986
(dp3987
g62
(dp3988
sg71
g3973
sg64
(lp3989
g57
(g58
g59
NtRp3990
(dp3991
g62
(dp3992
g70
I3
ssg71
g3986
sg64
(lp3993
S'anil'
p3994
asbasbasbag57
(g73
g59
NtRp3995
(dp3996
g62
(dp3997
sg71
g3862
sg64
(lp3998
g57
(g78
g59
NtRp3999
(dp4000
g62
(dp4001
g82
g83
ssg71
g3995
sg64
(lp4002
S'id'
p4003
asbag57
(g78
g59
NtRp4004
(dp4005
g62
(dp4006
g89
g90
ssg71
g3995
sg64
(lp4007
S':'
asbag57
(g78
g59
NtRp4008
(dp4009
g62
(dp4010
sg71
g3995
sg64
(lp4011
g57
(g58
g59
NtRp4012
(dp4013
g62
(dp4014
g70
I3
ssg71
g4008
sg64
(lp4015
S'2'
asbasbasbag57
(g73
g59
NtRp4016
(dp4017
g62
(dp4018
sg71
g3862
sg64
(lp4019
g57
(g78
g59
NtRp4020
(dp4021
g62
(dp4022
g82
g83
ssg71
g4016
sg64
(lp4023
S'last_name'
p4024
asbag57
(g78
g59
NtRp4025
(dp4026
g62
(dp4027
g89
g90
ssg71
g4016
sg64
(lp4028
S':'
asbag57
(g78
g59
NtRp4029
(dp4030
g62
(dp4031
sg71
g4016
sg64
(lp4032
g57
(g58
g59
NtRp4033
(dp4034
g62
(dp4035
g70
I3
ssg71
g4029
sg64
(lp4036
S'n'
asbasbasbag57
(g73
g59
NtRp4037
(dp4038
g62
(dp4039
sg71
g3862
sg64
(lp4040
g57
(g78
g59
NtRp4041
(dp4042
g62
(dp4043
g82
g83
ssg71
g4037
sg64
(lp4044
S'mobile'
p4045
asbag57
(g78
g59
NtRp4046
(dp4047
g62
(dp4048
g89
g90
ssg71
g4037
sg64
(lp4049
S':'
asbag57
(g78
g59
NtRp4050
(dp4051
g62
(dp4052
sg71
g4037
sg64
(lp4053
g57
(g58
g59
NtRp4054
(dp4055
g62
(dp4056
g70
I3
ssg71
g4050
sg64
(lp4057
S'1233'
p4058
asbasbasbag57
(g73
g59
NtRp4059
(dp4060
g62
(dp4061
sg71
g3862
sg64
(lp4062
g57
(g78
g59
NtRp4063
(dp4064
g62
(dp4065
g82
g83
ssg71
g4059
sg64
(lp4066
S'phone'
p4067
asbag57
(g78
g59
NtRp4068
(dp4069
g62
(dp4070
g89
g90
ssg71
g4059
sg64
(lp4071
S':'
asbag57
(g78
g59
NtRp4072
(dp4073
g62
(dp4074
sg71
g4059
sg64
(lp4075
g57
(g58
g59
NtRp4076
(dp4077
g62
(dp4078
g70
I3
ssg71
g4072
sg64
(lp4079
S'123'
p4080
asbasbasbag57
(g73
g59
NtRp4081
(dp4082
g62
(dp4083
sg71
g3862
sg64
(lp4084
g57
(g78
g59
NtRp4085
(dp4086
g62
(dp4087
g82
g83
ssg71
g4081
sg64
(lp4088
S'position'
p4089
asbag57
(g78
g59
NtRp4090
(dp4091
g62
(dp4092
g89
g90
ssg71
g4081
sg64
(lp4093
S':'
asbag57
(g78
g59
NtRp4094
(dp4095
g62
(dp4096
sg71
g4081
sg64
(lp4097
g57
(g58
g59
NtRp4098
(dp4099
g62
(dp4100
g70
I3
ssg71
g4094
sg64
(lp4101
S'0'
asbasbasbag57
(g73
g59
NtRp4102
(dp4103
g62
(dp4104
sg71
g3862
sg64
(lp4105
g57
(g78
g59
NtRp4106
(dp4107
g62
(dp4108
g82
g83
ssg71
g4102
sg64
(lp4109
S'postal_code'
p4110
asbag57
(g78
g59
NtRp4111
(dp4112
g62
(dp4113
g89
g90
ssg71
g4102
sg64
(lp4114
S':'
asbag57
(g78
g59
NtRp4115
(dp4116
g62
(dp4117
sg71
g4102
sg64
(lp4118
g57
(g58
g59
NtRp4119
(dp4120
g62
(dp4121
g70
I3
ssg71
g4115
sg64
(lp4122
S'123'
p4123
asbasbasbag57
(g73
g59
NtRp4124
(dp4125
g62
(dp4126
sg71
g3862
sg64
(lp4127
g57
(g78
g59
NtRp4128
(dp4129
g62
(dp4130
g82
g83
ssg71
g4124
sg64
(lp4131
S'registration_at'
p4132
asbag57
(g78
g59
NtRp4133
(dp4134
g62
(dp4135
g89
g90
ssg71
g4124
sg64
(lp4136
S':'
asbag57
(g78
g59
NtRp4137
(dp4138
g62
(dp4139
sg71
g4124
sg64
(lp4140
g57
(g58
g59
NtRp4141
(dp4142
g62
(dp4143
g70
I3
ssg71
g4137
sg64
(lp4144
S'0'
asbasbasbag57
(g73
g59
NtRp4145
(dp4146
g62
(dp4147
sg71
g3862
sg64
(lp4148
g57
(g78
g59
NtRp4149
(dp4150
g62
(dp4151
g82
g83
ssg71
g4145
sg64
(lp4152
S'registration_id'
p4153
asbag57
(g78
g59
NtRp4154
(dp4155
g62
(dp4156
g89
g90
ssg71
g4145
sg64
(lp4157
S':'
asbag57
(g78
g59
NtRp4158
(dp4159
g62
(dp4160
sg71
g4145
sg64
(lp4161
g57
(g58
g59
NtRp4162
(dp4163
g62
(dp4164
g70
I3
ssg71
g4158
sg64
(lp4165
S''
asbasbasbag57
(g73
g59
NtRp4166
(dp4167
g62
(dp4168
sg71
g3862
sg64
(lp4169
g57
(g78
g59
NtRp4170
(dp4171
g62
(dp4172
g82
g83
ssg71
g4166
sg64
(lp4173
S'registration_key'
p4174
asbag57
(g78
g59
NtRp4175
(dp4176
g62
(dp4177
g89
g90
ssg71
g4166
sg64
(lp4178
S':'
asbag57
(g78
g59
NtRp4179
(dp4180
g62
(dp4181
sg71
g4166
sg64
(lp4182
g57
(g58
g59
NtRp4183
(dp4184
g62
(dp4185
g70
I3
ssg71
g4179
sg64
(lp4186
S''
asbasbasbag57
(g73
g59
NtRp4187
(dp4188
g62
(dp4189
sg71
g3862
sg64
(lp4190
g57
(g78
g59
NtRp4191
(dp4192
g62
(dp4193
g82
g83
ssg71
g4187
sg64
(lp4194
S'reset_password_key'
p4195
asbag57
(g78
g59
NtRp4196
(dp4197
g62
(dp4198
g89
g90
ssg71
g4187
sg64
(lp4199
S':'
asbag57
(g78
g59
NtRp4200
(dp4201
g62
(dp4202
sg71
g4187
sg64
(lp4203
g57
(g58
g59
NtRp4204
(dp4205
g62
(dp4206
g70
I3
ssg71
g4200
sg64
(lp4207
S''
asbasbasbag57
(g73
g59
NtRp4208
(dp4209
g62
(dp4210
sg71
g3862
sg64
(lp4211
g57
(g78
g59
NtRp4212
(dp4213
g62
(dp4214
g82
g83
ssg71
g4208
sg64
(lp4215
S'title'
p4216
asbag57
(g78
g59
NtRp4217
(dp4218
g62
(dp4219
g89
g90
ssg71
g4208
sg64
(lp4220
S':'
asbag57
(g78
g59
NtRp4221
(dp4222
g62
(dp4223
sg71
g4208
sg64
(lp4224
g57
(g58
g59
NtRp4225
(dp4226
g62
(dp4227
g70
I3
ssg71
g4221
sg64
(lp4228
S'0'
asbasbasbasbasbasbasbag57
(g73
g59
NtRp4229
(dp4230
g62
(dp4231
sg71
g3750
sg64
(lp4232
g57
(g78
g59
NtRp4233
(dp4234
g62
(dp4235
g82
g83
ssg71
g4229
sg64
(lp4236
S'user_groups'
p4237
asbag57
(g78
g59
NtRp4238
(dp4239
g62
(dp4240
g89
g90
ssg71
g4229
sg64
(lp4241
S':'
asbag57
(g78
g59
NtRp4242
(dp4243
g62
(dp4244
sg71
g4229
sg64
(lp4245
g57
(g58
g59
NtRp4246
(dp4247
g62
(dp4248
g70
I4
ssg71
g4242
sg64
(lp4249
g57
(g66
g59
NtRp4250
(dp4251
g62
(dp4252
g70
I3
ssg71
Nsg64
(lp4253
g57
(g73
g59
NtRp4254
(dp4255
g62
(dp4256
sg71
g4250
sg64
(lp4257
g57
(g78
g59
NtRp4258
(dp4259
g62
(dp4260
g82
g83
ssg71
g4254
sg64
(lp4261
S'9'
asbag57
(g78
g59
NtRp4262
(dp4263
g62
(dp4264
g89
g90
ssg71
g4254
sg64
(lp4265
S':'
asbag57
(g78
g59
NtRp4266
(dp4267
g62
(dp4268
sg71
g4254
sg64
(lp4269
g57
(g58
g59
NtRp4270
(dp4271
g62
(dp4272
g70
I3
ssg71
g4266
sg64
(lp4273
S'user_2'
p4274
asbasbasbasbasbasbasbasbasbasbasbag57
(g73
g59
NtRp4275
(dp4276
g62
(dp4277
sg71
g3725
sg64
(lp4278
g57
(g78
g59
NtRp4279
(dp4280
g62
(dp4281
g82
g83
ssg71
g4275
sg64
(lp4282
S'flash'
p4283
asbag57
(g78
g59
NtRp4284
(dp4285
g62
(dp4286
g89
g90
ssg71
g4275
sg64
(lp4287
S':'
asbag57
(g78
g59
NtRp4288
(dp4289
g62
(dp4290
sg71
g4275
sg64
(lp4291
g57
(g58
g59
NtRp4292
(dp4293
g62
(dp4294
g70
I5
ssg71
g4288
sg64
(lp4295
S'None'
p4296
asbasbasbag57
(g73
g59
NtRp4297
(dp4298
g62
(dp4299
sg71
g3725
sg64
(lp4300
g57
(g78
g59
NtRp4301
(dp4302
g62
(dp4303
g82
g83
ssg71
g4297
sg64
(lp4304
S'last_orderby'
p4305
asbag57
(g78
g59
NtRp4306
(dp4307
g62
(dp4308
g89
g90
ssg71
g4297
sg64
(lp4309
S':'
asbag57
(g78
g59
NtRp4310
(dp4311
g62
(dp4312
sg71
g4297
sg64
(lp4313
g57
(g58
g59
NtRp4314
(dp4315
g62
(dp4316
g70
I5
ssg71
g4310
sg64
(lp4317
S'None'
p4318
asbasbasbag57
(g73
g59
NtRp4319
(dp4320
g62
(dp4321
sg71
g3725
sg64
(lp4322
g57
(g78
g59
NtRp4323
(dp4324
g62
(dp4325
g82
g83
ssg71
g4319
sg64
(lp4326
S'last_query'
p4327
asbag57
(g78
g59
NtRp4328
(dp4329
g62
(dp4330
g89
g90
ssg71
g4319
sg64
(lp4331
S':'
asbag57
(g78
g59
NtRp4332
(dp4333
g62
(dp4334
sg71
g4319
sg64
(lp4335
g57
(g58
g59
NtRp4336
(dp4337
g62
(dp4338
g70
I5
ssg71
g4332
sg64
(lp4339
S'db.project.id>0'
p4340
asbasbasbasbasbsS'etype'
p4341
S"<type 'exceptions.TypeError'>"
p4342
sS'date'
p4343
S'Mon Feb 18 01:28:36 2013'
p4344
sS'response'
p4345
g57
(g58
g59
NtRp4346
(dp4347
g62
(dp4348
sg64
(lp4349
g57
(g66
g59
NtRp4350
(dp4351
g62
(dp4352
g70
I5
ssg71
Nsg64
(lp4353
g57
(g73
g59
NtRp4354
(dp4355
g62
(dp4356
sg71
g4350
sg64
(lp4357
g57
(g78
g59
NtRp4358
(dp4359
g62
(dp4360
g82
g83
ssg71
g4354
sg64
(lp4361
g180
asbag57
(g78
g59
NtRp4362
(dp4363
g62
(dp4364
g89
g90
ssg71
g4354
sg64
(lp4365
S':'
asbag57
(g78
g59
NtRp4366
(dp4367
g62
(dp4368
sg71
g4354
sg64
(lp4369
g57
(g58
g59
NtRp4370
(dp4371
g62
(dp4372
g70
I5
ssg71
g4366
sg64
(lp4373
S'<cStringIO.StringO object at 0xadb9ce40>'
p4374
asbasbasbag57
(g73
g59
NtRp4375
(dp4376
g62
(dp4377
sg71
g4350
sg64
(lp4378
g57
(g78
g59
NtRp4379
(dp4380
g62
(dp4381
g82
g83
ssg71
g4375
sg64
(lp4382
g268
asbag57
(g78
g59
NtRp4383
(dp4384
g62
(dp4385
g89
g90
ssg71
g4375
sg64
(lp4386
S':'
asbag57
(g78
g59
NtRp4387
(dp4388
g62
(dp4389
sg71
g4375
sg64
(lp4390
g57
(g58
g59
NtRp4391
(dp4392
g62
(dp4393
g70
I5
ssg71
g4387
sg64
(lp4394
g57
(g66
g59
NtRp4395
(dp4396
g62
(dp4397
g70
I4
ssg71
Nsg64
(lp4398
g57
(g73
g59
NtRp4399
(dp4400
g62
(dp4401
sg71
g4395
sg64
(lp4402
g57
(g78
g59
NtRp4403
(dp4404
g62
(dp4405
g82
g83
ssg71
g4399
sg64
(lp4406
S'session_id_dev_bootstrap_ch'
p4407
asbag57
(g78
g59
NtRp4408
(dp4409
g62
(dp4410
g89
g90
ssg71
g4399
sg64
(lp4411
S':'
asbag57
(g78
g59
NtRp4412
(dp4413
g62
(dp4414
sg71
g4399
sg64
(lp4415
g57
(g58
g59
NtRp4416
(dp4417
g62
(dp4418
g70
I4
ssg71
g4412
sg64
(lp4419
g872
ag57
(g66
g59
NtRp4420
(dp4421
g62
(dp4422
g70
I3
ssg71
Nsg64
(lp4423
g57
(g73
g59
NtRp4424
(dp4425
g62
(dp4426
sg71
g4420
sg64
(lp4427
g57
(g78
g59
NtRp4428
(dp4429
g62
(dp4430
g82
g83
ssg71
g4424
sg64
(lp4431
g319
asbag57
(g78
g59
NtRp4432
(dp4433
g62
(dp4434
g89
g90
ssg71
g4424
sg64
(lp4435
S':'
asbag57
(g78
g59
NtRp4436
(dp4437
g62
(dp4438
sg71
g4424
sg64
(lp4439
g57
(g58
g59
NtRp4440
(dp4441
g62
(dp4442
g70
I3
ssg71
g4436
sg64
(lp4443
S''
asbasbasbag57
(g73
g59
NtRp4444
(dp4445
g62
(dp4446
sg71
g4420
sg64
(lp4447
g57
(g78
g59
NtRp4448
(dp4449
g62
(dp4450
g82
g83
ssg71
g4444
sg64
(lp4451
g340
asbag57
(g78
g59
NtRp4452
(dp4453
g62
(dp4454
g89
g90
ssg71
g4444
sg64
(lp4455
S':'
asbag57
(g78
g59
NtRp4456
(dp4457
g62
(dp4458
sg71
g4444
sg64
(lp4459
g57
(g58
g59
NtRp4460
(dp4461
g62
(dp4462
g70
I3
ssg71
g4456
sg64
(lp4463
S''
asbasbasbag57
(g73
g59
NtRp4464
(dp4465
g62
(dp4466
sg71
g4420
sg64
(lp4467
g57
(g78
g59
NtRp4468
(dp4469
g62
(dp4470
g82
g83
ssg71
g4464
sg64
(lp4471
g361
asbag57
(g78
g59
NtRp4472
(dp4473
g62
(dp4474
g89
g90
ssg71
g4464
sg64
(lp4475
S':'
asbag57
(g78
g59
NtRp4476
(dp4477
g62
(dp4478
sg71
g4464
sg64
(lp4479
g57
(g58
g59
NtRp4480
(dp4481
g62
(dp4482
g70
I3
ssg71
g4476
sg64
(lp4483
S'2592000'
p4484
asbasbasbag57
(g73
g59
NtRp4485
(dp4486
g62
(dp4487
sg71
g4420
sg64
(lp4488
g57
(g78
g59
NtRp4489
(dp4490
g62
(dp4491
g82
g83
ssg71
g4485
sg64
(lp4492
g382
asbag57
(g78
g59
NtRp4493
(dp4494
g62
(dp4495
g89
g90
ssg71
g4485
sg64
(lp4496
S':'
asbag57
(g78
g59
NtRp4497
(dp4498
g62
(dp4499
sg71
g4485
sg64
(lp4500
g57
(g58
g59
NtRp4501
(dp4502
g62
(dp4503
g70
I3
ssg71
g4497
sg64
(lp4504
S''
asbasbasbag57
(g73
g59
NtRp4505
(dp4506
g62
(dp4507
sg71
g4420
sg64
(lp4508
g57
(g78
g59
NtRp4509
(dp4510
g62
(dp4511
g82
g83
ssg71
g4505
sg64
(lp4512
g403
asbag57
(g78
g59
NtRp4513
(dp4514
g62
(dp4515
g89
g90
ssg71
g4505
sg64
(lp4516
S':'
asbag57
(g78
g59
NtRp4517
(dp4518
g62
(dp4519
sg71
g4505
sg64
(lp4520
g57
(g58
g59
NtRp4521
(dp4522
g62
(dp4523
g70
I3
ssg71
g4517
sg64
(lp4524
S''
asbasbasbag57
(g73
g59
NtRp4525
(dp4526
g62
(dp4527
sg71
g4420
sg64
(lp4528
g57
(g78
g59
NtRp4529
(dp4530
g62
(dp4531
g82
g83
ssg71
g4525
sg64
(lp4532
g424
asbag57
(g78
g59
NtRp4533
(dp4534
g62
(dp4535
g89
g90
ssg71
g4525
sg64
(lp4536
S':'
asbag57
(g78
g59
NtRp4537
(dp4538
g62
(dp4539
sg71
g4525
sg64
(lp4540
g57
(g58
g59
NtRp4541
(dp4542
g62
(dp4543
g70
I3
ssg71
g4537
sg64
(lp4544
S'/'
asbasbasbag57
(g73
g59
NtRp4545
(dp4546
g62
(dp4547
sg71
g4420
sg64
(lp4548
g57
(g78
g59
NtRp4549
(dp4550
g62
(dp4551
g82
g83
ssg71
g4545
sg64
(lp4552
g445
asbag57
(g78
g59
NtRp4553
(dp4554
g62
(dp4555
g89
g90
ssg71
g4545
sg64
(lp4556
S':'
asbag57
(g78
g59
NtRp4557
(dp4558
g62
(dp4559
sg71
g4545
sg64
(lp4560
g57
(g58
g59
NtRp4561
(dp4562
g62
(dp4563
g70
I3
ssg71
g4557
sg64
(lp4564
S''
asbasbasbag57
(g73
g59
NtRp4565
(dp4566
g62
(dp4567
sg71
g4420
sg64
(lp4568
g57
(g78
g59
NtRp4569
(dp4570
g62
(dp4571
g82
g83
ssg71
g4565
sg64
(lp4572
g466
asbag57
(g78
g59
NtRp4573
(dp4574
g62
(dp4575
g89
g90
ssg71
g4565
sg64
(lp4576
S':'
asbag57
(g78
g59
NtRp4577
(dp4578
g62
(dp4579
sg71
g4565
sg64
(lp4580
g57
(g58
g59
NtRp4581
(dp4582
g62
(dp4583
g70
I3
ssg71
g4577
sg64
(lp4584
S''
asbasbasbasbasbasbasbasbasbasbasbag57
(g73
g59
NtRp4585
(dp4586
g62
(dp4587
sg71
g4350
sg64
(lp4588
g57
(g78
g59
NtRp4589
(dp4590
g62
(dp4591
g82
g83
ssg71
g4585
sg64
(lp4592
S'delimiters'
p4593
asbag57
(g78
g59
NtRp4594
(dp4595
g62
(dp4596
g89
g90
ssg71
g4585
sg64
(lp4597
S':'
asbag57
(g78
g59
NtRp4598
(dp4599
g62
(dp4600
sg71
g4585
sg64
(lp4601
g57
(g58
g59
NtRp4602
(dp4603
g62
(dp4604
g70
I5
ssg71
g4598
sg64
(lp4605
g57
(g66
g59
NtRp4606
(dp4607
g62
(dp4608
g70
I4
ssg71
Nsg64
(lp4609
g57
(g73
g59
NtRp4610
(dp4611
g62
(dp4612
sg71
g4606
sg64
(lp4613
g57
(g78
g59
NtRp4614
(dp4615
g62
(dp4616
sg71
g4610
sg64
(lp4617
g57
(g58
g59
NtRp4618
(dp4619
g62
(dp4620
g70
I4
ssg71
g4614
sg64
(lp4621
S'{{'
p4622
asbasbasbag57
(g73
g59
NtRp4623
(dp4624
g62
(dp4625
sg71
g4606
sg64
(lp4626
g57
(g78
g59
NtRp4627
(dp4628
g62
(dp4629
sg71
g4623
sg64
(lp4630
g57
(g58
g59
NtRp4631
(dp4632
g62
(dp4633
g70
I4
ssg71
g4627
sg64
(lp4634
S'}}'
p4635
asbasbasbasbasbasbasbag57
(g73
g59
NtRp4636
(dp4637
g62
(dp4638
sg71
g4350
sg64
(lp4639
g57
(g78
g59
NtRp4640
(dp4641
g62
(dp4642
g82
g83
ssg71
g4636
sg64
(lp4643
S'files'
p4644
asbag57
(g78
g59
NtRp4645
(dp4646
g62
(dp4647
g89
g90
ssg71
g4636
sg64
(lp4648
S':'
asbag57
(g78
g59
NtRp4649
(dp4650
g62
(dp4651
sg71
g4636
sg64
(lp4652
g57
(g58
g59
NtRp4653
(dp4654
g62
(dp4655
g70
I5
ssg71
g4649
sg64
(lp4656
g57
(g66
g59
NtRp4657
(dp4658
g62
(dp4659
g70
I4
ssg71
Nsg64
(lp4660
g57
(g73
g59
NtRp4661
(dp4662
g62
(dp4663
sg71
g4657
sg64
(lp4664
g57
(g78
g59
NtRp4665
(dp4666
g62
(dp4667
sg71
g4661
sg64
(lp4668
g57
(g58
g59
NtRp4669
(dp4670
g62
(dp4671
g70
I4
ssg71
g4665
sg64
(lp4672
S'/DEV_bootstrap_ch/static/plugin_wiki/ui/css/redmond/jquery-ui-1.8.5.custom.css'
p4673
asbasbasbag57
(g73
g59
NtRp4674
(dp4675
g62
(dp4676
sg71
g4657
sg64
(lp4677
g57
(g78
g59
NtRp4678
(dp4679
g62
(dp4680
sg71
g4674
sg64
(lp4681
g57
(g58
g59
NtRp4682
(dp4683
g62
(dp4684
g70
I4
ssg71
g4678
sg64
(lp4685
S'/DEV_bootstrap_ch/static/plugin_wiki/ui/js/jquery-ui-1.8.5.custom.min.js'
p4686
asbasbasbag57
(g73
g59
NtRp4687
(dp4688
g62
(dp4689
sg71
g4657
sg64
(lp4690
g57
(g78
g59
NtRp4691
(dp4692
g62
(dp4693
sg71
g4687
sg64
(lp4694
g57
(g58
g59
NtRp4695
(dp4696
g62
(dp4697
g70
I4
ssg71
g4691
sg64
(lp4698
S'/DEV_bootstrap_ch/static/plugin_wiki/jqgrid/ui.jqgrid.css'
p4699
asbasbasbag57
(g73
g59
NtRp4700
(dp4701
g62
(dp4702
sg71
g4657
sg64
(lp4703
g57
(g78
g59
NtRp4704
(dp4705
g62
(dp4706
sg71
g4700
sg64
(lp4707
g57
(g58
g59
NtRp4708
(dp4709
g62
(dp4710
g70
I4
ssg71
g4704
sg64
(lp4711
S'/DEV_bootstrap_ch/static/plugin_wiki/jqgrid/i18n/grid.locale-en.js'
p4712
asbasbasbag57
(g73
g59
NtRp4713
(dp4714
g62
(dp4715
sg71
g4657
sg64
(lp4716
g57
(g78
g59
NtRp4717
(dp4718
g62
(dp4719
sg71
g4713
sg64
(lp4720
g57
(g58
g59
NtRp4721
(dp4722
g62
(dp4723
g70
I4
ssg71
g4717
sg64
(lp4724
S'/DEV_bootstrap_ch/static/plugin_wiki/jqgrid/jquery.jqGrid.min.js'
p4725
asbasbasbag57
(g73
g59
NtRp4726
(dp4727
g62
(dp4728
sg71
g4657
sg64
(lp4729
g57
(g78
g59
NtRp4730
(dp4731
g62
(dp4732
sg71
g4726
sg64
(lp4733
g57
(g58
g59
NtRp4734
(dp4735
g62
(dp4736
g70
I4
ssg71
g4730
sg64
(lp4737
S'/DEV_bootstrap_ch/static/plugin_wiki/slideshow/jquery.cycle.min.js'
p4738
asbasbasbag57
(g73
g59
NtRp4739
(dp4740
g62
(dp4741
sg71
g4657
sg64
(lp4742
g57
(g78
g59
NtRp4743
(dp4744
g62
(dp4745
sg71
g4739
sg64
(lp4746
g57
(g58
g59
NtRp4747
(dp4748
g62
(dp4749
g70
I4
ssg71
g4743
sg64
(lp4750
S'/DEV_bootstrap_ch/static/plugin_wiki/multiselect/jquery.multiselect.css'
p4751
asbasbasbag57
(g73
g59
NtRp4752
(dp4753
g62
(dp4754
sg71
g4657
sg64
(lp4755
g57
(g78
g59
NtRp4756
(dp4757
g62
(dp4758
sg71
g4752
sg64
(lp4759
g57
(g58
g59
NtRp4760
(dp4761
g62
(dp4762
g70
I4
ssg71
g4756
sg64
(lp4763
S'/DEV_bootstrap_ch/static/plugin_wiki/multiselect/jquery.multiselect.js'
p4764
asbasbasbag57
(g73
g59
NtRp4765
(dp4766
g62
(dp4767
sg71
g4657
sg64
(lp4768
g57
(g78
g59
NtRp4769
(dp4770
g62
(dp4771
sg71
g4765
sg64
(lp4772
g57
(g58
g59
NtRp4773
(dp4774
g62
(dp4775
g70
I4
ssg71
g4769
sg64
(lp4776
S'/DEV_bootstrap_ch/static/plugin_wiki/rating/jquery.rating.css'
p4777
asbasbasbag57
(g73
g59
NtRp4778
(dp4779
g62
(dp4780
sg71
g4657
sg64
(lp4781
g57
(g78
g59
NtRp4782
(dp4783
g62
(dp4784
sg71
g4778
sg64
(lp4785
g57
(g58
g59
NtRp4786
(dp4787
g62
(dp4788
g70
I4
ssg71
g4782
sg64
(lp4789
S'/DEV_bootstrap_ch/static/plugin_wiki/rating/jquery.rating.js'
p4790
asbasbasbasbasbasbasbag57
(g73
g59
NtRp4791
(dp4792
g62
(dp4793
sg71
g4350
sg64
(lp4794
g57
(g78
g59
NtRp4795
(dp4796
g62
(dp4797
g82
g83
ssg71
g4791
sg64
(lp4798
S'flash'
p4799
asbag57
(g78
g59
NtRp4800
(dp4801
g62
(dp4802
g89
g90
ssg71
g4791
sg64
(lp4803
S':'
asbag57
(g78
g59
NtRp4804
(dp4805
g62
(dp4806
sg71
g4791
sg64
(lp4807
g57
(g58
g59
NtRp4808
(dp4809
g62
(dp4810
g70
I5
ssg71
g4804
sg64
(lp4811
S''
asbasbasbag57
(g73
g59
NtRp4812
(dp4813
g62
(dp4814
sg71
g4350
sg64
(lp4815
g57
(g78
g59
NtRp4816
(dp4817
g62
(dp4818
g82
g83
ssg71
g4812
sg64
(lp4819
S'generic_patterns'
p4820
asbag57
(g78
g59
NtRp4821
(dp4822
g62
(dp4823
g89
g90
ssg71
g4812
sg64
(lp4824
S':'
asbag57
(g78
g59
NtRp4825
(dp4826
g62
(dp4827
sg71
g4812
sg64
(lp4828
g57
(g58
g59
NtRp4829
(dp4830
g62
(dp4831
g70
I5
ssg71
g4825
sg64
(lp4832
g57
(g66
g59
NtRp4833
(dp4834
g62
(dp4835
g70
I4
ssg71
Nsg64
(lp4836
g57
(g73
g59
NtRp4837
(dp4838
g62
(dp4839
sg71
g4833
sg64
(lp4840
g57
(g78
g59
NtRp4841
(dp4842
g62
(dp4843
sg71
g4837
sg64
(lp4844
g57
(g58
g59
NtRp4845
(dp4846
g62
(dp4847
g70
I4
ssg71
g4841
sg64
(lp4848
S'*'
asbasbasbasbasbasbasbag57
(g73
g59
NtRp4849
(dp4850
g62
(dp4851
sg71
g4350
sg64
(lp4852
g57
(g78
g59
NtRp4853
(dp4854
g62
(dp4855
g82
g83
ssg71
g4849
sg64
(lp4856
S'google_analytics_id'
p4857
asbag57
(g78
g59
NtRp4858
(dp4859
g62
(dp4860
g89
g90
ssg71
g4849
sg64
(lp4861
S':'
asbag57
(g78
g59
NtRp4862
(dp4863
g62
(dp4864
sg71
g4849
sg64
(lp4865
g57
(g58
g59
NtRp4866
(dp4867
g62
(dp4868
g70
I5
ssg71
g4862
sg64
(lp4869
S'None'
p4870
asbasbasbag57
(g73
g59
NtRp4871
(dp4872
g62
(dp4873
sg71
g4350
sg64
(lp4874
g57
(g78
g59
NtRp4875
(dp4876
g62
(dp4877
g82
g83
ssg71
g4871
sg64
(lp4878
S'headers'
p4879
asbag57
(g78
g59
NtRp4880
(dp4881
g62
(dp4882
g89
g90
ssg71
g4871
sg64
(lp4883
S':'
asbag57
(g78
g59
NtRp4884
(dp4885
g62
(dp4886
sg71
g4871
sg64
(lp4887
g57
(g58
g59
NtRp4888
(dp4889
g62
(dp4890
g70
I5
ssg71
g4884
sg64
(lp4891
g57
(g66
g59
NtRp4892
(dp4893
g62
(dp4894
g70
I4
ssg71
Nsg64
(lp4895
g57
(g73
g59
NtRp4896
(dp4897
g62
(dp4898
sg71
g4892
sg64
(lp4899
g57
(g78
g59
NtRp4900
(dp4901
g62
(dp4902
g82
g83
ssg71
g4896
sg64
(lp4903
S'X-Powered-By'
p4904
asbag57
(g78
g59
NtRp4905
(dp4906
g62
(dp4907
g89
g90
ssg71
g4896
sg64
(lp4908
S':'
asbag57
(g78
g59
NtRp4909
(dp4910
g62
(dp4911
sg71
g4896
sg64
(lp4912
g57
(g58
g59
NtRp4913
(dp4914
g62
(dp4915
g70
I4
ssg71
g4909
sg64
(lp4916
S'web2py'
p4917
asbasbasbasbasbasbasbag57
(g73
g59
NtRp4918
(dp4919
g62
(dp4920
sg71
g4350
sg64
(lp4921
g57
(g78
g59
NtRp4922
(dp4923
g62
(dp4924
g82
g83
ssg71
g4918
sg64
(lp4925
S'menu'
p4926
asbag57
(g78
g59
NtRp4927
(dp4928
g62
(dp4929
g89
g90
ssg71
g4918
sg64
(lp4930
S':'
asbag57
(g78
g59
NtRp4931
(dp4932
g62
(dp4933
sg71
g4918
sg64
(lp4934
g57
(g58
g59
NtRp4935
(dp4936
g62
(dp4937
g70
I5
ssg71
g4931
sg64
(lp4938
g57
(g66
g59
NtRp4939
(dp4940
g62
(dp4941
g70
I4
ssg71
Nsg64
(lp4942
g57
(g73
g59
NtRp4943
(dp4944
g62
(dp4945
sg71
g4939
sg64
(lp4946
g57
(g78
g59
NtRp4947
(dp4948
g62
(dp4949
sg71
g4943
sg64
(lp4950
g57
(g58
g59
NtRp4951
(dp4952
g62
(dp4953
g70
I4
ssg71
g4947
sg64
(lp4954
g57
(g66
g59
NtRp4955
(dp4956
g62
(dp4957
g70
I3
ssg71
Nsg64
(lp4958
g57
(g73
g59
NtRp4959
(dp4960
g62
(dp4961
sg71
g4955
sg64
(lp4962
g57
(g78
g59
NtRp4963
(dp4964
g62
(dp4965
sg71
g4959
sg64
(lp4966
g57
(g58
g59
NtRp4967
(dp4968
g62
(dp4969
g70
I3
ssg71
g4963
sg64
(lp4970
cgluon.languages
lazyT_unpickle
p4971
(S't\x04\x00\x00\x00Home'
tRp4972
asbasbasbag57
(g73
g59
NtRp4973
(dp4974
g62
(dp4975
sg71
g4955
sg64
(lp4976
g57
(g78
g59
NtRp4977
(dp4978
g62
(dp4979
sg71
g4973
sg64
(lp4980
g57
(g58
g59
NtRp4981
(dp4982
g62
(dp4983
g70
I3
ssg71
g4977
sg64
(lp4984
g100
asbasbasbag57
(g73
g59
NtRp4985
(dp4986
g62
(dp4987
sg71
g4955
sg64
(lp4988
g57
(g78
g59
NtRp4989
(dp4990
g62
(dp4991
sg71
g4985
sg64
(lp4992
g57
(g58
g59
NtRp4993
(dp4994
g62
(dp4995
g70
I3
ssg71
g4989
sg64
(lp4996
S'/DEV_bootstrap_ch/default/list_all_projects'
p4997
asbasbasbag57
(g73
g59
NtRp4998
(dp4999
g62
(dp5000
sg71
g4955
sg64
(lp5001
g57
(g78
g59
NtRp5002
(dp5003
g62
(dp5004
sg71
g4998
sg64
(lp5005
g57
(g58
g59
NtRp5006
(dp5007
g62
(dp5008
g70
I3
ssg71
g5002
sg64
(lp5009
g57
(g66
g59
NtRp5010
(dp5011
g62
(dp5012
g70
I2
ssg71
Nsg64
(lp5013
sbasbasbasbasbasbasbasbag57
(g73
g59
NtRp5014
(dp5015
g62
(dp5016
sg71
g4939
sg64
(lp5017
g57
(g78
g59
NtRp5018
(dp5019
g62
(dp5020
sg71
g5014
sg64
(lp5021
g57
(g58
g59
NtRp5022
(dp5023
g62
(dp5024
g70
I4
ssg71
g5018
sg64
(lp5025
g57
(g66
g59
NtRp5026
(dp5027
g62
(dp5028
g70
I3
ssg71
Nsg64
(lp5029
g57
(g73
g59
NtRp5030
(dp5031
g62
(dp5032
sg71
g5026
sg64
(lp5033
g57
(g78
g59
NtRp5034
(dp5035
g62
(dp5036
sg71
g5030
sg64
(lp5037
g57
(g58
g59
NtRp5038
(dp5039
g62
(dp5040
g70
I3
ssg71
g5034
sg64
(lp5041
g4971
(S't\x08\x00\x00\x00Projects'
tRp5042
asbasbasbag57
(g73
g59
NtRp5043
(dp5044
g62
(dp5045
sg71
g5026
sg64
(lp5046
g57
(g78
g59
NtRp5047
(dp5048
g62
(dp5049
sg71
g5043
sg64
(lp5050
g57
(g58
g59
NtRp5051
(dp5052
g62
(dp5053
g70
I3
ssg71
g5047
sg64
(lp5054
g100
asbasbasbag57
(g73
g59
NtRp5055
(dp5056
g62
(dp5057
sg71
g5026
sg64
(lp5058
g57
(g78
g59
NtRp5059
(dp5060
g62
(dp5061
sg71
g5055
sg64
(lp5062
g57
(g58
g59
NtRp5063
(dp5064
g62
(dp5065
g70
I3
ssg71
g5059
sg64
(lp5066
S'/DEV_bootstrap_ch/default/list_all_projects'
p5067
asbasbasbag57
(g73
g59
NtRp5068
(dp5069
g62
(dp5070
sg71
g5026
sg64
(lp5071
g57
(g78
g59
NtRp5072
(dp5073
g62
(dp5074
sg71
g5068
sg64
(lp5075
g57
(g58
g59
NtRp5076
(dp5077
g62
(dp5078
g70
I3
ssg71
g5072
sg64
(lp5079
g57
(g66
g59
NtRp5080
(dp5081
g62
(dp5082
g70
I2
ssg71
Nsg64
(lp5083
sbasbasbasbasbasbasbasbasbasbasbasbag57
(g73
g59
NtRp5084
(dp5085
g62
(dp5086
sg71
g4350
sg64
(lp5087
g57
(g78
g59
NtRp5088
(dp5089
g62
(dp5090
g82
g83
ssg71
g5084
sg64
(lp5091
S'meta'
p5092
asbag57
(g78
g59
NtRp5093
(dp5094
g62
(dp5095
g89
g90
ssg71
g5084
sg64
(lp5096
S':'
asbag57
(g78
g59
NtRp5097
(dp5098
g62
(dp5099
sg71
g5084
sg64
(lp5100
g57
(g58
g59
NtRp5101
(dp5102
g62
(dp5103
g70
I5
ssg71
g5097
sg64
(lp5104
g57
(g66
g59
NtRp5105
(dp5106
g62
(dp5107
g70
I4
ssg71
Nsg64
(lp5108
g57
(g73
g59
NtRp5109
(dp5110
g62
(dp5111
sg71
g5105
sg64
(lp5112
g57
(g78
g59
NtRp5113
(dp5114
g62
(dp5115
g82
g83
ssg71
g5109
sg64
(lp5116
S'author'
p5117
asbag57
(g78
g59
NtRp5118
(dp5119
g62
(dp5120
g89
g90
ssg71
g5109
sg64
(lp5121
S':'
asbag57
(g78
g59
NtRp5122
(dp5123
g62
(dp5124
sg71
g5109
sg64
(lp5125
g57
(g58
g59
NtRp5126
(dp5127
g62
(dp5128
g70
I4
ssg71
g5122
sg64
(lp5129
S'Vikram Pudi <vikram@iiit.ac.in>'
p5130
asbasbasbag57
(g73
g59
NtRp5131
(dp5132
g62
(dp5133
sg71
g5105
sg64
(lp5134
g57
(g78
g59
NtRp5135
(dp5136
g62
(dp5137
g82
g83
ssg71
g5131
sg64
(lp5138
S'copyright'
p5139
asbag57
(g78
g59
NtRp5140
(dp5141
g62
(dp5142
g89
g90
ssg71
g5131
sg64
(lp5143
S':'
asbag57
(g78
g59
NtRp5144
(dp5145
g62
(dp5146
sg71
g5131
sg64
(lp5147
g57
(g58
g59
NtRp5148
(dp5149
g62
(dp5150
g70
I4
ssg71
g5144
sg64
(lp5151
S'Copyright 2011'
p5152
asbasbasbag57
(g73
g59
NtRp5153
(dp5154
g62
(dp5155
sg71
g5105
sg64
(lp5156
g57
(g78
g59
NtRp5157
(dp5158
g62
(dp5159
g82
g83
ssg71
g5153
sg64
(lp5160
S'description'
p5161
asbag57
(g78
g59
NtRp5162
(dp5163
g62
(dp5164
g89
g90
ssg71
g5153
sg64
(lp5165
S':'
asbag57
(g78
g59
NtRp5166
(dp5167
g62
(dp5168
sg71
g5153
sg64
(lp5169
g57
(g58
g59
NtRp5170
(dp5171
g62
(dp5172
g70
I4
ssg71
g5166
sg64
(lp5173
S'Computational Core for Plant Metabolomics -- A project sanctioned by DBT, Govt. of India'
p5174
asbasbasbag57
(g73
g59
NtRp5175
(dp5176
g62
(dp5177
sg71
g5105
sg64
(lp5178
g57
(g78
g59
NtRp5179
(dp5180
g62
(dp5181
g82
g83
ssg71
g5175
sg64
(lp5182
S'generator'
p5183
asbag57
(g78
g59
NtRp5184
(dp5185
g62
(dp5186
g89
g90
ssg71
g5175
sg64
(lp5187
S':'
asbag57
(g78
g59
NtRp5188
(dp5189
g62
(dp5190
sg71
g5175
sg64
(lp5191
g57
(g58
g59
NtRp5192
(dp5193
g62
(dp5194
g70
I4
ssg71
g5188
sg64
(lp5195
S'Web2py Web Framework'
p5196
asbasbasbag57
(g73
g59
NtRp5197
(dp5198
g62
(dp5199
sg71
g5105
sg64
(lp5200
g57
(g78
g59
NtRp5201
(dp5202
g62
(dp5203
g82
g83
ssg71
g5197
sg64
(lp5204
S'keywords'
p5205
asbag57
(g78
g59
NtRp5206
(dp5207
g62
(dp5208
g89
g90
ssg71
g5197
sg64
(lp5209
S':'
asbag57
(g78
g59
NtRp5210
(dp5211
g62
(dp5212
sg71
g5197
sg64
(lp5213
g57
(g58
g59
NtRp5214
(dp5215
g62
(dp5216
g70
I4
ssg71
g5210
sg64
(lp5217
S'web2py, python, metabolome, metabolomics'
p5218
asbasbasbasbasbasbasbag57
(g73
g59
NtRp5219
(dp5220
g62
(dp5221
sg71
g4350
sg64
(lp5222
g57
(g78
g59
NtRp5223
(dp5224
g62
(dp5225
g82
g83
ssg71
g5219
sg64
(lp5226
S'models_to_run'
p5227
asbag57
(g78
g59
NtRp5228
(dp5229
g62
(dp5230
g89
g90
ssg71
g5219
sg64
(lp5231
S':'
asbag57
(g78
g59
NtRp5232
(dp5233
g62
(dp5234
sg71
g5219
sg64
(lp5235
g57
(g58
g59
NtRp5236
(dp5237
g62
(dp5238
g70
I5
ssg71
g5232
sg64
(lp5239
g57
(g66
g59
NtRp5240
(dp5241
g62
(dp5242
g70
I4
ssg71
Nsg64
(lp5243
g57
(g73
g59
NtRp5244
(dp5245
g62
(dp5246
sg71
g5240
sg64
(lp5247
g57
(g78
g59
NtRp5248
(dp5249
g62
(dp5250
sg71
g5244
sg64
(lp5251
g57
(g58
g59
NtRp5252
(dp5253
g62
(dp5254
g70
I4
ssg71
g5248
sg64
(lp5255
S'^\\w+\\.py$'
p5256
asbasbasbag57
(g73
g59
NtRp5257
(dp5258
g62
(dp5259
sg71
g5240
sg64
(lp5260
g57
(g78
g59
NtRp5261
(dp5262
g62
(dp5263
sg71
g5257
sg64
(lp5264
g57
(g58
g59
NtRp5265
(dp5266
g62
(dp5267
g70
I4
ssg71
g5261
sg64
(lp5268
S'^default/\\w+\\.py$'
p5269
asbasbasbag57
(g73
g59
NtRp5270
(dp5271
g62
(dp5272
sg71
g5240
sg64
(lp5273
g57
(g78
g59
NtRp5274
(dp5275
g62
(dp5276
sg71
g5270
sg64
(lp5277
g57
(g58
g59
NtRp5278
(dp5279
g62
(dp5280
g70
I4
ssg71
g5274
sg64
(lp5281
S'^default/ajx_publish/\\w+\\.py$'
p5282
asbasbasbasbasbasbasbag57
(g73
g59
NtRp5283
(dp5284
g62
(dp5285
sg71
g4350
sg64
(lp5286
g57
(g78
g59
NtRp5287
(dp5288
g62
(dp5289
g82
g83
ssg71
g5283
sg64
(lp5290
S'postprocessing'
p5291
asbag57
(g78
g59
NtRp5292
(dp5293
g62
(dp5294
g89
g90
ssg71
g5283
sg64
(lp5295
S':'
asbag57
(g78
g59
NtRp5296
(dp5297
g62
(dp5298
sg71
g5283
sg64
(lp5299
g57
(g58
g59
NtRp5300
(dp5301
g62
(dp5302
g70
I5
ssg71
g5296
sg64
(lp5303
g57
(g66
g59
NtRp5304
(dp5305
g62
(dp5306
g70
I4
ssg71
Nsg64
(lp5307
sbasbasbasbag57
(g73
g59
NtRp5308
(dp5309
g62
(dp5310
sg71
g4350
sg64
(lp5311
g57
(g78
g59
NtRp5312
(dp5313
g62
(dp5314
g82
g83
ssg71
g5308
sg64
(lp5315
S'session_cookie_expires'
p5316
asbag57
(g78
g59
NtRp5317
(dp5318
g62
(dp5319
g89
g90
ssg71
g5308
sg64
(lp5320
S':'
asbag57
(g78
g59
NtRp5321
(dp5322
g62
(dp5323
sg71
g5308
sg64
(lp5324
g57
(g58
g59
NtRp5325
(dp5326
g62
(dp5327
g70
I5
ssg71
g5321
sg64
(lp5328
S'None'
p5329
asbasbasbag57
(g73
g59
NtRp5330
(dp5331
g62
(dp5332
sg71
g4350
sg64
(lp5333
g57
(g78
g59
NtRp5334
(dp5335
g62
(dp5336
g82
g83
ssg71
g5330
sg64
(lp5337
S'session_data_name'
p5338
asbag57
(g78
g59
NtRp5339
(dp5340
g62
(dp5341
g89
g90
ssg71
g5330
sg64
(lp5342
S':'
asbag57
(g78
g59
NtRp5343
(dp5344
g62
(dp5345
sg71
g5330
sg64
(lp5346
g57
(g58
g59
NtRp5347
(dp5348
g62
(dp5349
g70
I5
ssg71
g5343
sg64
(lp5350
S'session_data_dev_bootstrap_ch'
p5351
asbasbasbag57
(g73
g59
NtRp5352
(dp5353
g62
(dp5354
sg71
g4350
sg64
(lp5355
g57
(g78
g59
NtRp5356
(dp5357
g62
(dp5358
g82
g83
ssg71
g5352
sg64
(lp5359
S'session_file'
p5360
asbag57
(g78
g59
NtRp5361
(dp5362
g62
(dp5363
g89
g90
ssg71
g5352
sg64
(lp5364
S':'
asbag57
(g78
g59
NtRp5365
(dp5366
g62
(dp5367
sg71
g5352
sg64
(lp5368
g57
(g58
g59
NtRp5369
(dp5370
g62
(dp5371
g70
I5
ssg71
g5365
sg64
(lp5372
S"<open file '/home/anil/bootstrap/web2py/applications/DEV_bootstrap_ch/sessions/127.0.0.1-270b038b-df00-4d5c-949a-e87692880510', mode 'rb+' at 0xad94a5f8>"
p5373
asbasbasbag57
(g73
g59
NtRp5374
(dp5375
g62
(dp5376
sg71
g4350
sg64
(lp5377
g57
(g78
g59
NtRp5378
(dp5379
g62
(dp5380
g82
g83
ssg71
g5374
sg64
(lp5381
S'session_filename'
p5382
asbag57
(g78
g59
NtRp5383
(dp5384
g62
(dp5385
g89
g90
ssg71
g5374
sg64
(lp5386
S':'
asbag57
(g78
g59
NtRp5387
(dp5388
g62
(dp5389
sg71
g5374
sg64
(lp5390
g57
(g58
g59
NtRp5391
(dp5392
g62
(dp5393
g70
I5
ssg71
g5387
sg64
(lp5394
S'/home/anil/bootstrap/web2py/applications/DEV_bootstrap_ch/sessions/127.0.0.1-270b038b-df00-4d5c-949a-e87692880510'
p5395
asbasbasbag57
(g73
g59
NtRp5396
(dp5397
g62
(dp5398
sg71
g4350
sg64
(lp5399
g57
(g78
g59
NtRp5400
(dp5401
g62
(dp5402
g82
g83
ssg71
g5396
sg64
(lp5403
S'session_id'
p5404
asbag57
(g78
g59
NtRp5405
(dp5406
g62
(dp5407
g89
g90
ssg71
g5396
sg64
(lp5408
S':'
asbag57
(g78
g59
NtRp5409
(dp5410
g62
(dp5411
sg71
g5396
sg64
(lp5412
g57
(g58
g59
NtRp5413
(dp5414
g62
(dp5415
g70
I5
ssg71
g5409
sg64
(lp5416
g872
asbasbasbag57
(g73
g59
NtRp5417
(dp5418
g62
(dp5419
sg71
g4350
sg64
(lp5420
g57
(g78
g59
NtRp5421
(dp5422
g62
(dp5423
g82
g83
ssg71
g5417
sg64
(lp5424
S'session_id_name'
p5425
asbag57
(g78
g59
NtRp5426
(dp5427
g62
(dp5428
g89
g90
ssg71
g5417
sg64
(lp5429
S':'
asbag57
(g78
g59
NtRp5430
(dp5431
g62
(dp5432
sg71
g5417
sg64
(lp5433
g57
(g58
g59
NtRp5434
(dp5435
g62
(dp5436
g70
I5
ssg71
g5430
sg64
(lp5437
g4407
asbasbasbag57
(g73
g59
NtRp5438
(dp5439
g62
(dp5440
sg71
g4350
sg64
(lp5441
g57
(g78
g59
NtRp5442
(dp5443
g62
(dp5444
g82
g83
ssg71
g5438
sg64
(lp5445
S'session_locked'
p5446
asbag57
(g78
g59
NtRp5447
(dp5448
g62
(dp5449
g89
g90
ssg71
g5438
sg64
(lp5450
S':'
asbag57
(g78
g59
NtRp5451
(dp5452
g62
(dp5453
sg71
g5438
sg64
(lp5454
g57
(g58
g59
NtRp5455
(dp5456
g62
(dp5457
g70
I5
ssg71
g5451
sg64
(lp5458
g2188
asbasbasbag57
(g73
g59
NtRp5459
(dp5460
g62
(dp5461
sg71
g4350
sg64
(lp5462
g57
(g78
g59
NtRp5463
(dp5464
g62
(dp5465
g82
g83
ssg71
g5459
sg64
(lp5466
S'session_new'
p5467
asbag57
(g78
g59
NtRp5468
(dp5469
g62
(dp5470
g89
g90
ssg71
g5459
sg64
(lp5471
S':'
asbag57
(g78
g59
NtRp5472
(dp5473
g62
(dp5474
sg71
g5459
sg64
(lp5475
g57
(g58
g59
NtRp5476
(dp5477
g62
(dp5478
g70
I5
ssg71
g5472
sg64
(lp5479
g100
asbasbasbag57
(g73
g59
NtRp5480
(dp5481
g62
(dp5482
sg71
g4350
sg64
(lp5483
g57
(g78
g59
NtRp5484
(dp5485
g62
(dp5486
g82
g83
ssg71
g5480
sg64
(lp5487
S'session_storage_type'
p5488
asbag57
(g78
g59
NtRp5489
(dp5490
g62
(dp5491
g89
g90
ssg71
g5480
sg64
(lp5492
S':'
asbag57
(g78
g59
NtRp5493
(dp5494
g62
(dp5495
sg71
g5480
sg64
(lp5496
g57
(g58
g59
NtRp5497
(dp5498
g62
(dp5499
g70
I5
ssg71
g5493
sg64
(lp5500
g3641
asbasbasbag57
(g73
g59
NtRp5501
(dp5502
g62
(dp5503
sg71
g4350
sg64
(lp5504
g57
(g78
g59
NtRp5505
(dp5506
g62
(dp5507
g82
g83
ssg71
g5501
sg64
(lp5508
S'status'
p5509
asbag57
(g78
g59
NtRp5510
(dp5511
g62
(dp5512
g89
g90
ssg71
g5501
sg64
(lp5513
S':'
asbag57
(g78
g59
NtRp5514
(dp5515
g62
(dp5516
sg71
g5501
sg64
(lp5517
g57
(g58
g59
NtRp5518
(dp5519
g62
(dp5520
g70
I5
ssg71
g5514
sg64
(lp5521
S'200'
p5522
asbasbasbag57
(g73
g59
NtRp5523
(dp5524
g62
(dp5525
sg71
g4350
sg64
(lp5526
g57
(g78
g59
NtRp5527
(dp5528
g62
(dp5529
g82
g83
ssg71
g5523
sg64
(lp5530
S'subtitle'
p5531
asbag57
(g78
g59
NtRp5532
(dp5533
g62
(dp5534
g89
g90
ssg71
g5523
sg64
(lp5535
S':'
asbag57
(g78
g59
NtRp5536
(dp5537
g62
(dp5538
sg71
g5523
sg64
(lp5539
g57
(g58
g59
NtRp5540
(dp5541
g62
(dp5542
g70
I5
ssg71
g5536
sg64
(lp5543
g4971
(S's)\x00\x00\x00Computational Core for Plant Metabolomics'
tRp5544
asbasbasbag57
(g73
g59
NtRp5545
(dp5546
g62
(dp5547
sg71
g4350
sg64
(lp5548
g57
(g78
g59
NtRp5549
(dp5550
g62
(dp5551
g82
g83
ssg71
g5545
sg64
(lp5552
g4216
asbag57
(g78
g59
NtRp5553
(dp5554
g62
(dp5555
g89
g90
ssg71
g5545
sg64
(lp5556
S':'
asbag57
(g78
g59
NtRp5557
(dp5558
g62
(dp5559
sg71
g5545
sg64
(lp5560
g57
(g58
g59
NtRp5561
(dp5562
g62
(dp5563
g70
I5
ssg71
g5557
sg64
(lp5564
g122
asbasbasbag57
(g73
g59
NtRp5565
(dp5566
g62
(dp5567
sg71
g4350
sg64
(lp5568
g57
(g78
g59
NtRp5569
(dp5570
g62
(dp5571
g82
g83
ssg71
g5565
sg64
(lp5572
S'view'
p5573
asbag57
(g78
g59
NtRp5574
(dp5575
g62
(dp5576
g89
g90
ssg71
g5565
sg64
(lp5577
S':'
asbag57
(g78
g59
NtRp5578
(dp5579
g62
(dp5580
sg71
g5565
sg64
(lp5581
g57
(g58
g59
NtRp5582
(dp5583
g62
(dp5584
g70
I5
ssg71
g5578
sg64
(lp5585
S'default/ajx_publish.html'
p5586
asbasbasbasbasbsS'locals'
p5587
(dp5588
S'eid'
p5589
S"'2'"
p5590
sS'row'
p5591
S'1'
sssS'traceback'
p5592
S'Traceback (most recent call last):\n  File "/home/anil/bootstrap/web2py/gluon/restricted.py", line 212, in restricted\n    exec ccode in environment\n  File "/home/anil/bootstrap/web2py/applications/DEV_bootstrap_ch/controllers/default.py", line 1104, in <module>\n  File "/home/anil/bootstrap/web2py/gluon/globals.py", line 193, in <lambda>\n    self._caller = lambda f: f()\n  File "/home/anil/bootstrap/web2py/applications/DEV_bootstrap_ch/controllers/default.py", line 454, in ajx_publish\n    redirect(\'project_viewer\',args = eid)\nTypeError: redirect() got an unexpected keyword argument \'args\'\n'
p5593
s.