(dp1
S'output'
p2
S"<type 'exceptions.SyntaxError'> invalid syntax (project_viewer.html, line 98)"
p3
sS'layer'
p4
S'/home/anil/bootstrap/web2py/applications/DEV_bootstrap_ch/views/default/project_viewer.html'
p5
sS'code'
p6
S'response.write(\'<!DOCTYPE html>\\n<html lang="\', escape=False)\nresponse.write(T.accepted_language or \'en\')\nresponse.write(\'" class="no-js"><!-- no-js need it for modernzr -->\\n  <head>\\n    \\n    <meta charset="utf-8" />        \\n    <!-- www.phpied.com/conditional-comments-block-downloads/ -->\\n    <!--[if IE]>\\n      <!-- Always force latest IE rendering engine \\n       (even in intranet) & Chrome Frame \\n       Remove this if you use the .htaccess -->\\n      <meta http-equiv="X-UA-Compatible" content="IE=edge,chrome=1">\\n    <![endif]-->    \\n\\n    <title>\', escape=False)\nresponse.write(response.title or request.application)\nresponse.write(\'</title>\\n    \\n    <!-- http://dev.w3.org/html5/markup/meta.name.html -->\\n    <meta name="application-name" content="\', escape=False)\nresponse.write(request.application)\nresponse.write(\'" /> \\n    \\n    <!-- Speaking of Google, don\\\'t forget to set your site up: \\n     http://google.com/webmasters -->\\n    <meta name="google-site-verification" content="" />\\n    \\n    <!--  Mobile Viewport Fix\\n      j.mp/mobileviewport & davidbcalhoun.com/2010/viewport-metatag \\n      device-width: Occupy full width of the screen in its current orientation\\n      initial-scale = 1.0 retains dimensions instead of zooming out if page height > device height\\n      maximum-scale = 1.0 retains dimensions instead of zooming in if page width < device width\\n      -->\\n    <meta name="viewport" content="width=device-width, initial-scale=1.0, maximum-scale=1.0">\\n    \\n    <!-- Place favicon.ico and apple-touch-icon.png in the root of your domain and delete these references -->\\n    <link rel="shortcut icon" href="\', escape=False)\nresponse.write(URL(\'static\',\'favicon.ico\'))\nresponse.write(\'" type="image/x-icon">\\n    <link rel="apple-touch-icon" href="\', escape=False)\nresponse.write(URL(\'static\',\'favicon.png\'))\nresponse.write(\'">\\n\\n    <!-- For the less-enabled mobile browsers like Opera Mini -->\\n    <link rel="stylesheet" media="handheld" href="\', escape=False)\nresponse.write(URL(\'static\',\'css/handheld.css\'))\nresponse.write(\'">\\n    \\n    <!-- All JavaScript at the bottom, except for Modernizr which enables HTML5 elements & feature detects -->\\n    <script src="\', escape=False)\nresponse.write(URL(\'static\',\'js/modernizr-1.7.min.js\'))\nresponse.write(\'"></script>\\n    \\n    \', escape=False)\n#------  require CSS and JS files for this page (read info in base.css) ------\nresponse.write(\'\\n    \', escape=False)\nresponse.files.append(URL(\'static\',\'css/base.css\'))\nresponse.write(\'\\n    \', escape=False)\nresponse.files.append(URL(\'static\',\'css/superfish.css\'))\nresponse.write(\'\\n    \', escape=False)\nresponse.files.append(URL(\'static\',\'js/superfish.js\'))\nresponse.write(\'\\n    \', escape=False)\n#------ include web2py specific js code (jquery, calendar, form stuff) ------\nresponse.write(\'\\n    \', escape=False)\nresponse.write(\'<script type="text/javascript"><!--\\n    // These variables are used by the web2py_ajax_init function in web2py_ajax.js (which is loaded below).\\n    var w2p_ajax_confirm_message = "\', escape=False)\nresponse.write(T(\'Are you sure you want to delete this object?\'))\nresponse.write(\'";\\n    var w2p_ajax_date_format = "\', escape=False)\nresponse.write(T(\'%Y-%m-%d\'))\nresponse.write(\'";\\n    var w2p_ajax_datetime_format = "\', escape=False)\nresponse.write(T(\'%Y-%m-%d %H:%M:%S\'))\nresponse.write(\'";\\n    //--></script>\\n\', escape=False)\nresponse.files.insert(0,URL(\'static\',\'js/jquery.js\'))\nresponse.files.insert(1,URL(\'static\',\'css/calendar.css\'))\nresponse.files.insert(2,URL(\'static\',\'js/calendar.js\'))\nresponse.files.insert(3,URL(\'static\',\'js/web2py.js\'))\nresponse.include_meta()\nresponse.include_files()\nresponse.write(\'\\n\', escape=False)\nresponse.write(\'\\n\\n    \', escape=False)\n#using sidebars need to know what sidebar you want to use\n#prior of using it, because of static width size of content, you can use\n#left_sidebar, right_sidebar, both or none (False left and right)\nleft_sidebar_enabled = globals().get(\'left_sidebar_enabled\',False)\nright_sidebar_enabled = globals().get(\'right_sidebar_enabled\',False)\nif left_sidebar_enabled and right_sidebar_enabled: width_content=\'63%\'\nelif left_sidebar_enabled != right_sidebar_enabled: width_content=\'740px\'\nelse: width_content=\'100%\'\nif left_sidebar_enabled: left_sidebar_style = \'style="display: block;"\'\nelse: left_sidebar_style = \'style="display: none;"\'\nif right_sidebar_enabled: right_sidebar_style = \'style="display: block;"\'\nelse: right_sidebar_style = \'style="display: none;"\'\nstyle_content = \'style="width: %s"\' % width_content\nresponse.write(\'\\n    \\n    <!-- uncomment here to load jquery-ui\\n    \\n    <link rel="stylesheet" href="http://ajax.googleapis.com/ajax/libs/jqueryui/1.8.16/themes/base/jquery-ui.css" type="text/css" media="all" />\\n    <script src="http://ajax.googleapis.com/ajax/libs/jqueryui/1.8.16/jquery-ui.min.js" type="text/javascript"></script>\\n    \\n    uncomment to load jquery-ui -->\\n    \\n  <!--script type="text/javascript"\\n   src="http://cdn.mathjax.org/mathjax/latest/MathJax.js?config=TeX-AMS-MML_HTMLorMML"></script-->\\n    \\n  </head>\\n  \\n  <!-- paulirish.com/2008/conditional-stylesheets-vs-css-hacks-answer-neither/ -->  \\n  <!--[if lt IE 7 ]> <body class="ie6"> <![endif]-->\\n  <!--[if IE 7 ]>    <body class="ie7"> <![endif]-->\\n  <!--[if IE 8 ]>    <body class="ie8"> <![endif]-->\\n  <!--[if IE 9 ]>    <body class="ie9"> <![endif]-->\\n  <!--[if (gt IE 9)|!(IE)]><!--> <body> <!--<![endif]-->\\n    \\n    <div class="flash">\', escape=False)\nresponse.write(response.flash or \'\')\nresponse.write(\'</div> <!-- notification div -->\\n\\n        \\n\\n    <div id="container">                        \\n      \\n      <div id="wrapper">        \\n      \', escape=False)\ntry:\n    response.write(\'\\n         \', escape=False)\n    bar=auth.navbar(action=URL(\'default\',\'user\'))\n    response.write(\'\\n         \', escape=False)\n    response.write(bar)\n    response.write(\'\\n      \', escape=False)\nexcept:pass\nresponse.write(\'\\n    \\n    <div id="header"> <!-- header and login nav -->\\n      \', escape=False)\nresponse.write(\' <!-- this is default header -->\\n      \\n      <h1>\\n        <span id="appname"><!--\', escape=False)\nresponse.write(request.application.capitalize())\nresponse.write(\'-->Computational Core for Plant Metabolomics</span>\\n      </h1>\\n      <div align="right">\\n      </div>\\n      <div style="clear: both;"></div><!-- Clear the divs -->\\n      \', escape=False)\nresponse.write(\'\\n    </div><!-- header  -->\\n    \\n    <div id="statusbar"><!-- statusbar is menu zone -->\\n      \', escape=False)\nresponse.write(\' <!-- this is default statusbar -->\\n      \', escape=False)\n#------ superfish menu ------\nresponse.write(\'\\n      \', escape=False)\nresponse.write(MENU(response.menu,_class=\'sf-menu\'))\nresponse.write(\'\\n      <script type="text/javascript">\\n        jQuery(document).ready(function(){\\n        jQuery(\\\'ul.sf-menu\\\').superfish();});\\n      </script>\\n\\n      <!-- AddToAny BEGIN\\n      <div style="padding: 7px; float:right;" class="a2a_kit a2a_default_style"><a class="a2a_dd" href="http://www.addtoany.com/share_save">Share</a></div><script type="text/javascript" src="http://static.addtoany.com/menu/page.js"></script>\\n      AddToAny END -->\\n\\n      <div style="clear: both;"></div><!-- Clear the divs -->   \\n      \', escape=False)\nresponse.write(\'               \\n    </div><!-- statusbar -->\\n    \\n    <div id="page"> <!-- Here my central body -->     \\n\\n      \', escape=False)\nif left_sidebar_enabled:\n    response.write(\'\\n          <div id="left_sidebar" \', escape=False)\n    response.write(XML(left_sidebar_style))\n    response.write(\' >\\n            <div style="padding: 4px;">\\n          \', escape=False)\n    response.write(\'Content Left Sidebar\', escape=False)\n    response.write(\'       \\n            </div>\\n          </div><!-- left_sidebar -->\\n      \', escape=False)\n    pass\nresponse.write(\'\\n\\n      <!-- content -->\\n      <div id="content" \', escape=False)\nresponse.write(XML(style_content))\nresponse.write(\' >\\n        \', escape=False)\nresponse.write(\'\\n<style type="text/css">\\n#customers\\n{\\nfont-family:"Trebuchet MS", Arial, Helvetica, sans-serif;\\nwidth:100%;\\nborder-collapse:collapse;\\n}\\n#customers td, #customers th \\n{\\nfont-size:1em;\\nborder:1px solid #98bf21;\\npadding:3px 7px 2px 7px;\\n}\\n#customers th \\n{\\nfont-size:1.1em;\\ntext-align:left;\\npadding-top:5px;\\npadding-bottom:4px;\\nbackground-color:#A7C942;\\ncolor:#ffffff;\\n}\\n#customers tr.alt td \\n{\\ncolor:#000000;\\nbackground-color:#EAF2D3;\\n}\\n</style>\\n<center><h3>Project: \', escape=False)\nresponse.write(project.name)\nresponse.write(\'</h3></center>\\n</br>\\n<table ><tr id="pen\', escape=False)\nresponse.write(project.id)\nresponse.write(\'"><td>\\n\', escape=False)\nif project.project_status == 1:\n    response.write(\'\\n<button onclick="ajax(\\\'\', escape=False)\n    response.write(URL(\'ajx_publish\',args=(\'accept\',project.id)))\n    response.write("\',[],null);jQuery(\'tr#pen", escape=False)\n    response.write(project.id)\n    response.write(\'\\\').slideUp()";>Publish</button>\\n\', escape=False)\n    pass\nresponse.write(\'\\n\', escape=False)\nelse:\n    response.write(\' \\n<button onclick="ajax(\\\'\', escape=False)\n    response.write(URL(\'ajx_publish\',args=(\'accept\',project.id)))\n    response.write("\',[],null);jQuery(\'tr#pen", escape=False)\n    response.write(project.id)\n    response.write(\'\\\').slideUp()";>UNPublish</button>\\n\', escape=False)\n    pass\nresponse.write(\'\\n</td></tr></table>\\n<!--table>\\n<td>\\n\', escape=False)\nif project.project_status == \'0\':\n    response.write(\'\\n</td>\\n<td>\\n\', escape=False)\n    response.write(H5(A(\'SignUp for Project\',_href=URL(\'reg_project\',args=project.id))))\n    response.write(\'\\n</td>\\n<td>\\n\', escape=False)\n    if project.project_coordinator == auth.user.id:\n        response.write(\'\\n\', escape=False)\n        response.write(H5(A(\'Role management\',_href=URL(\'roles\',args=project.id))))\n        response.write(\'\\n\', escape=False)\n        pass\n    response.write(\'\\n</td>\\n<td>\\n\', escape=False)\n    response.write(H5(A(\'Add new Sample\',_href=URL(\'add_sample\',args=project.id))))\n    response.write(\'\\n</td>\\n<td>\\n\', escape=False)\n    response.write(H5(A(\'My Samples\',_href=URL(\'my_samples\',args=(project.id)))))\n    response.write(\'\\n</td>\\n<td>\\n\', escape=False)\n    pass\nresponse.write(\'\\n\', escape=False)\nif project.project_status == \'1\':\n    response.write(\'\\n\', escape=False)\n    response.write(H5(A(\'Published Samples\',_href=URL(\'list_all_pub_samples\',args=(project.id)))))\n    response.write(\'\\n\', escape=False)\n    pass\nresponse.write(\'\\n</td>\\n</table-->\\n<body>\\n<h4>Project Details</h4>\\n<table id = \\\'customers\\\' class="table table-hover">\\n<tr><td><b>Project code</b></td><td>\', escape=False)\nresponse.write(project.code)\nresponse.write(\'</td></tr>\\n<tr><td><b>Project Start Date</b></td>  <td>\', escape=False)\nresponse.write(project.start_date)\nresponse.write(\'</td></tr>\\n<tr><td><b>Institute/Lab</b></td>  <td>\', escape=False)\nresponse.write(cord.affiliated_to)\nresponse.write(\'</td></tr>\\n<tr><td><b>Project Description</b> </td>  <td>\', escape=False)\nresponse.write(project.project_description)\nresponse.write(\'</td></tr>\\n<tr><td><b>Project References</b> </td>  <td>\', escape=False)\nresponse.write(project.project_literature_reference)\nresponse.write(\'</td></tr>\\n<tr><td><b>Project Journals</td></b>  <td>\', escape=False)\nresponse.write(project.project_journal_name)\nresponse.write(\'</td></tr>\\n<tr><td><b>Journal Published Date</b></td>  <td>\', escape=False)\nresponse.write(project.project_publication_date)\nresponse.write(\'</td></tr>\\n<tr><td><b>Project Pubmed Id</b></td>  <td>\', escape=False)\nresponse.write(project.project_pubmed_id)\nresponse.write("</td></tr>\\n</table>\\n</br></br>\\n\\n<h4>People Involved in project:</h4>\\n</br>\\n<table id = \'customers\'>\\n<tr>\\n<td><b>Project Co-Ordinator </b></td>\\n<td>", escape=False)\nresponse.write(A(cord.first_name+\' \'+cord.last_name,_href=URL(\'user_viewer\',args=cord.id)))\nresponse.write(\'</td>\\n</tr>\\n<tr>\\n\\n<td><b>Investigators</b></td>\\n<td>\\n\', escape=False)\nfor user in users:\n    response.write(\'\\n\', escape=False)\n    if user.role.role==\'0\':\n        response.write(\'\\n\', escape=False)\n        response.write(A(user.auth_user.first_name,_href=URL(\'user_viewer\',args=user.auth_user.id)))\n        response.write(\',\\n\', escape=False)\n        pass\n    response.write(\'\\n\', escape=False)\n    pass\nresponse.write(\'\\n</td>\\n</tr>\\n\\n\\n<tr>\\n<td>\\n<b>\', escape=False)\nresponse.write("Co-Investigators")\nresponse.write(\'</b>\\n</td>\\n<td>\\n\', escape=False)\nfor user in users:\n    response.write(\'\\n\', escape=False)\n    if user.role.role==\'1\':\n        response.write(\'\\n\', escape=False)\n        response.write(A(user.auth_user.first_name,_href=URL(\'user_viewer\',args=user.auth_user.id)))\n        response.write(\',\\n\', escape=False)\n        pass\n    response.write(\'\\n\', escape=False)\n    pass\nresponse.write(\'\\n</td>\\n</tr>\\n\\n\\n\\n<tr>\\n<td>\\n<b>\', escape=False)\nresponse.write("Collaborators ")\nresponse.write(\'</b>\\n</td>\\n<td>\\n\', escape=False)\nfor user in users:\n    response.write(\'\\n\', escape=False)\n    if user.role.role==\'2\':\n        response.write(\'\\n\', escape=False)\n        response.write(A(user.auth_user.first_name,_href=URL(\'user_viewer\',args=user.auth_user.id)))\n        response.write(\',\\n\', escape=False)\n        pass\n    response.write(\'\\n\', escape=False)\n    pass\nresponse.write(\'\\n</td>\\n</tr>\\n\\n\\n\\n<!--tr>\\n<td>\\n\', escape=False)\n#="Analysts :-"\nresponse.write(\'\\n</td>\\n<td>\\n\', escape=False)\n#for user in users:\nresponse.write(\'\\n\', escape=False)\n#if user.role.role==\'3\':\nresponse.write(\'\\n\', escape=False)\n#=user.auth_user.first_name\nresponse.write(\'\\n\', escape=False)\n#pass\nresponse.write(\'\\n\', escape=False)\n#pass\nresponse.write(\'\\n</td>\\n</tr-->\\n\\n\\n\\n\\n<tr>\\n<td>\\n<b>\', escape=False)\nresponse.write("Experimentalists :-")\nresponse.write(\'</b>\\n</td>\\n<td>\\n\', escape=False)\nfor user in users:\n    response.write(\'\\n\', escape=False)\n    if user.role.role==\'4\':\n        response.write(\'\\n\', escape=False)\n        response.write(A(user.auth_user.first_name,_href=URL(\'user_viewer\',args=user.auth_user.id)))\n        response.write(\',\\n\', escape=False)\n        pass\n    response.write(\'\\n\', escape=False)\n    pass\nresponse.write(\'\\n</td>\\n</tr>\\n</table>\\n</br>\\n\', escape=False)\nresponse.write(\' \\n      </div>\\n      <!-- content -->\\n\\n      \', escape=False)\nif right_sidebar_enabled:\n    response.write(\'\\n          <div id="right_sidebar" \', escape=False)\n    response.write(XML(right_sidebar_style))\n    response.write(\' >\\n            <div style="padding: 4px;">\\n              \', escape=False)\n    response.write(\'Content Right Sidebar\', escape=False)\n    response.write(\'\\n            </div>\\n      </div><!-- right_sidebar -->\\n          \', escape=False)\n    pass\nresponse.write(\'\\n\\n\\n      <div style="clear: both;"></div><!-- Clear the divs -->\\n      \\n    </div><!-- page -->                         \\n    <div id="footer">\\n    </div><!-- footer -->\\n \\n      </div><!-- wrapper -->\\n    </div><!-- container -->        \\n    \\n    <!--[if lt IE 7 ]>\\n    <script src="\', escape=False)\nresponse.write(URL(\'static\',\'js/dd_belatedpng.js\'))\nresponse.write(\'"></script>\\n    <script> DD_belatedPNG.fix(\\\'img, .png_bg\\\'); //fix any <img> or .png_bg background-images </script>\\n    <![endif]-->\\n    \', escape=False)\nif response.google_analytics_id:\n    response.write("<script>/* http://mathiasbynens.be/notes/async-analytics-snippet */ var _gaq=[[\'_setAccount\',\'", escape=False)\n    response.write(response.google_analyitics_id)\n    response.write("\'],[\'_trackPageview\']];(function(d,t){var g=d.createElement(t),s=d.getElementsByTagName(t)[0];g.src=\'//www.google-analytics.com/ga.js\';s.parentNode.insertBefore(g,s)}(document,\'script\')) </script>", escape=False)\n    pass\nresponse.write(\'\\n  </body>\\n</html>\\n\', escape=False)'
p7
sS'snapshot'
p8
(dp9
S'exception'
p10
(dp11
S'__getslice__'
p12
S"<method-wrapper '__getslice__' of exceptions.SyntaxError object>"
p13
sS'text'
p14
S"'else:\\n'"
p15
sS'__str__'
p16
S"<method-wrapper '__str__' of exceptions.SyntaxError object>"
p17
sS'__reduce__'
p18
S'<built-in method __reduce__ of exceptions.SyntaxError object>'
p19
sS'__dict__'
p20
S'{}'
p21
sS'__sizeof__'
p22
S'<built-in method __sizeof__ of exceptions.SyntaxError object>'
p23
sS'__init__'
p24
S"<method-wrapper '__init__' of exceptions.SyntaxError object>"
p25
sS'__setattr__'
p26
S"<method-wrapper '__setattr__' of exceptions.SyntaxError object>"
p27
sS'__reduce_ex__'
p28
S'<built-in method __reduce_ex__ of exceptions.SyntaxError object>'
p29
sS'__new__'
p30
S'<built-in method __new__ of type object>'
p31
sS'__format__'
p32
S'<built-in method __format__ of exceptions.SyntaxError object>'
p33
sS'__class__'
p34
S"<type 'exceptions.SyntaxError'>"
p35
sS'filename'
p36
S"'/home/anil/bootstrap/web2py/applications/DEV_bootstrap_ch/views/default/project_viewer.html'"
p37
sS'lineno'
p38
S'98'
p39
sS'msg'
p40
S"'invalid syntax'"
p41
sS'__doc__'
p42
S"'Invalid syntax.'"
p43
sS'__getitem__'
p44
S"<method-wrapper '__getitem__' of exceptions.SyntaxError object>"
p45
sS'__setstate__'
p46
S'<built-in method __setstate__ of exceptions.SyntaxError object>'
p47
sS'__getattribute__'
p48
S"<method-wrapper '__getattribute__' of exceptions.SyntaxError object>"
p49
sS'print_file_and_line'
p50
S'None'
p51
sS'args'
p52
S"('invalid syntax', ('/home/anil/bootstrap/web2py/applications/DEV_bootstrap_ch/views/default/project_viewer.html', 98, 4, 'else:\\n'))"
p53
sS'__subclasshook__'
p54
S'<built-in method __subclasshook__ of type object>'
p55
sS'offset'
p56
S'4'
sS'__unicode__'
p57
S'<built-in method __unicode__ of exceptions.SyntaxError object>'
p58
sS'__delattr__'
p59
S"<method-wrapper '__delattr__' of exceptions.SyntaxError object>"
p60
sS'__repr__'
p61
S"<method-wrapper '__repr__' of exceptions.SyntaxError object>"
p62
sS'__hash__'
p63
S"<method-wrapper '__hash__' of exceptions.SyntaxError object>"
p64
ssS'evalue'
p65
S'invalid syntax (project_viewer.html, line 98)'
p66
sS'request'
p67
ccopy_reg
_reconstructor
p68
(cgluon.html
BEAUTIFY
p69
c__builtin__
object
p70
NtRp71
(dp72
S'attributes'
p73
(dp74
sS'components'
p75
(lp76
g68
(cgluon.html
TABLE
p77
g70
NtRp78
(dp79
g73
(dp80
S'level'
p81
I5
ssS'parent'
p82
Nsg75
(lp83
g68
(cgluon.html
TR
p84
g70
NtRp85
(dp86
g73
(dp87
sg82
g78
sg75
(lp88
g68
(cgluon.html
TD
p89
g70
NtRp90
(dp91
g73
(dp92
S'_style'
p93
S'font-weight:bold;vertical-align:top'
p94
ssg82
g85
sg75
(lp95
S'ajax'
p96
asbag68
(g89
g70
NtRp97
(dp98
g73
(dp99
S'_valign'
p100
S'top'
p101
ssg82
g85
sg75
(lp102
S':'
asbag68
(g89
g70
NtRp103
(dp104
g73
(dp105
sg82
g85
sg75
(lp106
g68
(g69
g70
NtRp107
(dp108
g73
(dp109
g81
I5
ssg82
g103
sg75
(lp110
S'False'
p111
asbasbasbag68
(g84
g70
NtRp112
(dp113
g73
(dp114
sg82
g78
sg75
(lp115
g68
(g89
g70
NtRp116
(dp117
g73
(dp118
g93
g94
ssg82
g112
sg75
(lp119
S'application'
p120
asbag68
(g89
g70
NtRp121
(dp122
g73
(dp123
g100
g101
ssg82
g112
sg75
(lp124
S':'
asbag68
(g89
g70
NtRp125
(dp126
g73
(dp127
sg82
g112
sg75
(lp128
g68
(g69
g70
NtRp129
(dp130
g73
(dp131
g81
I5
ssg82
g125
sg75
(lp132
S'DEV_bootstrap_ch'
p133
asbasbasbag68
(g84
g70
NtRp134
(dp135
g73
(dp136
sg82
g78
sg75
(lp137
g68
(g89
g70
NtRp138
(dp139
g73
(dp140
g93
g94
ssg82
g134
sg75
(lp141
g52
asbag68
(g89
g70
NtRp142
(dp143
g73
(dp144
g100
g101
ssg82
g134
sg75
(lp145
S':'
asbag68
(g89
g70
NtRp146
(dp147
g73
(dp148
sg82
g134
sg75
(lp149
g68
(g69
g70
NtRp150
(dp151
g73
(dp152
g81
I5
ssg82
g146
sg75
(lp153
g68
(g77
g70
NtRp154
(dp155
g73
(dp156
g81
I4
ssg82
Nsg75
(lp157
g68
(g84
g70
NtRp158
(dp159
g73
(dp160
sg82
g154
sg75
(lp161
g68
(g89
g70
NtRp162
(dp163
g73
(dp164
sg82
g158
sg75
(lp165
g68
(g69
g70
NtRp166
(dp167
g73
(dp168
g81
I4
ssg82
g162
sg75
(lp169
S'1'
asbasbasbasbasbasbasbag68
(g84
g70
NtRp170
(dp171
g73
(dp172
sg82
g78
sg75
(lp173
g68
(g89
g70
NtRp174
(dp175
g73
(dp176
g93
g94
ssg82
g170
sg75
(lp177
S'body'
p178
asbag68
(g89
g70
NtRp179
(dp180
g73
(dp181
g100
g101
ssg82
g170
sg75
(lp182
S':'
asbag68
(g89
g70
NtRp183
(dp184
g73
(dp185
sg82
g170
sg75
(lp186
g68
(g69
g70
NtRp187
(dp188
g73
(dp189
g81
I5
ssg82
g183
sg75
(lp190
S'<cStringIO.StringO object at 0xad97ee20>'
p191
asbasbasbag68
(g84
g70
NtRp192
(dp193
g73
(dp194
sg82
g78
sg75
(lp195
g68
(g89
g70
NtRp196
(dp197
g73
(dp198
g93
g94
ssg82
g192
sg75
(lp199
S'cid'
p200
asbag68
(g89
g70
NtRp201
(dp202
g73
(dp203
g100
g101
ssg82
g192
sg75
(lp204
S':'
asbag68
(g89
g70
NtRp205
(dp206
g73
(dp207
sg82
g192
sg75
(lp208
g68
(g69
g70
NtRp209
(dp210
g73
(dp211
g81
I5
ssg82
g205
sg75
(lp212
S'None'
p213
asbasbasbag68
(g84
g70
NtRp214
(dp215
g73
(dp216
sg82
g78
sg75
(lp217
g68
(g89
g70
NtRp218
(dp219
g73
(dp220
g93
g94
ssg82
g214
sg75
(lp221
S'client'
p222
asbag68
(g89
g70
NtRp223
(dp224
g73
(dp225
g100
g101
ssg82
g214
sg75
(lp226
S':'
asbag68
(g89
g70
NtRp227
(dp228
g73
(dp229
sg82
g214
sg75
(lp230
g68
(g69
g70
NtRp231
(dp232
g73
(dp233
g81
I5
ssg82
g227
sg75
(lp234
S'127.0.0.1'
p235
asbasbasbag68
(g84
g70
NtRp236
(dp237
g73
(dp238
sg82
g78
sg75
(lp239
g68
(g89
g70
NtRp240
(dp241
g73
(dp242
g93
g94
ssg82
g236
sg75
(lp243
S'controller'
p244
asbag68
(g89
g70
NtRp245
(dp246
g73
(dp247
g100
g101
ssg82
g236
sg75
(lp248
S':'
asbag68
(g89
g70
NtRp249
(dp250
g73
(dp251
sg82
g236
sg75
(lp252
g68
(g69
g70
NtRp253
(dp254
g73
(dp255
g81
I5
ssg82
g249
sg75
(lp256
S'default'
p257
asbasbasbag68
(g84
g70
NtRp258
(dp259
g73
(dp260
sg82
g78
sg75
(lp261
g68
(g89
g70
NtRp262
(dp263
g73
(dp264
g93
g94
ssg82
g258
sg75
(lp265
S'cookies'
p266
asbag68
(g89
g70
NtRp267
(dp268
g73
(dp269
g100
g101
ssg82
g258
sg75
(lp270
S':'
asbag68
(g89
g70
NtRp271
(dp272
g73
(dp273
sg82
g258
sg75
(lp274
g68
(g69
g70
NtRp275
(dp276
g73
(dp277
g81
I5
ssg82
g271
sg75
(lp278
g68
(g77
g70
NtRp279
(dp280
g73
(dp281
g81
I4
ssg82
Nsg75
(lp282
g68
(g84
g70
NtRp283
(dp284
g73
(dp285
sg82
g279
sg75
(lp286
g68
(g89
g70
NtRp287
(dp288
g73
(dp289
g93
g94
ssg82
g283
sg75
(lp290
S'session_id_admin'
p291
asbag68
(g89
g70
NtRp292
(dp293
g73
(dp294
g100
g101
ssg82
g283
sg75
(lp295
S':'
asbag68
(g89
g70
NtRp296
(dp297
g73
(dp298
sg82
g283
sg75
(lp299
g68
(g69
g70
NtRp300
(dp301
g73
(dp302
g81
I4
ssg82
g296
sg75
(lp303
S'127.0.0.1-b7350e97-8084-4a01-827d-4833179b30ac'
p304
ag68
(g77
g70
NtRp305
(dp306
g73
(dp307
g81
I3
ssg82
Nsg75
(lp308
g68
(g84
g70
NtRp309
(dp310
g73
(dp311
sg82
g305
sg75
(lp312
g68
(g89
g70
NtRp313
(dp314
g73
(dp315
g93
g94
ssg82
g309
sg75
(lp316
S'comment'
p317
asbag68
(g89
g70
NtRp318
(dp319
g73
(dp320
g100
g101
ssg82
g309
sg75
(lp321
S':'
asbag68
(g89
g70
NtRp322
(dp323
g73
(dp324
sg82
g309
sg75
(lp325
g68
(g69
g70
NtRp326
(dp327
g73
(dp328
g81
I3
ssg82
g322
sg75
(lp329
S''
asbasbasbag68
(g84
g70
NtRp330
(dp331
g73
(dp332
sg82
g305
sg75
(lp333
g68
(g89
g70
NtRp334
(dp335
g73
(dp336
g93
g94
ssg82
g330
sg75
(lp337
S'domain'
p338
asbag68
(g89
g70
NtRp339
(dp340
g73
(dp341
g100
g101
ssg82
g330
sg75
(lp342
S':'
asbag68
(g89
g70
NtRp343
(dp344
g73
(dp345
sg82
g330
sg75
(lp346
g68
(g69
g70
NtRp347
(dp348
g73
(dp349
g81
I3
ssg82
g343
sg75
(lp350
S''
asbasbasbag68
(g84
g70
NtRp351
(dp352
g73
(dp353
sg82
g305
sg75
(lp354
g68
(g89
g70
NtRp355
(dp356
g73
(dp357
g93
g94
ssg82
g351
sg75
(lp358
S'expires'
p359
asbag68
(g89
g70
NtRp360
(dp361
g73
(dp362
g100
g101
ssg82
g351
sg75
(lp363
S':'
asbag68
(g89
g70
NtRp364
(dp365
g73
(dp366
sg82
g351
sg75
(lp367
g68
(g69
g70
NtRp368
(dp369
g73
(dp370
g81
I3
ssg82
g364
sg75
(lp371
S''
asbasbasbag68
(g84
g70
NtRp372
(dp373
g73
(dp374
sg82
g305
sg75
(lp375
g68
(g89
g70
NtRp376
(dp377
g73
(dp378
g93
g94
ssg82
g372
sg75
(lp379
S'httponly'
p380
asbag68
(g89
g70
NtRp381
(dp382
g73
(dp383
g100
g101
ssg82
g372
sg75
(lp384
S':'
asbag68
(g89
g70
NtRp385
(dp386
g73
(dp387
sg82
g372
sg75
(lp388
g68
(g69
g70
NtRp389
(dp390
g73
(dp391
g81
I3
ssg82
g385
sg75
(lp392
S''
asbasbasbag68
(g84
g70
NtRp393
(dp394
g73
(dp395
sg82
g305
sg75
(lp396
g68
(g89
g70
NtRp397
(dp398
g73
(dp399
g93
g94
ssg82
g393
sg75
(lp400
S'max-age'
p401
asbag68
(g89
g70
NtRp402
(dp403
g73
(dp404
g100
g101
ssg82
g393
sg75
(lp405
S':'
asbag68
(g89
g70
NtRp406
(dp407
g73
(dp408
sg82
g393
sg75
(lp409
g68
(g69
g70
NtRp410
(dp411
g73
(dp412
g81
I3
ssg82
g406
sg75
(lp413
S''
asbasbasbag68
(g84
g70
NtRp414
(dp415
g73
(dp416
sg82
g305
sg75
(lp417
g68
(g89
g70
NtRp418
(dp419
g73
(dp420
g93
g94
ssg82
g414
sg75
(lp421
S'path'
p422
asbag68
(g89
g70
NtRp423
(dp424
g73
(dp425
g100
g101
ssg82
g414
sg75
(lp426
S':'
asbag68
(g89
g70
NtRp427
(dp428
g73
(dp429
sg82
g414
sg75
(lp430
g68
(g69
g70
NtRp431
(dp432
g73
(dp433
g81
I3
ssg82
g427
sg75
(lp434
S''
asbasbasbag68
(g84
g70
NtRp435
(dp436
g73
(dp437
sg82
g305
sg75
(lp438
g68
(g89
g70
NtRp439
(dp440
g73
(dp441
g93
g94
ssg82
g435
sg75
(lp442
S'secure'
p443
asbag68
(g89
g70
NtRp444
(dp445
g73
(dp446
g100
g101
ssg82
g435
sg75
(lp447
S':'
asbag68
(g89
g70
NtRp448
(dp449
g73
(dp450
sg82
g435
sg75
(lp451
g68
(g69
g70
NtRp452
(dp453
g73
(dp454
g81
I3
ssg82
g448
sg75
(lp455
S''
asbasbasbag68
(g84
g70
NtRp456
(dp457
g73
(dp458
sg82
g305
sg75
(lp459
g68
(g89
g70
NtRp460
(dp461
g73
(dp462
g93
g94
ssg82
g456
sg75
(lp463
S'version'
p464
asbag68
(g89
g70
NtRp465
(dp466
g73
(dp467
g100
g101
ssg82
g456
sg75
(lp468
S':'
asbag68
(g89
g70
NtRp469
(dp470
g73
(dp471
sg82
g456
sg75
(lp472
g68
(g69
g70
NtRp473
(dp474
g73
(dp475
g81
I3
ssg82
g469
sg75
(lp476
S''
asbasbasbasbasbasbasbag68
(g84
g70
NtRp477
(dp478
g73
(dp479
sg82
g279
sg75
(lp480
g68
(g89
g70
NtRp481
(dp482
g73
(dp483
g93
g94
ssg82
g477
sg75
(lp484
S'session_id_demo'
p485
asbag68
(g89
g70
NtRp486
(dp487
g73
(dp488
g100
g101
ssg82
g477
sg75
(lp489
S':'
asbag68
(g89
g70
NtRp490
(dp491
g73
(dp492
sg82
g477
sg75
(lp493
g68
(g69
g70
NtRp494
(dp495
g73
(dp496
g81
I4
ssg82
g490
sg75
(lp497
S'127.0.0.1-25708396-7470-407a-8d38-08ed3cbb5ed9'
p498
ag68
(g77
g70
NtRp499
(dp500
g73
(dp501
g81
I3
ssg82
Nsg75
(lp502
g68
(g84
g70
NtRp503
(dp504
g73
(dp505
sg82
g499
sg75
(lp506
g68
(g89
g70
NtRp507
(dp508
g73
(dp509
g93
g94
ssg82
g503
sg75
(lp510
g317
asbag68
(g89
g70
NtRp511
(dp512
g73
(dp513
g100
g101
ssg82
g503
sg75
(lp514
S':'
asbag68
(g89
g70
NtRp515
(dp516
g73
(dp517
sg82
g503
sg75
(lp518
g68
(g69
g70
NtRp519
(dp520
g73
(dp521
g81
I3
ssg82
g515
sg75
(lp522
S''
asbasbasbag68
(g84
g70
NtRp523
(dp524
g73
(dp525
sg82
g499
sg75
(lp526
g68
(g89
g70
NtRp527
(dp528
g73
(dp529
g93
g94
ssg82
g523
sg75
(lp530
g338
asbag68
(g89
g70
NtRp531
(dp532
g73
(dp533
g100
g101
ssg82
g523
sg75
(lp534
S':'
asbag68
(g89
g70
NtRp535
(dp536
g73
(dp537
sg82
g523
sg75
(lp538
g68
(g69
g70
NtRp539
(dp540
g73
(dp541
g81
I3
ssg82
g535
sg75
(lp542
S''
asbasbasbag68
(g84
g70
NtRp543
(dp544
g73
(dp545
sg82
g499
sg75
(lp546
g68
(g89
g70
NtRp547
(dp548
g73
(dp549
g93
g94
ssg82
g543
sg75
(lp550
g359
asbag68
(g89
g70
NtRp551
(dp552
g73
(dp553
g100
g101
ssg82
g543
sg75
(lp554
S':'
asbag68
(g89
g70
NtRp555
(dp556
g73
(dp557
sg82
g543
sg75
(lp558
g68
(g69
g70
NtRp559
(dp560
g73
(dp561
g81
I3
ssg82
g555
sg75
(lp562
S''
asbasbasbag68
(g84
g70
NtRp563
(dp564
g73
(dp565
sg82
g499
sg75
(lp566
g68
(g89
g70
NtRp567
(dp568
g73
(dp569
g93
g94
ssg82
g563
sg75
(lp570
g380
asbag68
(g89
g70
NtRp571
(dp572
g73
(dp573
g100
g101
ssg82
g563
sg75
(lp574
S':'
asbag68
(g89
g70
NtRp575
(dp576
g73
(dp577
sg82
g563
sg75
(lp578
g68
(g69
g70
NtRp579
(dp580
g73
(dp581
g81
I3
ssg82
g575
sg75
(lp582
S''
asbasbasbag68
(g84
g70
NtRp583
(dp584
g73
(dp585
sg82
g499
sg75
(lp586
g68
(g89
g70
NtRp587
(dp588
g73
(dp589
g93
g94
ssg82
g583
sg75
(lp590
g401
asbag68
(g89
g70
NtRp591
(dp592
g73
(dp593
g100
g101
ssg82
g583
sg75
(lp594
S':'
asbag68
(g89
g70
NtRp595
(dp596
g73
(dp597
sg82
g583
sg75
(lp598
g68
(g69
g70
NtRp599
(dp600
g73
(dp601
g81
I3
ssg82
g595
sg75
(lp602
S''
asbasbasbag68
(g84
g70
NtRp603
(dp604
g73
(dp605
sg82
g499
sg75
(lp606
g68
(g89
g70
NtRp607
(dp608
g73
(dp609
g93
g94
ssg82
g603
sg75
(lp610
g422
asbag68
(g89
g70
NtRp611
(dp612
g73
(dp613
g100
g101
ssg82
g603
sg75
(lp614
S':'
asbag68
(g89
g70
NtRp615
(dp616
g73
(dp617
sg82
g603
sg75
(lp618
g68
(g69
g70
NtRp619
(dp620
g73
(dp621
g81
I3
ssg82
g615
sg75
(lp622
S''
asbasbasbag68
(g84
g70
NtRp623
(dp624
g73
(dp625
sg82
g499
sg75
(lp626
g68
(g89
g70
NtRp627
(dp628
g73
(dp629
g93
g94
ssg82
g623
sg75
(lp630
g443
asbag68
(g89
g70
NtRp631
(dp632
g73
(dp633
g100
g101
ssg82
g623
sg75
(lp634
S':'
asbag68
(g89
g70
NtRp635
(dp636
g73
(dp637
sg82
g623
sg75
(lp638
g68
(g69
g70
NtRp639
(dp640
g73
(dp641
g81
I3
ssg82
g635
sg75
(lp642
S''
asbasbasbag68
(g84
g70
NtRp643
(dp644
g73
(dp645
sg82
g499
sg75
(lp646
g68
(g89
g70
NtRp647
(dp648
g73
(dp649
g93
g94
ssg82
g643
sg75
(lp650
g464
asbag68
(g89
g70
NtRp651
(dp652
g73
(dp653
g100
g101
ssg82
g643
sg75
(lp654
S':'
asbag68
(g89
g70
NtRp655
(dp656
g73
(dp657
sg82
g643
sg75
(lp658
g68
(g69
g70
NtRp659
(dp660
g73
(dp661
g81
I3
ssg82
g655
sg75
(lp662
S''
asbasbasbasbasbasbasbag68
(g84
g70
NtRp663
(dp664
g73
(dp665
sg82
g279
sg75
(lp666
g68
(g89
g70
NtRp667
(dp668
g73
(dp669
g93
g94
ssg82
g663
sg75
(lp670
S'session_id_dev_bootstrap'
p671
asbag68
(g89
g70
NtRp672
(dp673
g73
(dp674
g100
g101
ssg82
g663
sg75
(lp675
S':'
asbag68
(g89
g70
NtRp676
(dp677
g73
(dp678
sg82
g663
sg75
(lp679
g68
(g69
g70
NtRp680
(dp681
g73
(dp682
g81
I4
ssg82
g676
sg75
(lp683
S'127.0.0.1-4e736276-fb30-4d0d-9bbc-59a206f1e27c'
p684
ag68
(g77
g70
NtRp685
(dp686
g73
(dp687
g81
I3
ssg82
Nsg75
(lp688
g68
(g84
g70
NtRp689
(dp690
g73
(dp691
sg82
g685
sg75
(lp692
g68
(g89
g70
NtRp693
(dp694
g73
(dp695
g93
g94
ssg82
g689
sg75
(lp696
g317
asbag68
(g89
g70
NtRp697
(dp698
g73
(dp699
g100
g101
ssg82
g689
sg75
(lp700
S':'
asbag68
(g89
g70
NtRp701
(dp702
g73
(dp703
sg82
g689
sg75
(lp704
g68
(g69
g70
NtRp705
(dp706
g73
(dp707
g81
I3
ssg82
g701
sg75
(lp708
S''
asbasbasbag68
(g84
g70
NtRp709
(dp710
g73
(dp711
sg82
g685
sg75
(lp712
g68
(g89
g70
NtRp713
(dp714
g73
(dp715
g93
g94
ssg82
g709
sg75
(lp716
g338
asbag68
(g89
g70
NtRp717
(dp718
g73
(dp719
g100
g101
ssg82
g709
sg75
(lp720
S':'
asbag68
(g89
g70
NtRp721
(dp722
g73
(dp723
sg82
g709
sg75
(lp724
g68
(g69
g70
NtRp725
(dp726
g73
(dp727
g81
I3
ssg82
g721
sg75
(lp728
S''
asbasbasbag68
(g84
g70
NtRp729
(dp730
g73
(dp731
sg82
g685
sg75
(lp732
g68
(g89
g70
NtRp733
(dp734
g73
(dp735
g93
g94
ssg82
g729
sg75
(lp736
g359
asbag68
(g89
g70
NtRp737
(dp738
g73
(dp739
g100
g101
ssg82
g729
sg75
(lp740
S':'
asbag68
(g89
g70
NtRp741
(dp742
g73
(dp743
sg82
g729
sg75
(lp744
g68
(g69
g70
NtRp745
(dp746
g73
(dp747
g81
I3
ssg82
g741
sg75
(lp748
S''
asbasbasbag68
(g84
g70
NtRp749
(dp750
g73
(dp751
sg82
g685
sg75
(lp752
g68
(g89
g70
NtRp753
(dp754
g73
(dp755
g93
g94
ssg82
g749
sg75
(lp756
g380
asbag68
(g89
g70
NtRp757
(dp758
g73
(dp759
g100
g101
ssg82
g749
sg75
(lp760
S':'
asbag68
(g89
g70
NtRp761
(dp762
g73
(dp763
sg82
g749
sg75
(lp764
g68
(g69
g70
NtRp765
(dp766
g73
(dp767
g81
I3
ssg82
g761
sg75
(lp768
S''
asbasbasbag68
(g84
g70
NtRp769
(dp770
g73
(dp771
sg82
g685
sg75
(lp772
g68
(g89
g70
NtRp773
(dp774
g73
(dp775
g93
g94
ssg82
g769
sg75
(lp776
g401
asbag68
(g89
g70
NtRp777
(dp778
g73
(dp779
g100
g101
ssg82
g769
sg75
(lp780
S':'
asbag68
(g89
g70
NtRp781
(dp782
g73
(dp783
sg82
g769
sg75
(lp784
g68
(g69
g70
NtRp785
(dp786
g73
(dp787
g81
I3
ssg82
g781
sg75
(lp788
S''
asbasbasbag68
(g84
g70
NtRp789
(dp790
g73
(dp791
sg82
g685
sg75
(lp792
g68
(g89
g70
NtRp793
(dp794
g73
(dp795
g93
g94
ssg82
g789
sg75
(lp796
g422
asbag68
(g89
g70
NtRp797
(dp798
g73
(dp799
g100
g101
ssg82
g789
sg75
(lp800
S':'
asbag68
(g89
g70
NtRp801
(dp802
g73
(dp803
sg82
g789
sg75
(lp804
g68
(g69
g70
NtRp805
(dp806
g73
(dp807
g81
I3
ssg82
g801
sg75
(lp808
S''
asbasbasbag68
(g84
g70
NtRp809
(dp810
g73
(dp811
sg82
g685
sg75
(lp812
g68
(g89
g70
NtRp813
(dp814
g73
(dp815
g93
g94
ssg82
g809
sg75
(lp816
g443
asbag68
(g89
g70
NtRp817
(dp818
g73
(dp819
g100
g101
ssg82
g809
sg75
(lp820
S':'
asbag68
(g89
g70
NtRp821
(dp822
g73
(dp823
sg82
g809
sg75
(lp824
g68
(g69
g70
NtRp825
(dp826
g73
(dp827
g81
I3
ssg82
g821
sg75
(lp828
S''
asbasbasbag68
(g84
g70
NtRp829
(dp830
g73
(dp831
sg82
g685
sg75
(lp832
g68
(g89
g70
NtRp833
(dp834
g73
(dp835
g93
g94
ssg82
g829
sg75
(lp836
g464
asbag68
(g89
g70
NtRp837
(dp838
g73
(dp839
g100
g101
ssg82
g829
sg75
(lp840
S':'
asbag68
(g89
g70
NtRp841
(dp842
g73
(dp843
sg82
g829
sg75
(lp844
g68
(g69
g70
NtRp845
(dp846
g73
(dp847
g81
I3
ssg82
g841
sg75
(lp848
S''
asbasbasbasbasbasbasbag68
(g84
g70
NtRp849
(dp850
g73
(dp851
sg82
g279
sg75
(lp852
g68
(g89
g70
NtRp853
(dp854
g73
(dp855
g93
g94
ssg82
g849
sg75
(lp856
S'session_id_dev_bootstrap_ch'
p857
asbag68
(g89
g70
NtRp858
(dp859
g73
(dp860
g100
g101
ssg82
g849
sg75
(lp861
S':'
asbag68
(g89
g70
NtRp862
(dp863
g73
(dp864
sg82
g849
sg75
(lp865
g68
(g69
g70
NtRp866
(dp867
g73
(dp868
g81
I4
ssg82
g862
sg75
(lp869
S'127.0.0.1-270b038b-df00-4d5c-949a-e87692880510'
p870
ag68
(g77
g70
NtRp871
(dp872
g73
(dp873
g81
I3
ssg82
Nsg75
(lp874
g68
(g84
g70
NtRp875
(dp876
g73
(dp877
sg82
g871
sg75
(lp878
g68
(g89
g70
NtRp879
(dp880
g73
(dp881
g93
g94
ssg82
g875
sg75
(lp882
g317
asbag68
(g89
g70
NtRp883
(dp884
g73
(dp885
g100
g101
ssg82
g875
sg75
(lp886
S':'
asbag68
(g89
g70
NtRp887
(dp888
g73
(dp889
sg82
g875
sg75
(lp890
g68
(g69
g70
NtRp891
(dp892
g73
(dp893
g81
I3
ssg82
g887
sg75
(lp894
S''
asbasbasbag68
(g84
g70
NtRp895
(dp896
g73
(dp897
sg82
g871
sg75
(lp898
g68
(g89
g70
NtRp899
(dp900
g73
(dp901
g93
g94
ssg82
g895
sg75
(lp902
g338
asbag68
(g89
g70
NtRp903
(dp904
g73
(dp905
g100
g101
ssg82
g895
sg75
(lp906
S':'
asbag68
(g89
g70
NtRp907
(dp908
g73
(dp909
sg82
g895
sg75
(lp910
g68
(g69
g70
NtRp911
(dp912
g73
(dp913
g81
I3
ssg82
g907
sg75
(lp914
S''
asbasbasbag68
(g84
g70
NtRp915
(dp916
g73
(dp917
sg82
g871
sg75
(lp918
g68
(g89
g70
NtRp919
(dp920
g73
(dp921
g93
g94
ssg82
g915
sg75
(lp922
g359
asbag68
(g89
g70
NtRp923
(dp924
g73
(dp925
g100
g101
ssg82
g915
sg75
(lp926
S':'
asbag68
(g89
g70
NtRp927
(dp928
g73
(dp929
sg82
g915
sg75
(lp930
g68
(g69
g70
NtRp931
(dp932
g73
(dp933
g81
I3
ssg82
g927
sg75
(lp934
S''
asbasbasbag68
(g84
g70
NtRp935
(dp936
g73
(dp937
sg82
g871
sg75
(lp938
g68
(g89
g70
NtRp939
(dp940
g73
(dp941
g93
g94
ssg82
g935
sg75
(lp942
g380
asbag68
(g89
g70
NtRp943
(dp944
g73
(dp945
g100
g101
ssg82
g935
sg75
(lp946
S':'
asbag68
(g89
g70
NtRp947
(dp948
g73
(dp949
sg82
g935
sg75
(lp950
g68
(g69
g70
NtRp951
(dp952
g73
(dp953
g81
I3
ssg82
g947
sg75
(lp954
S''
asbasbasbag68
(g84
g70
NtRp955
(dp956
g73
(dp957
sg82
g871
sg75
(lp958
g68
(g89
g70
NtRp959
(dp960
g73
(dp961
g93
g94
ssg82
g955
sg75
(lp962
g401
asbag68
(g89
g70
NtRp963
(dp964
g73
(dp965
g100
g101
ssg82
g955
sg75
(lp966
S':'
asbag68
(g89
g70
NtRp967
(dp968
g73
(dp969
sg82
g955
sg75
(lp970
g68
(g69
g70
NtRp971
(dp972
g73
(dp973
g81
I3
ssg82
g967
sg75
(lp974
S''
asbasbasbag68
(g84
g70
NtRp975
(dp976
g73
(dp977
sg82
g871
sg75
(lp978
g68
(g89
g70
NtRp979
(dp980
g73
(dp981
g93
g94
ssg82
g975
sg75
(lp982
g422
asbag68
(g89
g70
NtRp983
(dp984
g73
(dp985
g100
g101
ssg82
g975
sg75
(lp986
S':'
asbag68
(g89
g70
NtRp987
(dp988
g73
(dp989
sg82
g975
sg75
(lp990
g68
(g69
g70
NtRp991
(dp992
g73
(dp993
g81
I3
ssg82
g987
sg75
(lp994
S''
asbasbasbag68
(g84
g70
NtRp995
(dp996
g73
(dp997
sg82
g871
sg75
(lp998
g68
(g89
g70
NtRp999
(dp1000
g73
(dp1001
g93
g94
ssg82
g995
sg75
(lp1002
g443
asbag68
(g89
g70
NtRp1003
(dp1004
g73
(dp1005
g100
g101
ssg82
g995
sg75
(lp1006
S':'
asbag68
(g89
g70
NtRp1007
(dp1008
g73
(dp1009
sg82
g995
sg75
(lp1010
g68
(g69
g70
NtRp1011
(dp1012
g73
(dp1013
g81
I3
ssg82
g1007
sg75
(lp1014
S''
asbasbasbag68
(g84
g70
NtRp1015
(dp1016
g73
(dp1017
sg82
g871
sg75
(lp1018
g68
(g89
g70
NtRp1019
(dp1020
g73
(dp1021
g93
g94
ssg82
g1015
sg75
(lp1022
g464
asbag68
(g89
g70
NtRp1023
(dp1024
g73
(dp1025
g100
g101
ssg82
g1015
sg75
(lp1026
S':'
asbag68
(g89
g70
NtRp1027
(dp1028
g73
(dp1029
sg82
g1015
sg75
(lp1030
g68
(g69
g70
NtRp1031
(dp1032
g73
(dp1033
g81
I3
ssg82
g1027
sg75
(lp1034
S''
asbasbasbasbasbasbasbasbasbasbasbag68
(g84
g70
NtRp1035
(dp1036
g73
(dp1037
sg82
g78
sg75
(lp1038
g68
(g89
g70
NtRp1039
(dp1040
g73
(dp1041
g93
g94
ssg82
g1035
sg75
(lp1042
S'env'
p1043
asbag68
(g89
g70
NtRp1044
(dp1045
g73
(dp1046
g100
g101
ssg82
g1035
sg75
(lp1047
S':'
asbag68
(g89
g70
NtRp1048
(dp1049
g73
(dp1050
sg82
g1035
sg75
(lp1051
g68
(g69
g70
NtRp1052
(dp1053
g73
(dp1054
g81
I5
ssg82
g1048
sg75
(lp1055
g68
(g77
g70
NtRp1056
(dp1057
g73
(dp1058
g81
I4
ssg82
Nsg75
(lp1059
g68
(g84
g70
NtRp1060
(dp1061
g73
(dp1062
sg82
g1056
sg75
(lp1063
g68
(g89
g70
NtRp1064
(dp1065
g73
(dp1066
g93
g94
ssg82
g1060
sg75
(lp1067
S'app_folders'
p1068
asbag68
(g89
g70
NtRp1069
(dp1070
g73
(dp1071
g100
g101
ssg82
g1060
sg75
(lp1072
S':'
asbag68
(g89
g70
NtRp1073
(dp1074
g73
(dp1075
sg82
g1060
sg75
(lp1076
g68
(g69
g70
NtRp1077
(dp1078
g73
(dp1079
g81
I4
ssg82
g1073
sg75
(lp1080
S"set(['/home/anil/bootstrap/web2py/applications/DEV_bootstrap_ch/'])"
p1081
asbasbasbag68
(g84
g70
NtRp1082
(dp1083
g73
(dp1084
sg82
g1056
sg75
(lp1085
g68
(g89
g70
NtRp1086
(dp1087
g73
(dp1088
g93
g94
ssg82
g1082
sg75
(lp1089
S'applications_parent'
p1090
asbag68
(g89
g70
NtRp1091
(dp1092
g73
(dp1093
g100
g101
ssg82
g1082
sg75
(lp1094
S':'
asbag68
(g89
g70
NtRp1095
(dp1096
g73
(dp1097
sg82
g1082
sg75
(lp1098
g68
(g69
g70
NtRp1099
(dp1100
g73
(dp1101
g81
I4
ssg82
g1095
sg75
(lp1102
S'/home/anil/bootstrap/web2py'
p1103
asbasbasbag68
(g84
g70
NtRp1104
(dp1105
g73
(dp1106
sg82
g1056
sg75
(lp1107
g68
(g89
g70
NtRp1108
(dp1109
g73
(dp1110
g93
g94
ssg82
g1104
sg75
(lp1111
S'cmd_args'
p1112
asbag68
(g89
g70
NtRp1113
(dp1114
g73
(dp1115
g100
g101
ssg82
g1104
sg75
(lp1116
S':'
asbag68
(g89
g70
NtRp1117
(dp1118
g73
(dp1119
sg82
g1104
sg75
(lp1120
g68
(g69
g70
NtRp1121
(dp1122
g73
(dp1123
g81
I4
ssg82
g1117
sg75
(lp1124
g68
(g77
g70
NtRp1125
(dp1126
g73
(dp1127
g81
I3
ssg82
Nsg75
(lp1128
sbasbasbasbag68
(g84
g70
NtRp1129
(dp1130
g73
(dp1131
sg82
g1056
sg75
(lp1132
g68
(g89
g70
NtRp1133
(dp1134
g73
(dp1135
g93
g94
ssg82
g1129
sg75
(lp1136
S'cmd_options'
p1137
asbag68
(g89
g70
NtRp1138
(dp1139
g73
(dp1140
g100
g101
ssg82
g1129
sg75
(lp1141
S':'
asbag68
(g89
g70
NtRp1142
(dp1143
g73
(dp1144
sg82
g1129
sg75
(lp1145
g68
(g69
g70
NtRp1146
(dp1147
g73
(dp1148
g81
I4
ssg82
g1142
sg75
(lp1149
S"<Values at 0x9026c6c: {'verbose': False, 'ip': '127.0.0.1', 'with_scheduler': False, 'ips': [], 'shutdown_timeout': 5, 'taskbar': False, 'port': 8000, 'maxthreads': None, 'softcron': False, 'server_name': 'anil-Inspiron-1525', 'bpython': False, 'nogui': False, 'pid_filename': 'httpserver.pid', 'extcron': False, 'runcron': False, 'run_system_tests': False, 'test': None, 'folder': '/home/anil/bootstrap/web2py', 'config': '', 'import_models': False, 'winservice': '', 'shell': None, 'run': '', 'log_filename': 'httpserver.log', 'debuglevel': 30, 'args': [''], 'socket_timeout': 5, 'ssl_ca_certificate': None, 'scheduler': None, 'profiler_filename': None, 'ssl_private_key': '', 'scheduler_groups': None, 'password': '123', 'request_queue_size': 5, 'ssl_certificate': '', 'cronjob': False, 'numthreads': None, 'quiet': False, 'interfaces': None, 'minthreads': None, 'timeout': 10, 'plain': False, 'nobanner': False}>"
p1150
asbasbasbag68
(g84
g70
NtRp1151
(dp1152
g73
(dp1153
sg82
g1056
sg75
(lp1154
g68
(g89
g70
NtRp1155
(dp1156
g73
(dp1157
g93
g94
ssg82
g1151
sg75
(lp1158
S'db_sessions'
p1159
asbag68
(g89
g70
NtRp1160
(dp1161
g73
(dp1162
g100
g101
ssg82
g1151
sg75
(lp1163
S':'
asbag68
(g89
g70
NtRp1164
(dp1165
g73
(dp1166
sg82
g1151
sg75
(lp1167
g68
(g69
g70
NtRp1168
(dp1169
g73
(dp1170
g81
I4
ssg82
g1164
sg75
(lp1171
S'set([])'
p1172
asbasbasbag68
(g84
g70
NtRp1173
(dp1174
g73
(dp1175
sg82
g1056
sg75
(lp1176
g68
(g89
g70
NtRp1177
(dp1178
g73
(dp1179
g93
g94
ssg82
g1173
sg75
(lp1180
S'debugging'
p1181
asbag68
(g89
g70
NtRp1182
(dp1183
g73
(dp1184
g100
g101
ssg82
g1173
sg75
(lp1185
S':'
asbag68
(g89
g70
NtRp1186
(dp1187
g73
(dp1188
sg82
g1173
sg75
(lp1189
g68
(g69
g70
NtRp1190
(dp1191
g73
(dp1192
g81
I4
ssg82
g1186
sg75
(lp1193
g111
asbasbasbag68
(g84
g70
NtRp1194
(dp1195
g73
(dp1196
sg82
g1056
sg75
(lp1197
g68
(g89
g70
NtRp1198
(dp1199
g73
(dp1200
g93
g94
ssg82
g1194
sg75
(lp1201
S'gluon_parent'
p1202
asbag68
(g89
g70
NtRp1203
(dp1204
g73
(dp1205
g100
g101
ssg82
g1194
sg75
(lp1206
S':'
asbag68
(g89
g70
NtRp1207
(dp1208
g73
(dp1209
sg82
g1194
sg75
(lp1210
g68
(g69
g70
NtRp1211
(dp1212
g73
(dp1213
g81
I4
ssg82
g1207
sg75
(lp1214
S'/home/anil/bootstrap/web2py'
p1215
asbasbasbag68
(g84
g70
NtRp1216
(dp1217
g73
(dp1218
sg82
g1056
sg75
(lp1219
g68
(g89
g70
NtRp1220
(dp1221
g73
(dp1222
g93
g94
ssg82
g1216
sg75
(lp1223
S'http_accept'
p1224
asbag68
(g89
g70
NtRp1225
(dp1226
g73
(dp1227
g100
g101
ssg82
g1216
sg75
(lp1228
S':'
asbag68
(g89
g70
NtRp1229
(dp1230
g73
(dp1231
sg82
g1216
sg75
(lp1232
g68
(g69
g70
NtRp1233
(dp1234
g73
(dp1235
g81
I4
ssg82
g1229
sg75
(lp1236
S'text/html,application/xhtml+xml,application/xml;q=0.9,*/*;q=0.8'
p1237
asbasbasbag68
(g84
g70
NtRp1238
(dp1239
g73
(dp1240
sg82
g1056
sg75
(lp1241
g68
(g89
g70
NtRp1242
(dp1243
g73
(dp1244
g93
g94
ssg82
g1238
sg75
(lp1245
S'http_accept_charset'
p1246
asbag68
(g89
g70
NtRp1247
(dp1248
g73
(dp1249
g100
g101
ssg82
g1238
sg75
(lp1250
S':'
asbag68
(g89
g70
NtRp1251
(dp1252
g73
(dp1253
sg82
g1238
sg75
(lp1254
g68
(g69
g70
NtRp1255
(dp1256
g73
(dp1257
g81
I4
ssg82
g1251
sg75
(lp1258
S'ISO-8859-1,utf-8;q=0.7,*;q=0.3'
p1259
asbasbasbag68
(g84
g70
NtRp1260
(dp1261
g73
(dp1262
sg82
g1056
sg75
(lp1263
g68
(g89
g70
NtRp1264
(dp1265
g73
(dp1266
g93
g94
ssg82
g1260
sg75
(lp1267
S'http_accept_encoding'
p1268
asbag68
(g89
g70
NtRp1269
(dp1270
g73
(dp1271
g100
g101
ssg82
g1260
sg75
(lp1272
S':'
asbag68
(g89
g70
NtRp1273
(dp1274
g73
(dp1275
sg82
g1260
sg75
(lp1276
g68
(g69
g70
NtRp1277
(dp1278
g73
(dp1279
g81
I4
ssg82
g1273
sg75
(lp1280
S'gzip,deflate,sdch'
p1281
asbasbasbag68
(g84
g70
NtRp1282
(dp1283
g73
(dp1284
sg82
g1056
sg75
(lp1285
g68
(g89
g70
NtRp1286
(dp1287
g73
(dp1288
g93
g94
ssg82
g1282
sg75
(lp1289
S'http_accept_language'
p1290
asbag68
(g89
g70
NtRp1291
(dp1292
g73
(dp1293
g100
g101
ssg82
g1282
sg75
(lp1294
S':'
asbag68
(g89
g70
NtRp1295
(dp1296
g73
(dp1297
sg82
g1282
sg75
(lp1298
g68
(g69
g70
NtRp1299
(dp1300
g73
(dp1301
g81
I4
ssg82
g1295
sg75
(lp1302
S'en-US,en;q=0.8'
p1303
asbasbasbag68
(g84
g70
NtRp1304
(dp1305
g73
(dp1306
sg82
g1056
sg75
(lp1307
g68
(g89
g70
NtRp1308
(dp1309
g73
(dp1310
g93
g94
ssg82
g1304
sg75
(lp1311
S'http_cache_control'
p1312
asbag68
(g89
g70
NtRp1313
(dp1314
g73
(dp1315
g100
g101
ssg82
g1304
sg75
(lp1316
S':'
asbag68
(g89
g70
NtRp1317
(dp1318
g73
(dp1319
sg82
g1304
sg75
(lp1320
g68
(g69
g70
NtRp1321
(dp1322
g73
(dp1323
g81
I4
ssg82
g1317
sg75
(lp1324
S'max-age=0'
p1325
asbasbasbag68
(g84
g70
NtRp1326
(dp1327
g73
(dp1328
sg82
g1056
sg75
(lp1329
g68
(g89
g70
NtRp1330
(dp1331
g73
(dp1332
g93
g94
ssg82
g1326
sg75
(lp1333
S'http_connection'
p1334
asbag68
(g89
g70
NtRp1335
(dp1336
g73
(dp1337
g100
g101
ssg82
g1326
sg75
(lp1338
S':'
asbag68
(g89
g70
NtRp1339
(dp1340
g73
(dp1341
sg82
g1326
sg75
(lp1342
g68
(g69
g70
NtRp1343
(dp1344
g73
(dp1345
g81
I4
ssg82
g1339
sg75
(lp1346
S'keep-alive'
p1347
asbasbasbag68
(g84
g70
NtRp1348
(dp1349
g73
(dp1350
sg82
g1056
sg75
(lp1351
g68
(g89
g70
NtRp1352
(dp1353
g73
(dp1354
g93
g94
ssg82
g1348
sg75
(lp1355
S'http_cookie'
p1356
asbag68
(g89
g70
NtRp1357
(dp1358
g73
(dp1359
g100
g101
ssg82
g1348
sg75
(lp1360
S':'
asbag68
(g89
g70
NtRp1361
(dp1362
g73
(dp1363
sg82
g1348
sg75
(lp1364
g68
(g69
g70
NtRp1365
(dp1366
g73
(dp1367
g81
I4
ssg82
g1361
sg75
(lp1368
S'session_id_demo=127.0.0.1-25708396-7470-407a-8d38-08ed3cbb5ed9; session_id_dev_bootstrap=127.0.0.1-4e736276-fb30-4d0d-9bbc-59a206f1e27c; session_id_admin=127.0.0.1-b7350e97-8084-4a01-827d-4833179b30ac; session_id_dev_bootstrap_ch=127.0.0.1-270b038b-df00-4d5c-949a-e87692880510'
p1369
asbasbasbag68
(g84
g70
NtRp1370
(dp1371
g73
(dp1372
sg82
g1056
sg75
(lp1373
g68
(g89
g70
NtRp1374
(dp1375
g73
(dp1376
g93
g94
ssg82
g1370
sg75
(lp1377
S'http_host'
p1378
asbag68
(g89
g70
NtRp1379
(dp1380
g73
(dp1381
g100
g101
ssg82
g1370
sg75
(lp1382
S':'
asbag68
(g89
g70
NtRp1383
(dp1384
g73
(dp1385
sg82
g1370
sg75
(lp1386
g68
(g69
g70
NtRp1387
(dp1388
g73
(dp1389
g81
I4
ssg82
g1383
sg75
(lp1390
S'127.0.0.1:8000'
p1391
asbasbasbag68
(g84
g70
NtRp1392
(dp1393
g73
(dp1394
sg82
g1056
sg75
(lp1395
g68
(g89
g70
NtRp1396
(dp1397
g73
(dp1398
g93
g94
ssg82
g1392
sg75
(lp1399
S'http_referer'
p1400
asbag68
(g89
g70
NtRp1401
(dp1402
g73
(dp1403
g100
g101
ssg82
g1392
sg75
(lp1404
S':'
asbag68
(g89
g70
NtRp1405
(dp1406
g73
(dp1407
sg82
g1392
sg75
(lp1408
g68
(g69
g70
NtRp1409
(dp1410
g73
(dp1411
g81
I4
ssg82
g1405
sg75
(lp1412
S'http://127.0.0.1:8000/DEV_bootstrap_ch/default/edit_project/1'
p1413
asbasbasbag68
(g84
g70
NtRp1414
(dp1415
g73
(dp1416
sg82
g1056
sg75
(lp1417
g68
(g89
g70
NtRp1418
(dp1419
g73
(dp1420
g93
g94
ssg82
g1414
sg75
(lp1421
S'http_user_agent'
p1422
asbag68
(g89
g70
NtRp1423
(dp1424
g73
(dp1425
g100
g101
ssg82
g1414
sg75
(lp1426
S':'
asbag68
(g89
g70
NtRp1427
(dp1428
g73
(dp1429
sg82
g1414
sg75
(lp1430
g68
(g69
g70
NtRp1431
(dp1432
g73
(dp1433
g81
I4
ssg82
g1427
sg75
(lp1434
S'Mozilla/5.0 (X11; Linux i686) AppleWebKit/537.11 (KHTML, like Gecko) Chrome/23.0.1271.64 Safari/537.11'
p1435
asbasbasbag68
(g84
g70
NtRp1436
(dp1437
g73
(dp1438
sg82
g1056
sg75
(lp1439
g68
(g89
g70
NtRp1440
(dp1441
g73
(dp1442
g93
g94
ssg82
g1436
sg75
(lp1443
S'is_jython'
p1444
asbag68
(g89
g70
NtRp1445
(dp1446
g73
(dp1447
g100
g101
ssg82
g1436
sg75
(lp1448
S':'
asbag68
(g89
g70
NtRp1449
(dp1450
g73
(dp1451
sg82
g1436
sg75
(lp1452
g68
(g69
g70
NtRp1453
(dp1454
g73
(dp1455
g81
I4
ssg82
g1449
sg75
(lp1456
g111
asbasbasbag68
(g84
g70
NtRp1457
(dp1458
g73
(dp1459
sg82
g1056
sg75
(lp1460
g68
(g89
g70
NtRp1461
(dp1462
g73
(dp1463
g93
g94
ssg82
g1457
sg75
(lp1464
S'is_pypy'
p1465
asbag68
(g89
g70
NtRp1466
(dp1467
g73
(dp1468
g100
g101
ssg82
g1457
sg75
(lp1469
S':'
asbag68
(g89
g70
NtRp1470
(dp1471
g73
(dp1472
sg82
g1457
sg75
(lp1473
g68
(g69
g70
NtRp1474
(dp1475
g73
(dp1476
g81
I4
ssg82
g1470
sg75
(lp1477
g111
asbasbasbag68
(g84
g70
NtRp1478
(dp1479
g73
(dp1480
sg82
g1056
sg75
(lp1481
g68
(g89
g70
NtRp1482
(dp1483
g73
(dp1484
g93
g94
ssg82
g1478
sg75
(lp1485
S'local_hosts'
p1486
asbag68
(g89
g70
NtRp1487
(dp1488
g73
(dp1489
g100
g101
ssg82
g1478
sg75
(lp1490
S':'
asbag68
(g89
g70
NtRp1491
(dp1492
g73
(dp1493
sg82
g1478
sg75
(lp1494
g68
(g69
g70
NtRp1495
(dp1496
g73
(dp1497
g81
I4
ssg82
g1491
sg75
(lp1498
g68
(g77
g70
NtRp1499
(dp1500
g73
(dp1501
g81
I3
ssg82
Nsg75
(lp1502
g68
(g84
g70
NtRp1503
(dp1504
g73
(dp1505
sg82
g1499
sg75
(lp1506
g68
(g89
g70
NtRp1507
(dp1508
g73
(dp1509
sg82
g1503
sg75
(lp1510
g68
(g69
g70
NtRp1511
(dp1512
g73
(dp1513
g81
I3
ssg82
g1507
sg75
(lp1514
S'::1'
p1515
asbasbasbag68
(g84
g70
NtRp1516
(dp1517
g73
(dp1518
sg82
g1499
sg75
(lp1519
g68
(g89
g70
NtRp1520
(dp1521
g73
(dp1522
sg82
g1516
sg75
(lp1523
g68
(g69
g70
NtRp1524
(dp1525
g73
(dp1526
g81
I3
ssg82
g1520
sg75
(lp1527
S'127.0.1.1'
p1528
asbasbasbag68
(g84
g70
NtRp1529
(dp1530
g73
(dp1531
sg82
g1499
sg75
(lp1532
g68
(g89
g70
NtRp1533
(dp1534
g73
(dp1535
sg82
g1529
sg75
(lp1536
g68
(g69
g70
NtRp1537
(dp1538
g73
(dp1539
g81
I3
ssg82
g1533
sg75
(lp1540
S'::ffff:127.0.0.1'
p1541
asbasbasbag68
(g84
g70
NtRp1542
(dp1543
g73
(dp1544
sg82
g1499
sg75
(lp1545
g68
(g89
g70
NtRp1546
(dp1547
g73
(dp1548
sg82
g1542
sg75
(lp1549
g68
(g69
g70
NtRp1550
(dp1551
g73
(dp1552
g81
I3
ssg82
g1546
sg75
(lp1553
S'127.0.0.1'
p1554
asbasbasbag68
(g84
g70
NtRp1555
(dp1556
g73
(dp1557
sg82
g1499
sg75
(lp1558
g68
(g89
g70
NtRp1559
(dp1560
g73
(dp1561
sg82
g1555
sg75
(lp1562
g68
(g69
g70
NtRp1563
(dp1564
g73
(dp1565
g81
I3
ssg82
g1559
sg75
(lp1566
S'anil-Inspiron-1525'
p1567
asbasbasbasbasbasbasbag68
(g84
g70
NtRp1568
(dp1569
g73
(dp1570
sg82
g1056
sg75
(lp1571
g68
(g89
g70
NtRp1572
(dp1573
g73
(dp1574
g93
g94
ssg82
g1568
sg75
(lp1575
S'path_info'
p1576
asbag68
(g89
g70
NtRp1577
(dp1578
g73
(dp1579
g100
g101
ssg82
g1568
sg75
(lp1580
S':'
asbag68
(g89
g70
NtRp1581
(dp1582
g73
(dp1583
sg82
g1568
sg75
(lp1584
g68
(g69
g70
NtRp1585
(dp1586
g73
(dp1587
g81
I4
ssg82
g1581
sg75
(lp1588
S'/DEV_bootstrap_ch/default/project_viewer/1'
p1589
asbasbasbag68
(g84
g70
NtRp1590
(dp1591
g73
(dp1592
sg82
g1056
sg75
(lp1593
g68
(g89
g70
NtRp1594
(dp1595
g73
(dp1596
g93
g94
ssg82
g1590
sg75
(lp1597
S'query_string'
p1598
asbag68
(g89
g70
NtRp1599
(dp1600
g73
(dp1601
g100
g101
ssg82
g1590
sg75
(lp1602
S':'
asbag68
(g89
g70
NtRp1603
(dp1604
g73
(dp1605
sg82
g1590
sg75
(lp1606
g68
(g69
g70
NtRp1607
(dp1608
g73
(dp1609
g81
I4
ssg82
g1603
sg75
(lp1610
S''
asbasbasbag68
(g84
g70
NtRp1611
(dp1612
g73
(dp1613
sg82
g1056
sg75
(lp1614
g68
(g89
g70
NtRp1615
(dp1616
g73
(dp1617
g93
g94
ssg82
g1611
sg75
(lp1618
S'remote_addr'
p1619
asbag68
(g89
g70
NtRp1620
(dp1621
g73
(dp1622
g100
g101
ssg82
g1611
sg75
(lp1623
S':'
asbag68
(g89
g70
NtRp1624
(dp1625
g73
(dp1626
sg82
g1611
sg75
(lp1627
g68
(g69
g70
NtRp1628
(dp1629
g73
(dp1630
g81
I4
ssg82
g1624
sg75
(lp1631
g235
asbasbasbag68
(g84
g70
NtRp1632
(dp1633
g73
(dp1634
sg82
g1056
sg75
(lp1635
g68
(g89
g70
NtRp1636
(dp1637
g73
(dp1638
g93
g94
ssg82
g1632
sg75
(lp1639
S'remote_port'
p1640
asbag68
(g89
g70
NtRp1641
(dp1642
g73
(dp1643
g100
g101
ssg82
g1632
sg75
(lp1644
S':'
asbag68
(g89
g70
NtRp1645
(dp1646
g73
(dp1647
sg82
g1632
sg75
(lp1648
g68
(g69
g70
NtRp1649
(dp1650
g73
(dp1651
g81
I4
ssg82
g1645
sg75
(lp1652
S'34659'
p1653
asbasbasbag68
(g84
g70
NtRp1654
(dp1655
g73
(dp1656
sg82
g1056
sg75
(lp1657
g68
(g89
g70
NtRp1658
(dp1659
g73
(dp1660
g93
g94
ssg82
g1654
sg75
(lp1661
S'request_method'
p1662
asbag68
(g89
g70
NtRp1663
(dp1664
g73
(dp1665
g100
g101
ssg82
g1654
sg75
(lp1666
S':'
asbag68
(g89
g70
NtRp1667
(dp1668
g73
(dp1669
sg82
g1654
sg75
(lp1670
g68
(g69
g70
NtRp1671
(dp1672
g73
(dp1673
g81
I4
ssg82
g1667
sg75
(lp1674
S'GET'
p1675
asbasbasbag68
(g84
g70
NtRp1676
(dp1677
g73
(dp1678
sg82
g1056
sg75
(lp1679
g68
(g89
g70
NtRp1680
(dp1681
g73
(dp1682
g93
g94
ssg82
g1676
sg75
(lp1683
S'request_uri'
p1684
asbag68
(g89
g70
NtRp1685
(dp1686
g73
(dp1687
g100
g101
ssg82
g1676
sg75
(lp1688
S':'
asbag68
(g89
g70
NtRp1689
(dp1690
g73
(dp1691
sg82
g1676
sg75
(lp1692
g68
(g69
g70
NtRp1693
(dp1694
g73
(dp1695
g81
I4
ssg82
g1689
sg75
(lp1696
g1589
asbasbasbag68
(g84
g70
NtRp1697
(dp1698
g73
(dp1699
sg82
g1056
sg75
(lp1700
g68
(g89
g70
NtRp1701
(dp1702
g73
(dp1703
g93
g94
ssg82
g1697
sg75
(lp1704
S'script_name'
p1705
asbag68
(g89
g70
NtRp1706
(dp1707
g73
(dp1708
g100
g101
ssg82
g1697
sg75
(lp1709
S':'
asbag68
(g89
g70
NtRp1710
(dp1711
g73
(dp1712
sg82
g1697
sg75
(lp1713
g68
(g69
g70
NtRp1714
(dp1715
g73
(dp1716
g81
I4
ssg82
g1710
sg75
(lp1717
S''
asbasbasbag68
(g84
g70
NtRp1718
(dp1719
g73
(dp1720
sg82
g1056
sg75
(lp1721
g68
(g89
g70
NtRp1722
(dp1723
g73
(dp1724
g93
g94
ssg82
g1718
sg75
(lp1725
S'server_name'
p1726
asbag68
(g89
g70
NtRp1727
(dp1728
g73
(dp1729
g100
g101
ssg82
g1718
sg75
(lp1730
S':'
asbag68
(g89
g70
NtRp1731
(dp1732
g73
(dp1733
sg82
g1718
sg75
(lp1734
g68
(g69
g70
NtRp1735
(dp1736
g73
(dp1737
g81
I4
ssg82
g1731
sg75
(lp1738
S'anil-Inspiron-1525'
p1739
asbasbasbag68
(g84
g70
NtRp1740
(dp1741
g73
(dp1742
sg82
g1056
sg75
(lp1743
g68
(g89
g70
NtRp1744
(dp1745
g73
(dp1746
g93
g94
ssg82
g1740
sg75
(lp1747
S'server_port'
p1748
asbag68
(g89
g70
NtRp1749
(dp1750
g73
(dp1751
g100
g101
ssg82
g1740
sg75
(lp1752
S':'
asbag68
(g89
g70
NtRp1753
(dp1754
g73
(dp1755
sg82
g1740
sg75
(lp1756
g68
(g69
g70
NtRp1757
(dp1758
g73
(dp1759
g81
I4
ssg82
g1753
sg75
(lp1760
S'8000'
p1761
asbasbasbag68
(g84
g70
NtRp1762
(dp1763
g73
(dp1764
sg82
g1056
sg75
(lp1765
g68
(g89
g70
NtRp1766
(dp1767
g73
(dp1768
g93
g94
ssg82
g1762
sg75
(lp1769
S'server_protocol'
p1770
asbag68
(g89
g70
NtRp1771
(dp1772
g73
(dp1773
g100
g101
ssg82
g1762
sg75
(lp1774
S':'
asbag68
(g89
g70
NtRp1775
(dp1776
g73
(dp1777
sg82
g1762
sg75
(lp1778
g68
(g69
g70
NtRp1779
(dp1780
g73
(dp1781
g81
I4
ssg82
g1775
sg75
(lp1782
S'HTTP/1.1'
p1783
asbasbasbag68
(g84
g70
NtRp1784
(dp1785
g73
(dp1786
sg82
g1056
sg75
(lp1787
g68
(g89
g70
NtRp1788
(dp1789
g73
(dp1790
g93
g94
ssg82
g1784
sg75
(lp1791
S'server_software'
p1792
asbag68
(g89
g70
NtRp1793
(dp1794
g73
(dp1795
g100
g101
ssg82
g1784
sg75
(lp1796
S':'
asbag68
(g89
g70
NtRp1797
(dp1798
g73
(dp1799
sg82
g1784
sg75
(lp1800
g68
(g69
g70
NtRp1801
(dp1802
g73
(dp1803
g81
I4
ssg82
g1797
sg75
(lp1804
S'Rocket 1.2.6'
p1805
asbasbasbag68
(g84
g70
NtRp1806
(dp1807
g73
(dp1808
sg82
g1056
sg75
(lp1809
g68
(g89
g70
NtRp1810
(dp1811
g73
(dp1812
g93
g94
ssg82
g1806
sg75
(lp1813
S'web2py_path'
p1814
asbag68
(g89
g70
NtRp1815
(dp1816
g73
(dp1817
g100
g101
ssg82
g1806
sg75
(lp1818
S':'
asbag68
(g89
g70
NtRp1819
(dp1820
g73
(dp1821
sg82
g1806
sg75
(lp1822
g68
(g69
g70
NtRp1823
(dp1824
g73
(dp1825
g81
I4
ssg82
g1819
sg75
(lp1826
g1103
asbasbasbag68
(g84
g70
NtRp1827
(dp1828
g73
(dp1829
sg82
g1056
sg75
(lp1830
g68
(g89
g70
NtRp1831
(dp1832
g73
(dp1833
g93
g94
ssg82
g1827
sg75
(lp1834
S'web2py_version'
p1835
asbag68
(g89
g70
NtRp1836
(dp1837
g73
(dp1838
g100
g101
ssg82
g1827
sg75
(lp1839
S':'
asbag68
(g89
g70
NtRp1840
(dp1841
g73
(dp1842
sg82
g1827
sg75
(lp1843
g68
(g69
g70
NtRp1844
(dp1845
g73
(dp1846
g81
I4
ssg82
g1840
sg75
(lp1847
g68
(g77
g70
NtRp1848
(dp1849
g73
(dp1850
g81
I3
ssg82
Nsg75
(lp1851
g68
(g84
g70
NtRp1852
(dp1853
g73
(dp1854
sg82
g1848
sg75
(lp1855
g68
(g89
g70
NtRp1856
(dp1857
g73
(dp1858
sg82
g1852
sg75
(lp1859
g68
(g69
g70
NtRp1860
(dp1861
g73
(dp1862
g81
I3
ssg82
g1856
sg75
(lp1863
S'2'
asbasbasbag68
(g84
g70
NtRp1864
(dp1865
g73
(dp1866
sg82
g1848
sg75
(lp1867
g68
(g89
g70
NtRp1868
(dp1869
g73
(dp1870
sg82
g1864
sg75
(lp1871
g68
(g69
g70
NtRp1872
(dp1873
g73
(dp1874
g81
I3
ssg82
g1868
sg75
(lp1875
S'3'
asbasbasbag68
(g84
g70
NtRp1876
(dp1877
g73
(dp1878
sg82
g1848
sg75
(lp1879
g68
(g89
g70
NtRp1880
(dp1881
g73
(dp1882
sg82
g1876
sg75
(lp1883
g68
(g69
g70
NtRp1884
(dp1885
g73
(dp1886
g81
I3
ssg82
g1880
sg75
(lp1887
S'2'
asbasbasbag68
(g84
g70
NtRp1888
(dp1889
g73
(dp1890
sg82
g1848
sg75
(lp1891
g68
(g89
g70
NtRp1892
(dp1893
g73
(dp1894
sg82
g1888
sg75
(lp1895
g68
(g69
g70
NtRp1896
(dp1897
g73
(dp1898
g81
I3
ssg82
g1892
sg75
(lp1899
S'datetime.datetime(2012, 12, 17, 15, 3, 30)'
p1900
asbasbasbag68
(g84
g70
NtRp1901
(dp1902
g73
(dp1903
sg82
g1848
sg75
(lp1904
g68
(g89
g70
NtRp1905
(dp1906
g73
(dp1907
sg82
g1901
sg75
(lp1908
g68
(g69
g70
NtRp1909
(dp1910
g73
(dp1911
g81
I3
ssg82
g1905
sg75
(lp1912
S'stable'
p1913
asbasbasbasbasbasbasbag68
(g84
g70
NtRp1914
(dp1915
g73
(dp1916
sg82
g1056
sg75
(lp1917
g68
(g89
g70
NtRp1918
(dp1919
g73
(dp1920
g93
g94
ssg82
g1914
sg75
(lp1921
S'wsgi_errors'
p1922
asbag68
(g89
g70
NtRp1923
(dp1924
g73
(dp1925
g100
g101
ssg82
g1914
sg75
(lp1926
S':'
asbag68
(g89
g70
NtRp1927
(dp1928
g73
(dp1929
sg82
g1914
sg75
(lp1930
g68
(g69
g70
NtRp1931
(dp1932
g73
(dp1933
g81
I4
ssg82
g1927
sg75
(lp1934
S"<open file '<stderr>', mode 'w' at 0xb72f00d0>"
p1935
asbasbasbag68
(g84
g70
NtRp1936
(dp1937
g73
(dp1938
sg82
g1056
sg75
(lp1939
g68
(g89
g70
NtRp1940
(dp1941
g73
(dp1942
g93
g94
ssg82
g1936
sg75
(lp1943
S'wsgi_file_wrapper'
p1944
asbag68
(g89
g70
NtRp1945
(dp1946
g73
(dp1947
g100
g101
ssg82
g1936
sg75
(lp1948
S':'
asbag68
(g89
g70
NtRp1949
(dp1950
g73
(dp1951
sg82
g1936
sg75
(lp1952
g68
(g69
g70
NtRp1953
(dp1954
g73
(dp1955
g81
I4
ssg82
g1949
sg75
(lp1956
S'<class wsgiref.util.FileWrapper at 0x8fafb9c>'
p1957
asbasbasbag68
(g84
g70
NtRp1958
(dp1959
g73
(dp1960
sg82
g1056
sg75
(lp1961
g68
(g89
g70
NtRp1962
(dp1963
g73
(dp1964
g93
g94
ssg82
g1958
sg75
(lp1965
S'wsgi_input'
p1966
asbag68
(g89
g70
NtRp1967
(dp1968
g73
(dp1969
g100
g101
ssg82
g1958
sg75
(lp1970
S':'
asbag68
(g89
g70
NtRp1971
(dp1972
g73
(dp1973
sg82
g1958
sg75
(lp1974
g68
(g69
g70
NtRp1975
(dp1976
g73
(dp1977
g81
I4
ssg82
g1971
sg75
(lp1978
S'<socket._fileobject object at 0xad951f2c>'
p1979
asbasbasbag68
(g84
g70
NtRp1980
(dp1981
g73
(dp1982
sg82
g1056
sg75
(lp1983
g68
(g89
g70
NtRp1984
(dp1985
g73
(dp1986
g93
g94
ssg82
g1980
sg75
(lp1987
S'wsgi_multiprocess'
p1988
asbag68
(g89
g70
NtRp1989
(dp1990
g73
(dp1991
g100
g101
ssg82
g1980
sg75
(lp1992
S':'
asbag68
(g89
g70
NtRp1993
(dp1994
g73
(dp1995
sg82
g1980
sg75
(lp1996
g68
(g69
g70
NtRp1997
(dp1998
g73
(dp1999
g81
I4
ssg82
g1993
sg75
(lp2000
g111
asbasbasbag68
(g84
g70
NtRp2001
(dp2002
g73
(dp2003
sg82
g1056
sg75
(lp2004
g68
(g89
g70
NtRp2005
(dp2006
g73
(dp2007
g93
g94
ssg82
g2001
sg75
(lp2008
S'wsgi_multithread'
p2009
asbag68
(g89
g70
NtRp2010
(dp2011
g73
(dp2012
g100
g101
ssg82
g2001
sg75
(lp2013
S':'
asbag68
(g89
g70
NtRp2014
(dp2015
g73
(dp2016
sg82
g2001
sg75
(lp2017
g68
(g69
g70
NtRp2018
(dp2019
g73
(dp2020
g81
I4
ssg82
g2014
sg75
(lp2021
S'True'
p2022
asbasbasbag68
(g84
g70
NtRp2023
(dp2024
g73
(dp2025
sg82
g1056
sg75
(lp2026
g68
(g89
g70
NtRp2027
(dp2028
g73
(dp2029
g93
g94
ssg82
g2023
sg75
(lp2030
S'wsgi_run_once'
p2031
asbag68
(g89
g70
NtRp2032
(dp2033
g73
(dp2034
g100
g101
ssg82
g2023
sg75
(lp2035
S':'
asbag68
(g89
g70
NtRp2036
(dp2037
g73
(dp2038
sg82
g2023
sg75
(lp2039
g68
(g69
g70
NtRp2040
(dp2041
g73
(dp2042
g81
I4
ssg82
g2036
sg75
(lp2043
g111
asbasbasbag68
(g84
g70
NtRp2044
(dp2045
g73
(dp2046
sg82
g1056
sg75
(lp2047
g68
(g89
g70
NtRp2048
(dp2049
g73
(dp2050
g93
g94
ssg82
g2044
sg75
(lp2051
S'wsgi_url_scheme'
p2052
asbag68
(g89
g70
NtRp2053
(dp2054
g73
(dp2055
g100
g101
ssg82
g2044
sg75
(lp2056
S':'
asbag68
(g89
g70
NtRp2057
(dp2058
g73
(dp2059
sg82
g2044
sg75
(lp2060
g68
(g69
g70
NtRp2061
(dp2062
g73
(dp2063
g81
I4
ssg82
g2057
sg75
(lp2064
S'http'
p2065
asbasbasbag68
(g84
g70
NtRp2066
(dp2067
g73
(dp2068
sg82
g1056
sg75
(lp2069
g68
(g89
g70
NtRp2070
(dp2071
g73
(dp2072
g93
g94
ssg82
g2066
sg75
(lp2073
S'wsgi_version'
p2074
asbag68
(g89
g70
NtRp2075
(dp2076
g73
(dp2077
g100
g101
ssg82
g2066
sg75
(lp2078
S':'
asbag68
(g89
g70
NtRp2079
(dp2080
g73
(dp2081
sg82
g2066
sg75
(lp2082
g68
(g69
g70
NtRp2083
(dp2084
g73
(dp2085
g81
I4
ssg82
g2079
sg75
(lp2086
g68
(g77
g70
NtRp2087
(dp2088
g73
(dp2089
g81
I3
ssg82
Nsg75
(lp2090
g68
(g84
g70
NtRp2091
(dp2092
g73
(dp2093
sg82
g2087
sg75
(lp2094
g68
(g89
g70
NtRp2095
(dp2096
g73
(dp2097
sg82
g2091
sg75
(lp2098
g68
(g69
g70
NtRp2099
(dp2100
g73
(dp2101
g81
I3
ssg82
g2095
sg75
(lp2102
S'1'
asbasbasbag68
(g84
g70
NtRp2103
(dp2104
g73
(dp2105
sg82
g2087
sg75
(lp2106
g68
(g89
g70
NtRp2107
(dp2108
g73
(dp2109
sg82
g2103
sg75
(lp2110
g68
(g69
g70
NtRp2111
(dp2112
g73
(dp2113
g81
I3
ssg82
g2107
sg75
(lp2114
S'0'
asbasbasbasbasbasbasbasbasbasbasbag68
(g84
g70
NtRp2115
(dp2116
g73
(dp2117
sg82
g78
sg75
(lp2118
g68
(g89
g70
NtRp2119
(dp2120
g73
(dp2121
g93
g94
ssg82
g2115
sg75
(lp2122
S'extension'
p2123
asbag68
(g89
g70
NtRp2124
(dp2125
g73
(dp2126
g100
g101
ssg82
g2115
sg75
(lp2127
S':'
asbag68
(g89
g70
NtRp2128
(dp2129
g73
(dp2130
sg82
g2115
sg75
(lp2131
g68
(g69
g70
NtRp2132
(dp2133
g73
(dp2134
g81
I5
ssg82
g2128
sg75
(lp2135
S'html'
p2136
asbasbasbag68
(g84
g70
NtRp2137
(dp2138
g73
(dp2139
sg82
g78
sg75
(lp2140
g68
(g89
g70
NtRp2141
(dp2142
g73
(dp2143
g93
g94
ssg82
g2137
sg75
(lp2144
S'folder'
p2145
asbag68
(g89
g70
NtRp2146
(dp2147
g73
(dp2148
g100
g101
ssg82
g2137
sg75
(lp2149
S':'
asbag68
(g89
g70
NtRp2150
(dp2151
g73
(dp2152
sg82
g2137
sg75
(lp2153
g68
(g69
g70
NtRp2154
(dp2155
g73
(dp2156
g81
I5
ssg82
g2150
sg75
(lp2157
S'/home/anil/bootstrap/web2py/applications/DEV_bootstrap_ch/'
p2158
asbasbasbag68
(g84
g70
NtRp2159
(dp2160
g73
(dp2161
sg82
g78
sg75
(lp2162
g68
(g89
g70
NtRp2163
(dp2164
g73
(dp2165
g93
g94
ssg82
g2159
sg75
(lp2166
S'function'
p2167
asbag68
(g89
g70
NtRp2168
(dp2169
g73
(dp2170
g100
g101
ssg82
g2159
sg75
(lp2171
S':'
asbag68
(g89
g70
NtRp2172
(dp2173
g73
(dp2174
sg82
g2159
sg75
(lp2175
g68
(g69
g70
NtRp2176
(dp2177
g73
(dp2178
g81
I5
ssg82
g2172
sg75
(lp2179
S'project_viewer'
p2180
asbasbasbag68
(g84
g70
NtRp2181
(dp2182
g73
(dp2183
sg82
g78
sg75
(lp2184
g68
(g89
g70
NtRp2185
(dp2186
g73
(dp2187
g93
g94
ssg82
g2181
sg75
(lp2188
S'get_vars'
p2189
asbag68
(g89
g70
NtRp2190
(dp2191
g73
(dp2192
g100
g101
ssg82
g2181
sg75
(lp2193
S':'
asbag68
(g89
g70
NtRp2194
(dp2195
g73
(dp2196
sg82
g2181
sg75
(lp2197
g68
(g69
g70
NtRp2198
(dp2199
g73
(dp2200
g81
I5
ssg82
g2194
sg75
(lp2201
g68
(g77
g70
NtRp2202
(dp2203
g73
(dp2204
g81
I4
ssg82
Nsg75
(lp2205
sbasbasbasbag68
(g84
g70
NtRp2206
(dp2207
g73
(dp2208
sg82
g78
sg75
(lp2209
g68
(g89
g70
NtRp2210
(dp2211
g73
(dp2212
g93
g94
ssg82
g2206
sg75
(lp2213
S'global_settings'
p2214
asbag68
(g89
g70
NtRp2215
(dp2216
g73
(dp2217
g100
g101
ssg82
g2206
sg75
(lp2218
S':'
asbag68
(g89
g70
NtRp2219
(dp2220
g73
(dp2221
sg82
g2206
sg75
(lp2222
g68
(g69
g70
NtRp2223
(dp2224
g73
(dp2225
g81
I5
ssg82
g2219
sg75
(lp2226
g68
(g77
g70
NtRp2227
(dp2228
g73
(dp2229
g81
I4
ssg82
Nsg75
(lp2230
g68
(g84
g70
NtRp2231
(dp2232
g73
(dp2233
sg82
g2227
sg75
(lp2234
g68
(g89
g70
NtRp2235
(dp2236
g73
(dp2237
g93
g94
ssg82
g2231
sg75
(lp2238
g1068
asbag68
(g89
g70
NtRp2239
(dp2240
g73
(dp2241
g100
g101
ssg82
g2231
sg75
(lp2242
S':'
asbag68
(g89
g70
NtRp2243
(dp2244
g73
(dp2245
sg82
g2231
sg75
(lp2246
g68
(g69
g70
NtRp2247
(dp2248
g73
(dp2249
g81
I4
ssg82
g2243
sg75
(lp2250
S"set(['/home/anil/bootstrap/web2py/applications/DEV_bootstrap_ch/'])"
p2251
asbasbasbag68
(g84
g70
NtRp2252
(dp2253
g73
(dp2254
sg82
g2227
sg75
(lp2255
g68
(g89
g70
NtRp2256
(dp2257
g73
(dp2258
g93
g94
ssg82
g2252
sg75
(lp2259
g1090
asbag68
(g89
g70
NtRp2260
(dp2261
g73
(dp2262
g100
g101
ssg82
g2252
sg75
(lp2263
S':'
asbag68
(g89
g70
NtRp2264
(dp2265
g73
(dp2266
sg82
g2252
sg75
(lp2267
g68
(g69
g70
NtRp2268
(dp2269
g73
(dp2270
g81
I4
ssg82
g2264
sg75
(lp2271
g1103
asbasbasbag68
(g84
g70
NtRp2272
(dp2273
g73
(dp2274
sg82
g2227
sg75
(lp2275
g68
(g89
g70
NtRp2276
(dp2277
g73
(dp2278
g93
g94
ssg82
g2272
sg75
(lp2279
g1112
asbag68
(g89
g70
NtRp2280
(dp2281
g73
(dp2282
g100
g101
ssg82
g2272
sg75
(lp2283
S':'
asbag68
(g89
g70
NtRp2284
(dp2285
g73
(dp2286
sg82
g2272
sg75
(lp2287
g68
(g69
g70
NtRp2288
(dp2289
g73
(dp2290
g81
I4
ssg82
g2284
sg75
(lp2291
g68
(g77
g70
NtRp2292
(dp2293
g73
(dp2294
g81
I3
ssg82
Nsg75
(lp2295
sbasbasbasbag68
(g84
g70
NtRp2296
(dp2297
g73
(dp2298
sg82
g2227
sg75
(lp2299
g68
(g89
g70
NtRp2300
(dp2301
g73
(dp2302
g93
g94
ssg82
g2296
sg75
(lp2303
g1137
asbag68
(g89
g70
NtRp2304
(dp2305
g73
(dp2306
g100
g101
ssg82
g2296
sg75
(lp2307
S':'
asbag68
(g89
g70
NtRp2308
(dp2309
g73
(dp2310
sg82
g2296
sg75
(lp2311
g68
(g69
g70
NtRp2312
(dp2313
g73
(dp2314
g81
I4
ssg82
g2308
sg75
(lp2315
S"<Values at 0x9026c6c: {'verbose': False, 'ip': '127.0.0.1', 'with_scheduler': False, 'ips': [], 'shutdown_timeout': 5, 'taskbar': False, 'port': 8000, 'maxthreads': None, 'softcron': False, 'server_name': 'anil-Inspiron-1525', 'bpython': False, 'nogui': False, 'pid_filename': 'httpserver.pid', 'extcron': False, 'runcron': False, 'run_system_tests': False, 'test': None, 'folder': '/home/anil/bootstrap/web2py', 'config': '', 'import_models': False, 'winservice': '', 'shell': None, 'run': '', 'log_filename': 'httpserver.log', 'debuglevel': 30, 'args': [''], 'socket_timeout': 5, 'ssl_ca_certificate': None, 'scheduler': None, 'profiler_filename': None, 'ssl_private_key': '', 'scheduler_groups': None, 'password': '123', 'request_queue_size': 5, 'ssl_certificate': '', 'cronjob': False, 'numthreads': None, 'quiet': False, 'interfaces': None, 'minthreads': None, 'timeout': 10, 'plain': False, 'nobanner': False}>"
p2316
asbasbasbag68
(g84
g70
NtRp2317
(dp2318
g73
(dp2319
sg82
g2227
sg75
(lp2320
g68
(g89
g70
NtRp2321
(dp2322
g73
(dp2323
g93
g94
ssg82
g2317
sg75
(lp2324
g1159
asbag68
(g89
g70
NtRp2325
(dp2326
g73
(dp2327
g100
g101
ssg82
g2317
sg75
(lp2328
S':'
asbag68
(g89
g70
NtRp2329
(dp2330
g73
(dp2331
sg82
g2317
sg75
(lp2332
g68
(g69
g70
NtRp2333
(dp2334
g73
(dp2335
g81
I4
ssg82
g2329
sg75
(lp2336
S'set([])'
p2337
asbasbasbag68
(g84
g70
NtRp2338
(dp2339
g73
(dp2340
sg82
g2227
sg75
(lp2341
g68
(g89
g70
NtRp2342
(dp2343
g73
(dp2344
g93
g94
ssg82
g2338
sg75
(lp2345
g1181
asbag68
(g89
g70
NtRp2346
(dp2347
g73
(dp2348
g100
g101
ssg82
g2338
sg75
(lp2349
S':'
asbag68
(g89
g70
NtRp2350
(dp2351
g73
(dp2352
sg82
g2338
sg75
(lp2353
g68
(g69
g70
NtRp2354
(dp2355
g73
(dp2356
g81
I4
ssg82
g2350
sg75
(lp2357
g111
asbasbasbag68
(g84
g70
NtRp2358
(dp2359
g73
(dp2360
sg82
g2227
sg75
(lp2361
g68
(g89
g70
NtRp2362
(dp2363
g73
(dp2364
g93
g94
ssg82
g2358
sg75
(lp2365
g1202
asbag68
(g89
g70
NtRp2366
(dp2367
g73
(dp2368
g100
g101
ssg82
g2358
sg75
(lp2369
S':'
asbag68
(g89
g70
NtRp2370
(dp2371
g73
(dp2372
sg82
g2358
sg75
(lp2373
g68
(g69
g70
NtRp2374
(dp2375
g73
(dp2376
g81
I4
ssg82
g2370
sg75
(lp2377
g1215
asbasbasbag68
(g84
g70
NtRp2378
(dp2379
g73
(dp2380
sg82
g2227
sg75
(lp2381
g68
(g89
g70
NtRp2382
(dp2383
g73
(dp2384
g93
g94
ssg82
g2378
sg75
(lp2385
g1444
asbag68
(g89
g70
NtRp2386
(dp2387
g73
(dp2388
g100
g101
ssg82
g2378
sg75
(lp2389
S':'
asbag68
(g89
g70
NtRp2390
(dp2391
g73
(dp2392
sg82
g2378
sg75
(lp2393
g68
(g69
g70
NtRp2394
(dp2395
g73
(dp2396
g81
I4
ssg82
g2390
sg75
(lp2397
g111
asbasbasbag68
(g84
g70
NtRp2398
(dp2399
g73
(dp2400
sg82
g2227
sg75
(lp2401
g68
(g89
g70
NtRp2402
(dp2403
g73
(dp2404
g93
g94
ssg82
g2398
sg75
(lp2405
g1465
asbag68
(g89
g70
NtRp2406
(dp2407
g73
(dp2408
g100
g101
ssg82
g2398
sg75
(lp2409
S':'
asbag68
(g89
g70
NtRp2410
(dp2411
g73
(dp2412
sg82
g2398
sg75
(lp2413
g68
(g69
g70
NtRp2414
(dp2415
g73
(dp2416
g81
I4
ssg82
g2410
sg75
(lp2417
g111
asbasbasbag68
(g84
g70
NtRp2418
(dp2419
g73
(dp2420
sg82
g2227
sg75
(lp2421
g68
(g89
g70
NtRp2422
(dp2423
g73
(dp2424
g93
g94
ssg82
g2418
sg75
(lp2425
g1486
asbag68
(g89
g70
NtRp2426
(dp2427
g73
(dp2428
g100
g101
ssg82
g2418
sg75
(lp2429
S':'
asbag68
(g89
g70
NtRp2430
(dp2431
g73
(dp2432
sg82
g2418
sg75
(lp2433
g68
(g69
g70
NtRp2434
(dp2435
g73
(dp2436
g81
I4
ssg82
g2430
sg75
(lp2437
g68
(g77
g70
NtRp2438
(dp2439
g73
(dp2440
g81
I3
ssg82
Nsg75
(lp2441
g68
(g84
g70
NtRp2442
(dp2443
g73
(dp2444
sg82
g2438
sg75
(lp2445
g68
(g89
g70
NtRp2446
(dp2447
g73
(dp2448
sg82
g2442
sg75
(lp2449
g68
(g69
g70
NtRp2450
(dp2451
g73
(dp2452
g81
I3
ssg82
g2446
sg75
(lp2453
g1515
asbasbasbag68
(g84
g70
NtRp2454
(dp2455
g73
(dp2456
sg82
g2438
sg75
(lp2457
g68
(g89
g70
NtRp2458
(dp2459
g73
(dp2460
sg82
g2454
sg75
(lp2461
g68
(g69
g70
NtRp2462
(dp2463
g73
(dp2464
g81
I3
ssg82
g2458
sg75
(lp2465
g1528
asbasbasbag68
(g84
g70
NtRp2466
(dp2467
g73
(dp2468
sg82
g2438
sg75
(lp2469
g68
(g89
g70
NtRp2470
(dp2471
g73
(dp2472
sg82
g2466
sg75
(lp2473
g68
(g69
g70
NtRp2474
(dp2475
g73
(dp2476
g81
I3
ssg82
g2470
sg75
(lp2477
g1541
asbasbasbag68
(g84
g70
NtRp2478
(dp2479
g73
(dp2480
sg82
g2438
sg75
(lp2481
g68
(g89
g70
NtRp2482
(dp2483
g73
(dp2484
sg82
g2478
sg75
(lp2485
g68
(g69
g70
NtRp2486
(dp2487
g73
(dp2488
g81
I3
ssg82
g2482
sg75
(lp2489
g1554
asbasbasbag68
(g84
g70
NtRp2490
(dp2491
g73
(dp2492
sg82
g2438
sg75
(lp2493
g68
(g89
g70
NtRp2494
(dp2495
g73
(dp2496
sg82
g2490
sg75
(lp2497
g68
(g69
g70
NtRp2498
(dp2499
g73
(dp2500
g81
I3
ssg82
g2494
sg75
(lp2501
g1567
asbasbasbasbasbasbasbag68
(g84
g70
NtRp2502
(dp2503
g73
(dp2504
sg82
g2227
sg75
(lp2505
g68
(g89
g70
NtRp2506
(dp2507
g73
(dp2508
g93
g94
ssg82
g2502
sg75
(lp2509
g1835
asbag68
(g89
g70
NtRp2510
(dp2511
g73
(dp2512
g100
g101
ssg82
g2502
sg75
(lp2513
S':'
asbag68
(g89
g70
NtRp2514
(dp2515
g73
(dp2516
sg82
g2502
sg75
(lp2517
g68
(g69
g70
NtRp2518
(dp2519
g73
(dp2520
g81
I4
ssg82
g2514
sg75
(lp2521
g68
(g77
g70
NtRp2522
(dp2523
g73
(dp2524
g81
I3
ssg82
Nsg75
(lp2525
g68
(g84
g70
NtRp2526
(dp2527
g73
(dp2528
sg82
g2522
sg75
(lp2529
g68
(g89
g70
NtRp2530
(dp2531
g73
(dp2532
sg82
g2526
sg75
(lp2533
g68
(g69
g70
NtRp2534
(dp2535
g73
(dp2536
g81
I3
ssg82
g2530
sg75
(lp2537
S'2'
asbasbasbag68
(g84
g70
NtRp2538
(dp2539
g73
(dp2540
sg82
g2522
sg75
(lp2541
g68
(g89
g70
NtRp2542
(dp2543
g73
(dp2544
sg82
g2538
sg75
(lp2545
g68
(g69
g70
NtRp2546
(dp2547
g73
(dp2548
g81
I3
ssg82
g2542
sg75
(lp2549
S'3'
asbasbasbag68
(g84
g70
NtRp2550
(dp2551
g73
(dp2552
sg82
g2522
sg75
(lp2553
g68
(g89
g70
NtRp2554
(dp2555
g73
(dp2556
sg82
g2550
sg75
(lp2557
g68
(g69
g70
NtRp2558
(dp2559
g73
(dp2560
g81
I3
ssg82
g2554
sg75
(lp2561
S'2'
asbasbasbag68
(g84
g70
NtRp2562
(dp2563
g73
(dp2564
sg82
g2522
sg75
(lp2565
g68
(g89
g70
NtRp2566
(dp2567
g73
(dp2568
sg82
g2562
sg75
(lp2569
g68
(g69
g70
NtRp2570
(dp2571
g73
(dp2572
g81
I3
ssg82
g2566
sg75
(lp2573
S'datetime.datetime(2012, 12, 17, 15, 3, 30)'
p2574
asbasbasbag68
(g84
g70
NtRp2575
(dp2576
g73
(dp2577
sg82
g2522
sg75
(lp2578
g68
(g89
g70
NtRp2579
(dp2580
g73
(dp2581
sg82
g2575
sg75
(lp2582
g68
(g69
g70
NtRp2583
(dp2584
g73
(dp2585
g81
I3
ssg82
g2579
sg75
(lp2586
g1913
asbasbasbasbasbasbasbasbasbasbasbag68
(g84
g70
NtRp2587
(dp2588
g73
(dp2589
sg82
g78
sg75
(lp2590
g68
(g89
g70
NtRp2591
(dp2592
g73
(dp2593
g93
g94
ssg82
g2587
sg75
(lp2594
S'is_https'
p2595
asbag68
(g89
g70
NtRp2596
(dp2597
g73
(dp2598
g100
g101
ssg82
g2587
sg75
(lp2599
S':'
asbag68
(g89
g70
NtRp2600
(dp2601
g73
(dp2602
sg82
g2587
sg75
(lp2603
g68
(g69
g70
NtRp2604
(dp2605
g73
(dp2606
g81
I5
ssg82
g2600
sg75
(lp2607
g111
asbasbasbag68
(g84
g70
NtRp2608
(dp2609
g73
(dp2610
sg82
g78
sg75
(lp2611
g68
(g89
g70
NtRp2612
(dp2613
g73
(dp2614
g93
g94
ssg82
g2608
sg75
(lp2615
S'is_local'
p2616
asbag68
(g89
g70
NtRp2617
(dp2618
g73
(dp2619
g100
g101
ssg82
g2608
sg75
(lp2620
S':'
asbag68
(g89
g70
NtRp2621
(dp2622
g73
(dp2623
sg82
g2608
sg75
(lp2624
g68
(g69
g70
NtRp2625
(dp2626
g73
(dp2627
g81
I5
ssg82
g2621
sg75
(lp2628
g2022
asbasbasbag68
(g84
g70
NtRp2629
(dp2630
g73
(dp2631
sg82
g78
sg75
(lp2632
g68
(g89
g70
NtRp2633
(dp2634
g73
(dp2635
g93
g94
ssg82
g2629
sg75
(lp2636
S'is_restful'
p2637
asbag68
(g89
g70
NtRp2638
(dp2639
g73
(dp2640
g100
g101
ssg82
g2629
sg75
(lp2641
S':'
asbag68
(g89
g70
NtRp2642
(dp2643
g73
(dp2644
sg82
g2629
sg75
(lp2645
g68
(g69
g70
NtRp2646
(dp2647
g73
(dp2648
g81
I5
ssg82
g2642
sg75
(lp2649
g111
asbasbasbag68
(g84
g70
NtRp2650
(dp2651
g73
(dp2652
sg82
g78
sg75
(lp2653
g68
(g89
g70
NtRp2654
(dp2655
g73
(dp2656
g93
g94
ssg82
g2650
sg75
(lp2657
S'now'
p2658
asbag68
(g89
g70
NtRp2659
(dp2660
g73
(dp2661
g100
g101
ssg82
g2650
sg75
(lp2662
S':'
asbag68
(g89
g70
NtRp2663
(dp2664
g73
(dp2665
sg82
g2650
sg75
(lp2666
g68
(g69
g70
NtRp2667
(dp2668
g73
(dp2669
g81
I5
ssg82
g2663
sg75
(lp2670
S'datetime.datetime(2013, 2, 17, 23, 3, 30, 122339)'
p2671
asbasbasbag68
(g84
g70
NtRp2672
(dp2673
g73
(dp2674
sg82
g78
sg75
(lp2675
g68
(g89
g70
NtRp2676
(dp2677
g73
(dp2678
g93
g94
ssg82
g2672
sg75
(lp2679
S'post_vars'
p2680
asbag68
(g89
g70
NtRp2681
(dp2682
g73
(dp2683
g100
g101
ssg82
g2672
sg75
(lp2684
S':'
asbag68
(g89
g70
NtRp2685
(dp2686
g73
(dp2687
sg82
g2672
sg75
(lp2688
g68
(g69
g70
NtRp2689
(dp2690
g73
(dp2691
g81
I5
ssg82
g2685
sg75
(lp2692
g68
(g77
g70
NtRp2693
(dp2694
g73
(dp2695
g81
I4
ssg82
Nsg75
(lp2696
sbasbasbasbag68
(g84
g70
NtRp2697
(dp2698
g73
(dp2699
sg82
g78
sg75
(lp2700
g68
(g89
g70
NtRp2701
(dp2702
g73
(dp2703
g93
g94
ssg82
g2697
sg75
(lp2704
S'raw_args'
p2705
asbag68
(g89
g70
NtRp2706
(dp2707
g73
(dp2708
g100
g101
ssg82
g2697
sg75
(lp2709
S':'
asbag68
(g89
g70
NtRp2710
(dp2711
g73
(dp2712
sg82
g2697
sg75
(lp2713
g68
(g69
g70
NtRp2714
(dp2715
g73
(dp2716
g81
I5
ssg82
g2710
sg75
(lp2717
S'1'
asbasbasbag68
(g84
g70
NtRp2718
(dp2719
g73
(dp2720
sg82
g78
sg75
(lp2721
g68
(g89
g70
NtRp2722
(dp2723
g73
(dp2724
g93
g94
ssg82
g2718
sg75
(lp2725
S'raw_extension'
p2726
asbag68
(g89
g70
NtRp2727
(dp2728
g73
(dp2729
g100
g101
ssg82
g2718
sg75
(lp2730
S':'
asbag68
(g89
g70
NtRp2731
(dp2732
g73
(dp2733
sg82
g2718
sg75
(lp2734
g68
(g69
g70
NtRp2735
(dp2736
g73
(dp2737
g81
I5
ssg82
g2731
sg75
(lp2738
S'None'
p2739
asbasbasbag68
(g84
g70
NtRp2740
(dp2741
g73
(dp2742
sg82
g78
sg75
(lp2743
g68
(g89
g70
NtRp2744
(dp2745
g73
(dp2746
g93
g94
ssg82
g2740
sg75
(lp2747
S'url'
p2748
asbag68
(g89
g70
NtRp2749
(dp2750
g73
(dp2751
g100
g101
ssg82
g2740
sg75
(lp2752
S':'
asbag68
(g89
g70
NtRp2753
(dp2754
g73
(dp2755
sg82
g2740
sg75
(lp2756
g68
(g69
g70
NtRp2757
(dp2758
g73
(dp2759
g81
I5
ssg82
g2753
sg75
(lp2760
g1589
asbasbasbag68
(g84
g70
NtRp2761
(dp2762
g73
(dp2763
sg82
g78
sg75
(lp2764
g68
(g89
g70
NtRp2765
(dp2766
g73
(dp2767
g93
g94
ssg82
g2761
sg75
(lp2768
S'utcnow'
p2769
asbag68
(g89
g70
NtRp2770
(dp2771
g73
(dp2772
g100
g101
ssg82
g2761
sg75
(lp2773
S':'
asbag68
(g89
g70
NtRp2774
(dp2775
g73
(dp2776
sg82
g2761
sg75
(lp2777
g68
(g69
g70
NtRp2778
(dp2779
g73
(dp2780
g81
I5
ssg82
g2774
sg75
(lp2781
S'datetime.datetime(2013, 2, 17, 17, 33, 30, 122393)'
p2782
asbasbasbag68
(g84
g70
NtRp2783
(dp2784
g73
(dp2785
sg82
g78
sg75
(lp2786
g68
(g89
g70
NtRp2787
(dp2788
g73
(dp2789
g93
g94
ssg82
g2783
sg75
(lp2790
S'uuid'
p2791
asbag68
(g89
g70
NtRp2792
(dp2793
g73
(dp2794
g100
g101
ssg82
g2783
sg75
(lp2795
S':'
asbag68
(g89
g70
NtRp2796
(dp2797
g73
(dp2798
sg82
g2783
sg75
(lp2799
g68
(g69
g70
NtRp2800
(dp2801
g73
(dp2802
g81
I5
ssg82
g2796
sg75
(lp2803
S'DEV_bootstrap_ch/127.0.0.1.2013-02-17.23-03-30.d61db5a6-3a2d-4c15-ba03-8d99f9056edf'
p2804
asbasbasbag68
(g84
g70
NtRp2805
(dp2806
g73
(dp2807
sg82
g78
sg75
(lp2808
g68
(g89
g70
NtRp2809
(dp2810
g73
(dp2811
g93
g94
ssg82
g2805
sg75
(lp2812
S'vars'
p2813
asbag68
(g89
g70
NtRp2814
(dp2815
g73
(dp2816
g100
g101
ssg82
g2805
sg75
(lp2817
S':'
asbag68
(g89
g70
NtRp2818
(dp2819
g73
(dp2820
sg82
g2805
sg75
(lp2821
g68
(g69
g70
NtRp2822
(dp2823
g73
(dp2824
g81
I5
ssg82
g2818
sg75
(lp2825
g68
(g77
g70
NtRp2826
(dp2827
g73
(dp2828
g81
I4
ssg82
Nsg75
(lp2829
sbasbasbasbag68
(g84
g70
NtRp2830
(dp2831
g73
(dp2832
sg82
g78
sg75
(lp2833
g68
(g89
g70
NtRp2834
(dp2835
g73
(dp2836
g93
g94
ssg82
g2830
sg75
(lp2837
S'wsgi'
p2838
asbag68
(g89
g70
NtRp2839
(dp2840
g73
(dp2841
g100
g101
ssg82
g2830
sg75
(lp2842
S':'
asbag68
(g89
g70
NtRp2843
(dp2844
g73
(dp2845
sg82
g2830
sg75
(lp2846
g68
(g69
g70
NtRp2847
(dp2848
g73
(dp2849
g81
I5
ssg82
g2843
sg75
(lp2850
g68
(g77
g70
NtRp2851
(dp2852
g73
(dp2853
g81
I4
ssg82
Nsg75
(lp2854
g68
(g84
g70
NtRp2855
(dp2856
g73
(dp2857
sg82
g2851
sg75
(lp2858
g68
(g89
g70
NtRp2859
(dp2860
g73
(dp2861
g93
g94
ssg82
g2855
sg75
(lp2862
S'environ'
p2863
asbag68
(g89
g70
NtRp2864
(dp2865
g73
(dp2866
g100
g101
ssg82
g2855
sg75
(lp2867
S':'
asbag68
(g89
g70
NtRp2868
(dp2869
g73
(dp2870
sg82
g2855
sg75
(lp2871
g68
(g69
g70
NtRp2872
(dp2873
g73
(dp2874
g81
I4
ssg82
g2868
sg75
(lp2875
g68
(g77
g70
NtRp2876
(dp2877
g73
(dp2878
g81
I3
ssg82
Nsg75
(lp2879
g68
(g84
g70
NtRp2880
(dp2881
g73
(dp2882
sg82
g2876
sg75
(lp2883
g68
(g89
g70
NtRp2884
(dp2885
g73
(dp2886
g93
g94
ssg82
g2880
sg75
(lp2887
S'HTTP_ACCEPT'
p2888
asbag68
(g89
g70
NtRp2889
(dp2890
g73
(dp2891
g100
g101
ssg82
g2880
sg75
(lp2892
S':'
asbag68
(g89
g70
NtRp2893
(dp2894
g73
(dp2895
sg82
g2880
sg75
(lp2896
g68
(g69
g70
NtRp2897
(dp2898
g73
(dp2899
g81
I3
ssg82
g2893
sg75
(lp2900
g1237
asbasbasbag68
(g84
g70
NtRp2901
(dp2902
g73
(dp2903
sg82
g2876
sg75
(lp2904
g68
(g89
g70
NtRp2905
(dp2906
g73
(dp2907
g93
g94
ssg82
g2901
sg75
(lp2908
S'HTTP_ACCEPT_CHARSET'
p2909
asbag68
(g89
g70
NtRp2910
(dp2911
g73
(dp2912
g100
g101
ssg82
g2901
sg75
(lp2913
S':'
asbag68
(g89
g70
NtRp2914
(dp2915
g73
(dp2916
sg82
g2901
sg75
(lp2917
g68
(g69
g70
NtRp2918
(dp2919
g73
(dp2920
g81
I3
ssg82
g2914
sg75
(lp2921
g1259
asbasbasbag68
(g84
g70
NtRp2922
(dp2923
g73
(dp2924
sg82
g2876
sg75
(lp2925
g68
(g89
g70
NtRp2926
(dp2927
g73
(dp2928
g93
g94
ssg82
g2922
sg75
(lp2929
S'HTTP_ACCEPT_ENCODING'
p2930
asbag68
(g89
g70
NtRp2931
(dp2932
g73
(dp2933
g100
g101
ssg82
g2922
sg75
(lp2934
S':'
asbag68
(g89
g70
NtRp2935
(dp2936
g73
(dp2937
sg82
g2922
sg75
(lp2938
g68
(g69
g70
NtRp2939
(dp2940
g73
(dp2941
g81
I3
ssg82
g2935
sg75
(lp2942
g1281
asbasbasbag68
(g84
g70
NtRp2943
(dp2944
g73
(dp2945
sg82
g2876
sg75
(lp2946
g68
(g89
g70
NtRp2947
(dp2948
g73
(dp2949
g93
g94
ssg82
g2943
sg75
(lp2950
S'HTTP_ACCEPT_LANGUAGE'
p2951
asbag68
(g89
g70
NtRp2952
(dp2953
g73
(dp2954
g100
g101
ssg82
g2943
sg75
(lp2955
S':'
asbag68
(g89
g70
NtRp2956
(dp2957
g73
(dp2958
sg82
g2943
sg75
(lp2959
g68
(g69
g70
NtRp2960
(dp2961
g73
(dp2962
g81
I3
ssg82
g2956
sg75
(lp2963
g1303
asbasbasbag68
(g84
g70
NtRp2964
(dp2965
g73
(dp2966
sg82
g2876
sg75
(lp2967
g68
(g89
g70
NtRp2968
(dp2969
g73
(dp2970
g93
g94
ssg82
g2964
sg75
(lp2971
S'HTTP_CACHE_CONTROL'
p2972
asbag68
(g89
g70
NtRp2973
(dp2974
g73
(dp2975
g100
g101
ssg82
g2964
sg75
(lp2976
S':'
asbag68
(g89
g70
NtRp2977
(dp2978
g73
(dp2979
sg82
g2964
sg75
(lp2980
g68
(g69
g70
NtRp2981
(dp2982
g73
(dp2983
g81
I3
ssg82
g2977
sg75
(lp2984
g1325
asbasbasbag68
(g84
g70
NtRp2985
(dp2986
g73
(dp2987
sg82
g2876
sg75
(lp2988
g68
(g89
g70
NtRp2989
(dp2990
g73
(dp2991
g93
g94
ssg82
g2985
sg75
(lp2992
S'HTTP_CONNECTION'
p2993
asbag68
(g89
g70
NtRp2994
(dp2995
g73
(dp2996
g100
g101
ssg82
g2985
sg75
(lp2997
S':'
asbag68
(g89
g70
NtRp2998
(dp2999
g73
(dp3000
sg82
g2985
sg75
(lp3001
g68
(g69
g70
NtRp3002
(dp3003
g73
(dp3004
g81
I3
ssg82
g2998
sg75
(lp3005
g1347
asbasbasbag68
(g84
g70
NtRp3006
(dp3007
g73
(dp3008
sg82
g2876
sg75
(lp3009
g68
(g89
g70
NtRp3010
(dp3011
g73
(dp3012
g93
g94
ssg82
g3006
sg75
(lp3013
S'HTTP_COOKIE'
p3014
asbag68
(g89
g70
NtRp3015
(dp3016
g73
(dp3017
g100
g101
ssg82
g3006
sg75
(lp3018
S':'
asbag68
(g89
g70
NtRp3019
(dp3020
g73
(dp3021
sg82
g3006
sg75
(lp3022
g68
(g69
g70
NtRp3023
(dp3024
g73
(dp3025
g81
I3
ssg82
g3019
sg75
(lp3026
g1369
asbasbasbag68
(g84
g70
NtRp3027
(dp3028
g73
(dp3029
sg82
g2876
sg75
(lp3030
g68
(g89
g70
NtRp3031
(dp3032
g73
(dp3033
g93
g94
ssg82
g3027
sg75
(lp3034
S'HTTP_HOST'
p3035
asbag68
(g89
g70
NtRp3036
(dp3037
g73
(dp3038
g100
g101
ssg82
g3027
sg75
(lp3039
S':'
asbag68
(g89
g70
NtRp3040
(dp3041
g73
(dp3042
sg82
g3027
sg75
(lp3043
g68
(g69
g70
NtRp3044
(dp3045
g73
(dp3046
g81
I3
ssg82
g3040
sg75
(lp3047
g1391
asbasbasbag68
(g84
g70
NtRp3048
(dp3049
g73
(dp3050
sg82
g2876
sg75
(lp3051
g68
(g89
g70
NtRp3052
(dp3053
g73
(dp3054
g93
g94
ssg82
g3048
sg75
(lp3055
S'HTTP_REFERER'
p3056
asbag68
(g89
g70
NtRp3057
(dp3058
g73
(dp3059
g100
g101
ssg82
g3048
sg75
(lp3060
S':'
asbag68
(g89
g70
NtRp3061
(dp3062
g73
(dp3063
sg82
g3048
sg75
(lp3064
g68
(g69
g70
NtRp3065
(dp3066
g73
(dp3067
g81
I3
ssg82
g3061
sg75
(lp3068
g1413
asbasbasbag68
(g84
g70
NtRp3069
(dp3070
g73
(dp3071
sg82
g2876
sg75
(lp3072
g68
(g89
g70
NtRp3073
(dp3074
g73
(dp3075
g93
g94
ssg82
g3069
sg75
(lp3076
S'HTTP_USER_AGENT'
p3077
asbag68
(g89
g70
NtRp3078
(dp3079
g73
(dp3080
g100
g101
ssg82
g3069
sg75
(lp3081
S':'
asbag68
(g89
g70
NtRp3082
(dp3083
g73
(dp3084
sg82
g3069
sg75
(lp3085
g68
(g69
g70
NtRp3086
(dp3087
g73
(dp3088
g81
I3
ssg82
g3082
sg75
(lp3089
g1435
asbasbasbag68
(g84
g70
NtRp3090
(dp3091
g73
(dp3092
sg82
g2876
sg75
(lp3093
g68
(g89
g70
NtRp3094
(dp3095
g73
(dp3096
g93
g94
ssg82
g3090
sg75
(lp3097
S'PATH_INFO'
p3098
asbag68
(g89
g70
NtRp3099
(dp3100
g73
(dp3101
g100
g101
ssg82
g3090
sg75
(lp3102
S':'
asbag68
(g89
g70
NtRp3103
(dp3104
g73
(dp3105
sg82
g3090
sg75
(lp3106
g68
(g69
g70
NtRp3107
(dp3108
g73
(dp3109
g81
I3
ssg82
g3103
sg75
(lp3110
g1589
asbasbasbag68
(g84
g70
NtRp3111
(dp3112
g73
(dp3113
sg82
g2876
sg75
(lp3114
g68
(g89
g70
NtRp3115
(dp3116
g73
(dp3117
g93
g94
ssg82
g3111
sg75
(lp3118
S'QUERY_STRING'
p3119
asbag68
(g89
g70
NtRp3120
(dp3121
g73
(dp3122
g100
g101
ssg82
g3111
sg75
(lp3123
S':'
asbag68
(g89
g70
NtRp3124
(dp3125
g73
(dp3126
sg82
g3111
sg75
(lp3127
g68
(g69
g70
NtRp3128
(dp3129
g73
(dp3130
g81
I3
ssg82
g3124
sg75
(lp3131
S''
asbasbasbag68
(g84
g70
NtRp3132
(dp3133
g73
(dp3134
sg82
g2876
sg75
(lp3135
g68
(g89
g70
NtRp3136
(dp3137
g73
(dp3138
g93
g94
ssg82
g3132
sg75
(lp3139
S'REMOTE_ADDR'
p3140
asbag68
(g89
g70
NtRp3141
(dp3142
g73
(dp3143
g100
g101
ssg82
g3132
sg75
(lp3144
S':'
asbag68
(g89
g70
NtRp3145
(dp3146
g73
(dp3147
sg82
g3132
sg75
(lp3148
g68
(g69
g70
NtRp3149
(dp3150
g73
(dp3151
g81
I3
ssg82
g3145
sg75
(lp3152
g235
asbasbasbag68
(g84
g70
NtRp3153
(dp3154
g73
(dp3155
sg82
g2876
sg75
(lp3156
g68
(g89
g70
NtRp3157
(dp3158
g73
(dp3159
g93
g94
ssg82
g3153
sg75
(lp3160
S'REMOTE_PORT'
p3161
asbag68
(g89
g70
NtRp3162
(dp3163
g73
(dp3164
g100
g101
ssg82
g3153
sg75
(lp3165
S':'
asbag68
(g89
g70
NtRp3166
(dp3167
g73
(dp3168
sg82
g3153
sg75
(lp3169
g68
(g69
g70
NtRp3170
(dp3171
g73
(dp3172
g81
I3
ssg82
g3166
sg75
(lp3173
g1653
asbasbasbag68
(g84
g70
NtRp3174
(dp3175
g73
(dp3176
sg82
g2876
sg75
(lp3177
g68
(g89
g70
NtRp3178
(dp3179
g73
(dp3180
g93
g94
ssg82
g3174
sg75
(lp3181
S'REQUEST_METHOD'
p3182
asbag68
(g89
g70
NtRp3183
(dp3184
g73
(dp3185
g100
g101
ssg82
g3174
sg75
(lp3186
S':'
asbag68
(g89
g70
NtRp3187
(dp3188
g73
(dp3189
sg82
g3174
sg75
(lp3190
g68
(g69
g70
NtRp3191
(dp3192
g73
(dp3193
g81
I3
ssg82
g3187
sg75
(lp3194
g1675
asbasbasbag68
(g84
g70
NtRp3195
(dp3196
g73
(dp3197
sg82
g2876
sg75
(lp3198
g68
(g89
g70
NtRp3199
(dp3200
g73
(dp3201
g93
g94
ssg82
g3195
sg75
(lp3202
S'REQUEST_URI'
p3203
asbag68
(g89
g70
NtRp3204
(dp3205
g73
(dp3206
g100
g101
ssg82
g3195
sg75
(lp3207
S':'
asbag68
(g89
g70
NtRp3208
(dp3209
g73
(dp3210
sg82
g3195
sg75
(lp3211
g68
(g69
g70
NtRp3212
(dp3213
g73
(dp3214
g81
I3
ssg82
g3208
sg75
(lp3215
g1589
asbasbasbag68
(g84
g70
NtRp3216
(dp3217
g73
(dp3218
sg82
g2876
sg75
(lp3219
g68
(g89
g70
NtRp3220
(dp3221
g73
(dp3222
g93
g94
ssg82
g3216
sg75
(lp3223
S'SCRIPT_NAME'
p3224
asbag68
(g89
g70
NtRp3225
(dp3226
g73
(dp3227
g100
g101
ssg82
g3216
sg75
(lp3228
S':'
asbag68
(g89
g70
NtRp3229
(dp3230
g73
(dp3231
sg82
g3216
sg75
(lp3232
g68
(g69
g70
NtRp3233
(dp3234
g73
(dp3235
g81
I3
ssg82
g3229
sg75
(lp3236
S''
asbasbasbag68
(g84
g70
NtRp3237
(dp3238
g73
(dp3239
sg82
g2876
sg75
(lp3240
g68
(g89
g70
NtRp3241
(dp3242
g73
(dp3243
g93
g94
ssg82
g3237
sg75
(lp3244
S'SERVER_NAME'
p3245
asbag68
(g89
g70
NtRp3246
(dp3247
g73
(dp3248
g100
g101
ssg82
g3237
sg75
(lp3249
S':'
asbag68
(g89
g70
NtRp3250
(dp3251
g73
(dp3252
sg82
g3237
sg75
(lp3253
g68
(g69
g70
NtRp3254
(dp3255
g73
(dp3256
g81
I3
ssg82
g3250
sg75
(lp3257
g1739
asbasbasbag68
(g84
g70
NtRp3258
(dp3259
g73
(dp3260
sg82
g2876
sg75
(lp3261
g68
(g89
g70
NtRp3262
(dp3263
g73
(dp3264
g93
g94
ssg82
g3258
sg75
(lp3265
S'SERVER_PORT'
p3266
asbag68
(g89
g70
NtRp3267
(dp3268
g73
(dp3269
g100
g101
ssg82
g3258
sg75
(lp3270
S':'
asbag68
(g89
g70
NtRp3271
(dp3272
g73
(dp3273
sg82
g3258
sg75
(lp3274
g68
(g69
g70
NtRp3275
(dp3276
g73
(dp3277
g81
I3
ssg82
g3271
sg75
(lp3278
g1761
asbasbasbag68
(g84
g70
NtRp3279
(dp3280
g73
(dp3281
sg82
g2876
sg75
(lp3282
g68
(g89
g70
NtRp3283
(dp3284
g73
(dp3285
g93
g94
ssg82
g3279
sg75
(lp3286
S'SERVER_PROTOCOL'
p3287
asbag68
(g89
g70
NtRp3288
(dp3289
g73
(dp3290
g100
g101
ssg82
g3279
sg75
(lp3291
S':'
asbag68
(g89
g70
NtRp3292
(dp3293
g73
(dp3294
sg82
g3279
sg75
(lp3295
g68
(g69
g70
NtRp3296
(dp3297
g73
(dp3298
g81
I3
ssg82
g3292
sg75
(lp3299
g1783
asbasbasbag68
(g84
g70
NtRp3300
(dp3301
g73
(dp3302
sg82
g2876
sg75
(lp3303
g68
(g89
g70
NtRp3304
(dp3305
g73
(dp3306
g93
g94
ssg82
g3300
sg75
(lp3307
S'SERVER_SOFTWARE'
p3308
asbag68
(g89
g70
NtRp3309
(dp3310
g73
(dp3311
g100
g101
ssg82
g3300
sg75
(lp3312
S':'
asbag68
(g89
g70
NtRp3313
(dp3314
g73
(dp3315
sg82
g3300
sg75
(lp3316
g68
(g69
g70
NtRp3317
(dp3318
g73
(dp3319
g81
I3
ssg82
g3313
sg75
(lp3320
g1805
asbasbasbag68
(g84
g70
NtRp3321
(dp3322
g73
(dp3323
sg82
g2876
sg75
(lp3324
g68
(g89
g70
NtRp3325
(dp3326
g73
(dp3327
g93
g94
ssg82
g3321
sg75
(lp3328
S'wsgi.errors'
p3329
asbag68
(g89
g70
NtRp3330
(dp3331
g73
(dp3332
g100
g101
ssg82
g3321
sg75
(lp3333
S':'
asbag68
(g89
g70
NtRp3334
(dp3335
g73
(dp3336
sg82
g3321
sg75
(lp3337
g68
(g69
g70
NtRp3338
(dp3339
g73
(dp3340
g81
I3
ssg82
g3334
sg75
(lp3341
S"<open file '<stderr>', mode 'w' at 0xb72f00d0>"
p3342
asbasbasbag68
(g84
g70
NtRp3343
(dp3344
g73
(dp3345
sg82
g2876
sg75
(lp3346
g68
(g89
g70
NtRp3347
(dp3348
g73
(dp3349
g93
g94
ssg82
g3343
sg75
(lp3350
S'wsgi.file_wrapper'
p3351
asbag68
(g89
g70
NtRp3352
(dp3353
g73
(dp3354
g100
g101
ssg82
g3343
sg75
(lp3355
S':'
asbag68
(g89
g70
NtRp3356
(dp3357
g73
(dp3358
sg82
g3343
sg75
(lp3359
g68
(g69
g70
NtRp3360
(dp3361
g73
(dp3362
g81
I3
ssg82
g3356
sg75
(lp3363
S'<class wsgiref.util.FileWrapper at 0x8fafb9c>'
p3364
asbasbasbag68
(g84
g70
NtRp3365
(dp3366
g73
(dp3367
sg82
g2876
sg75
(lp3368
g68
(g89
g70
NtRp3369
(dp3370
g73
(dp3371
g93
g94
ssg82
g3365
sg75
(lp3372
S'wsgi.input'
p3373
asbag68
(g89
g70
NtRp3374
(dp3375
g73
(dp3376
g100
g101
ssg82
g3365
sg75
(lp3377
S':'
asbag68
(g89
g70
NtRp3378
(dp3379
g73
(dp3380
sg82
g3365
sg75
(lp3381
g68
(g69
g70
NtRp3382
(dp3383
g73
(dp3384
g81
I3
ssg82
g3378
sg75
(lp3385
S'<cStringIO.StringO object at 0xad97ee20>'
p3386
asbasbasbag68
(g84
g70
NtRp3387
(dp3388
g73
(dp3389
sg82
g2876
sg75
(lp3390
g68
(g89
g70
NtRp3391
(dp3392
g73
(dp3393
g93
g94
ssg82
g3387
sg75
(lp3394
S'wsgi.multiprocess'
p3395
asbag68
(g89
g70
NtRp3396
(dp3397
g73
(dp3398
g100
g101
ssg82
g3387
sg75
(lp3399
S':'
asbag68
(g89
g70
NtRp3400
(dp3401
g73
(dp3402
sg82
g3387
sg75
(lp3403
g68
(g69
g70
NtRp3404
(dp3405
g73
(dp3406
g81
I3
ssg82
g3400
sg75
(lp3407
g111
asbasbasbag68
(g84
g70
NtRp3408
(dp3409
g73
(dp3410
sg82
g2876
sg75
(lp3411
g68
(g89
g70
NtRp3412
(dp3413
g73
(dp3414
g93
g94
ssg82
g3408
sg75
(lp3415
S'wsgi.multithread'
p3416
asbag68
(g89
g70
NtRp3417
(dp3418
g73
(dp3419
g100
g101
ssg82
g3408
sg75
(lp3420
S':'
asbag68
(g89
g70
NtRp3421
(dp3422
g73
(dp3423
sg82
g3408
sg75
(lp3424
g68
(g69
g70
NtRp3425
(dp3426
g73
(dp3427
g81
I3
ssg82
g3421
sg75
(lp3428
g2022
asbasbasbag68
(g84
g70
NtRp3429
(dp3430
g73
(dp3431
sg82
g2876
sg75
(lp3432
g68
(g89
g70
NtRp3433
(dp3434
g73
(dp3435
g93
g94
ssg82
g3429
sg75
(lp3436
S'wsgi.run_once'
p3437
asbag68
(g89
g70
NtRp3438
(dp3439
g73
(dp3440
g100
g101
ssg82
g3429
sg75
(lp3441
S':'
asbag68
(g89
g70
NtRp3442
(dp3443
g73
(dp3444
sg82
g3429
sg75
(lp3445
g68
(g69
g70
NtRp3446
(dp3447
g73
(dp3448
g81
I3
ssg82
g3442
sg75
(lp3449
g111
asbasbasbag68
(g84
g70
NtRp3450
(dp3451
g73
(dp3452
sg82
g2876
sg75
(lp3453
g68
(g89
g70
NtRp3454
(dp3455
g73
(dp3456
g93
g94
ssg82
g3450
sg75
(lp3457
S'wsgi.url_scheme'
p3458
asbag68
(g89
g70
NtRp3459
(dp3460
g73
(dp3461
g100
g101
ssg82
g3450
sg75
(lp3462
S':'
asbag68
(g89
g70
NtRp3463
(dp3464
g73
(dp3465
sg82
g3450
sg75
(lp3466
g68
(g69
g70
NtRp3467
(dp3468
g73
(dp3469
g81
I3
ssg82
g3463
sg75
(lp3470
g2065
asbasbasbag68
(g84
g70
NtRp3471
(dp3472
g73
(dp3473
sg82
g2876
sg75
(lp3474
g68
(g89
g70
NtRp3475
(dp3476
g73
(dp3477
g93
g94
ssg82
g3471
sg75
(lp3478
S'wsgi.version'
p3479
asbag68
(g89
g70
NtRp3480
(dp3481
g73
(dp3482
g100
g101
ssg82
g3471
sg75
(lp3483
S':'
asbag68
(g89
g70
NtRp3484
(dp3485
g73
(dp3486
sg82
g3471
sg75
(lp3487
g68
(g69
g70
NtRp3488
(dp3489
g73
(dp3490
g81
I3
ssg82
g3484
sg75
(lp3491
S'1'
asbasbasbasbasbasbasbasbasbasbasbasbasbsS'frames'
p3492
(lp3493
(dp3494
S'file'
p3495
S'/home/anil/bootstrap/web2py/gluon/restricted.py'
p3496
sS'dump'
p3497
(dp3498
S'code'
p3499
S'\'response.write(\\\'<!DOCTYPE html>\\\\n<html lang="\\\', ...nse.write(\\\'\\\\n  </body>\\\\n</html>\\\\n\\\', escape=False)\''
p3500
sS'layer'
p3501
S"'/home/anil/bootstrap/web2py/applications/DEV_bootstrap_ch/views/default/project_viewer.html'"
p3502
sS'global compile2'
p3503
S'<function compile2>'
p3504
sS'ccode'
p3505
S'undefined'
p3506
ssS'lnum'
p3507
I211
sS'lines'
p3508
(dp3509
I206
S"    environment['__name__'] = '__restricted__'"
p3510
sI207
S'    try:'
p3511
sI208
S'        if isinstance(code, types.CodeType):'
p3512
sI209
S'            ccode = code'
p3513
sI210
S'        else:'
p3514
sI211
S'            ccode = compile2(code, layer)'
p3515
sI212
S'        exec ccode in environment'
p3516
sI213
S'    except HTTP:'
p3517
sI214
S'        raise'
p3518
sI215
S'    except RestrictedError:'
p3519
ssS'call'
p3520
S'(code=\'response.write(\\\'<!DOCTYPE html>\\\\n<html lang="\\\', ...nse.write(\\\'\\\\n  </body>\\\\n</html>\\\\n\\\', escape=False)\', environment={\'A\': <class \'gluon.html.A\'>, \'Auth\': <class \'gluon.tools.Auth\'>, \'B\': <class \'gluon.html.B\'>, \'BEAUTIFY\': <class \'gluon.html.BEAUTIFY\'>, \'BODY\': <class \'gluon.html.BODY\'>, \'BR\': <class \'gluon.html.BR\'>, \'BUTTON\': <class \'gluon.html.BUTTON\'>, \'CAT\': <class \'gluon.html.CAT\'>, \'CENTER\': <class \'gluon.html.CENTER\'>, \'CLEANUP\': <class \'gluon.validators.CLEANUP\'>, ...}, layer=\'/home/anil/bootstrap/web2py/applications/DEV_bootstrap_ch/views/default/project_viewer.html\')'
p3521
sS'func'
p3522
S'restricted'
p3523
sa(dp3524
g3495
S'/home/anil/bootstrap/web2py/gluon/restricted.py'
p3525
sg3497
(dp3526
S'builtincompile'
p3527
S'<built-in function compile>'
p3528
sS'code'
p3529
S'\'response.write(\\\'<!DOCTYPE html>\\\\n<html lang="\\\', ...nse.write(\\\'\\\\n  </body>\\\\n</html>\\\\n\\\', escape=False)\''
p3530
sS'code.rstrip'
p3531
S'<built-in method rstrip of str object>'
p3532
sS').replace'
p3533
g3506
sS'layer'
p3534
S"'/home/anil/bootstrap/web2py/applications/DEV_bootstrap_ch/views/default/project_viewer.html'"
p3535
ssg3507
I194
sg3508
(dp3536
I192
S"    The +'\\n' is necessary else compile fails when code ends in a comment."
p3537
sI193
S'    """'
p3538
sI194
S"    return compile(code.rstrip().replace('\\r\\n', '\\n') + '\\n', layer, 'exec')"
p3539
sI195
S''
sI196
S''
sI197
S"def restricted(code, environment=None, layer='Unknown'):"
p3540
sI198
S'    """'
p3541
sI189
S''
sI190
S'def compile2(code, layer):'
p3542
sI191
S'    """'
p3543
ssg3520
S'(code=\'response.write(\\\'<!DOCTYPE html>\\\\n<html lang="\\\', ...nse.write(\\\'\\\\n  </body>\\\\n</html>\\\\n\\\', escape=False)\', layer=\'/home/anil/bootstrap/web2py/applications/DEV_bootstrap_ch/views/default/project_viewer.html\')'
p3544
sg3522
S'compile2'
p3545
sasS'pyver'
p3546
S'Python 2.7.3: /usr/bin/python'
p3547
sS'session'
p3548
g68
(g69
g70
NtRp3549
(dp3550
g73
(dp3551
sg75
(lp3552
g68
(g77
g70
NtRp3553
(dp3554
g73
(dp3555
g81
I5
ssg82
Nsg75
(lp3556
g68
(g84
g70
NtRp3557
(dp3558
g73
(dp3559
sg82
g3553
sg75
(lp3560
g68
(g89
g70
NtRp3561
(dp3562
g73
(dp3563
g93
g94
ssg82
g3557
sg75
(lp3564
S'auth'
p3565
asbag68
(g89
g70
NtRp3566
(dp3567
g73
(dp3568
g100
g101
ssg82
g3557
sg75
(lp3569
S':'
asbag68
(g89
g70
NtRp3570
(dp3571
g73
(dp3572
sg82
g3557
sg75
(lp3573
g68
(g69
g70
NtRp3574
(dp3575
g73
(dp3576
g81
I5
ssg82
g3570
sg75
(lp3577
g68
(g77
g70
NtRp3578
(dp3579
g73
(dp3580
g81
I4
ssg82
Nsg75
(lp3581
g68
(g84
g70
NtRp3582
(dp3583
g73
(dp3584
sg82
g3578
sg75
(lp3585
g68
(g89
g70
NtRp3586
(dp3587
g73
(dp3588
g93
g94
ssg82
g3582
sg75
(lp3589
S'expiration'
p3590
asbag68
(g89
g70
NtRp3591
(dp3592
g73
(dp3593
g100
g101
ssg82
g3582
sg75
(lp3594
S':'
asbag68
(g89
g70
NtRp3595
(dp3596
g73
(dp3597
sg82
g3582
sg75
(lp3598
g68
(g69
g70
NtRp3599
(dp3600
g73
(dp3601
g81
I4
ssg82
g3595
sg75
(lp3602
S'3600'
p3603
asbasbasbag68
(g84
g70
NtRp3604
(dp3605
g73
(dp3606
sg82
g3578
sg75
(lp3607
g68
(g89
g70
NtRp3608
(dp3609
g73
(dp3610
g93
g94
ssg82
g3604
sg75
(lp3611
S'hmac_key'
p3612
asbag68
(g89
g70
NtRp3613
(dp3614
g73
(dp3615
g100
g101
ssg82
g3604
sg75
(lp3616
S':'
asbag68
(g89
g70
NtRp3617
(dp3618
g73
(dp3619
sg82
g3604
sg75
(lp3620
g68
(g69
g70
NtRp3621
(dp3622
g73
(dp3623
g81
I4
ssg82
g3617
sg75
(lp3624
S'd545acd5-5dcf-4df0-8c2d-b0db848fa605'
p3625
asbasbasbag68
(g84
g70
NtRp3626
(dp3627
g73
(dp3628
sg82
g3578
sg75
(lp3629
g68
(g89
g70
NtRp3630
(dp3631
g73
(dp3632
g93
g94
ssg82
g3626
sg75
(lp3633
S'last_visit'
p3634
asbag68
(g89
g70
NtRp3635
(dp3636
g73
(dp3637
g100
g101
ssg82
g3626
sg75
(lp3638
S':'
asbag68
(g89
g70
NtRp3639
(dp3640
g73
(dp3641
sg82
g3626
sg75
(lp3642
g68
(g69
g70
NtRp3643
(dp3644
g73
(dp3645
g81
I4
ssg82
g3639
sg75
(lp3646
S'datetime.datetime(2013, 2, 17, 23, 3, 2, 901680)'
p3647
asbasbasbag68
(g84
g70
NtRp3648
(dp3649
g73
(dp3650
sg82
g3578
sg75
(lp3651
g68
(g89
g70
NtRp3652
(dp3653
g73
(dp3654
g93
g94
ssg82
g3648
sg75
(lp3655
S'remember'
p3656
asbag68
(g89
g70
NtRp3657
(dp3658
g73
(dp3659
g100
g101
ssg82
g3648
sg75
(lp3660
S':'
asbag68
(g89
g70
NtRp3661
(dp3662
g73
(dp3663
sg82
g3648
sg75
(lp3664
g68
(g69
g70
NtRp3665
(dp3666
g73
(dp3667
g81
I4
ssg82
g3661
sg75
(lp3668
g111
asbasbasbag68
(g84
g70
NtRp3669
(dp3670
g73
(dp3671
sg82
g3578
sg75
(lp3672
g68
(g89
g70
NtRp3673
(dp3674
g73
(dp3675
g93
g94
ssg82
g3669
sg75
(lp3676
S'user'
p3677
asbag68
(g89
g70
NtRp3678
(dp3679
g73
(dp3680
g100
g101
ssg82
g3669
sg75
(lp3681
S':'
asbag68
(g89
g70
NtRp3682
(dp3683
g73
(dp3684
sg82
g3669
sg75
(lp3685
g68
(g69
g70
NtRp3686
(dp3687
g73
(dp3688
g81
I4
ssg82
g3682
sg75
(lp3689
g68
(g77
g70
NtRp3690
(dp3691
g73
(dp3692
g81
I3
ssg82
Nsg75
(lp3693
g68
(g84
g70
NtRp3694
(dp3695
g73
(dp3696
sg82
g3690
sg75
(lp3697
g68
(g89
g70
NtRp3698
(dp3699
g73
(dp3700
g93
g94
ssg82
g3694
sg75
(lp3701
S'address'
p3702
asbag68
(g89
g70
NtRp3703
(dp3704
g73
(dp3705
g100
g101
ssg82
g3694
sg75
(lp3706
S':'
asbag68
(g89
g70
NtRp3707
(dp3708
g73
(dp3709
sg82
g3694
sg75
(lp3710
g68
(g69
g70
NtRp3711
(dp3712
g73
(dp3713
g81
I3
ssg82
g3707
sg75
(lp3714
S'a'
asbasbasbag68
(g84
g70
NtRp3715
(dp3716
g73
(dp3717
sg82
g3690
sg75
(lp3718
g68
(g89
g70
NtRp3719
(dp3720
g73
(dp3721
g93
g94
ssg82
g3715
sg75
(lp3722
S'affiliated_to'
p3723
asbag68
(g89
g70
NtRp3724
(dp3725
g73
(dp3726
g100
g101
ssg82
g3715
sg75
(lp3727
S':'
asbag68
(g89
g70
NtRp3728
(dp3729
g73
(dp3730
sg82
g3715
sg75
(lp3731
g68
(g69
g70
NtRp3732
(dp3733
g73
(dp3734
g81
I3
ssg82
g3728
sg75
(lp3735
S'a'
asbasbasbag68
(g84
g70
NtRp3736
(dp3737
g73
(dp3738
sg82
g3690
sg75
(lp3739
g68
(g89
g70
NtRp3740
(dp3741
g73
(dp3742
g93
g94
ssg82
g3736
sg75
(lp3743
S'city'
p3744
asbag68
(g89
g70
NtRp3745
(dp3746
g73
(dp3747
g100
g101
ssg82
g3736
sg75
(lp3748
S':'
asbag68
(g89
g70
NtRp3749
(dp3750
g73
(dp3751
sg82
g3736
sg75
(lp3752
g68
(g69
g70
NtRp3753
(dp3754
g73
(dp3755
g81
I3
ssg82
g3749
sg75
(lp3756
S'a'
asbasbasbag68
(g84
g70
NtRp3757
(dp3758
g73
(dp3759
sg82
g3690
sg75
(lp3760
g68
(g89
g70
NtRp3761
(dp3762
g73
(dp3763
g93
g94
ssg82
g3757
sg75
(lp3764
S'country'
p3765
asbag68
(g89
g70
NtRp3766
(dp3767
g73
(dp3768
g100
g101
ssg82
g3757
sg75
(lp3769
S':'
asbag68
(g89
g70
NtRp3770
(dp3771
g73
(dp3772
sg82
g3757
sg75
(lp3773
g68
(g69
g70
NtRp3774
(dp3775
g73
(dp3776
g81
I3
ssg82
g3770
sg75
(lp3777
S'India'
p3778
asbasbasbag68
(g84
g70
NtRp3779
(dp3780
g73
(dp3781
sg82
g3690
sg75
(lp3782
g68
(g89
g70
NtRp3783
(dp3784
g73
(dp3785
g93
g94
ssg82
g3779
sg75
(lp3786
S'email'
p3787
asbag68
(g89
g70
NtRp3788
(dp3789
g73
(dp3790
g100
g101
ssg82
g3779
sg75
(lp3791
S':'
asbag68
(g89
g70
NtRp3792
(dp3793
g73
(dp3794
sg82
g3779
sg75
(lp3795
g68
(g69
g70
NtRp3796
(dp3797
g73
(dp3798
g81
I3
ssg82
g3792
sg75
(lp3799
S'anil.iiith@gmail.com'
p3800
asbasbasbag68
(g84
g70
NtRp3801
(dp3802
g73
(dp3803
sg82
g3690
sg75
(lp3804
g68
(g89
g70
NtRp3805
(dp3806
g73
(dp3807
g93
g94
ssg82
g3801
sg75
(lp3808
S'first_name'
p3809
asbag68
(g89
g70
NtRp3810
(dp3811
g73
(dp3812
g100
g101
ssg82
g3801
sg75
(lp3813
S':'
asbag68
(g89
g70
NtRp3814
(dp3815
g73
(dp3816
sg82
g3801
sg75
(lp3817
g68
(g69
g70
NtRp3818
(dp3819
g73
(dp3820
g81
I3
ssg82
g3814
sg75
(lp3821
S'anil'
p3822
asbasbasbag68
(g84
g70
NtRp3823
(dp3824
g73
(dp3825
sg82
g3690
sg75
(lp3826
g68
(g89
g70
NtRp3827
(dp3828
g73
(dp3829
g93
g94
ssg82
g3823
sg75
(lp3830
S'id'
p3831
asbag68
(g89
g70
NtRp3832
(dp3833
g73
(dp3834
g100
g101
ssg82
g3823
sg75
(lp3835
S':'
asbag68
(g89
g70
NtRp3836
(dp3837
g73
(dp3838
sg82
g3823
sg75
(lp3839
g68
(g69
g70
NtRp3840
(dp3841
g73
(dp3842
g81
I3
ssg82
g3836
sg75
(lp3843
S'2'
asbasbasbag68
(g84
g70
NtRp3844
(dp3845
g73
(dp3846
sg82
g3690
sg75
(lp3847
g68
(g89
g70
NtRp3848
(dp3849
g73
(dp3850
g93
g94
ssg82
g3844
sg75
(lp3851
S'last_name'
p3852
asbag68
(g89
g70
NtRp3853
(dp3854
g73
(dp3855
g100
g101
ssg82
g3844
sg75
(lp3856
S':'
asbag68
(g89
g70
NtRp3857
(dp3858
g73
(dp3859
sg82
g3844
sg75
(lp3860
g68
(g69
g70
NtRp3861
(dp3862
g73
(dp3863
g81
I3
ssg82
g3857
sg75
(lp3864
S'n'
asbasbasbag68
(g84
g70
NtRp3865
(dp3866
g73
(dp3867
sg82
g3690
sg75
(lp3868
g68
(g89
g70
NtRp3869
(dp3870
g73
(dp3871
g93
g94
ssg82
g3865
sg75
(lp3872
S'mobile'
p3873
asbag68
(g89
g70
NtRp3874
(dp3875
g73
(dp3876
g100
g101
ssg82
g3865
sg75
(lp3877
S':'
asbag68
(g89
g70
NtRp3878
(dp3879
g73
(dp3880
sg82
g3865
sg75
(lp3881
g68
(g69
g70
NtRp3882
(dp3883
g73
(dp3884
g81
I3
ssg82
g3878
sg75
(lp3885
S'1233'
p3886
asbasbasbag68
(g84
g70
NtRp3887
(dp3888
g73
(dp3889
sg82
g3690
sg75
(lp3890
g68
(g89
g70
NtRp3891
(dp3892
g73
(dp3893
g93
g94
ssg82
g3887
sg75
(lp3894
S'phone'
p3895
asbag68
(g89
g70
NtRp3896
(dp3897
g73
(dp3898
g100
g101
ssg82
g3887
sg75
(lp3899
S':'
asbag68
(g89
g70
NtRp3900
(dp3901
g73
(dp3902
sg82
g3887
sg75
(lp3903
g68
(g69
g70
NtRp3904
(dp3905
g73
(dp3906
g81
I3
ssg82
g3900
sg75
(lp3907
S'123'
p3908
asbasbasbag68
(g84
g70
NtRp3909
(dp3910
g73
(dp3911
sg82
g3690
sg75
(lp3912
g68
(g89
g70
NtRp3913
(dp3914
g73
(dp3915
g93
g94
ssg82
g3909
sg75
(lp3916
S'position'
p3917
asbag68
(g89
g70
NtRp3918
(dp3919
g73
(dp3920
g100
g101
ssg82
g3909
sg75
(lp3921
S':'
asbag68
(g89
g70
NtRp3922
(dp3923
g73
(dp3924
sg82
g3909
sg75
(lp3925
g68
(g69
g70
NtRp3926
(dp3927
g73
(dp3928
g81
I3
ssg82
g3922
sg75
(lp3929
S'0'
asbasbasbag68
(g84
g70
NtRp3930
(dp3931
g73
(dp3932
sg82
g3690
sg75
(lp3933
g68
(g89
g70
NtRp3934
(dp3935
g73
(dp3936
g93
g94
ssg82
g3930
sg75
(lp3937
S'postal_code'
p3938
asbag68
(g89
g70
NtRp3939
(dp3940
g73
(dp3941
g100
g101
ssg82
g3930
sg75
(lp3942
S':'
asbag68
(g89
g70
NtRp3943
(dp3944
g73
(dp3945
sg82
g3930
sg75
(lp3946
g68
(g69
g70
NtRp3947
(dp3948
g73
(dp3949
g81
I3
ssg82
g3943
sg75
(lp3950
S'123'
p3951
asbasbasbag68
(g84
g70
NtRp3952
(dp3953
g73
(dp3954
sg82
g3690
sg75
(lp3955
g68
(g89
g70
NtRp3956
(dp3957
g73
(dp3958
g93
g94
ssg82
g3952
sg75
(lp3959
S'registration_at'
p3960
asbag68
(g89
g70
NtRp3961
(dp3962
g73
(dp3963
g100
g101
ssg82
g3952
sg75
(lp3964
S':'
asbag68
(g89
g70
NtRp3965
(dp3966
g73
(dp3967
sg82
g3952
sg75
(lp3968
g68
(g69
g70
NtRp3969
(dp3970
g73
(dp3971
g81
I3
ssg82
g3965
sg75
(lp3972
S'0'
asbasbasbag68
(g84
g70
NtRp3973
(dp3974
g73
(dp3975
sg82
g3690
sg75
(lp3976
g68
(g89
g70
NtRp3977
(dp3978
g73
(dp3979
g93
g94
ssg82
g3973
sg75
(lp3980
S'registration_id'
p3981
asbag68
(g89
g70
NtRp3982
(dp3983
g73
(dp3984
g100
g101
ssg82
g3973
sg75
(lp3985
S':'
asbag68
(g89
g70
NtRp3986
(dp3987
g73
(dp3988
sg82
g3973
sg75
(lp3989
g68
(g69
g70
NtRp3990
(dp3991
g73
(dp3992
g81
I3
ssg82
g3986
sg75
(lp3993
S''
asbasbasbag68
(g84
g70
NtRp3994
(dp3995
g73
(dp3996
sg82
g3690
sg75
(lp3997
g68
(g89
g70
NtRp3998
(dp3999
g73
(dp4000
g93
g94
ssg82
g3994
sg75
(lp4001
S'registration_key'
p4002
asbag68
(g89
g70
NtRp4003
(dp4004
g73
(dp4005
g100
g101
ssg82
g3994
sg75
(lp4006
S':'
asbag68
(g89
g70
NtRp4007
(dp4008
g73
(dp4009
sg82
g3994
sg75
(lp4010
g68
(g69
g70
NtRp4011
(dp4012
g73
(dp4013
g81
I3
ssg82
g4007
sg75
(lp4014
S''
asbasbasbag68
(g84
g70
NtRp4015
(dp4016
g73
(dp4017
sg82
g3690
sg75
(lp4018
g68
(g89
g70
NtRp4019
(dp4020
g73
(dp4021
g93
g94
ssg82
g4015
sg75
(lp4022
S'reset_password_key'
p4023
asbag68
(g89
g70
NtRp4024
(dp4025
g73
(dp4026
g100
g101
ssg82
g4015
sg75
(lp4027
S':'
asbag68
(g89
g70
NtRp4028
(dp4029
g73
(dp4030
sg82
g4015
sg75
(lp4031
g68
(g69
g70
NtRp4032
(dp4033
g73
(dp4034
g81
I3
ssg82
g4028
sg75
(lp4035
S''
asbasbasbag68
(g84
g70
NtRp4036
(dp4037
g73
(dp4038
sg82
g3690
sg75
(lp4039
g68
(g89
g70
NtRp4040
(dp4041
g73
(dp4042
g93
g94
ssg82
g4036
sg75
(lp4043
S'title'
p4044
asbag68
(g89
g70
NtRp4045
(dp4046
g73
(dp4047
g100
g101
ssg82
g4036
sg75
(lp4048
S':'
asbag68
(g89
g70
NtRp4049
(dp4050
g73
(dp4051
sg82
g4036
sg75
(lp4052
g68
(g69
g70
NtRp4053
(dp4054
g73
(dp4055
g81
I3
ssg82
g4049
sg75
(lp4056
S'0'
asbasbasbasbasbasbasbag68
(g84
g70
NtRp4057
(dp4058
g73
(dp4059
sg82
g3578
sg75
(lp4060
g68
(g89
g70
NtRp4061
(dp4062
g73
(dp4063
g93
g94
ssg82
g4057
sg75
(lp4064
S'user_groups'
p4065
asbag68
(g89
g70
NtRp4066
(dp4067
g73
(dp4068
g100
g101
ssg82
g4057
sg75
(lp4069
S':'
asbag68
(g89
g70
NtRp4070
(dp4071
g73
(dp4072
sg82
g4057
sg75
(lp4073
g68
(g69
g70
NtRp4074
(dp4075
g73
(dp4076
g81
I4
ssg82
g4070
sg75
(lp4077
g68
(g77
g70
NtRp4078
(dp4079
g73
(dp4080
g81
I3
ssg82
Nsg75
(lp4081
g68
(g84
g70
NtRp4082
(dp4083
g73
(dp4084
sg82
g4078
sg75
(lp4085
g68
(g89
g70
NtRp4086
(dp4087
g73
(dp4088
g93
g94
ssg82
g4082
sg75
(lp4089
S'9'
asbag68
(g89
g70
NtRp4090
(dp4091
g73
(dp4092
g100
g101
ssg82
g4082
sg75
(lp4093
S':'
asbag68
(g89
g70
NtRp4094
(dp4095
g73
(dp4096
sg82
g4082
sg75
(lp4097
g68
(g69
g70
NtRp4098
(dp4099
g73
(dp4100
g81
I3
ssg82
g4094
sg75
(lp4101
S'user_2'
p4102
asbasbasbasbasbasbasbasbasbasbasbag68
(g84
g70
NtRp4103
(dp4104
g73
(dp4105
sg82
g3553
sg75
(lp4106
g68
(g89
g70
NtRp4107
(dp4108
g73
(dp4109
g93
g94
ssg82
g4103
sg75
(lp4110
S'flash'
p4111
asbag68
(g89
g70
NtRp4112
(dp4113
g73
(dp4114
g100
g101
ssg82
g4103
sg75
(lp4115
S':'
asbag68
(g89
g70
NtRp4116
(dp4117
g73
(dp4118
sg82
g4103
sg75
(lp4119
g68
(g69
g70
NtRp4120
(dp4121
g73
(dp4122
g81
I5
ssg82
g4116
sg75
(lp4123
S'None'
p4124
asbasbasbasbasbsS'etype'
p4125
S"<type 'exceptions.SyntaxError'>"
p4126
sS'date'
p4127
S'Sun Feb 17 23:03:30 2013'
p4128
sS'response'
p4129
g68
(g69
g70
NtRp4130
(dp4131
g73
(dp4132
sg75
(lp4133
g68
(g77
g70
NtRp4134
(dp4135
g73
(dp4136
g81
I5
ssg82
Nsg75
(lp4137
g68
(g84
g70
NtRp4138
(dp4139
g73
(dp4140
sg82
g4134
sg75
(lp4141
g68
(g89
g70
NtRp4142
(dp4143
g73
(dp4144
g93
g94
ssg82
g4138
sg75
(lp4145
g178
asbag68
(g89
g70
NtRp4146
(dp4147
g73
(dp4148
g100
g101
ssg82
g4138
sg75
(lp4149
S':'
asbag68
(g89
g70
NtRp4150
(dp4151
g73
(dp4152
sg82
g4138
sg75
(lp4153
g68
(g69
g70
NtRp4154
(dp4155
g73
(dp4156
g81
I5
ssg82
g4150
sg75
(lp4157
S'<cStringIO.StringO object at 0xb64982e0>'
p4158
asbasbasbag68
(g84
g70
NtRp4159
(dp4160
g73
(dp4161
sg82
g4134
sg75
(lp4162
g68
(g89
g70
NtRp4163
(dp4164
g73
(dp4165
g93
g94
ssg82
g4159
sg75
(lp4166
g266
asbag68
(g89
g70
NtRp4167
(dp4168
g73
(dp4169
g100
g101
ssg82
g4159
sg75
(lp4170
S':'
asbag68
(g89
g70
NtRp4171
(dp4172
g73
(dp4173
sg82
g4159
sg75
(lp4174
g68
(g69
g70
NtRp4175
(dp4176
g73
(dp4177
g81
I5
ssg82
g4171
sg75
(lp4178
g68
(g77
g70
NtRp4179
(dp4180
g73
(dp4181
g81
I4
ssg82
Nsg75
(lp4182
g68
(g84
g70
NtRp4183
(dp4184
g73
(dp4185
sg82
g4179
sg75
(lp4186
g68
(g89
g70
NtRp4187
(dp4188
g73
(dp4189
g93
g94
ssg82
g4183
sg75
(lp4190
S'session_id_dev_bootstrap_ch'
p4191
asbag68
(g89
g70
NtRp4192
(dp4193
g73
(dp4194
g100
g101
ssg82
g4183
sg75
(lp4195
S':'
asbag68
(g89
g70
NtRp4196
(dp4197
g73
(dp4198
sg82
g4183
sg75
(lp4199
g68
(g69
g70
NtRp4200
(dp4201
g73
(dp4202
g81
I4
ssg82
g4196
sg75
(lp4203
g870
ag68
(g77
g70
NtRp4204
(dp4205
g73
(dp4206
g81
I3
ssg82
Nsg75
(lp4207
g68
(g84
g70
NtRp4208
(dp4209
g73
(dp4210
sg82
g4204
sg75
(lp4211
g68
(g89
g70
NtRp4212
(dp4213
g73
(dp4214
g93
g94
ssg82
g4208
sg75
(lp4215
g317
asbag68
(g89
g70
NtRp4216
(dp4217
g73
(dp4218
g100
g101
ssg82
g4208
sg75
(lp4219
S':'
asbag68
(g89
g70
NtRp4220
(dp4221
g73
(dp4222
sg82
g4208
sg75
(lp4223
g68
(g69
g70
NtRp4224
(dp4225
g73
(dp4226
g81
I3
ssg82
g4220
sg75
(lp4227
S''
asbasbasbag68
(g84
g70
NtRp4228
(dp4229
g73
(dp4230
sg82
g4204
sg75
(lp4231
g68
(g89
g70
NtRp4232
(dp4233
g73
(dp4234
g93
g94
ssg82
g4228
sg75
(lp4235
g338
asbag68
(g89
g70
NtRp4236
(dp4237
g73
(dp4238
g100
g101
ssg82
g4228
sg75
(lp4239
S':'
asbag68
(g89
g70
NtRp4240
(dp4241
g73
(dp4242
sg82
g4228
sg75
(lp4243
g68
(g69
g70
NtRp4244
(dp4245
g73
(dp4246
g81
I3
ssg82
g4240
sg75
(lp4247
S''
asbasbasbag68
(g84
g70
NtRp4248
(dp4249
g73
(dp4250
sg82
g4204
sg75
(lp4251
g68
(g89
g70
NtRp4252
(dp4253
g73
(dp4254
g93
g94
ssg82
g4248
sg75
(lp4255
g359
asbag68
(g89
g70
NtRp4256
(dp4257
g73
(dp4258
g100
g101
ssg82
g4248
sg75
(lp4259
S':'
asbag68
(g89
g70
NtRp4260
(dp4261
g73
(dp4262
sg82
g4248
sg75
(lp4263
g68
(g69
g70
NtRp4264
(dp4265
g73
(dp4266
g81
I3
ssg82
g4260
sg75
(lp4267
S''
asbasbasbag68
(g84
g70
NtRp4268
(dp4269
g73
(dp4270
sg82
g4204
sg75
(lp4271
g68
(g89
g70
NtRp4272
(dp4273
g73
(dp4274
g93
g94
ssg82
g4268
sg75
(lp4275
g380
asbag68
(g89
g70
NtRp4276
(dp4277
g73
(dp4278
g100
g101
ssg82
g4268
sg75
(lp4279
S':'
asbag68
(g89
g70
NtRp4280
(dp4281
g73
(dp4282
sg82
g4268
sg75
(lp4283
g68
(g69
g70
NtRp4284
(dp4285
g73
(dp4286
g81
I3
ssg82
g4280
sg75
(lp4287
S''
asbasbasbag68
(g84
g70
NtRp4288
(dp4289
g73
(dp4290
sg82
g4204
sg75
(lp4291
g68
(g89
g70
NtRp4292
(dp4293
g73
(dp4294
g93
g94
ssg82
g4288
sg75
(lp4295
g401
asbag68
(g89
g70
NtRp4296
(dp4297
g73
(dp4298
g100
g101
ssg82
g4288
sg75
(lp4299
S':'
asbag68
(g89
g70
NtRp4300
(dp4301
g73
(dp4302
sg82
g4288
sg75
(lp4303
g68
(g69
g70
NtRp4304
(dp4305
g73
(dp4306
g81
I3
ssg82
g4300
sg75
(lp4307
S''
asbasbasbag68
(g84
g70
NtRp4308
(dp4309
g73
(dp4310
sg82
g4204
sg75
(lp4311
g68
(g89
g70
NtRp4312
(dp4313
g73
(dp4314
g93
g94
ssg82
g4308
sg75
(lp4315
g422
asbag68
(g89
g70
NtRp4316
(dp4317
g73
(dp4318
g100
g101
ssg82
g4308
sg75
(lp4319
S':'
asbag68
(g89
g70
NtRp4320
(dp4321
g73
(dp4322
sg82
g4308
sg75
(lp4323
g68
(g69
g70
NtRp4324
(dp4325
g73
(dp4326
g81
I3
ssg82
g4320
sg75
(lp4327
S'/'
asbasbasbag68
(g84
g70
NtRp4328
(dp4329
g73
(dp4330
sg82
g4204
sg75
(lp4331
g68
(g89
g70
NtRp4332
(dp4333
g73
(dp4334
g93
g94
ssg82
g4328
sg75
(lp4335
g443
asbag68
(g89
g70
NtRp4336
(dp4337
g73
(dp4338
g100
g101
ssg82
g4328
sg75
(lp4339
S':'
asbag68
(g89
g70
NtRp4340
(dp4341
g73
(dp4342
sg82
g4328
sg75
(lp4343
g68
(g69
g70
NtRp4344
(dp4345
g73
(dp4346
g81
I3
ssg82
g4340
sg75
(lp4347
S''
asbasbasbag68
(g84
g70
NtRp4348
(dp4349
g73
(dp4350
sg82
g4204
sg75
(lp4351
g68
(g89
g70
NtRp4352
(dp4353
g73
(dp4354
g93
g94
ssg82
g4348
sg75
(lp4355
g464
asbag68
(g89
g70
NtRp4356
(dp4357
g73
(dp4358
g100
g101
ssg82
g4348
sg75
(lp4359
S':'
asbag68
(g89
g70
NtRp4360
(dp4361
g73
(dp4362
sg82
g4348
sg75
(lp4363
g68
(g69
g70
NtRp4364
(dp4365
g73
(dp4366
g81
I3
ssg82
g4360
sg75
(lp4367
S''
asbasbasbasbasbasbasbasbasbasbasbag68
(g84
g70
NtRp4368
(dp4369
g73
(dp4370
sg82
g4134
sg75
(lp4371
g68
(g89
g70
NtRp4372
(dp4373
g73
(dp4374
g93
g94
ssg82
g4368
sg75
(lp4375
S'delimiters'
p4376
asbag68
(g89
g70
NtRp4377
(dp4378
g73
(dp4379
g100
g101
ssg82
g4368
sg75
(lp4380
S':'
asbag68
(g89
g70
NtRp4381
(dp4382
g73
(dp4383
sg82
g4368
sg75
(lp4384
g68
(g69
g70
NtRp4385
(dp4386
g73
(dp4387
g81
I5
ssg82
g4381
sg75
(lp4388
g68
(g77
g70
NtRp4389
(dp4390
g73
(dp4391
g81
I4
ssg82
Nsg75
(lp4392
g68
(g84
g70
NtRp4393
(dp4394
g73
(dp4395
sg82
g4389
sg75
(lp4396
g68
(g89
g70
NtRp4397
(dp4398
g73
(dp4399
sg82
g4393
sg75
(lp4400
g68
(g69
g70
NtRp4401
(dp4402
g73
(dp4403
g81
I4
ssg82
g4397
sg75
(lp4404
S'{{'
p4405
asbasbasbag68
(g84
g70
NtRp4406
(dp4407
g73
(dp4408
sg82
g4389
sg75
(lp4409
g68
(g89
g70
NtRp4410
(dp4411
g73
(dp4412
sg82
g4406
sg75
(lp4413
g68
(g69
g70
NtRp4414
(dp4415
g73
(dp4416
g81
I4
ssg82
g4410
sg75
(lp4417
S'}}'
p4418
asbasbasbasbasbasbasbag68
(g84
g70
NtRp4419
(dp4420
g73
(dp4421
sg82
g4134
sg75
(lp4422
g68
(g89
g70
NtRp4423
(dp4424
g73
(dp4425
g93
g94
ssg82
g4419
sg75
(lp4426
S'files'
p4427
asbag68
(g89
g70
NtRp4428
(dp4429
g73
(dp4430
g100
g101
ssg82
g4419
sg75
(lp4431
S':'
asbag68
(g89
g70
NtRp4432
(dp4433
g73
(dp4434
sg82
g4419
sg75
(lp4435
g68
(g69
g70
NtRp4436
(dp4437
g73
(dp4438
g81
I5
ssg82
g4432
sg75
(lp4439
g68
(g77
g70
NtRp4440
(dp4441
g73
(dp4442
g81
I4
ssg82
Nsg75
(lp4443
g68
(g84
g70
NtRp4444
(dp4445
g73
(dp4446
sg82
g4440
sg75
(lp4447
g68
(g89
g70
NtRp4448
(dp4449
g73
(dp4450
sg82
g4444
sg75
(lp4451
g68
(g69
g70
NtRp4452
(dp4453
g73
(dp4454
g81
I4
ssg82
g4448
sg75
(lp4455
S'/DEV_bootstrap_ch/static/plugin_wiki/ui/css/redmond/jquery-ui-1.8.5.custom.css'
p4456
asbasbasbag68
(g84
g70
NtRp4457
(dp4458
g73
(dp4459
sg82
g4440
sg75
(lp4460
g68
(g89
g70
NtRp4461
(dp4462
g73
(dp4463
sg82
g4457
sg75
(lp4464
g68
(g69
g70
NtRp4465
(dp4466
g73
(dp4467
g81
I4
ssg82
g4461
sg75
(lp4468
S'/DEV_bootstrap_ch/static/plugin_wiki/ui/js/jquery-ui-1.8.5.custom.min.js'
p4469
asbasbasbag68
(g84
g70
NtRp4470
(dp4471
g73
(dp4472
sg82
g4440
sg75
(lp4473
g68
(g89
g70
NtRp4474
(dp4475
g73
(dp4476
sg82
g4470
sg75
(lp4477
g68
(g69
g70
NtRp4478
(dp4479
g73
(dp4480
g81
I4
ssg82
g4474
sg75
(lp4481
S'/DEV_bootstrap_ch/static/plugin_wiki/jqgrid/ui.jqgrid.css'
p4482
asbasbasbag68
(g84
g70
NtRp4483
(dp4484
g73
(dp4485
sg82
g4440
sg75
(lp4486
g68
(g89
g70
NtRp4487
(dp4488
g73
(dp4489
sg82
g4483
sg75
(lp4490
g68
(g69
g70
NtRp4491
(dp4492
g73
(dp4493
g81
I4
ssg82
g4487
sg75
(lp4494
S'/DEV_bootstrap_ch/static/plugin_wiki/jqgrid/i18n/grid.locale-en.js'
p4495
asbasbasbag68
(g84
g70
NtRp4496
(dp4497
g73
(dp4498
sg82
g4440
sg75
(lp4499
g68
(g89
g70
NtRp4500
(dp4501
g73
(dp4502
sg82
g4496
sg75
(lp4503
g68
(g69
g70
NtRp4504
(dp4505
g73
(dp4506
g81
I4
ssg82
g4500
sg75
(lp4507
S'/DEV_bootstrap_ch/static/plugin_wiki/jqgrid/jquery.jqGrid.min.js'
p4508
asbasbasbag68
(g84
g70
NtRp4509
(dp4510
g73
(dp4511
sg82
g4440
sg75
(lp4512
g68
(g89
g70
NtRp4513
(dp4514
g73
(dp4515
sg82
g4509
sg75
(lp4516
g68
(g69
g70
NtRp4517
(dp4518
g73
(dp4519
g81
I4
ssg82
g4513
sg75
(lp4520
S'/DEV_bootstrap_ch/static/plugin_wiki/slideshow/jquery.cycle.min.js'
p4521
asbasbasbag68
(g84
g70
NtRp4522
(dp4523
g73
(dp4524
sg82
g4440
sg75
(lp4525
g68
(g89
g70
NtRp4526
(dp4527
g73
(dp4528
sg82
g4522
sg75
(lp4529
g68
(g69
g70
NtRp4530
(dp4531
g73
(dp4532
g81
I4
ssg82
g4526
sg75
(lp4533
S'/DEV_bootstrap_ch/static/plugin_wiki/multiselect/jquery.multiselect.css'
p4534
asbasbasbag68
(g84
g70
NtRp4535
(dp4536
g73
(dp4537
sg82
g4440
sg75
(lp4538
g68
(g89
g70
NtRp4539
(dp4540
g73
(dp4541
sg82
g4535
sg75
(lp4542
g68
(g69
g70
NtRp4543
(dp4544
g73
(dp4545
g81
I4
ssg82
g4539
sg75
(lp4546
S'/DEV_bootstrap_ch/static/plugin_wiki/multiselect/jquery.multiselect.js'
p4547
asbasbasbag68
(g84
g70
NtRp4548
(dp4549
g73
(dp4550
sg82
g4440
sg75
(lp4551
g68
(g89
g70
NtRp4552
(dp4553
g73
(dp4554
sg82
g4548
sg75
(lp4555
g68
(g69
g70
NtRp4556
(dp4557
g73
(dp4558
g81
I4
ssg82
g4552
sg75
(lp4559
S'/DEV_bootstrap_ch/static/plugin_wiki/rating/jquery.rating.css'
p4560
asbasbasbag68
(g84
g70
NtRp4561
(dp4562
g73
(dp4563
sg82
g4440
sg75
(lp4564
g68
(g89
g70
NtRp4565
(dp4566
g73
(dp4567
sg82
g4561
sg75
(lp4568
g68
(g69
g70
NtRp4569
(dp4570
g73
(dp4571
g81
I4
ssg82
g4565
sg75
(lp4572
S'/DEV_bootstrap_ch/static/plugin_wiki/rating/jquery.rating.js'
p4573
asbasbasbasbasbasbasbag68
(g84
g70
NtRp4574
(dp4575
g73
(dp4576
sg82
g4134
sg75
(lp4577
g68
(g89
g70
NtRp4578
(dp4579
g73
(dp4580
g93
g94
ssg82
g4574
sg75
(lp4581
S'flash'
p4582
asbag68
(g89
g70
NtRp4583
(dp4584
g73
(dp4585
g100
g101
ssg82
g4574
sg75
(lp4586
S':'
asbag68
(g89
g70
NtRp4587
(dp4588
g73
(dp4589
sg82
g4574
sg75
(lp4590
g68
(g69
g70
NtRp4591
(dp4592
g73
(dp4593
g81
I5
ssg82
g4587
sg75
(lp4594
S''
asbasbasbag68
(g84
g70
NtRp4595
(dp4596
g73
(dp4597
sg82
g4134
sg75
(lp4598
g68
(g89
g70
NtRp4599
(dp4600
g73
(dp4601
g93
g94
ssg82
g4595
sg75
(lp4602
S'generic_patterns'
p4603
asbag68
(g89
g70
NtRp4604
(dp4605
g73
(dp4606
g100
g101
ssg82
g4595
sg75
(lp4607
S':'
asbag68
(g89
g70
NtRp4608
(dp4609
g73
(dp4610
sg82
g4595
sg75
(lp4611
g68
(g69
g70
NtRp4612
(dp4613
g73
(dp4614
g81
I5
ssg82
g4608
sg75
(lp4615
g68
(g77
g70
NtRp4616
(dp4617
g73
(dp4618
g81
I4
ssg82
Nsg75
(lp4619
g68
(g84
g70
NtRp4620
(dp4621
g73
(dp4622
sg82
g4616
sg75
(lp4623
g68
(g89
g70
NtRp4624
(dp4625
g73
(dp4626
sg82
g4620
sg75
(lp4627
g68
(g69
g70
NtRp4628
(dp4629
g73
(dp4630
g81
I4
ssg82
g4624
sg75
(lp4631
S'*'
asbasbasbasbasbasbasbag68
(g84
g70
NtRp4632
(dp4633
g73
(dp4634
sg82
g4134
sg75
(lp4635
g68
(g89
g70
NtRp4636
(dp4637
g73
(dp4638
g93
g94
ssg82
g4632
sg75
(lp4639
S'google_analytics_id'
p4640
asbag68
(g89
g70
NtRp4641
(dp4642
g73
(dp4643
g100
g101
ssg82
g4632
sg75
(lp4644
S':'
asbag68
(g89
g70
NtRp4645
(dp4646
g73
(dp4647
sg82
g4632
sg75
(lp4648
g68
(g69
g70
NtRp4649
(dp4650
g73
(dp4651
g81
I5
ssg82
g4645
sg75
(lp4652
S'None'
p4653
asbasbasbag68
(g84
g70
NtRp4654
(dp4655
g73
(dp4656
sg82
g4134
sg75
(lp4657
g68
(g89
g70
NtRp4658
(dp4659
g73
(dp4660
g93
g94
ssg82
g4654
sg75
(lp4661
S'headers'
p4662
asbag68
(g89
g70
NtRp4663
(dp4664
g73
(dp4665
g100
g101
ssg82
g4654
sg75
(lp4666
S':'
asbag68
(g89
g70
NtRp4667
(dp4668
g73
(dp4669
sg82
g4654
sg75
(lp4670
g68
(g69
g70
NtRp4671
(dp4672
g73
(dp4673
g81
I5
ssg82
g4667
sg75
(lp4674
g68
(g77
g70
NtRp4675
(dp4676
g73
(dp4677
g81
I4
ssg82
Nsg75
(lp4678
g68
(g84
g70
NtRp4679
(dp4680
g73
(dp4681
sg82
g4675
sg75
(lp4682
g68
(g89
g70
NtRp4683
(dp4684
g73
(dp4685
g93
g94
ssg82
g4679
sg75
(lp4686
S'X-Powered-By'
p4687
asbag68
(g89
g70
NtRp4688
(dp4689
g73
(dp4690
g100
g101
ssg82
g4679
sg75
(lp4691
S':'
asbag68
(g89
g70
NtRp4692
(dp4693
g73
(dp4694
sg82
g4679
sg75
(lp4695
g68
(g69
g70
NtRp4696
(dp4697
g73
(dp4698
g81
I4
ssg82
g4692
sg75
(lp4699
S'web2py'
p4700
asbasbasbasbasbasbasbag68
(g84
g70
NtRp4701
(dp4702
g73
(dp4703
sg82
g4134
sg75
(lp4704
g68
(g89
g70
NtRp4705
(dp4706
g73
(dp4707
g93
g94
ssg82
g4701
sg75
(lp4708
S'menu'
p4709
asbag68
(g89
g70
NtRp4710
(dp4711
g73
(dp4712
g100
g101
ssg82
g4701
sg75
(lp4713
S':'
asbag68
(g89
g70
NtRp4714
(dp4715
g73
(dp4716
sg82
g4701
sg75
(lp4717
g68
(g69
g70
NtRp4718
(dp4719
g73
(dp4720
g81
I5
ssg82
g4714
sg75
(lp4721
g68
(g77
g70
NtRp4722
(dp4723
g73
(dp4724
g81
I4
ssg82
Nsg75
(lp4725
g68
(g84
g70
NtRp4726
(dp4727
g73
(dp4728
sg82
g4722
sg75
(lp4729
g68
(g89
g70
NtRp4730
(dp4731
g73
(dp4732
sg82
g4726
sg75
(lp4733
g68
(g69
g70
NtRp4734
(dp4735
g73
(dp4736
g81
I4
ssg82
g4730
sg75
(lp4737
g68
(g77
g70
NtRp4738
(dp4739
g73
(dp4740
g81
I3
ssg82
Nsg75
(lp4741
g68
(g84
g70
NtRp4742
(dp4743
g73
(dp4744
sg82
g4738
sg75
(lp4745
g68
(g89
g70
NtRp4746
(dp4747
g73
(dp4748
sg82
g4742
sg75
(lp4749
g68
(g69
g70
NtRp4750
(dp4751
g73
(dp4752
g81
I3
ssg82
g4746
sg75
(lp4753
cgluon.languages
lazyT_unpickle
p4754
(S't\x04\x00\x00\x00Home'
tRp4755
asbasbasbag68
(g84
g70
NtRp4756
(dp4757
g73
(dp4758
sg82
g4738
sg75
(lp4759
g68
(g89
g70
NtRp4760
(dp4761
g73
(dp4762
sg82
g4756
sg75
(lp4763
g68
(g69
g70
NtRp4764
(dp4765
g73
(dp4766
g81
I3
ssg82
g4760
sg75
(lp4767
g111
asbasbasbag68
(g84
g70
NtRp4768
(dp4769
g73
(dp4770
sg82
g4738
sg75
(lp4771
g68
(g89
g70
NtRp4772
(dp4773
g73
(dp4774
sg82
g4768
sg75
(lp4775
g68
(g69
g70
NtRp4776
(dp4777
g73
(dp4778
g81
I3
ssg82
g4772
sg75
(lp4779
S'/DEV_bootstrap_ch/default/list_all_projects'
p4780
asbasbasbag68
(g84
g70
NtRp4781
(dp4782
g73
(dp4783
sg82
g4738
sg75
(lp4784
g68
(g89
g70
NtRp4785
(dp4786
g73
(dp4787
sg82
g4781
sg75
(lp4788
g68
(g69
g70
NtRp4789
(dp4790
g73
(dp4791
g81
I3
ssg82
g4785
sg75
(lp4792
g68
(g77
g70
NtRp4793
(dp4794
g73
(dp4795
g81
I2
ssg82
Nsg75
(lp4796
sbasbasbasbasbasbasbasbag68
(g84
g70
NtRp4797
(dp4798
g73
(dp4799
sg82
g4722
sg75
(lp4800
g68
(g89
g70
NtRp4801
(dp4802
g73
(dp4803
sg82
g4797
sg75
(lp4804
g68
(g69
g70
NtRp4805
(dp4806
g73
(dp4807
g81
I4
ssg82
g4801
sg75
(lp4808
g68
(g77
g70
NtRp4809
(dp4810
g73
(dp4811
g81
I3
ssg82
Nsg75
(lp4812
g68
(g84
g70
NtRp4813
(dp4814
g73
(dp4815
sg82
g4809
sg75
(lp4816
g68
(g89
g70
NtRp4817
(dp4818
g73
(dp4819
sg82
g4813
sg75
(lp4820
g68
(g69
g70
NtRp4821
(dp4822
g73
(dp4823
g81
I3
ssg82
g4817
sg75
(lp4824
g4754
(S't\x07\x00\x00\x00Project'
tRp4825
asbasbasbag68
(g84
g70
NtRp4826
(dp4827
g73
(dp4828
sg82
g4809
sg75
(lp4829
g68
(g89
g70
NtRp4830
(dp4831
g73
(dp4832
sg82
g4826
sg75
(lp4833
g68
(g69
g70
NtRp4834
(dp4835
g73
(dp4836
g81
I3
ssg82
g4830
sg75
(lp4837
g111
asbasbasbag68
(g84
g70
NtRp4838
(dp4839
g73
(dp4840
sg82
g4809
sg75
(lp4841
g68
(g89
g70
NtRp4842
(dp4843
g73
(dp4844
sg82
g4838
sg75
(lp4845
g68
(g69
g70
NtRp4846
(dp4847
g73
(dp4848
g81
I3
ssg82
g4842
sg75
(lp4849
S'/DEV_bootstrap_ch/default/project_viewer/1'
p4850
asbasbasbag68
(g84
g70
NtRp4851
(dp4852
g73
(dp4853
sg82
g4809
sg75
(lp4854
g68
(g89
g70
NtRp4855
(dp4856
g73
(dp4857
sg82
g4851
sg75
(lp4858
g68
(g69
g70
NtRp4859
(dp4860
g73
(dp4861
g81
I3
ssg82
g4855
sg75
(lp4862
g68
(g77
g70
NtRp4863
(dp4864
g73
(dp4865
g81
I2
ssg82
Nsg75
(lp4866
g68
(g84
g70
NtRp4867
(dp4868
g73
(dp4869
sg82
g4863
sg75
(lp4870
g68
(g89
g70
NtRp4871
(dp4872
g73
(dp4873
sg82
g4867
sg75
(lp4874
g68
(g69
g70
NtRp4875
(dp4876
g73
(dp4877
g81
I2
ssg82
g4871
sg75
(lp4878
g68
(g77
g70
NtRp4879
(dp4880
g73
(dp4881
g81
I1
ssg82
Nsg75
(lp4882
g68
(g84
g70
NtRp4883
(dp4884
g73
(dp4885
sg82
g4879
sg75
(lp4886
g68
(g89
g70
NtRp4887
(dp4888
g73
(dp4889
sg82
g4883
sg75
(lp4890
g68
(g69
g70
NtRp4891
(dp4892
g73
(dp4893
g81
I1
ssg82
g4887
sg75
(lp4894
g4754
(S's\n\x00\x00\x00Grant Role'
tRp4895
asbasbasbag68
(g84
g70
NtRp4896
(dp4897
g73
(dp4898
sg82
g4879
sg75
(lp4899
g68
(g89
g70
NtRp4900
(dp4901
g73
(dp4902
sg82
g4896
sg75
(lp4903
g68
(g69
g70
NtRp4904
(dp4905
g73
(dp4906
g81
I1
ssg82
g4900
sg75
(lp4907
I00
asbasbasbag68
(g84
g70
NtRp4908
(dp4909
g73
(dp4910
sg82
g4879
sg75
(lp4911
g68
(g89
g70
NtRp4912
(dp4913
g73
(dp4914
sg82
g4908
sg75
(lp4915
g68
(g69
g70
NtRp4916
(dp4917
g73
(dp4918
g81
I1
ssg82
g4912
sg75
(lp4919
S'/DEV_bootstrap_ch/default/roles/1'
p4920
asbasbasbasbasbasbasbag68
(g84
g70
NtRp4921
(dp4922
g73
(dp4923
sg82
g4863
sg75
(lp4924
g68
(g89
g70
NtRp4925
(dp4926
g73
(dp4927
sg82
g4921
sg75
(lp4928
g68
(g69
g70
NtRp4929
(dp4930
g73
(dp4931
g81
I2
ssg82
g4925
sg75
(lp4932
g68
(g77
g70
NtRp4933
(dp4934
g73
(dp4935
g81
I1
ssg82
Nsg75
(lp4936
g68
(g84
g70
NtRp4937
(dp4938
g73
(dp4939
sg82
g4933
sg75
(lp4940
g68
(g89
g70
NtRp4941
(dp4942
g73
(dp4943
sg82
g4937
sg75
(lp4944
g68
(g69
g70
NtRp4945
(dp4946
g73
(dp4947
g81
I1
ssg82
g4941
sg75
(lp4948
g4754
(S's\x0c\x00\x00\x00Edit Project'
tRp4949
asbasbasbag68
(g84
g70
NtRp4950
(dp4951
g73
(dp4952
sg82
g4933
sg75
(lp4953
g68
(g89
g70
NtRp4954
(dp4955
g73
(dp4956
sg82
g4950
sg75
(lp4957
g68
(g69
g70
NtRp4958
(dp4959
g73
(dp4960
g81
I1
ssg82
g4954
sg75
(lp4961
I00
asbasbasbag68
(g84
g70
NtRp4962
(dp4963
g73
(dp4964
sg82
g4933
sg75
(lp4965
g68
(g89
g70
NtRp4966
(dp4967
g73
(dp4968
sg82
g4962
sg75
(lp4969
g68
(g69
g70
NtRp4970
(dp4971
g73
(dp4972
g81
I1
ssg82
g4966
sg75
(lp4973
S'/DEV_bootstrap_ch/default/edit_project/1'
p4974
asbasbasbasbasbasbasbag68
(g84
g70
NtRp4975
(dp4976
g73
(dp4977
sg82
g4863
sg75
(lp4978
g68
(g89
g70
NtRp4979
(dp4980
g73
(dp4981
sg82
g4975
sg75
(lp4982
g68
(g69
g70
NtRp4983
(dp4984
g73
(dp4985
g81
I2
ssg82
g4979
sg75
(lp4986
g68
(g77
g70
NtRp4987
(dp4988
g73
(dp4989
g81
I1
ssg82
Nsg75
(lp4990
g68
(g84
g70
NtRp4991
(dp4992
g73
(dp4993
sg82
g4987
sg75
(lp4994
g68
(g89
g70
NtRp4995
(dp4996
g73
(dp4997
sg82
g4991
sg75
(lp4998
g68
(g69
g70
NtRp4999
(dp5000
g73
(dp5001
g81
I1
ssg82
g4995
sg75
(lp5002
g4754
(S't\x06\x00\x00\x00SignUP'
tRp5003
asbasbasbag68
(g84
g70
NtRp5004
(dp5005
g73
(dp5006
sg82
g4987
sg75
(lp5007
g68
(g89
g70
NtRp5008
(dp5009
g73
(dp5010
sg82
g5004
sg75
(lp5011
g68
(g69
g70
NtRp5012
(dp5013
g73
(dp5014
g81
I1
ssg82
g5008
sg75
(lp5015
I00
asbasbasbag68
(g84
g70
NtRp5016
(dp5017
g73
(dp5018
sg82
g4987
sg75
(lp5019
g68
(g89
g70
NtRp5020
(dp5021
g73
(dp5022
sg82
g5016
sg75
(lp5023
g68
(g69
g70
NtRp5024
(dp5025
g73
(dp5026
g81
I1
ssg82
g5020
sg75
(lp5027
S'/DEV_bootstrap_ch/default/reg_project/1'
p5028
asbasbasbasbasbasbasbasbasbasbasbasbasbasbasbag68
(g84
g70
NtRp5029
(dp5030
g73
(dp5031
sg82
g4722
sg75
(lp5032
g68
(g89
g70
NtRp5033
(dp5034
g73
(dp5035
sg82
g5029
sg75
(lp5036
g68
(g69
g70
NtRp5037
(dp5038
g73
(dp5039
g81
I4
ssg82
g5033
sg75
(lp5040
g68
(g77
g70
NtRp5041
(dp5042
g73
(dp5043
g81
I3
ssg82
Nsg75
(lp5044
g68
(g84
g70
NtRp5045
(dp5046
g73
(dp5047
sg82
g5041
sg75
(lp5048
g68
(g89
g70
NtRp5049
(dp5050
g73
(dp5051
sg82
g5045
sg75
(lp5052
g68
(g69
g70
NtRp5053
(dp5054
g73
(dp5055
g81
I3
ssg82
g5049
sg75
(lp5056
g4754
(S't\x07\x00\x00\x00Samples'
tRp5057
asbasbasbag68
(g84
g70
NtRp5058
(dp5059
g73
(dp5060
sg82
g5041
sg75
(lp5061
g68
(g89
g70
NtRp5062
(dp5063
g73
(dp5064
sg82
g5058
sg75
(lp5065
g68
(g69
g70
NtRp5066
(dp5067
g73
(dp5068
g81
I3
ssg82
g5062
sg75
(lp5069
g111
asbasbasbag68
(g84
g70
NtRp5070
(dp5071
g73
(dp5072
sg82
g5041
sg75
(lp5073
g68
(g89
g70
NtRp5074
(dp5075
g73
(dp5076
sg82
g5070
sg75
(lp5077
g68
(g69
g70
NtRp5078
(dp5079
g73
(dp5080
g81
I3
ssg82
g5074
sg75
(lp5081
S'/DEV_bootstrap_ch/default/my_samples/1'
p5082
asbasbasbag68
(g84
g70
NtRp5083
(dp5084
g73
(dp5085
sg82
g5041
sg75
(lp5086
g68
(g89
g70
NtRp5087
(dp5088
g73
(dp5089
sg82
g5083
sg75
(lp5090
g68
(g69
g70
NtRp5091
(dp5092
g73
(dp5093
g81
I3
ssg82
g5087
sg75
(lp5094
g68
(g77
g70
NtRp5095
(dp5096
g73
(dp5097
g81
I2
ssg82
Nsg75
(lp5098
g68
(g84
g70
NtRp5099
(dp5100
g73
(dp5101
sg82
g5095
sg75
(lp5102
g68
(g89
g70
NtRp5103
(dp5104
g73
(dp5105
sg82
g5099
sg75
(lp5106
g68
(g69
g70
NtRp5107
(dp5108
g73
(dp5109
g81
I2
ssg82
g5103
sg75
(lp5110
g68
(g77
g70
NtRp5111
(dp5112
g73
(dp5113
g81
I1
ssg82
Nsg75
(lp5114
g68
(g84
g70
NtRp5115
(dp5116
g73
(dp5117
sg82
g5111
sg75
(lp5118
g68
(g89
g70
NtRp5119
(dp5120
g73
(dp5121
sg82
g5115
sg75
(lp5122
g68
(g69
g70
NtRp5123
(dp5124
g73
(dp5125
g81
I1
ssg82
g5119
sg75
(lp5126
g4754
(S's\n\x00\x00\x00My Samples'
tRp5127
asbasbasbag68
(g84
g70
NtRp5128
(dp5129
g73
(dp5130
sg82
g5111
sg75
(lp5131
g68
(g89
g70
NtRp5132
(dp5133
g73
(dp5134
sg82
g5128
sg75
(lp5135
g68
(g69
g70
NtRp5136
(dp5137
g73
(dp5138
g81
I1
ssg82
g5132
sg75
(lp5139
I00
asbasbasbag68
(g84
g70
NtRp5140
(dp5141
g73
(dp5142
sg82
g5111
sg75
(lp5143
g68
(g89
g70
NtRp5144
(dp5145
g73
(dp5146
sg82
g5140
sg75
(lp5147
g68
(g69
g70
NtRp5148
(dp5149
g73
(dp5150
g81
I1
ssg82
g5144
sg75
(lp5151
S'/DEV_bootstrap_ch/default/my_samples/1'
p5152
asbasbasbasbasbasbasbasbasbasbasbasbasbasbasbasbasbasbasbag68
(g84
g70
NtRp5153
(dp5154
g73
(dp5155
sg82
g4134
sg75
(lp5156
g68
(g89
g70
NtRp5157
(dp5158
g73
(dp5159
g93
g94
ssg82
g5153
sg75
(lp5160
S'meta'
p5161
asbag68
(g89
g70
NtRp5162
(dp5163
g73
(dp5164
g100
g101
ssg82
g5153
sg75
(lp5165
S':'
asbag68
(g89
g70
NtRp5166
(dp5167
g73
(dp5168
sg82
g5153
sg75
(lp5169
g68
(g69
g70
NtRp5170
(dp5171
g73
(dp5172
g81
I5
ssg82
g5166
sg75
(lp5173
g68
(g77
g70
NtRp5174
(dp5175
g73
(dp5176
g81
I4
ssg82
Nsg75
(lp5177
g68
(g84
g70
NtRp5178
(dp5179
g73
(dp5180
sg82
g5174
sg75
(lp5181
g68
(g89
g70
NtRp5182
(dp5183
g73
(dp5184
g93
g94
ssg82
g5178
sg75
(lp5185
S'author'
p5186
asbag68
(g89
g70
NtRp5187
(dp5188
g73
(dp5189
g100
g101
ssg82
g5178
sg75
(lp5190
S':'
asbag68
(g89
g70
NtRp5191
(dp5192
g73
(dp5193
sg82
g5178
sg75
(lp5194
g68
(g69
g70
NtRp5195
(dp5196
g73
(dp5197
g81
I4
ssg82
g5191
sg75
(lp5198
S'Vikram Pudi <vikram@iiit.ac.in>'
p5199
asbasbasbag68
(g84
g70
NtRp5200
(dp5201
g73
(dp5202
sg82
g5174
sg75
(lp5203
g68
(g89
g70
NtRp5204
(dp5205
g73
(dp5206
g93
g94
ssg82
g5200
sg75
(lp5207
S'copyright'
p5208
asbag68
(g89
g70
NtRp5209
(dp5210
g73
(dp5211
g100
g101
ssg82
g5200
sg75
(lp5212
S':'
asbag68
(g89
g70
NtRp5213
(dp5214
g73
(dp5215
sg82
g5200
sg75
(lp5216
g68
(g69
g70
NtRp5217
(dp5218
g73
(dp5219
g81
I4
ssg82
g5213
sg75
(lp5220
S'Copyright 2011'
p5221
asbasbasbag68
(g84
g70
NtRp5222
(dp5223
g73
(dp5224
sg82
g5174
sg75
(lp5225
g68
(g89
g70
NtRp5226
(dp5227
g73
(dp5228
g93
g94
ssg82
g5222
sg75
(lp5229
S'description'
p5230
asbag68
(g89
g70
NtRp5231
(dp5232
g73
(dp5233
g100
g101
ssg82
g5222
sg75
(lp5234
S':'
asbag68
(g89
g70
NtRp5235
(dp5236
g73
(dp5237
sg82
g5222
sg75
(lp5238
g68
(g69
g70
NtRp5239
(dp5240
g73
(dp5241
g81
I4
ssg82
g5235
sg75
(lp5242
S'Computational Core for Plant Metabolomics -- A project sanctioned by DBT, Govt. of India'
p5243
asbasbasbag68
(g84
g70
NtRp5244
(dp5245
g73
(dp5246
sg82
g5174
sg75
(lp5247
g68
(g89
g70
NtRp5248
(dp5249
g73
(dp5250
g93
g94
ssg82
g5244
sg75
(lp5251
S'generator'
p5252
asbag68
(g89
g70
NtRp5253
(dp5254
g73
(dp5255
g100
g101
ssg82
g5244
sg75
(lp5256
S':'
asbag68
(g89
g70
NtRp5257
(dp5258
g73
(dp5259
sg82
g5244
sg75
(lp5260
g68
(g69
g70
NtRp5261
(dp5262
g73
(dp5263
g81
I4
ssg82
g5257
sg75
(lp5264
S'Web2py Web Framework'
p5265
asbasbasbag68
(g84
g70
NtRp5266
(dp5267
g73
(dp5268
sg82
g5174
sg75
(lp5269
g68
(g89
g70
NtRp5270
(dp5271
g73
(dp5272
g93
g94
ssg82
g5266
sg75
(lp5273
S'keywords'
p5274
asbag68
(g89
g70
NtRp5275
(dp5276
g73
(dp5277
g100
g101
ssg82
g5266
sg75
(lp5278
S':'
asbag68
(g89
g70
NtRp5279
(dp5280
g73
(dp5281
sg82
g5266
sg75
(lp5282
g68
(g69
g70
NtRp5283
(dp5284
g73
(dp5285
g81
I4
ssg82
g5279
sg75
(lp5286
S'web2py, python, metabolome, metabolomics'
p5287
asbasbasbasbasbasbasbag68
(g84
g70
NtRp5288
(dp5289
g73
(dp5290
sg82
g4134
sg75
(lp5291
g68
(g89
g70
NtRp5292
(dp5293
g73
(dp5294
g93
g94
ssg82
g5288
sg75
(lp5295
S'models_to_run'
p5296
asbag68
(g89
g70
NtRp5297
(dp5298
g73
(dp5299
g100
g101
ssg82
g5288
sg75
(lp5300
S':'
asbag68
(g89
g70
NtRp5301
(dp5302
g73
(dp5303
sg82
g5288
sg75
(lp5304
g68
(g69
g70
NtRp5305
(dp5306
g73
(dp5307
g81
I5
ssg82
g5301
sg75
(lp5308
g68
(g77
g70
NtRp5309
(dp5310
g73
(dp5311
g81
I4
ssg82
Nsg75
(lp5312
g68
(g84
g70
NtRp5313
(dp5314
g73
(dp5315
sg82
g5309
sg75
(lp5316
g68
(g89
g70
NtRp5317
(dp5318
g73
(dp5319
sg82
g5313
sg75
(lp5320
g68
(g69
g70
NtRp5321
(dp5322
g73
(dp5323
g81
I4
ssg82
g5317
sg75
(lp5324
S'^\\w+\\.py$'
p5325
asbasbasbag68
(g84
g70
NtRp5326
(dp5327
g73
(dp5328
sg82
g5309
sg75
(lp5329
g68
(g89
g70
NtRp5330
(dp5331
g73
(dp5332
sg82
g5326
sg75
(lp5333
g68
(g69
g70
NtRp5334
(dp5335
g73
(dp5336
g81
I4
ssg82
g5330
sg75
(lp5337
S'^default/\\w+\\.py$'
p5338
asbasbasbag68
(g84
g70
NtRp5339
(dp5340
g73
(dp5341
sg82
g5309
sg75
(lp5342
g68
(g89
g70
NtRp5343
(dp5344
g73
(dp5345
sg82
g5339
sg75
(lp5346
g68
(g69
g70
NtRp5347
(dp5348
g73
(dp5349
g81
I4
ssg82
g5343
sg75
(lp5350
S'^default/project_viewer/\\w+\\.py$'
p5351
asbasbasbasbasbasbasbag68
(g84
g70
NtRp5352
(dp5353
g73
(dp5354
sg82
g4134
sg75
(lp5355
g68
(g89
g70
NtRp5356
(dp5357
g73
(dp5358
g93
g94
ssg82
g5352
sg75
(lp5359
S'postprocessing'
p5360
asbag68
(g89
g70
NtRp5361
(dp5362
g73
(dp5363
g100
g101
ssg82
g5352
sg75
(lp5364
S':'
asbag68
(g89
g70
NtRp5365
(dp5366
g73
(dp5367
sg82
g5352
sg75
(lp5368
g68
(g69
g70
NtRp5369
(dp5370
g73
(dp5371
g81
I5
ssg82
g5365
sg75
(lp5372
g68
(g77
g70
NtRp5373
(dp5374
g73
(dp5375
g81
I4
ssg82
Nsg75
(lp5376
sbasbasbasbag68
(g84
g70
NtRp5377
(dp5378
g73
(dp5379
sg82
g4134
sg75
(lp5380
g68
(g89
g70
NtRp5381
(dp5382
g73
(dp5383
g93
g94
ssg82
g5377
sg75
(lp5384
S'session_cookie_expires'
p5385
asbag68
(g89
g70
NtRp5386
(dp5387
g73
(dp5388
g100
g101
ssg82
g5377
sg75
(lp5389
S':'
asbag68
(g89
g70
NtRp5390
(dp5391
g73
(dp5392
sg82
g5377
sg75
(lp5393
g68
(g69
g70
NtRp5394
(dp5395
g73
(dp5396
g81
I5
ssg82
g5390
sg75
(lp5397
S'None'
p5398
asbasbasbag68
(g84
g70
NtRp5399
(dp5400
g73
(dp5401
sg82
g4134
sg75
(lp5402
g68
(g89
g70
NtRp5403
(dp5404
g73
(dp5405
g93
g94
ssg82
g5399
sg75
(lp5406
S'session_data_name'
p5407
asbag68
(g89
g70
NtRp5408
(dp5409
g73
(dp5410
g100
g101
ssg82
g5399
sg75
(lp5411
S':'
asbag68
(g89
g70
NtRp5412
(dp5413
g73
(dp5414
sg82
g5399
sg75
(lp5415
g68
(g69
g70
NtRp5416
(dp5417
g73
(dp5418
g81
I5
ssg82
g5412
sg75
(lp5419
S'session_data_dev_bootstrap_ch'
p5420
asbasbasbag68
(g84
g70
NtRp5421
(dp5422
g73
(dp5423
sg82
g4134
sg75
(lp5424
g68
(g89
g70
NtRp5425
(dp5426
g73
(dp5427
g93
g94
ssg82
g5421
sg75
(lp5428
S'session_file'
p5429
asbag68
(g89
g70
NtRp5430
(dp5431
g73
(dp5432
g100
g101
ssg82
g5421
sg75
(lp5433
S':'
asbag68
(g89
g70
NtRp5434
(dp5435
g73
(dp5436
sg82
g5421
sg75
(lp5437
g68
(g69
g70
NtRp5438
(dp5439
g73
(dp5440
g81
I5
ssg82
g5434
sg75
(lp5441
S"<open file '/home/anil/bootstrap/web2py/applications/DEV_bootstrap_ch/sessions/127.0.0.1-270b038b-df00-4d5c-949a-e87692880510', mode 'rb+' at 0xae1152e0>"
p5442
asbasbasbag68
(g84
g70
NtRp5443
(dp5444
g73
(dp5445
sg82
g4134
sg75
(lp5446
g68
(g89
g70
NtRp5447
(dp5448
g73
(dp5449
g93
g94
ssg82
g5443
sg75
(lp5450
S'session_filename'
p5451
asbag68
(g89
g70
NtRp5452
(dp5453
g73
(dp5454
g100
g101
ssg82
g5443
sg75
(lp5455
S':'
asbag68
(g89
g70
NtRp5456
(dp5457
g73
(dp5458
sg82
g5443
sg75
(lp5459
g68
(g69
g70
NtRp5460
(dp5461
g73
(dp5462
g81
I5
ssg82
g5456
sg75
(lp5463
S'/home/anil/bootstrap/web2py/applications/DEV_bootstrap_ch/sessions/127.0.0.1-270b038b-df00-4d5c-949a-e87692880510'
p5464
asbasbasbag68
(g84
g70
NtRp5465
(dp5466
g73
(dp5467
sg82
g4134
sg75
(lp5468
g68
(g89
g70
NtRp5469
(dp5470
g73
(dp5471
g93
g94
ssg82
g5465
sg75
(lp5472
S'session_id'
p5473
asbag68
(g89
g70
NtRp5474
(dp5475
g73
(dp5476
g100
g101
ssg82
g5465
sg75
(lp5477
S':'
asbag68
(g89
g70
NtRp5478
(dp5479
g73
(dp5480
sg82
g5465
sg75
(lp5481
g68
(g69
g70
NtRp5482
(dp5483
g73
(dp5484
g81
I5
ssg82
g5478
sg75
(lp5485
g870
asbasbasbag68
(g84
g70
NtRp5486
(dp5487
g73
(dp5488
sg82
g4134
sg75
(lp5489
g68
(g89
g70
NtRp5490
(dp5491
g73
(dp5492
g93
g94
ssg82
g5486
sg75
(lp5493
S'session_id_name'
p5494
asbag68
(g89
g70
NtRp5495
(dp5496
g73
(dp5497
g100
g101
ssg82
g5486
sg75
(lp5498
S':'
asbag68
(g89
g70
NtRp5499
(dp5500
g73
(dp5501
sg82
g5486
sg75
(lp5502
g68
(g69
g70
NtRp5503
(dp5504
g73
(dp5505
g81
I5
ssg82
g5499
sg75
(lp5506
g4191
asbasbasbag68
(g84
g70
NtRp5507
(dp5508
g73
(dp5509
sg82
g4134
sg75
(lp5510
g68
(g89
g70
NtRp5511
(dp5512
g73
(dp5513
g93
g94
ssg82
g5507
sg75
(lp5514
S'session_locked'
p5515
asbag68
(g89
g70
NtRp5516
(dp5517
g73
(dp5518
g100
g101
ssg82
g5507
sg75
(lp5519
S':'
asbag68
(g89
g70
NtRp5520
(dp5521
g73
(dp5522
sg82
g5507
sg75
(lp5523
g68
(g69
g70
NtRp5524
(dp5525
g73
(dp5526
g81
I5
ssg82
g5520
sg75
(lp5527
g2022
asbasbasbag68
(g84
g70
NtRp5528
(dp5529
g73
(dp5530
sg82
g4134
sg75
(lp5531
g68
(g89
g70
NtRp5532
(dp5533
g73
(dp5534
g93
g94
ssg82
g5528
sg75
(lp5535
S'session_new'
p5536
asbag68
(g89
g70
NtRp5537
(dp5538
g73
(dp5539
g100
g101
ssg82
g5528
sg75
(lp5540
S':'
asbag68
(g89
g70
NtRp5541
(dp5542
g73
(dp5543
sg82
g5528
sg75
(lp5544
g68
(g69
g70
NtRp5545
(dp5546
g73
(dp5547
g81
I5
ssg82
g5541
sg75
(lp5548
g111
asbasbasbag68
(g84
g70
NtRp5549
(dp5550
g73
(dp5551
sg82
g4134
sg75
(lp5552
g68
(g89
g70
NtRp5553
(dp5554
g73
(dp5555
g93
g94
ssg82
g5549
sg75
(lp5556
S'session_storage_type'
p5557
asbag68
(g89
g70
NtRp5558
(dp5559
g73
(dp5560
g100
g101
ssg82
g5549
sg75
(lp5561
S':'
asbag68
(g89
g70
NtRp5562
(dp5563
g73
(dp5564
sg82
g5549
sg75
(lp5565
g68
(g69
g70
NtRp5566
(dp5567
g73
(dp5568
g81
I5
ssg82
g5562
sg75
(lp5569
g3495
asbasbasbag68
(g84
g70
NtRp5570
(dp5571
g73
(dp5572
sg82
g4134
sg75
(lp5573
g68
(g89
g70
NtRp5574
(dp5575
g73
(dp5576
g93
g94
ssg82
g5570
sg75
(lp5577
S'status'
p5578
asbag68
(g89
g70
NtRp5579
(dp5580
g73
(dp5581
g100
g101
ssg82
g5570
sg75
(lp5582
S':'
asbag68
(g89
g70
NtRp5583
(dp5584
g73
(dp5585
sg82
g5570
sg75
(lp5586
g68
(g69
g70
NtRp5587
(dp5588
g73
(dp5589
g81
I5
ssg82
g5583
sg75
(lp5590
S'200'
p5591
asbasbasbag68
(g84
g70
NtRp5592
(dp5593
g73
(dp5594
sg82
g4134
sg75
(lp5595
g68
(g89
g70
NtRp5596
(dp5597
g73
(dp5598
g93
g94
ssg82
g5592
sg75
(lp5599
S'subtitle'
p5600
asbag68
(g89
g70
NtRp5601
(dp5602
g73
(dp5603
g100
g101
ssg82
g5592
sg75
(lp5604
S':'
asbag68
(g89
g70
NtRp5605
(dp5606
g73
(dp5607
sg82
g5592
sg75
(lp5608
g68
(g69
g70
NtRp5609
(dp5610
g73
(dp5611
g81
I5
ssg82
g5605
sg75
(lp5612
g4754
(S's)\x00\x00\x00Computational Core for Plant Metabolomics'
tRp5613
asbasbasbag68
(g84
g70
NtRp5614
(dp5615
g73
(dp5616
sg82
g4134
sg75
(lp5617
g68
(g89
g70
NtRp5618
(dp5619
g73
(dp5620
g93
g94
ssg82
g5614
sg75
(lp5621
g4044
asbag68
(g89
g70
NtRp5622
(dp5623
g73
(dp5624
g100
g101
ssg82
g5614
sg75
(lp5625
S':'
asbag68
(g89
g70
NtRp5626
(dp5627
g73
(dp5628
sg82
g5614
sg75
(lp5629
g68
(g69
g70
NtRp5630
(dp5631
g73
(dp5632
g81
I5
ssg82
g5626
sg75
(lp5633
g133
asbasbasbag68
(g84
g70
NtRp5634
(dp5635
g73
(dp5636
sg82
g4134
sg75
(lp5637
g68
(g89
g70
NtRp5638
(dp5639
g73
(dp5640
g93
g94
ssg82
g5634
sg75
(lp5641
S'view'
p5642
asbag68
(g89
g70
NtRp5643
(dp5644
g73
(dp5645
g100
g101
ssg82
g5634
sg75
(lp5646
S':'
asbag68
(g89
g70
NtRp5647
(dp5648
g73
(dp5649
sg82
g5634
sg75
(lp5650
g68
(g69
g70
NtRp5651
(dp5652
g73
(dp5653
g81
I5
ssg82
g5647
sg75
(lp5654
S'default/project_viewer.html'
p5655
asbasbasbasbasbsS'locals'
p5656
(dp5657
g4
S"'/home/anil/bootstrap/web2py/applications/DEV_bootstrap_ch/views/default/project_viewer.html'"
p5658
sg6
S'\'response.write(\\\'<!DOCTYPE html>\\\\n<html lang="\\\', ...nse.write(\\\'\\\\n  </body>\\\\n</html>\\\\n\\\', escape=False)\''
p5659
sssS'traceback'
p5660
S'Traceback (most recent call last):\n  File "/home/anil/bootstrap/web2py/gluon/restricted.py", line 211, in restricted\n    ccode = compile2(code, layer)\n  File "/home/anil/bootstrap/web2py/gluon/restricted.py", line 194, in compile2\n    return compile(code.rstrip().replace(\'\\r\\n\', \'\\n\') + \'\\n\', layer, \'exec\')\n  File "/home/anil/bootstrap/web2py/applications/DEV_bootstrap_ch/views/default/project_viewer.html", line 98\n    else:\n       ^\nSyntaxError: invalid syntax\n'
p5661
s.