(dp1
S'output'
p2
S"<type 'exceptions.NameError'> global name 'field_name' is not defined"
p3
sS'layer'
p4
S'/home/anil/bootstrap/web2py/applications/DEV_bootstrap_ch/controllers/default.py'
p5
sS'code'
p6
S'import rpy2.robjects as robjects\n# -*- coding: utf-8 -*-\n# this file is released under public domain and you can use without limitations\n\n########################## Tips\n#http://stackoverflow.com/questions/12354353/duplicate-a-record-and-its-references-in-web2py\n\n\n#########################################################################\n## This is a samples controller\n## - index is the default action of any application\n## - user is required for authentication and authorization\n## - download is for downloading files uploaded in the db (does streaming)\n## - call exposes all registered services (none by default)\n#########################################################################\n\ndef index():\n    """\n    example action using the internationalization operator T and flash\n    rendered by views/default/index.html or views/generic.html\n    """\n    redirect(URL(\'default\',\'list_all_projects\'))\n    #redirect(URL(\'plugin_wiki\',\'page/home\'))\n\ndef user():\n    """\n    exposes:\n    http://..../[app]/default/user/login\n    http://..../[app]/default/user/logout\n    http://..../[app]/default/user/register\n    http://..../[app]/default/user/profile\n    http://..../[app]/default/user/retrieve_password\n    http://..../[app]/default/user/change_password\n    use @auth.requires_login()\n        @auth.requires_membership(\'group name\')\n        @auth.requires_permission(\'read\',\'table name\',record_id)\n    to decorate functions that need access control\n    """\n    return dict(form=auth())\n\ndef download():\n    """\n    allows downloading of uploaded files\n    http://..../[app]/default/download/[filename]\n    """\n    return response.download(request,db)\n\n\ndef call():\n    """\n    exposes services. for example:\n    http://..../[app]/default/call/jsonrpc\n    decorate with @services.jsonrpc the functions to expose\n    supports xml, json, xmlrpc, jsonrpc, amfrpc, rss, csv\n    """\n    return service()\n\n\ndef authenticate(uid,pid,func):   \n   result = db(db.role.user == uid)(db.role.project == pid).select(db.role.ALL)\n   myroles = [role_list[int(k.role)] for k in result]\n   is_coordinator = db(db.project.project_coordinator == uid).select(db.project.ALL)\n   if func == \'roles\':\n\tif len(is_coordinator):\n\t  error = \'\'\n\telse:\n\t   error = \'You must be a project co-ordinator to manage roles\'\n\treturn error  \n   if func == \'add_project\':\n\tif len(is_coordinator):\n\t  error = \'\'\n\telse:\n\t   error = \'\'\n        return error\n   if func == \'add_sample\':\n\tif \'experimentalist\' in myroles:\n\t  error = \'\'\n\telse:\n\t   error = \'SignUp for  "Experimentalist Role" in this project to add a sample. Use Browser back button to navigate to Project View.\'\n        return error\n   if func == \'experimentalist\':\n\tif \'experimentalist\' in myroles:\n\t  error = \'\'\n\telse:\n\t   error = \'You must be an experimentalist to add the biosource information of a sample\'\n        return error\n   if func == \'my_samples\':\n\tif  \'experimentalist\' in myroles:\n\t  error = \'\'\n\telse:\n\t   error = \'You are not authorized to view this page\'\n        return error\n\ndef basic_groups(pid):\n    """ creates the basic groups on general basis or id basis """\n    if not pid:\n        for i in role_list:\n\t   auth.add_group(i,i) \n    else:\n        pid_groups = [str(pid)+\'#\'+i for i in role_list]\n\tfor k in pid_groups:\n\t   auth.add_group(k,k)\n    return locals()\t   \n\n\ndef add_project():\n    error = authenticate(auth.user.id,\'\',\'add_project\')\n    form = SQLFORM(db.project,fields=[\'name\',\'code\',\'start_date\',\'project_description\',\'project_literature_reference\',\'project_journal_name\',\'project_publication_date\',\'project_pubmed_id\'],showid=False)\n    form.vars.project_coordinator = auth.user.id\n    if form.process().accepted:\n       response.flash =\'accepted\'\n       result = db(db.project.name == form.vars.name).select(db.project.ALL).first()\n       basic_groups(result.id)\n       db.role.insert(user=auth.user.id,project=result.id,role=6,approval_status=1,member_since=now)\n       redirect(URL(\'project_viewer\',args = form.vars.id))\n    elif form.errors:\n       response.flash = \'errors\'\n    return locals()\n\ndef remove_project():\n    response.menu = [\n    (T(\'Home\'), False, URL(\'default\',\'list_all_projects\'), [])\n    ]\n    """takes an id and removes the project """ \n    pid  = request.args(0)\n    pid_groups = [str(pid)+\'#\'+i for i in role_list]\n    for z in pid_groups:\n\tpgid = auth.id_group(z)\n\tauth.del_group(pgid)\n    del db.project[pid]\n    return locals()\n\ndef add_experiment():\n    grid = SQLFORM.grid(db.experiment)\n    return locals()\n\ndef new_affiliation():\n    form = SQLFORM(db.affiliation)\n    return locals()\n\ndef edit_project():\n    response.menu = [\n    (T(\'Home\'), False, URL(\'default\',\'list_all_projects\'), []),\n    (T(\'Project\'), False, URL(\'default\',\'project_viewer\',args=request.args),[])\n    ]\n    crud.settings.update_next = URL(\'project_viewer\',args=request.args)\n    form=crud.update(db.project,request.args(0),deletable=False)\n    return locals();\n \n@auth.requires_login()\ndef project_viewer():\n    pid = request.args[-1]\n    project=db(db.project.id==pid).select(db.project.ALL).first()\n    cord = db(db.auth_user.id==project.project_coordinator).select(db.auth_user.ALL).first()\n    \n    if authenticate(auth.user.id,\'\',\'roles\') == \'\':\n      response.menu = [\n      (T(\'Home\'), False, URL(\'default\',\'list_all_projects\'), []),\n      (T(\'Project\'), False, URL(\'default\',\'project_viewer\',args=request.args[-1]),[\n      (T(\'Grant Role\'),False,URL(\'roles\',args=project.id)),\n      (T(\'Edit Project\'),False,URL(\'edit_project\',args=project.id)),\n      (T(\'SignUP\'),False,URL(\'reg_project\',args=project.id))]\n      )\n      ]\n    else :\n      response.menu = [\n      (T(\'Home\'), False, URL(\'default\',\'list_all_projects\'), []),\n      (T(\'Project\'), False, URL(\'default\',\'project_viewer\',args=request.args[-1]),[\n      (T(\'SignUP\'),False,URL(\'reg_project\',args=project.id))]\n      )\n      ]\n      \n    if project.project_status == \'1\':\n      response.menu+= [\n      (T(\'Published Samples\'), False,URL(\'list_all_pub_samples\',args=(pid)),[])\n      ]\n    elif authenticate(auth.user.id,pid,\'add_sample\')==\'\':\n        response.menu+= [\n        (T(\'Samples\'), False,URL(\'my_samples\',args=(pid)),[\n        (T(\'My Samples\'), False,URL(\'my_samples\',args=(pid))),\n        ])\n        ]\n      \n    users=db(db.role.project==pid)(db.role.project == db.project.id)(db.role.user==db.auth_user.id).select(db.role.ALL,db.auth_user.ALL)\n    is_coordinator = \'\'\n    myroles = \'\'\n    if auth.user:\n      is_coordinator = db(db.project.id == pid)(db.project.project_coordinator == auth.user.id).select(db.project.ALL).first()\n      result = db(db.role.user == auth.user.id)(db.role.project == pid).select(db.role.ALL)\n      myroles = [role_list[int(k.role)] for k in result]\n      \n    return locals()\n\n\ndef add_sample():\n  """ creates a exp on an project basis and should continue to fill the bio source data """\n  """ available to the experimentalist """ \n  response.menu = [\n  (T(\'Home\'), False, URL(\'default\',\'list_all_projects\'), [])\n  ]\n  if \'new\' in request.args:\n   pid = request.args[-3]\n  else:\n   pid = request.args(0)\n  error = authenticate(auth.user.id,pid,\'add_sample\') \n  form = SQLFORM(db.sample,fields=[\'name\',\'code\',\'description\',\'scientific_name\'],showid=False)\n#added a field project in sample table\n#added two more fields in form insert root/replica etc and scientific name\n  if form.validate():\n      i = db.sample.insert(experimentalist=auth.user.id,name=form.vars.name,code=form.vars.code ,description=form.vars.description,experiment=pid,scientific_name=form.vars.scientific_name,working_status=1,publication_status=0)\n      response.flash = \'sample has been created\'\n      redirect(URL(\'list_all_dev_projects\',args=[\'project\',\'sample.project\',pid])) \n      # redirect to the sample creation \n  elif form.errors:\n      response.flash = \'Form has errors\'\n  return locals()\n\ndef sample_viewer():\n   response.menu = [\n   (T(\'Home\'), False, URL(\'default\',\'list_all_projects\'), [])\n   ]\n   i = request.args[-1]\n   if \'view\' in request.args: \n\tform = SQLFORM(db.sample, i,readonly =True,showid=False)\n   if \'edit\' in request.args: \n\tform = SQLFORM(db.sample, i,showid=False)\n   if form.process().accepted:\n\tresponse.flash = \'form accepted\'\n\tredirect(URL(\'list_all_dev_projects\',args = request.args[0:-3])) \n   elif form.errors:\n\tresponse.flash = \'form has errors\'\n   return dict(form=form)\n\ndef list_all_projects():\n    response.menu = [\n    (T(\'Home\'), False, URL(\'default\',\'index\'), [])\n    #(T(\'Home\'), False, URL(\'default\',\'list_all_projects\'), []),\n    #(T(\'Project\'), False, URL(\'default\',\'list_all_projects\'), [(T(\'Add Project\'),False,URL(\'default\',\'add_project\'))])\n    ]\n    form=FORM(\n              INPUT(_name=\'name\', requires=IS_NOT_EMPTY()),\n              INPUT(_type=\'submit\'))\n    form.elements(\'input[type=submit]\')[0]["_value"] = "Search"\n    if form.accepts(request,session):\n      redirect(URL(\'grid?keywords=tomato\')) \n    \n    #form=FORM(\'\',INPUT(_name=\'name\') ,INPUT(_type=\'submit\'))\n    #if form.process().accepted:\n      #redirect(URL(\'grid\')) \n    pub_projects = db(db.project.project_status == 1).select(db.project.ALL)\n    dev_projects = db(db.project.project_status == 0).select(db.project.ALL)\n    authenticated = \'no\'\n    if auth.user:\n     authenticated = authenticate(auth.user.id,\'\',\'add_project\')\n    pi = robjects.r[\'pi\']\n    return locals()\n\ndef grid():\n  # query=((db.project.project_status==0)&(db.experiment.project==db.project.id)&(db.sample.experiment==db.experiment.id)&(db.biosource.sample_name==db.sample.id))\n   query=((db.project.project_status==0)&(db.experiment.project==db.project.id)&(db.sample.experiment==db.experiment.id)&(db.sample.id==db.biosource.sample_name))\n   #query=((db.project.project_status==0))\n#   query=((db.sample.experiment==db.experiment.id)&((db.sample.id==db.biosource.sample_name)|(db.sample.id==db.plant_growth_condition.sample_name)))\n   grid = SQLFORM.grid(query)\n   return locals() \n\ndef temp():\n   q1 = (db.project.project_status ==  0)\n   q2 = (db.sample.publication_status == True)\n   ck = {}\n   fi = [db.project.name,db.project.project_coordinator,db.project.start_date,db.project.project_status,db.experiment.code,db.sample.name,db.sample.code,db.biosource.sample_name,db.plant_growth_condition.sample_name,db.treatments.sample_name,db.harvests.sample_name,db.extraction_preparation.sample_name,db.gas_chromatography.sample_name,db.liquid_chromatography.sample_name,db.mass_spectroscopy.sample_name,db.raw_data_storage_information.sample_name]\n   l1=[lambda row: A(\'View Post\',_href=URL("default","view",args=[row.id]))]\n   links={\'project\':l1}\n   grid = SQLFORM.smartgrid(db.project,ck,fields=fi,links=links,linked_tables=[\'experiment\',\'sample\',\'biosource\',\'plant_growth_condition\',\'treatments\',\'harvests\',\'extraction_preparation\',\'gas_chromatography\',\'liquid_chromatography\',\'mass_spectroscopy\',\'raw_data_storage_information\']) \n   return locals() \n\ndef list_all_pub_projects():\n    response.menu = [\n    (T(\'Home\'), False, URL(\'default\',\'list_all_projects\'), [])\n    ]\n    q1 = (db.project.project_status ==  1)\n    q2 = (db.sample.publication_status == True)\n    ck = {\'project\':q1,\'sample\':q2}\n    fi = [db.project.name,db.project.project_coordinator,db.project.start_date,db.project.project_status,db.experiment.code,db.sample.name,db.sample.code,db.sample.replica,db.biosource.sample_name,db.plant_growth_condition.sample_name,db.treatments.sample_name,db.harvests.sample_name,db.extraction_preparation.sample_name,db.gas_chromatography.sample_name,db.liquid_chromatography.sample_name,db.mass_spectroscopy.sample_name,db.raw_data_storage_information.sample_name]\n    if \'view\' in request.args or \'edit\' in request.args or \'new\' in request.args:\n    \trouter(request.args)\n    grid = SQLFORM.smartgrid(db.project,ck,fields=fi,editable=False,deletable=False,create = False,linked_tables=[\'experiment\',\'sample\',\'biosource\',\'plant_growth_condition\',\'treatments\',\'harvests\',\'extraction_preparation\',\'gas_chromatography\',\'liquid_chromatography\',\'mass_spectroscopy\',\'raw_data_storage_information\']) \n    \n    return locals()\n\ndef list_all_dev_projects():\n    response.menu = [\n    (T(\'Home\'), False, URL(\'default\',\'list_all_projects\'), [])\n    ]\n    db.sample.experimentalist.default=auth.user.id\n    db.sample.experiment.writable = False\n    q1 = (db.project.project_status ==  0)\n    q2 = (db.sample.experimentalist == auth.user.id)\n    ck = {\'project\':q1,\'sample\':q2}\n    fi = [db.project.name,db.project.project_coordinator,db.project.start_date,db.project.project_status,db.experiment.code,db.sample.name,db.sample.code,db.sample.replica,db.sample.publication_status,db.biosource.sample_name,db.plant_growth_condition.sample_name,db.treatments.sample_name,db.harvests.sample_name,db.extraction_preparation.sample_name,db.gas_chromatography.sample_name,db.liquid_chromatography.sample_name,db.mass_spectroscopy.sample_name,db.spectrophotometry.sample_name,db.raw_data_storage_information.sample_name]\n    edit_dict = {\'project\':False}\n    delete_dict = {\'project\':False}\n#Allow only one original sample to be added in an experiment others are replicates\n    addsample = True\n    if \'sample\' in request.args and \'new\' in request.args:\n         count = db(db.sample.experiment==request.args[-3]).count()\n         if(count>0):\n           db.sample.replica.default = \'replicate\'\n           db.sample.replica.requires=IS_IN_SET([\'replicate\',\'alicot\'])\n         else:\n           db.sample.replica.default = \'Original\'\n           db.sample.replica.writable = False\n           \n    create_dict = {\'project\':False,\'sample\':addsample}\n#Links for replicating samples  \n    args= request.args[0:5]\n    #args1=[\'project\',request.args[1],request.args[2],request.args[3],request.args[4],"biosource.sample_name","edit","biosource"]\n    l1=[lambda row: A(\'copy_\'+tes(row.id),_href=URL("default","router",args=getargs(row.id,args,"biosource"))),dict(header = \'name\',body = lambda row: A(\'copy\'+tes(row.id),_href=URL("default","replicate",args=[\'project\',request.args[1],request.args[2],request.args[3],request.args[4],row.id])))]\n    links={\'sample\':l1}\n#customized Views for certain forms using router   \n    if \'view\' in request.args or \'edit\' in request.args or \'new\' in request.args:\n     \trouter()\n    s={\'sample\':lambda ids : redirect(URL(\'default\', \'mapping_multiple\', vars=dict(id=ids)))}\n    grid = SQLFORM.smartgrid(db.project,ck,fields=fi,editable=edit_dict,create=create_dict,deletable=delete_dict,links=links,linked_tables=[\'experiment\',\'sample\',\'biosource\',\'plant_growth_condition\',\'treatments\',\'harvests\',\'extraction_preparation\',\'gas_chromatography\',\'liquid_chromatography\',\'mass_spectroscopy\',\'spectrophotometry\',\'raw_data_storage_information\'],selectable = s) \n    return locals()\n\n#gets table name and rowid as input and creates another row with same details as rowid recod has\ndef tes(a):\n    if db(db.biosource.sample_name==a).count()==0:\n     return "add"\n    else:\n        return "edit"\n    return "add"\ndef getargs(a,args,table):\n    row = db(db[table].sample_name==a).select(db[table].id).first()\n    if row:\n        args=args+[table+".sample_name",a,"edit",table,row.id]\n        return args\n    else:\n        args = args+[table+".sample_name",a,"edit",table]\n        return args\n\ndef replicate():\n    if db(db.template.user==auth.user.id).count() == 0:\n       db.template.insert(user=auth.user.id, sample=request.args[-1])\n    else:   \n       db(db.template.user == auth.user.id).update(sample=request.args[-1])\n    redirect(URL(\'list_all_dev_projects\',args=request.args[0:-1]))\n    #Unique fields take care\n    #product.update(sampleid=\'temp\')\n    return() \n\ndef my_samples():\n    response.menu = [\n    (T(\'Home\'), False, URL(\'default\',\'list_all_projects\'), [])\n    ]\n    """ all my samples in the project with permissions to edit delete publish/unpublish samples """\n    error = authenticate(auth.user.id,request.args(0),\'add_sample\') \n    l =  [\'project\',\'experiment.project\',request.args(0)]\n    if error == \'\':\n      redirect(URL(\'list_all_dev_projects\',args=l))\n    return locals()\n\ndef list_all_samples1():\n    proj_id = request.args(0)\n    pub_samples = db((db.sample.working_status == 1)&(db.sample.project == proj_id)).select(db.sample.ALL)\n    dev_samples = db((db.sample.working_status == 0)&(db.sample.project == proj_id)).select(db.sample.ALL)\n    return locals()\n\ndef view_published_samples():\n    proj_id = request.args(0)\n    return locals() \n\ndef router():\n    l=request.args\n    if \'biosource\' in l:\n      redirect(URL(\'insert_biosource\',args = l))\n    elif \'plant_growth_condition\' in l:\n      redirect(URL(\'insert_pgc\',args = l))\n    elif \'treatments\' in l:\n      redirect(URL(\'insert_treatments\',args = l))\n    elif \'harvests\' in l:\n      redirect(URL(\'insert_harvests\',args = l))\n    elif \'extraction_preparation\' in l:\n      redirect(URL(\'insert_ep\',args = l))\n    elif \'gas_chromatography\' in l:\n        redirect(URL(\'insert_gc\',args = l))\n    elif \'liquid_chromatography\' in l:\n        redirect(URL(\'insert_lc\',args = l))\n    elif \'mass_spectroscopy\' in l:\n        redirect(URL(\'insert_ms\',args = l))\n    elif \'raw_data_storage_information\' in l:\n          redirect(URL(\'insert_raw_data\',args = l))\n    elif \'sample\' in l and \'view\' in l:\t\t\n        redirect(URL(\'sample\',args=l))\n    else:\n        return()\n\n\'\'\'\telif \'sample\' in l and \'new\' in l:\t\t\n\t  redirect(URL(\'add_sample\',args = l))\n\telif \'sample\' in l:\t\t\n\t  redirect(URL(\'sample_viewer\',args = l))\n\telif \'project\' in l:\n\t  redirect(URL(\'project_viewer\',args=l))\n\telse : \n\t  redirect(URL(\'index\'))\'\'\'\n\ndef list_all_pub_samples():\n#    proj_id = request.args(0)\n#    pub = request.args(1) # if pub == 1 show published samples otherwise non published samples\n#   pub_query = (db.sample.working_status == 1 and db.sample.project == proj_id)\n#   unpub_query = (db.sample.working_status == 0 and db.sample.project == proj_id)\n#   pquery_dict = {\'sample\':pub_query}\n#   nquery_dict = {\'sample\':unpub_query}\n#    if \'view\' in request.args or \'edit\' in request.args or \'new\' in request.args:\n#       router(request.args)\n#    if \'view\' in request.args or \'edit\' in request.args or \'new\' in request.args:\n#     \trouter(request.args)\n    \n    """an argument to display published and non-published samples"""\n    """ request.args(0) - project  , request.args(1) published"""\n\n    redirect(URL(\'list_all_pub_projects\',args=[\'project\',\'experiment.project\',request.args(0)]))\n    \ndef list_all_dev_samples():\n   \n    redirect(URL(\'list_all_dev_projects\',args=[\'project\',\'sample.project\',request.args(0)]))\n    return locals()\n\ndef ajx_role():\n    """ an ajax call back which takes care of insert , update and delete in the roles table """\n    rid = request.args(1)\n    if request.args(0) == \'accept\':\n       row = db(db.role.id == rid).update(approval_status = 1)\n       result = db(db.role.id == rid).select(db.role.ALL).first()\n       gid = auth.id_group(role_list[int(result.role)])\n       auth.add_membership(gid,result.user)\n    if request.args(0) == \'unblock\':\n       del db.role[rid] \n    if request.args(0) == \'block\':\n       row = db(db.role.id == rid).update(approval_status = 2)\n    if request.args(0) == \'delete\' or request.args(0) == \'deny\':\n       result = db(db.role.id == rid).select(db.role.ALL).first()\n       gid = auth.id_group(role_list[int(result.role)])\n       auth.del_membership(gid,result.user)\n       del db.role[rid] \n    return locals()\n\ndef reg_project():\n    response.menu = [\n    (T(\'Home\'), False, URL(\'default\',\'list_all_projects\'), []),\n    (T(\'Project\'), False, URL(\'default\',\'project_viewer\',args=request.args),[])\n    ]\n    """ takes an id for the project and registers """\n    import datetime\n    now = datetime.datetime.now()\n    """ already requested """\n    pid = request.args(0)\n    ptitle = db(db.project.id == pid).select(db.project.ALL).first()\n    form = SQLFORM(db.role,fields=[\'role\'],showid=False)\n    if form.validate():\n       requested = db(db.role.user == auth.user.id)(db.role.project == pid)(db.role.approval_status == 0)(db.role.role==form.vars.role).count()\n       if requested == 0: \n        db.role.insert(user=auth.user.id,approval_status=0,project=pid,member_since=now,role=form.vars.role)\n        response.flash = \'accepted\'\n       else:\n        response.flash = \'You already hold the applied role\' \n    return locals() \n\ndef ajx_publish():\n    """ an ajax call back which takes care of publication status """\n    eid = request.args(1)\n    if request.args(0) == \'publish\':\n     row = db(db.project.id == eid).update(project_status = "1")\n    elif request.args(0) == \'unpublish\':\n     row = db(db.project.id == eid).update(project_status = "0")\n    redirect(URL(\'project_viewer\',args = eid))\n    return locals() \n\ndef roles():\n    response.menu = [\n    (T(\'Home\'), False, URL(\'default\',\'list_all_projects\'), []),\n    (T(\'Project\'), False, URL(\'default\',\'project_viewer\',args=request.args),[])\n    ]\n    """ complete interface for managing roles for a particular project"""\n    """ should be accessible to only project co-ordinators """\n    pid = request.args(0)\n    error = authenticate(auth.user.id,pid,\'roles\')\n    accepted = db(db.auth_user.id == db.role.user)(db.role.approval_status == 1)(db.role.project == pid).select(db.role.ALL,db.auth_user.ALL)\n    pending = db(db.auth_user.id == db.role.user)(db.role.approval_status == 0)(db.role.project == pid).select(db.role.ALL,db.auth_user.ALL)\n    blocked = db(db.auth_user.id == db.role.user)(db.role.approval_status == 2)(db.role.project == pid).select(db.role.ALL,db.auth_user.ALL)\n    return locals()\n   \ndef home_page():\n    """ home page for a user , shows list of projects he is working on and his past work """\n    uid = request.args(0)\n    #my roles \n    \n    roles = db(db.role.user == uid)(db.role.project == db.project.id).select(db.role.ALL,db.project.name) \n    myroles = [role_list[int(p.role.role)] for p in roles]\n    k = {}\n    """\n    is_coordinator = db(db.project.project_coordinator==uid).select(db.project.ALL)\n    coordinating_projects = [row.name for row in is_coordinator]\n    value=\'\'\n    for p in coordinating_projects:\n       value = value + \',\'+ p\n\t  \n    k[6] = value[1:] """\n    for row in roles:\n       if row.role.role not in k:\n          k[row.role.role] = row.project.name\n       else:\n          k[row.role.role] = k[row.role.role] + \',\' + row.project.name\n    com_exps = db(db.sample.working_status == 1)(db.sample.experimentalist == uid)(db.sample.project == db.project.id).select(db.sample.ALL,db.project.id,db.project.name,orderby=db.sample.code)\n    incom_exps = db(db.sample.working_status == 1)(db.sample.experimentalist == uid)(db.sample.project == db.project.id).select(db.sample.ALL,db.project.id,db.project.name,orderby=db.sample.code)\n    pub_exps = db(db.sample.working_status == 0)(db.sample.publication_status == True)(db.sample.experimentalist == uid)(db.sample.project == db.project.id).select(db.sample.ALL,db.project.id,db.project.name,orderby=db.sample.code)\n    unpub_exps = db(db.sample.working_status == 0)(db.sample.publication_status == False) (db.sample.experimentalist == uid)(db.sample.project == db.project.id).select(db.sample.ALL,db.project.id,db.project.name,orderby=db.sample.code)\n    for p in k:\n       list_projects = k[p].split(\',\')\n       proj = \'\' \n       for d in list_projects:\n          res = db(db.project.name == d).select(db.project.ALL).first()\n          cat = \'\'\n          if res:\n             cat = A(res.name,_href=URL(\'project_viewer\',args=res.id))\n          if proj == \'\':\n             proj=SPAN(cat)\n          else:\n           proj = SPAN(proj,\',\',cat)\n       k[p] = proj \n    return locals()\n\ndef download():\n    return response.download(request, db)\n\ndef insert_biosource():\n#prepopulating records  \n   if \'clear\' not in request.args and \'new\' in request.args:    \n    trows = db(db.template.user==auth.user.id).select()\n    count = db(db.template.user==auth.user.id).count()\n    if count > 0:\n     rows = db(db.biosource.sample_name==trows[0].sample).select()\n     count1 = db(db.biosource.sample_name==trows[0].sample).count()\n     if count1 > 0:\n      row = rows[0]      \n      for fieldname in db.biosource.fields:\n       if fieldname!=\'id\': \n        db.biosource[fieldname].default=row[fieldname]\n   elif \'clear\' in request.args: \n    request.args.pop()\n   #result = db(db.sample.id == request.args[-3]).select(db.sample.ALL).first()\n#  error = authenticate(auth.user.id,result.project,\'insert_biosource\')\n   response.menu = [\n   (T(\'Home\'), False, URL(\'default\',\'list_all_projects\'), [])\n   ]\n   redirect_args = request.args[0:-3]\n   form = SQLFORM(db.biosource)\n   if \'view\' in request.args: \n\t       form=SQLFORM(db.biosource,request.args[-1],readonly = True,showid=False)\t  \n   elif \'edit\' in request.args: \n\t       form=SQLFORM(db.biosource,request.args[-1],showid=False)\n   elif \'new\' in request.args:\n               db.biosource.sample_name.readable = False \n               hid = {}   \n\t       form=SQLFORM(db.biosource,showid=False)\n\t       form.vars.sample_name = request.args[-3]\n \t       redirect_args = request.args[0:-4]\n   i=1\n   f1=form[0][:i+2]\n   fs1=form[0][i+2:i+7]\n   f2=form[0][i+7:]\n   form[0]=TABLE(TABLE(f1),\n      FIELDSET(TAG.legend("Genotype"),TABLE(fs1)),TABLE(f2))\n   if form.process().accepted:\n     redirect(URL(\'list_all_dev_projects\',args=redirect_args)) \n     response.flash="Inserted entry"\n   return locals()\n\ndef insert_pgc():\n#prepopulating records  \n  trows = db(db.template.user==auth.user.id).select()\n  count = db(db.template.user==auth.user.id).count()\n  if count > 0:\n    rows = db(db.plant_growth_condition.sample_name==trows[0].sample).select()\n    count1 = db(db.plant_growth_condition.sample_name==trows[0].sample).count()\n    if count1 > 0:\n     row = rows[0]\n     for fieldname in db.plant_growth_condition.fields:\n      if fieldname!=\'id\': \n       db.plant_growth_condition[fieldname].default=row[fieldname]\n  #result = db(db.sample.id == request.args[-1]).select(db.sample.ALL).first()\n  response.menu = [\n  (T(\'Home\'), False, URL(\'default\',\'list_all_projects\'), [])\n  ]\n  redirect_args = request.args[0:-3]\t \n  form = SQLFORM(db.plant_growth_condition) \n  if \'view\' in request.args: \n\tform=SQLFORM(db.plant_growth_condition,request.args[-1],readonly = True,upload=URL(\'download\'),showid=False)\n  elif \'edit\' in request.args: \n\tform=SQLFORM(db.plant_growth_condition,request.args[-1],upload=URL(\'download\'),showid=False)\n  elif \'new\' in request.args:\n        db.plant_growth_condition.sample_name.readable = False \n\tform=SQLFORM(db.plant_growth_condition,showid=False)\n        form.vars.sample_name = request.args[-3]\n\tredirect_args = request.args[0:-2]\t \n  i=1\n  fs1=form[0][:i+5]\n  fss1=form[0][i+5:i+9]\n  fss2=form[0][i+9:i+10]\n  fss3=form[0][i+10:i+15]\n  f2=form[0][i+15:i+18]\n  fs2=form[0][i+18:i+21]\n  fs3=form[0][i+21:i+27]\n  f3=form[0][i+27:]\n  t2=TABLE(FIELDSET(TAG.legend("Growth Support"),TABLE(fs1)))\n  t3=TABLE(FIELDSET(TAG.legend("Location"),TABLE(FIELDSET(TAG.legend("Field trail"),TABLE(fss1))),TABLE(fss2),TABLE(FIELDSET(TAG.legend("Green house"),TABLE(fss3)))))\n  t4=TABLE(FIELDSET(TAG.legend("Nutritional Regime"),TABLE(fs2)))\n  t5=TABLE(FIELDSET(TAG.legend("Date of Plant Establishment(YYYY-MM-DD)"),TABLE(fs3)))\n  form[0]=TABLE(FIELDSET(t2,t3,TABLE(f2),t4,t5,TABLE(f3)))\n  if form.process().accepted:\n    redirect(URL(\'list_all_dev_projects\',args=redirect_args)) \n    response.flash="form accepted"\n# redirect(URL(\'list_all_samples\',args=[\'sample\'])) \n  else:\n    response.flsh="form has some errors"\n  return locals()\n\ndef insert_ep():\n#prepopulating records  \n  trows = db(db.template.user==auth.user.id).select()\n  count = db(db.template.user==auth.user.id).count()\n  if count > 0:\n    rows = db(db.extraction_preparation.sample_name==trows[0].sample).select()\n    count1 = db(db.extraction_preparation.sample_name==trows[0].sample).count()\n    if count1 > 0:\n     row = rows[0]\n     for fieldname in db.extraction_preparation.fields:\n      if fieldname!=\'id\': \n       db.extraction_preparation[fieldname].default=row[fieldname]\n  #result = db(db.sample.id == request.args[-1]).select(db.sample.ALL).first()\n  response.menu = [\n  (T(\'Home\'), False, URL(\'default\',\'list_all_projects\'), [])\n  ]\n  redirect_args = request.args[0:-3]\t \n  if \'view\' in request.args: \n       form=SQLFORM(db.extraction_preparation,request.args[-1],readonly = True,upload=URL(\'download\'),showid=False)\n  if \'edit\' in request.args: \n       form=SQLFORM(db.extraction_preparation,request.args[-1],upload=URL(\'download\'),showid=False)\n  if \'new\' in request.args:\n       db.extraction_preparation.sample_name.readable=False\n       form=SQLFORM(db.extraction_preparation,showid=False)\n       form.vars.sample_name = request.args[-3]\n       redirect_args = request.args[0:-2]\t \n  i=1\n  t1=TABLE(FIELDSET(TAG.legend("SAMPLE EXTRACTION"),TABLE(form[0][:i+8]),TABLE(FIELDSET(TAG.legend("Extract Storage:"),TABLE(form[0][i+8:i+12])))))\n  t2=TABLE(FIELDSET(TAG.legend("SAMPLE PREPARATION"),TABLE(form[0][i+12:])))\n  form[0]=TABLE(FIELDSET(t1,t2))\n  if form.process().accepted:\n       response.flash="Inserted entry"\n       redirect(URL(\'list_all_dev_projects\',args=redirect_args)) \n  return locals()\n\ndef insert_treatments():\n#prepopulating records  \n  trows = db(db.template.user==auth.user.id).select()\n  count = db(db.template.user==auth.user.id).count()\n  if count > 0:\n    rows = db(db.treatments.sample_name==trows[0].sample).select()\n    count1 = db(db.treatments.sample_name==trows[0].sample).count()\n    if count1 > 0:\n     row = rows[0]\n     for fieldname in db.treatments.fields:\n      if fieldname!=\'id\': \n       db.treatments[fieldname].default=row[fieldname]\n  #result = db(db.sample.id == request.args[-1]).select(db.sample.ALL).first()\n  response.menu = [\n  (T(\'Home\'), False, URL(\'default\',\'list_all_projects\'), [])\n  ]\n  redirect_args = request.args[0:-3]\t \n  if \'view\' in request.args: \n       form=SQLFORM(db.treatments,request.args[-1],readonly = True,upload=URL(\'download\'),showid=False)\n  if \'edit\' in request.args: \n       form=SQLFORM(db.treatments,request.args[-1],upload=URL(\'download\'),showid=False)\n  if \'new\' in request.args:\n       db.treatments.sample_name.readable=False\n       form=SQLFORM(db.treatments,showid=False)\n       form.vars.sample_name = request.args[-3] \n       redirect_args = request.args[0:-2]\t \n  i=1\n  t1=TABLE(FIELDSET(TAG.legend("Treatment Factor"),TABLE(form[0][:i+3])))\n  form[0]=TABLE(FIELDSET(t1,TABLE(form[0][i+3:])))\n  if form.process().accepted:\n      response.flash="Inserted entry"\n      redirect(URL(\'list_all_dev_projects\',args=redirect_args)) \n  return locals()\n\ndef insert_harvests():\n#prepopulating records  \n  trows = db(db.template.user==auth.user.id).select()\n  count = db(db.template.user==auth.user.id).count()\n  if count > 0:\n    rows = db(db.harvests.sample_name==trows[0].sample).select()\n    count1 = db(db.harvests.sample_name==trows[0].sample).count()\n    if count1 > 0:\n     row = rows[0]\n     for fieldname in db.harvests.fields:\n      if fieldname!=\'id\': \n       db.harvests[fieldname].default=row[fieldname]\n  #result = db(db.sample.id == request.args[-1]).select(db.sample.ALL).first()\n  response.menu = [\n  (T(\'Home\'), False, URL(\'default\',\'list_all_projects\'), [])\n  ]\n  redirect_args = request.args[0:-3]\t \n  if \'view\' in request.args: \n       form=SQLFORM(db.harvests,request.args[-1],readonly = True,upload=URL(\'download\'),showid=False)\n  if \'edit\' in request.args: \n       form=SQLFORM(db.harvests,request.args[-1],upload=URL(\'download\'),showid=False)\n  if \'new\' in request.args:\n       db.harvests.sample_name.readable=False\n       form=SQLFORM(db.harvests,showid=False)\n       form.vars.sample_name = request.args[-3]\n       redirect_args = request.args[0:-2]\n  i=1\t \n  t1=TABLE(FIELDSET(TAG.legend("Sample Storage"),TABLE(form[0][i+7:])))\n  form[0]=TABLE(FIELDSET(TABLE(form[0][:i+7]),t1))\n  if form.process().accepted:\n      response.flash="Inserted entry"\n      redirect(URL(\'list_all_dev_projects\',args=redirect_args)) \n  return locals()\n\t  \t\ndef insert_gc():\n#prepopulating records  \n  trows = db(db.template.user==auth.user.id).select()\n  count = db(db.template.user==auth.user.id).count()\n  if count > 0:\n    rows = db(db.gas_chromatography.sample_name==trows[0].sample).select()\n    count1 = db(db.gas_chromatography.sample_name==trows[0].sample).count()\n    if count1 > 0:\n     row = rows[0]\n     for fieldname in db.gas_chromatography.fields:\n      if fieldname!=\'id\': \n       db.gas_chromatography[fieldname].default=row[fieldname]\n  #result = db(db.sample.id == request.args[-1]).select(db.sample.ALL).first()\n  response.menu = [\n  (T(\'Home\'), False, URL(\'default\',\'list_all_projects\'), [])\n  ]\n  redirect_args = request.args[0:-3]\t \n  if \'view\' in request.args: \n\tform=SQLFORM(db.gas_chromatography,request.args[-1],readonly = True,pload=URL(\'download\'),showid=False)\n  elif \'edit\' in request.args: \n        form=SQLFORM(db.gas_chromatography,request.args[-1],upload=URL(\'download\'),showid=False)\n  elif \'new\' in request.args:\n        db.gas_chromatography.sample_name.readable=False\n        redirect_args = request.args[0:-2]\t \n        form=SQLFORM(db.gas_chromatography,showid=False)\n        form.vars.sample_name = request.args[-3]\n  j=1\n  t_ep_1=TABLE(FIELDSET(TAG.legend("SAMPLE EXTRACTION"),TABLE(form[0][:j+7]),TABLE(FIELDSET(TAG.legend("Extract Storage:"),TABLE(form[0][j+7:j+11])))))\n  t_ep_2=TABLE(FIELDSET(TAG.legend("SAMPLE PREPARATION"),TABLE(form[0][j+11:15])))\n  i=15\n  t1=TABLE(FIELDSET(TAG.legend("CHROMATOGRAPHY INSTRUMENTAL"),TABLE(form[0][15:i+4])))\n  t2=TABLE(FIELDSET(TAG.legend("DERIVATIZATION"),TABLE(form[0][i+4:i+8])))\n  t3=TABLE(FIELDSET(TAG.legend("AUTO-INJECTOR DETAILS"),TABLE(form[0][i+8:i+15])))\n  t4=TABLE(FIELDSET(TAG.legend("SEPERATION COLUMN AND PRE/GUARD COLUMN"),TABLE(form[0][i+15:i+23])))\n  t5=TABLE(FIELDSET(TAG.legend("SEPERATION PARAMETERS"),TABLE(form[0][i+23:i+30])))\n  t6=TABLE(FIELDSET(TAG.legend("QUALITY CONTROL"),TABLE(form[0][i+30:i+33]),TABLE(FIELDSET(TAG.legend("Cycle per"),TABLE(form[0][i+33:i+37])))))\n  t7=TABLE(FIELDSET(TAG.legend("DATA ACQUISITION"),TABLE(form[0][i+37:])))\n  form[0]=TABLE(FIELDSET(t_ep_1,t_ep_2,t1,t2,t3,t4,t5,t6,t7))\n  if form.process().accepted:\n\tresponse.flash="Inserted entry"\n\tredirect(URL(\'list_all_dev_projects\',args=redirect_args)) \n#       redirect(URL(\'list_all_samples\',args=[\'sample\'])) \n  return locals()\n\ndef insert_lc():\n#prepopulating records  \n  trows = db(db.template.user==auth.user.id).select()\n  count = db(db.template.user==auth.user.id).count()\n  if count > 0:\n    rows = db(db.liquid_chromatography.sample_name==trows[0].sample).select()\n    count1 = db(db.liquid_chromatography.sample_name==trows[0].sample).count()\n    if count1 > 0:\n     row = rows[0]\n     for fieldname in db.liquid_chromatography.fields:\n      if fieldname!=\'id\': \n       db.liquid_chromatography[fieldname].default=row[fieldname]\n  #result = db(db.sample.id == request.args[-1]).select(db.sample.ALL).first()\n  response.menu = [\n  (T(\'Home\'), False, URL(\'default\',\'list_all_projects\'), [])\n  ]\n  redirect_args = request.args[0:-3]\t \n  form = SQLFORM(db.liquid_chromatography)\n  if \'view\' in request.args: \n      form=SQLFORM(db.liquid_chromatography,request.args[-1],readonly = True,upload=URL(\'download\'),showid=False)\n  if \'edit\' in request.args: \n      form=SQLFORM(db.liquid_chromatography,request.args[-1],upload=URL(\'download\'),showid=False)\n  if \'new\' in request.args:\n      db.liquid_chromatography.sample_name.readable=False\n      redirect_args = request.args[0:-2]\t \n      form=SQLFORM(db.liquid_chromatography,showid=False)\n      form.vars.sample_name = request.args[-3] \n  j=1\n  t_ep_1=TABLE(FIELDSET(TAG.legend("SAMPLE EXTRACTION"),TABLE(form[0][:j+7]),TABLE(FIELDSET(TAG.legend("Extract Storage:"),TABLE(form[0][j+7:j+11])))))\n  t_ep_2=TABLE(FIELDSET(TAG.legend("SAMPLE PREPARATION"),TABLE(form[0][j+11:15])))\n  i=15\n  t1=TABLE(FIELDSET(TAG.legend("CHROMATOGRAPHY INSTRUMENTAL"),TABLE(form[0][15:i+4])))\n  t3=TABLE(FIELDSET(TAG.legend("AUTO-INJECTOR DETAILS"),TABLE(form[0][i+4:i+11])))\n  t4=TABLE(FIELDSET(TAG.legend("SEPERATION COLUMN AND PRE/GUARD COLUMN"),TABLE(form[0][i+11:i+19])))\n  t5=TABLE(FIELDSET(TAG.legend("SEPERATION PARAMETERS"),TABLE(form[0][i+19:i+26])))\n  t6=TABLE(FIELDSET(TAG.legend("QUALITY CONTROL"),TABLE(form[0][i+26:i+29]),TABLE(FIELDSET(TAG.legend("Cycle per"),TABLE(form[0][i+29:i+33])))))\n  t7=TABLE(FIELDSET(TAG.legend("DATA ACQUISITION"),TABLE(form[0][i+33:])))\n  form[0]=TABLE(FIELDSET(t_ep_1,t_ep_2,t1,t3,t4,t5,t6,t7))\n  if form.process().accepted:\n      response.flash="Inserted entry"\n      redirect(URL(\'list_all_dev_projects\',args=redirect_args)) \n#     redirect(URL(\'list_all_samples\',args=[\'sample\'])) \n  return locals()\n\ndef insert_ms():\n#prepopulating records  \n  trows = db(db.template.user==auth.user.id).select()\n  count = db(db.template.user==auth.user.id).count()\n  if count > 0:\n    rows = db(db.mass_spectroscopy.sample_name==trows[0].sample).select()\n    count1 = db(db.mass_spectroscopy.sample_name==trows[0].sample).count()\n    if count1 > 0:\n     row = rows[0]\n     for fieldname in db.mass_spectroscopy.fields:\n      if fieldname!=\'id\': \n       db.mass_spectroscopy[fieldname].default=row[fieldname]\n  #result = db(db.sample.id == request.args[-1]).select(db.sample.ALL).first()\n  response.menu = [\n  (T(\'Home\'), False, URL(\'default\',\'list_all_projects\'), [])\n  ]\n  redirect_args = request.args[0:-3]\t \n  if \'view\' in request.args: \n    form=SQLFORM(db.mass_spectroscopy,request.args[-1],readonly = True,upload=URL(\'download\'),showid=False)\n  elif \'edit\' in request.args: \n    form=SQLFORM(db.mass_spectroscopy,request.args[-1],upload=URL(\'download\'),showid=False)\n  elif \'new\' in request.args:\n    db.mass_spectroscopy.sample_name.readable=False\n    redirect_args = request.args[0:-2]\t \n    form=SQLFORM(db.mass_spectroscopy,showid=False)\n    form.vars.sample_name = request.args[-3]\n  i=1\n  t1=TABLE(FIELDSET(TAG.legend("INSTRUMENTAL DETAILS"),TABLE(form[0][:i+4])))\n  t2=TABLE(FIELDSET(TAG.legend("IONISATION SOURCE"),TABLE(form[0][i+4:i+10])))\n  t3=TABLE(FIELDSET(TAG.legend("MASS ANALYZER"),TABLE(form[0][i+10:i+18]),TABLE(FIELDSET(TAG.legend("Lock spray"),TABLE(form[0][i+18:i+22]))),TABLE(form[0][i+22:i+23])))\n  t4=TABLE(FIELDSET(TAG.legend("QUALITY CONTROL"),TABLE(form[0][i+23:i+27])))\n  t5=TABLE(FIELDSET(TAG.legend("DATA ACQUISITION"),TABLE(form[0][i+27:])))\n  form[0]=TABLE(FIELDSET(t1,t2,t3,t4,t5))\n  if form.process().accepted:\n      \tresponse.flash="Inserted entry"\n        redirect(URL(\'list_all_dev_projects\',args=redirect_args)) \n#     \tredirect(URL(\'list_all_samples\'),args=[\'sample\']) \n  return locals()\n\ndef insert_raw_data():\n#prepopulating records  \n  trows = db(db.template.user==auth.user.id).select()\n  count = db(db.template.user==auth.user.id).count()\n  if count > 0:\n    rows = db(db.raw_data_storage_information.sample_name==trows[0].sample).select()\n    count1 = db(db.raw_data_storage_information.sample_name==trows[0].sample).count()\n    if count1 > 0:\n     row = rows[0]\n     for fieldname in db.raw_data_storage_information.fields:\n      if fieldname!=\'id\': \n       db.raw_data_storage_information[fieldname].default=row[fieldname]\n  response.menu = [\n  (T(\'Home\'), False, URL(\'default\',\'list_all_projects\'), [])\n  ]\n  redirect_args = request.args[0:-3]\t \n  if \'view\' in request.args: \n    form=SQLFORM(db.raw_data_storage_information,request.args[-1],readonly = True,upload=URL(\'download\'),showid=False)\n  elif \'edit\' in request.args: \n    form=SQLFORM(db.raw_data_storage_information,request.args[-1],upload=URL(\'download\'),showid=False)\n  elif \'new\' in request.args:\n    db.raw_data_storage_information.sample_name.readable=False\n    redirect_args = request.args[0:-2]\t \n    form=SQLFORM(db.raw_data_storage_information,showid=False)\n    form.vars.sample_name = request.args[-3]\n    form.vars.email_id_of_person=auth.user.email \n  if form.process().accepted:\n      \tresponse.flash="Inserted entry"\n        redirect(URL(\'list_all_dev_projects\',args=redirect_args)) \n#     \tredirect(URL(\'list_all_samples\'),args=[\'sample\']) \n  return locals()\n\ndef insert_spectrophotometry():\n#prepopulating records  \n  trows = db(db.template.user==auth.user.id).select()\n  count = db(db.template.user==auth.user.id).count()\n  if count > 0:\n    rows = db(db.spectrophotometry.sample_name==trows[0].sample).select()\n    count1 = db(db.spectrophotometry.sample_name==trows[0].sample).count()\n    if count1 > 0:\n     row = rows[0]\n     for fieldname in db.spectrophotometry.fields:\n      if fieldname!=\'id\': \n       db.spectrophotometry[fieldname].default=row[fieldname]\n  response.menu = [\n  (T(\'Home\'), False, URL(\'default\',\'list_all_projects\'), [])\n  ]\n  redirect_args = request.args[0:-3]\t \n  if \'view\' in request.args: \n    form=SQLFORM(db.spectrophotometry,request.args[-1],readonly = True,upload=URL(\'download\'),showid=False)\n  elif \'edit\' in request.args: \n    form=SQLFORM(db.spectrophotometry,request.args[-1],upload=URL(\'download\'),showid=False)\n  elif \'new\' in request.args:\n    db.spectrophotometry.sample_name.readable=False\n    redirect_args = request.args[0:-2]\t \n    form=SQLFORM(db.spectrophotometry,showid=False)\n    form.vars.sample_name = request.args[-3]\n  if form.process().accepted:\n      \tresponse.flash="Inserted entry"\n        redirect(URL(\'list_all_dev_projects\',args=redirect_args)) \n#     \tredirect(URL(\'list_all_samples\'),args=[\'sample\']) \n  return locals()\n\n\n@auth.requires_signature()\ndef data():\n    """\n    http://..../[app]/default/data/tables\n    http://..../[app]/default/data/create/[table]\n    http://..../[app]/default/data/read/[table]/[id]\n    http://..../[app]/default/data/update/[table]/[id]\n    http://..../[app]/default/data/delete/[table]/[id]\n    http://..../[app]/default/data/select/[table]\n    http://..../[app]/default/data/search/[table]\n    but URLs must be signed, i.e. linked with\n      A(\'table\',_href=URL(\'data/tables\',user_signature=True))\n    or with the signed load operator\n      LOAD(\'default\',\'data.load\',args=\'tables\',ajax=True,user_signature=True)\n    """\n    return dict(form=crud())\n\n#def drop_tables():\n    #are you sure you want to do this?\n    #for t in [\'auth_user\',\'auth_group\', \'auth_membership\', \'auth_permission\', \'auth_event\',\'sample\',\'biosource\',\'affiliation\',\'project\',\'role\',\'template\',\'experiment\',\'project_meta\',\'plant_growth_condition\',\'treatments\',\'harvests\',\'extraction_preparation\',\'gas_chromatography\',\'liquid_chromatography\',\'mass_spectroscopy\',\'spectrophotometry\',\'feedback\',\'sample_files\']:\n    #    db[t].drop()\n    # pass\n    #return \n\ndef show_feedback():\n    grid = SQLFORM.smartgrid(db.feedback)\n    return locals()\n\n \ndef post_feedback():\n    """ allows to post feedback to the table feedback """ \n    past_feeds = db(db.feedback.feedback_on == request.env.http_referer).select(db.feedback.feedback_body,db.feedback.id)\n    form = SQLFORM(db.feedback,fields=[\'feedback_body\'],labels={\'feedback_body\':\'Your feedback about this page\'})\n    feedback_by = \'\'\n    if form.validate():\n\tif auth.user:\n            feedback_by = auth.user.id\n        else:\n\t   feedback_by = \'\'\n\tdb.feedback.insert(feedback_on=request.env.http_referer,feedback_body=form.vars.feedback_body,feedback_by=feedback_by)\n\tresponse.flash = "feedback has been duly noted and will be taken care of "\n    return locals()\n\n\ndef user_viewer():\n   """shows the user details """\n   uid = request.args(0)\n   record = db.auth_user(uid)\n   form = SQLFORM(db.auth_user,record,readonly=True,showid=False,fields=[\'first_name\',\'last_name\',\'email\',\'affiliated_to\',\'phone\',\'mobile\',\'city\'])\n   return locals()\n\n\ndef dict_dump(obj,inp):\n  ans = \'<dl class="dl-horizontal">\'\n  for key in inp.keys():\n     add = \'<dt>\'+str(inp[key])+\'</dt>\'+\'<dd>\'+str(obj[key])+\'</dd>\'\n     ans = ans+add\n  return ans\t\n\n\ndef sample():\n  """gets all the information regarding a sample in a single page """\n  sid = request.args[-1]\n  sample = db(db.sample.id == sid).select(db.sample.ALL).first()\n  user = db(db.auth_user.id == sample.experimentalist).select(db.auth_user.ALL).first()\n  experiment = db(db.experiment.id == sample.experiment).select(db.experiment.ALL).first()\n  biosource = db(db.biosource.sample_name == sid).select(db.biosource.ALL)\n  plant_growth = db(db.plant_growth_condition.sample_name == sid).select(db.plant_growth_condition.ALL)\n  treatment = db(db.treatments.sample_name == sid).select(db.treatments.ALL)\n  harvest = db(db.harvests.sample_name == sid).select(db.harvests.ALL)\n  extraction_preparation = db(db.extraction_preparation.sample_name == sid).select(db.extraction_preparation.ALL)\n  gc = db(db.gas_chromatography.sample_name == sid).select(db.gas_chromatography.ALL)\n  lc = db(db.liquid_chromatography.sample_name == sid).select(db.liquid_chromatography.ALL)\n  ms = db(db.mass_spectroscopy.sample_name == sid).select(db.mass_spectroscopy.ALL)\n  raw_storage = db(db.raw_data_storage_information.sample_name == sid).select(db.raw_data_storage_information.ALL)\n  biosource_forms = [] #a list of forms\n  for each in biosource:\n\tform = SQLFORM(db.biosource,each.id,showid=False,readonly=True)\n\ti=1\n\tf1=form[0][:i+2]\n\tfs1=form[0][i+2:i+7]\n\tf2=form[0][i+7:]\n\tform[0]=TABLE(TABLE(f1),FIELDSET(TAG.legend("Genotype"),TABLE(fs1)),TABLE(f2))\n\tbiosource_forms.append(form[0])\n        \n  pgc_forms = []\n  for each in plant_growth:\n     form = SQLFORM(db.plant_growth_condition,each.id,showid=False,readonly=True)\n     i=1\n     fs1=form[0][:i+5]\n     fss1=form[0][i+5:i+9]\n     fss2=form[0][i+9:i+10]\n     fss3=form[0][i+10:i+15]\n     f2=form[0][i+15:i+18]\n     fs2=form[0][i+18:i+21]\n     fs3=form[0][i+21:i+27]\n     f3=form[0][i+27:]\n     t2=TABLE(FIELDSET(TAG.legend("Growth Support"),TABLE(fs1)))\n     t3=TABLE(FIELDSET(TAG.legend("Location"),TABLE(FIELDSET(TAG.legend("Field trail"),TABLE(fss1))),TABLE(fss2),TABLE(FIELDSET(TAG.legend("Green house"),TABLE(fss3)))))\n     t4=TABLE(FIELDSET(TAG.legend("Nutritional Regime"),TABLE(fs2)))\n     t5=TABLE(FIELDSET(TAG.legend("Date of Plant Establishment(YYYY-MM-DD)"),TABLE(fs3)))\n     form[0]=TABLE(FIELDSET(t2,t3,TABLE(f2),t4,t5,TABLE(f3)))\n     pgc_forms.append(form[0])\n  \n  treatment_forms = []\n  for each in treatment:\n     form = SQLFORM(db.treatments,each.id,showid=False,readonly=True)\n     i=1\n     t1=TABLE(FIELDSET(TAG.legend("Treatment Factor"),TABLE(form[0][:i+3])))\n     form[0]=TABLE(FIELDSET(t1,TABLE(form[0][i+3:])))\n\n\n  harvest_forms = []\n  for each in harvest:\n     form = SQLFORM(db.harvests,each.id,showid=False,readonly=True)\n     i=1\n     t1=TABLE(FIELDSET(TAG.legend("Sample Storage"),TABLE(form[0][i+7:])))\n     form[0]=TABLE(FIELDSET(TABLE(form[0][:i+7]),t1))\n     harvest_forms.append(form[0])\n\n  gc_forms = []\n  for each in gc:\n     form = SQLFORM(db.gas_chromatography,each.id,showid=False,readonly=True)\n     j=1\n     t_ep_1=TABLE(FIELDSET(TAG.legend("SAMPLE EXTRACTION"),TABLE(form[0][:j+7]),TABLE(FIELDSET(TAG.legend("Extract Storage:"),TABLE(form[0][j+7:j+11])))))\n     t_ep_2=TABLE(FIELDSET(TAG.legend("SAMPLE PREPARATION"),TABLE(form[0][j+11:15])))\n     i=15\n     t1=TABLE(FIELDSET(TAG.legend("CHROMATOGRAPHY INSTRUMENTAL"),TABLE(form[0][15:i+4])))\n     t2=TABLE(FIELDSET(TAG.legend("DERIVATIZATION"),TABLE(form[0][i+4:i+8])))\n     t3=TABLE(FIELDSET(TAG.legend("AUTO-INJECTOR DETAILS"),TABLE(form[0][i+8:i+15])))\n     t4=TABLE(FIELDSET(TAG.legend("SEPERATION COLUMN AND PRE/GUARD COLUMN"),TABLE(form[0][i+15:i+23])))\n     t5=TABLE(FIELDSET(TAG.legend("SEPERATION PARAMETERS"),TABLE(form[0][i+23:i+30])))\n     t6=TABLE(FIELDSET(TAG.legend("QUALITY CONTROL"),TABLE(form[0][i+30:i+33]),TABLE(FIELDSET(TAG.legend("Cycle per"),TABLE(form[0][i+33:i+37])))))\n     t7=TABLE(FIELDSET(TAG.legend("DATA ACQUISITION"),TABLE(form[0][i+37:])))\n     form[0]=TABLE(FIELDSET(t_ep_1,t_ep_2,t1,t2,t3,t4,t5,t6,t7))\n\n     gc_forms.append(form[0])\n \n  lc_forms = []\n  \n  for each in lc:\n    form = SQLFORM(db.gas_chromatography,each.id,showid=False,readonly=True)\n    j=1\n    t_ep_1=TABLE(FIELDSET(TAG.legend("SAMPLE EXTRACTION"),TABLE(form[0][:j+7]),TABLE(FIELDSET(TAG.legend("Extract Storage:"),TABLE(form[0][j+7:j+11])))))\n    t_ep_2=TABLE(FIELDSET(TAG.legend("SAMPLE PREPARATION"),TABLE(form[0][j+11:15])))\n    i=15\n    t1=TABLE(FIELDSET(TAG.legend("CHROMATOGRAPHY INSTRUMENTAL"),TABLE(form[0][15:i+4])))\n    t3=TABLE(FIELDSET(TAG.legend("AUTO-INJECTOR DETAILS"),TABLE(form[0][i+4:i+11])))\n    t4=TABLE(FIELDSET(TAG.legend("SEPERATION COLUMN AND PRE/GUARD COLUMN"),TABLE(form[0][i+11:i+19])))\n    t5=TABLE(FIELDSET(TAG.legend("SEPERATION PARAMETERS"),TABLE(form[0][i+19:i+26])))\n    t6=TABLE(FIELDSET(TAG.legend("QUALITY CONTROL"),TABLE(form[0][i+26:i+29]),TABLE(FIELDSET(TAG.legend("Cycle per"),TABLE(form[0][i+29:i+33])))))\n    t7=TABLE(FIELDSET(TAG.legend("DATA ACQUISITION"),TABLE(form[0][i+33:])))\n    form[0]=TABLE(FIELDSET(t_ep_1,t_ep_2,t1,t3,t4,t5,t6,t7))\n    lc_forms.append(form[0])\n \n  ms_forms = []\n  for each in ms:\n    form = SQLFORM(db.mass_spectroscopy,each.id,showid=False,readonly=True)\n    i=1\n    t1=TABLE(FIELDSET(TAG.legend("INSTRUMENTAL DETAILS"),TABLE(form[0][:i+4])))\n    t2=TABLE(FIELDSET(TAG.legend("IONISATION SOURCE"),TABLE(form[0][i+4:i+10])))\n    t3=TABLE(FIELDSET(TAG.legend("MASS ANALYZER"),TABLE(form[0][i+10:i+18]),TABLE(FIELDSET(TAG.legend("Lock spray"),TABLE(form[0][i+18:i+22]))),TABLE(form[0][i+22:i+23])))\n    t4=TABLE(FIELDSET(TAG.legend("QUALITY CONTROL"),TABLE(form[0][i+23:i+27])))\n    t5=TABLE(FIELDSET(TAG.legend("DATA ACQUISITION"),TABLE(form[0][i+27:])))\n    form[0]=TABLE(FIELDSET(t1,t2,t3,t4,t5))  \n    ms_forms.append(form[0])\n\n  raw_forms = []\n  for each in raw_storage:\n     form = SQLFORM(db.raw_data_storage_information,each.id,showid=False,readonly=True)\n     raw_forms.append(form[0])\n\n\n  return locals() \n\n#def grid():\n  # query=((db.project.project_status==0)&(db.experiment.project==db.project.id)&(db.sample.experiment==db.experiment.id)&(db.biosource.sample_name==db.sample.id))\n   #query=((db.sample.project==db.project.id)&(db.project.id>0))\n   #query=((db.project.id>0)&(db.sample.project==db.project.id)&((db.sample.id==db.biosource.sample_name)&(db.sample.id==db.plant_growth_condition.sample_name)))\n#   query=((db.sample.experiment==db.experiment.id)&((db.sample.id==db.biosource.sample_name)|(db.sample.id==db.plant_growth_condition.sample_name)))\n#   grid = SQLFORM.grid(query)\n#   return locals()\n\n\ndef search():\n    form=FORM(\'Your name:\',\n              INPUT(_name=\'name\', requires=IS_NOT_EMPTY()),\n              INPUT(_type=\'submit\'))\n    if form.accepts(request,session):\n      redirect(URL(\'sample\',args=form.vars.name)) \n    return locals()\n    \ndef multiple_files():\n   """allows an experimentalist to add multiple images and files and displays it in the consolidated sample view form """\n   """ per sample . takes id of the sample as the input """\n   sid = request.args(0)\n   sample = db(db.sample.id == sid).select().first() \n   old = db(db.sample_files.sample == sid).select(db.sample_files.ALL)\n   form = SQLFORM(db.sample_files)\n   form.vars.sample = sid\n   return locals()\n\n\n\nresponse._vars=response._caller(list_all_dev_projects)\n'
p7
sS'snapshot'
p8
(dp9
S'exception'
p10
(dp11
S'__hash__'
p12
S"<method-wrapper '__hash__' of exceptions.NameError object>"
p13
sS'__setattr__'
p14
S"<method-wrapper '__setattr__' of exceptions.NameError object>"
p15
sS'__reduce_ex__'
p16
S'<built-in method __reduce_ex__ of exceptions.NameError object>'
p17
sS'__getslice__'
p18
S"<method-wrapper '__getslice__' of exceptions.NameError object>"
p19
sS'__getitem__'
p20
S"<method-wrapper '__getitem__' of exceptions.NameError object>"
p21
sS'__setstate__'
p22
S'<built-in method __setstate__ of exceptions.NameError object>'
p23
sS'__reduce__'
p24
S'<built-in method __reduce__ of exceptions.NameError object>'
p25
sS'__str__'
p26
S"<method-wrapper '__str__' of exceptions.NameError object>"
p27
sS'__format__'
p28
S'<built-in method __format__ of exceptions.NameError object>'
p29
sS'__getattribute__'
p30
S"<method-wrapper '__getattribute__' of exceptions.NameError object>"
p31
sS'__class__'
p32
S"<type 'exceptions.NameError'>"
p33
sS'__unicode__'
p34
S'<built-in method __unicode__ of exceptions.NameError object>'
p35
sS'__delattr__'
p36
S"<method-wrapper '__delattr__' of exceptions.NameError object>"
p37
sS'__subclasshook__'
p38
S'<built-in method __subclasshook__ of type object>'
p39
sS'__repr__'
p40
S"<method-wrapper '__repr__' of exceptions.NameError object>"
p41
sS'args'
p42
S'("global name \'field_name\' is not defined",)'
p43
sS'__dict__'
p44
S'{}'
p45
sS'__sizeof__'
p46
S'<built-in method __sizeof__ of exceptions.NameError object>'
p47
sS'__doc__'
p48
S"'Name not found globally.'"
p49
sS'__init__'
p50
S"<method-wrapper '__init__' of exceptions.NameError object>"
p51
sS'__new__'
p52
S'<built-in method __new__ of type object>'
p53
ssS'evalue'
p54
S"global name 'field_name' is not defined"
p55
sS'request'
p56
ccopy_reg
_reconstructor
p57
(cgluon.html
BEAUTIFY
p58
c__builtin__
object
p59
NtRp60
(dp61
S'attributes'
p62
(dp63
sS'components'
p64
(lp65
g57
(cgluon.html
TABLE
p66
g59
NtRp67
(dp68
g62
(dp69
S'level'
p70
I5
ssS'parent'
p71
Nsg64
(lp72
g57
(cgluon.html
TR
p73
g59
NtRp74
(dp75
g62
(dp76
sg71
g67
sg64
(lp77
g57
(cgluon.html
TD
p78
g59
NtRp79
(dp80
g62
(dp81
S'_style'
p82
S'font-weight:bold;vertical-align:top'
p83
ssg71
g74
sg64
(lp84
S'ajax'
p85
asbag57
(g78
g59
NtRp86
(dp87
g62
(dp88
S'_valign'
p89
S'top'
p90
ssg71
g74
sg64
(lp91
S':'
asbag57
(g78
g59
NtRp92
(dp93
g62
(dp94
sg71
g74
sg64
(lp95
g57
(g58
g59
NtRp96
(dp97
g62
(dp98
g70
I5
ssg71
g92
sg64
(lp99
S'False'
p100
asbasbasbag57
(g73
g59
NtRp101
(dp102
g62
(dp103
sg71
g67
sg64
(lp104
g57
(g78
g59
NtRp105
(dp106
g62
(dp107
g82
g83
ssg71
g101
sg64
(lp108
S'application'
p109
asbag57
(g78
g59
NtRp110
(dp111
g62
(dp112
g89
g90
ssg71
g101
sg64
(lp113
S':'
asbag57
(g78
g59
NtRp114
(dp115
g62
(dp116
sg71
g101
sg64
(lp117
g57
(g58
g59
NtRp118
(dp119
g62
(dp120
g70
I5
ssg71
g114
sg64
(lp121
S'DEV_bootstrap_ch'
p122
asbasbasbag57
(g73
g59
NtRp123
(dp124
g62
(dp125
sg71
g67
sg64
(lp126
g57
(g78
g59
NtRp127
(dp128
g62
(dp129
g82
g83
ssg71
g123
sg64
(lp130
g42
asbag57
(g78
g59
NtRp131
(dp132
g62
(dp133
g89
g90
ssg71
g123
sg64
(lp134
S':'
asbag57
(g78
g59
NtRp135
(dp136
g62
(dp137
sg71
g123
sg64
(lp138
g57
(g58
g59
NtRp139
(dp140
g62
(dp141
g70
I5
ssg71
g135
sg64
(lp142
g57
(g66
g59
NtRp143
(dp144
g62
(dp145
g70
I4
ssg71
Nsg64
(lp146
g57
(g73
g59
NtRp147
(dp148
g62
(dp149
sg71
g143
sg64
(lp150
g57
(g78
g59
NtRp151
(dp152
g62
(dp153
sg71
g147
sg64
(lp154
g57
(g58
g59
NtRp155
(dp156
g62
(dp157
g70
I4
ssg71
g151
sg64
(lp158
S'project'
p159
asbasbasbag57
(g73
g59
NtRp160
(dp161
g62
(dp162
sg71
g143
sg64
(lp163
g57
(g78
g59
NtRp164
(dp165
g62
(dp166
sg71
g160
sg64
(lp167
g57
(g58
g59
NtRp168
(dp169
g62
(dp170
g70
I4
ssg71
g164
sg64
(lp171
S'experiment.project'
p172
asbasbasbag57
(g73
g59
NtRp173
(dp174
g62
(dp175
sg71
g143
sg64
(lp176
g57
(g78
g59
NtRp177
(dp178
g62
(dp179
sg71
g173
sg64
(lp180
g57
(g58
g59
NtRp181
(dp182
g62
(dp183
g70
I4
ssg71
g177
sg64
(lp184
S'1'
asbasbasbag57
(g73
g59
NtRp185
(dp186
g62
(dp187
sg71
g143
sg64
(lp188
g57
(g78
g59
NtRp189
(dp190
g62
(dp191
sg71
g185
sg64
(lp192
g57
(g58
g59
NtRp193
(dp194
g62
(dp195
g70
I4
ssg71
g189
sg64
(lp196
S'sample.experiment'
p197
asbasbasbag57
(g73
g59
NtRp198
(dp199
g62
(dp200
sg71
g143
sg64
(lp201
g57
(g78
g59
NtRp202
(dp203
g62
(dp204
sg71
g198
sg64
(lp205
g57
(g58
g59
NtRp206
(dp207
g62
(dp208
g70
I4
ssg71
g202
sg64
(lp209
S'1'
asbasbasbasbasbasbasbag57
(g73
g59
NtRp210
(dp211
g62
(dp212
sg71
g67
sg64
(lp213
g57
(g78
g59
NtRp214
(dp215
g62
(dp216
g82
g83
ssg71
g210
sg64
(lp217
S'body'
p218
asbag57
(g78
g59
NtRp219
(dp220
g62
(dp221
g89
g90
ssg71
g210
sg64
(lp222
S':'
asbag57
(g78
g59
NtRp223
(dp224
g62
(dp225
sg71
g210
sg64
(lp226
g57
(g58
g59
NtRp227
(dp228
g62
(dp229
g70
I5
ssg71
g223
sg64
(lp230
S'<cStringIO.StringO object at 0x8dc9fc0>'
p231
asbasbasbag57
(g73
g59
NtRp232
(dp233
g62
(dp234
sg71
g67
sg64
(lp235
g57
(g78
g59
NtRp236
(dp237
g62
(dp238
g82
g83
ssg71
g232
sg64
(lp239
S'cid'
p240
asbag57
(g78
g59
NtRp241
(dp242
g62
(dp243
g89
g90
ssg71
g232
sg64
(lp244
S':'
asbag57
(g78
g59
NtRp245
(dp246
g62
(dp247
sg71
g232
sg64
(lp248
g57
(g58
g59
NtRp249
(dp250
g62
(dp251
g70
I5
ssg71
g245
sg64
(lp252
S'None'
p253
asbasbasbag57
(g73
g59
NtRp254
(dp255
g62
(dp256
sg71
g67
sg64
(lp257
g57
(g78
g59
NtRp258
(dp259
g62
(dp260
g82
g83
ssg71
g254
sg64
(lp261
S'client'
p262
asbag57
(g78
g59
NtRp263
(dp264
g62
(dp265
g89
g90
ssg71
g254
sg64
(lp266
S':'
asbag57
(g78
g59
NtRp267
(dp268
g62
(dp269
sg71
g254
sg64
(lp270
g57
(g58
g59
NtRp271
(dp272
g62
(dp273
g70
I5
ssg71
g267
sg64
(lp274
S'127.0.0.1'
p275
asbasbasbag57
(g73
g59
NtRp276
(dp277
g62
(dp278
sg71
g67
sg64
(lp279
g57
(g78
g59
NtRp280
(dp281
g62
(dp282
g82
g83
ssg71
g276
sg64
(lp283
S'controller'
p284
asbag57
(g78
g59
NtRp285
(dp286
g62
(dp287
g89
g90
ssg71
g276
sg64
(lp288
S':'
asbag57
(g78
g59
NtRp289
(dp290
g62
(dp291
sg71
g276
sg64
(lp292
g57
(g58
g59
NtRp293
(dp294
g62
(dp295
g70
I5
ssg71
g289
sg64
(lp296
S'default'
p297
asbasbasbag57
(g73
g59
NtRp298
(dp299
g62
(dp300
sg71
g67
sg64
(lp301
g57
(g78
g59
NtRp302
(dp303
g62
(dp304
g82
g83
ssg71
g298
sg64
(lp305
S'cookies'
p306
asbag57
(g78
g59
NtRp307
(dp308
g62
(dp309
g89
g90
ssg71
g298
sg64
(lp310
S':'
asbag57
(g78
g59
NtRp311
(dp312
g62
(dp313
sg71
g298
sg64
(lp314
g57
(g58
g59
NtRp315
(dp316
g62
(dp317
g70
I5
ssg71
g311
sg64
(lp318
g57
(g66
g59
NtRp319
(dp320
g62
(dp321
g70
I4
ssg71
Nsg64
(lp322
g57
(g73
g59
NtRp323
(dp324
g62
(dp325
sg71
g319
sg64
(lp326
g57
(g78
g59
NtRp327
(dp328
g62
(dp329
g82
g83
ssg71
g323
sg64
(lp330
S'session_id_admin'
p331
asbag57
(g78
g59
NtRp332
(dp333
g62
(dp334
g89
g90
ssg71
g323
sg64
(lp335
S':'
asbag57
(g78
g59
NtRp336
(dp337
g62
(dp338
sg71
g323
sg64
(lp339
g57
(g58
g59
NtRp340
(dp341
g62
(dp342
g70
I4
ssg71
g336
sg64
(lp343
S'127.0.0.1-7913f622-9f6f-44d0-ab66-1bae5c64cadb'
p344
ag57
(g66
g59
NtRp345
(dp346
g62
(dp347
g70
I3
ssg71
Nsg64
(lp348
g57
(g73
g59
NtRp349
(dp350
g62
(dp351
sg71
g345
sg64
(lp352
g57
(g78
g59
NtRp353
(dp354
g62
(dp355
g82
g83
ssg71
g349
sg64
(lp356
S'comment'
p357
asbag57
(g78
g59
NtRp358
(dp359
g62
(dp360
g89
g90
ssg71
g349
sg64
(lp361
S':'
asbag57
(g78
g59
NtRp362
(dp363
g62
(dp364
sg71
g349
sg64
(lp365
g57
(g58
g59
NtRp366
(dp367
g62
(dp368
g70
I3
ssg71
g362
sg64
(lp369
S''
asbasbasbag57
(g73
g59
NtRp370
(dp371
g62
(dp372
sg71
g345
sg64
(lp373
g57
(g78
g59
NtRp374
(dp375
g62
(dp376
g82
g83
ssg71
g370
sg64
(lp377
S'domain'
p378
asbag57
(g78
g59
NtRp379
(dp380
g62
(dp381
g89
g90
ssg71
g370
sg64
(lp382
S':'
asbag57
(g78
g59
NtRp383
(dp384
g62
(dp385
sg71
g370
sg64
(lp386
g57
(g58
g59
NtRp387
(dp388
g62
(dp389
g70
I3
ssg71
g383
sg64
(lp390
S''
asbasbasbag57
(g73
g59
NtRp391
(dp392
g62
(dp393
sg71
g345
sg64
(lp394
g57
(g78
g59
NtRp395
(dp396
g62
(dp397
g82
g83
ssg71
g391
sg64
(lp398
S'expires'
p399
asbag57
(g78
g59
NtRp400
(dp401
g62
(dp402
g89
g90
ssg71
g391
sg64
(lp403
S':'
asbag57
(g78
g59
NtRp404
(dp405
g62
(dp406
sg71
g391
sg64
(lp407
g57
(g58
g59
NtRp408
(dp409
g62
(dp410
g70
I3
ssg71
g404
sg64
(lp411
S''
asbasbasbag57
(g73
g59
NtRp412
(dp413
g62
(dp414
sg71
g345
sg64
(lp415
g57
(g78
g59
NtRp416
(dp417
g62
(dp418
g82
g83
ssg71
g412
sg64
(lp419
S'httponly'
p420
asbag57
(g78
g59
NtRp421
(dp422
g62
(dp423
g89
g90
ssg71
g412
sg64
(lp424
S':'
asbag57
(g78
g59
NtRp425
(dp426
g62
(dp427
sg71
g412
sg64
(lp428
g57
(g58
g59
NtRp429
(dp430
g62
(dp431
g70
I3
ssg71
g425
sg64
(lp432
S''
asbasbasbag57
(g73
g59
NtRp433
(dp434
g62
(dp435
sg71
g345
sg64
(lp436
g57
(g78
g59
NtRp437
(dp438
g62
(dp439
g82
g83
ssg71
g433
sg64
(lp440
S'max-age'
p441
asbag57
(g78
g59
NtRp442
(dp443
g62
(dp444
g89
g90
ssg71
g433
sg64
(lp445
S':'
asbag57
(g78
g59
NtRp446
(dp447
g62
(dp448
sg71
g433
sg64
(lp449
g57
(g58
g59
NtRp450
(dp451
g62
(dp452
g70
I3
ssg71
g446
sg64
(lp453
S''
asbasbasbag57
(g73
g59
NtRp454
(dp455
g62
(dp456
sg71
g345
sg64
(lp457
g57
(g78
g59
NtRp458
(dp459
g62
(dp460
g82
g83
ssg71
g454
sg64
(lp461
S'path'
p462
asbag57
(g78
g59
NtRp463
(dp464
g62
(dp465
g89
g90
ssg71
g454
sg64
(lp466
S':'
asbag57
(g78
g59
NtRp467
(dp468
g62
(dp469
sg71
g454
sg64
(lp470
g57
(g58
g59
NtRp471
(dp472
g62
(dp473
g70
I3
ssg71
g467
sg64
(lp474
S''
asbasbasbag57
(g73
g59
NtRp475
(dp476
g62
(dp477
sg71
g345
sg64
(lp478
g57
(g78
g59
NtRp479
(dp480
g62
(dp481
g82
g83
ssg71
g475
sg64
(lp482
S'secure'
p483
asbag57
(g78
g59
NtRp484
(dp485
g62
(dp486
g89
g90
ssg71
g475
sg64
(lp487
S':'
asbag57
(g78
g59
NtRp488
(dp489
g62
(dp490
sg71
g475
sg64
(lp491
g57
(g58
g59
NtRp492
(dp493
g62
(dp494
g70
I3
ssg71
g488
sg64
(lp495
S''
asbasbasbag57
(g73
g59
NtRp496
(dp497
g62
(dp498
sg71
g345
sg64
(lp499
g57
(g78
g59
NtRp500
(dp501
g62
(dp502
g82
g83
ssg71
g496
sg64
(lp503
S'version'
p504
asbag57
(g78
g59
NtRp505
(dp506
g62
(dp507
g89
g90
ssg71
g496
sg64
(lp508
S':'
asbag57
(g78
g59
NtRp509
(dp510
g62
(dp511
sg71
g496
sg64
(lp512
g57
(g58
g59
NtRp513
(dp514
g62
(dp515
g70
I3
ssg71
g509
sg64
(lp516
S''
asbasbasbasbasbasbasbag57
(g73
g59
NtRp517
(dp518
g62
(dp519
sg71
g319
sg64
(lp520
g57
(g78
g59
NtRp521
(dp522
g62
(dp523
g82
g83
ssg71
g517
sg64
(lp524
S'session_id_dev_bootstrap'
p525
asbag57
(g78
g59
NtRp526
(dp527
g62
(dp528
g89
g90
ssg71
g517
sg64
(lp529
S':'
asbag57
(g78
g59
NtRp530
(dp531
g62
(dp532
sg71
g517
sg64
(lp533
g57
(g58
g59
NtRp534
(dp535
g62
(dp536
g70
I4
ssg71
g530
sg64
(lp537
S'127.0.0.1-a1796202-350b-4fc4-ab8c-2e4e20b39f6f'
p538
ag57
(g66
g59
NtRp539
(dp540
g62
(dp541
g70
I3
ssg71
Nsg64
(lp542
g57
(g73
g59
NtRp543
(dp544
g62
(dp545
sg71
g539
sg64
(lp546
g57
(g78
g59
NtRp547
(dp548
g62
(dp549
g82
g83
ssg71
g543
sg64
(lp550
g357
asbag57
(g78
g59
NtRp551
(dp552
g62
(dp553
g89
g90
ssg71
g543
sg64
(lp554
S':'
asbag57
(g78
g59
NtRp555
(dp556
g62
(dp557
sg71
g543
sg64
(lp558
g57
(g58
g59
NtRp559
(dp560
g62
(dp561
g70
I3
ssg71
g555
sg64
(lp562
S''
asbasbasbag57
(g73
g59
NtRp563
(dp564
g62
(dp565
sg71
g539
sg64
(lp566
g57
(g78
g59
NtRp567
(dp568
g62
(dp569
g82
g83
ssg71
g563
sg64
(lp570
g378
asbag57
(g78
g59
NtRp571
(dp572
g62
(dp573
g89
g90
ssg71
g563
sg64
(lp574
S':'
asbag57
(g78
g59
NtRp575
(dp576
g62
(dp577
sg71
g563
sg64
(lp578
g57
(g58
g59
NtRp579
(dp580
g62
(dp581
g70
I3
ssg71
g575
sg64
(lp582
S''
asbasbasbag57
(g73
g59
NtRp583
(dp584
g62
(dp585
sg71
g539
sg64
(lp586
g57
(g78
g59
NtRp587
(dp588
g62
(dp589
g82
g83
ssg71
g583
sg64
(lp590
g399
asbag57
(g78
g59
NtRp591
(dp592
g62
(dp593
g89
g90
ssg71
g583
sg64
(lp594
S':'
asbag57
(g78
g59
NtRp595
(dp596
g62
(dp597
sg71
g583
sg64
(lp598
g57
(g58
g59
NtRp599
(dp600
g62
(dp601
g70
I3
ssg71
g595
sg64
(lp602
S''
asbasbasbag57
(g73
g59
NtRp603
(dp604
g62
(dp605
sg71
g539
sg64
(lp606
g57
(g78
g59
NtRp607
(dp608
g62
(dp609
g82
g83
ssg71
g603
sg64
(lp610
g420
asbag57
(g78
g59
NtRp611
(dp612
g62
(dp613
g89
g90
ssg71
g603
sg64
(lp614
S':'
asbag57
(g78
g59
NtRp615
(dp616
g62
(dp617
sg71
g603
sg64
(lp618
g57
(g58
g59
NtRp619
(dp620
g62
(dp621
g70
I3
ssg71
g615
sg64
(lp622
S''
asbasbasbag57
(g73
g59
NtRp623
(dp624
g62
(dp625
sg71
g539
sg64
(lp626
g57
(g78
g59
NtRp627
(dp628
g62
(dp629
g82
g83
ssg71
g623
sg64
(lp630
g441
asbag57
(g78
g59
NtRp631
(dp632
g62
(dp633
g89
g90
ssg71
g623
sg64
(lp634
S':'
asbag57
(g78
g59
NtRp635
(dp636
g62
(dp637
sg71
g623
sg64
(lp638
g57
(g58
g59
NtRp639
(dp640
g62
(dp641
g70
I3
ssg71
g635
sg64
(lp642
S''
asbasbasbag57
(g73
g59
NtRp643
(dp644
g62
(dp645
sg71
g539
sg64
(lp646
g57
(g78
g59
NtRp647
(dp648
g62
(dp649
g82
g83
ssg71
g643
sg64
(lp650
g462
asbag57
(g78
g59
NtRp651
(dp652
g62
(dp653
g89
g90
ssg71
g643
sg64
(lp654
S':'
asbag57
(g78
g59
NtRp655
(dp656
g62
(dp657
sg71
g643
sg64
(lp658
g57
(g58
g59
NtRp659
(dp660
g62
(dp661
g70
I3
ssg71
g655
sg64
(lp662
S''
asbasbasbag57
(g73
g59
NtRp663
(dp664
g62
(dp665
sg71
g539
sg64
(lp666
g57
(g78
g59
NtRp667
(dp668
g62
(dp669
g82
g83
ssg71
g663
sg64
(lp670
g483
asbag57
(g78
g59
NtRp671
(dp672
g62
(dp673
g89
g90
ssg71
g663
sg64
(lp674
S':'
asbag57
(g78
g59
NtRp675
(dp676
g62
(dp677
sg71
g663
sg64
(lp678
g57
(g58
g59
NtRp679
(dp680
g62
(dp681
g70
I3
ssg71
g675
sg64
(lp682
S''
asbasbasbag57
(g73
g59
NtRp683
(dp684
g62
(dp685
sg71
g539
sg64
(lp686
g57
(g78
g59
NtRp687
(dp688
g62
(dp689
g82
g83
ssg71
g683
sg64
(lp690
g504
asbag57
(g78
g59
NtRp691
(dp692
g62
(dp693
g89
g90
ssg71
g683
sg64
(lp694
S':'
asbag57
(g78
g59
NtRp695
(dp696
g62
(dp697
sg71
g683
sg64
(lp698
g57
(g58
g59
NtRp699
(dp700
g62
(dp701
g70
I3
ssg71
g695
sg64
(lp702
S''
asbasbasbasbasbasbasbag57
(g73
g59
NtRp703
(dp704
g62
(dp705
sg71
g319
sg64
(lp706
g57
(g78
g59
NtRp707
(dp708
g62
(dp709
g82
g83
ssg71
g703
sg64
(lp710
S'session_id_dev_bootstrap_ch'
p711
asbag57
(g78
g59
NtRp712
(dp713
g62
(dp714
g89
g90
ssg71
g703
sg64
(lp715
S':'
asbag57
(g78
g59
NtRp716
(dp717
g62
(dp718
sg71
g703
sg64
(lp719
g57
(g58
g59
NtRp720
(dp721
g62
(dp722
g70
I4
ssg71
g716
sg64
(lp723
S'127.0.0.1-270b038b-df00-4d5c-949a-e87692880510'
p724
ag57
(g66
g59
NtRp725
(dp726
g62
(dp727
g70
I3
ssg71
Nsg64
(lp728
g57
(g73
g59
NtRp729
(dp730
g62
(dp731
sg71
g725
sg64
(lp732
g57
(g78
g59
NtRp733
(dp734
g62
(dp735
g82
g83
ssg71
g729
sg64
(lp736
g357
asbag57
(g78
g59
NtRp737
(dp738
g62
(dp739
g89
g90
ssg71
g729
sg64
(lp740
S':'
asbag57
(g78
g59
NtRp741
(dp742
g62
(dp743
sg71
g729
sg64
(lp744
g57
(g58
g59
NtRp745
(dp746
g62
(dp747
g70
I3
ssg71
g741
sg64
(lp748
S''
asbasbasbag57
(g73
g59
NtRp749
(dp750
g62
(dp751
sg71
g725
sg64
(lp752
g57
(g78
g59
NtRp753
(dp754
g62
(dp755
g82
g83
ssg71
g749
sg64
(lp756
g378
asbag57
(g78
g59
NtRp757
(dp758
g62
(dp759
g89
g90
ssg71
g749
sg64
(lp760
S':'
asbag57
(g78
g59
NtRp761
(dp762
g62
(dp763
sg71
g749
sg64
(lp764
g57
(g58
g59
NtRp765
(dp766
g62
(dp767
g70
I3
ssg71
g761
sg64
(lp768
S''
asbasbasbag57
(g73
g59
NtRp769
(dp770
g62
(dp771
sg71
g725
sg64
(lp772
g57
(g78
g59
NtRp773
(dp774
g62
(dp775
g82
g83
ssg71
g769
sg64
(lp776
g399
asbag57
(g78
g59
NtRp777
(dp778
g62
(dp779
g89
g90
ssg71
g769
sg64
(lp780
S':'
asbag57
(g78
g59
NtRp781
(dp782
g62
(dp783
sg71
g769
sg64
(lp784
g57
(g58
g59
NtRp785
(dp786
g62
(dp787
g70
I3
ssg71
g781
sg64
(lp788
S''
asbasbasbag57
(g73
g59
NtRp789
(dp790
g62
(dp791
sg71
g725
sg64
(lp792
g57
(g78
g59
NtRp793
(dp794
g62
(dp795
g82
g83
ssg71
g789
sg64
(lp796
g420
asbag57
(g78
g59
NtRp797
(dp798
g62
(dp799
g89
g90
ssg71
g789
sg64
(lp800
S':'
asbag57
(g78
g59
NtRp801
(dp802
g62
(dp803
sg71
g789
sg64
(lp804
g57
(g58
g59
NtRp805
(dp806
g62
(dp807
g70
I3
ssg71
g801
sg64
(lp808
S''
asbasbasbag57
(g73
g59
NtRp809
(dp810
g62
(dp811
sg71
g725
sg64
(lp812
g57
(g78
g59
NtRp813
(dp814
g62
(dp815
g82
g83
ssg71
g809
sg64
(lp816
g441
asbag57
(g78
g59
NtRp817
(dp818
g62
(dp819
g89
g90
ssg71
g809
sg64
(lp820
S':'
asbag57
(g78
g59
NtRp821
(dp822
g62
(dp823
sg71
g809
sg64
(lp824
g57
(g58
g59
NtRp825
(dp826
g62
(dp827
g70
I3
ssg71
g821
sg64
(lp828
S''
asbasbasbag57
(g73
g59
NtRp829
(dp830
g62
(dp831
sg71
g725
sg64
(lp832
g57
(g78
g59
NtRp833
(dp834
g62
(dp835
g82
g83
ssg71
g829
sg64
(lp836
g462
asbag57
(g78
g59
NtRp837
(dp838
g62
(dp839
g89
g90
ssg71
g829
sg64
(lp840
S':'
asbag57
(g78
g59
NtRp841
(dp842
g62
(dp843
sg71
g829
sg64
(lp844
g57
(g58
g59
NtRp845
(dp846
g62
(dp847
g70
I3
ssg71
g841
sg64
(lp848
S''
asbasbasbag57
(g73
g59
NtRp849
(dp850
g62
(dp851
sg71
g725
sg64
(lp852
g57
(g78
g59
NtRp853
(dp854
g62
(dp855
g82
g83
ssg71
g849
sg64
(lp856
g483
asbag57
(g78
g59
NtRp857
(dp858
g62
(dp859
g89
g90
ssg71
g849
sg64
(lp860
S':'
asbag57
(g78
g59
NtRp861
(dp862
g62
(dp863
sg71
g849
sg64
(lp864
g57
(g58
g59
NtRp865
(dp866
g62
(dp867
g70
I3
ssg71
g861
sg64
(lp868
S''
asbasbasbag57
(g73
g59
NtRp869
(dp870
g62
(dp871
sg71
g725
sg64
(lp872
g57
(g78
g59
NtRp873
(dp874
g62
(dp875
g82
g83
ssg71
g869
sg64
(lp876
g504
asbag57
(g78
g59
NtRp877
(dp878
g62
(dp879
g89
g90
ssg71
g869
sg64
(lp880
S':'
asbag57
(g78
g59
NtRp881
(dp882
g62
(dp883
sg71
g869
sg64
(lp884
g57
(g58
g59
NtRp885
(dp886
g62
(dp887
g70
I3
ssg71
g881
sg64
(lp888
S''
asbasbasbasbasbasbasbasbasbasbasbag57
(g73
g59
NtRp889
(dp890
g62
(dp891
sg71
g67
sg64
(lp892
g57
(g78
g59
NtRp893
(dp894
g62
(dp895
g82
g83
ssg71
g889
sg64
(lp896
S'env'
p897
asbag57
(g78
g59
NtRp898
(dp899
g62
(dp900
g89
g90
ssg71
g889
sg64
(lp901
S':'
asbag57
(g78
g59
NtRp902
(dp903
g62
(dp904
sg71
g889
sg64
(lp905
g57
(g58
g59
NtRp906
(dp907
g62
(dp908
g70
I5
ssg71
g902
sg64
(lp909
g57
(g66
g59
NtRp910
(dp911
g62
(dp912
g70
I4
ssg71
Nsg64
(lp913
g57
(g73
g59
NtRp914
(dp915
g62
(dp916
sg71
g910
sg64
(lp917
g57
(g78
g59
NtRp918
(dp919
g62
(dp920
g82
g83
ssg71
g914
sg64
(lp921
S'app_folders'
p922
asbag57
(g78
g59
NtRp923
(dp924
g62
(dp925
g89
g90
ssg71
g914
sg64
(lp926
S':'
asbag57
(g78
g59
NtRp927
(dp928
g62
(dp929
sg71
g914
sg64
(lp930
g57
(g58
g59
NtRp931
(dp932
g62
(dp933
g70
I4
ssg71
g927
sg64
(lp934
S"set(['/home/anil/bootstrap/web2py/applications/DEV_bootstrap_ch/'])"
p935
asbasbasbag57
(g73
g59
NtRp936
(dp937
g62
(dp938
sg71
g910
sg64
(lp939
g57
(g78
g59
NtRp940
(dp941
g62
(dp942
g82
g83
ssg71
g936
sg64
(lp943
S'applications_parent'
p944
asbag57
(g78
g59
NtRp945
(dp946
g62
(dp947
g89
g90
ssg71
g936
sg64
(lp948
S':'
asbag57
(g78
g59
NtRp949
(dp950
g62
(dp951
sg71
g936
sg64
(lp952
g57
(g58
g59
NtRp953
(dp954
g62
(dp955
g70
I4
ssg71
g949
sg64
(lp956
S'/home/anil/bootstrap/web2py'
p957
asbasbasbag57
(g73
g59
NtRp958
(dp959
g62
(dp960
sg71
g910
sg64
(lp961
g57
(g78
g59
NtRp962
(dp963
g62
(dp964
g82
g83
ssg71
g958
sg64
(lp965
S'cmd_args'
p966
asbag57
(g78
g59
NtRp967
(dp968
g62
(dp969
g89
g90
ssg71
g958
sg64
(lp970
S':'
asbag57
(g78
g59
NtRp971
(dp972
g62
(dp973
sg71
g958
sg64
(lp974
g57
(g58
g59
NtRp975
(dp976
g62
(dp977
g70
I4
ssg71
g971
sg64
(lp978
g57
(g66
g59
NtRp979
(dp980
g62
(dp981
g70
I3
ssg71
Nsg64
(lp982
sbasbasbasbag57
(g73
g59
NtRp983
(dp984
g62
(dp985
sg71
g910
sg64
(lp986
g57
(g78
g59
NtRp987
(dp988
g62
(dp989
g82
g83
ssg71
g983
sg64
(lp990
S'cmd_options'
p991
asbag57
(g78
g59
NtRp992
(dp993
g62
(dp994
g89
g90
ssg71
g983
sg64
(lp995
S':'
asbag57
(g78
g59
NtRp996
(dp997
g62
(dp998
sg71
g983
sg64
(lp999
g57
(g58
g59
NtRp1000
(dp1001
g62
(dp1002
g70
I4
ssg71
g996
sg64
(lp1003
S"<Values at 0x8d36fcc: {'verbose': False, 'ip': '127.0.0.1', 'with_scheduler': False, 'ips': [], 'shutdown_timeout': 5, 'taskbar': False, 'port': 8000, 'maxthreads': None, 'softcron': False, 'server_name': 'anil-Inspiron-1525', 'bpython': False, 'nogui': False, 'pid_filename': 'httpserver.pid', 'extcron': False, 'runcron': False, 'run_system_tests': False, 'test': None, 'folder': '/home/anil/bootstrap/web2py', 'config': '', 'import_models': False, 'winservice': '', 'shell': None, 'run': '', 'log_filename': 'httpserver.log', 'debuglevel': 30, 'args': [''], 'socket_timeout': 5, 'ssl_ca_certificate': None, 'scheduler': None, 'profiler_filename': None, 'ssl_private_key': '', 'scheduler_groups': None, 'password': '123', 'request_queue_size': 5, 'ssl_certificate': '', 'cronjob': False, 'numthreads': None, 'quiet': False, 'interfaces': None, 'minthreads': None, 'timeout': 10, 'plain': False, 'nobanner': False}>"
p1004
asbasbasbag57
(g73
g59
NtRp1005
(dp1006
g62
(dp1007
sg71
g910
sg64
(lp1008
g57
(g78
g59
NtRp1009
(dp1010
g62
(dp1011
g82
g83
ssg71
g1005
sg64
(lp1012
S'db_sessions'
p1013
asbag57
(g78
g59
NtRp1014
(dp1015
g62
(dp1016
g89
g90
ssg71
g1005
sg64
(lp1017
S':'
asbag57
(g78
g59
NtRp1018
(dp1019
g62
(dp1020
sg71
g1005
sg64
(lp1021
g57
(g58
g59
NtRp1022
(dp1023
g62
(dp1024
g70
I4
ssg71
g1018
sg64
(lp1025
S'set([])'
p1026
asbasbasbag57
(g73
g59
NtRp1027
(dp1028
g62
(dp1029
sg71
g910
sg64
(lp1030
g57
(g78
g59
NtRp1031
(dp1032
g62
(dp1033
g82
g83
ssg71
g1027
sg64
(lp1034
S'debugging'
p1035
asbag57
(g78
g59
NtRp1036
(dp1037
g62
(dp1038
g89
g90
ssg71
g1027
sg64
(lp1039
S':'
asbag57
(g78
g59
NtRp1040
(dp1041
g62
(dp1042
sg71
g1027
sg64
(lp1043
g57
(g58
g59
NtRp1044
(dp1045
g62
(dp1046
g70
I4
ssg71
g1040
sg64
(lp1047
g100
asbasbasbag57
(g73
g59
NtRp1048
(dp1049
g62
(dp1050
sg71
g910
sg64
(lp1051
g57
(g78
g59
NtRp1052
(dp1053
g62
(dp1054
g82
g83
ssg71
g1048
sg64
(lp1055
S'gluon_parent'
p1056
asbag57
(g78
g59
NtRp1057
(dp1058
g62
(dp1059
g89
g90
ssg71
g1048
sg64
(lp1060
S':'
asbag57
(g78
g59
NtRp1061
(dp1062
g62
(dp1063
sg71
g1048
sg64
(lp1064
g57
(g58
g59
NtRp1065
(dp1066
g62
(dp1067
g70
I4
ssg71
g1061
sg64
(lp1068
S'/home/anil/bootstrap/web2py'
p1069
asbasbasbag57
(g73
g59
NtRp1070
(dp1071
g62
(dp1072
sg71
g910
sg64
(lp1073
g57
(g78
g59
NtRp1074
(dp1075
g62
(dp1076
g82
g83
ssg71
g1070
sg64
(lp1077
S'http_accept'
p1078
asbag57
(g78
g59
NtRp1079
(dp1080
g62
(dp1081
g89
g90
ssg71
g1070
sg64
(lp1082
S':'
asbag57
(g78
g59
NtRp1083
(dp1084
g62
(dp1085
sg71
g1070
sg64
(lp1086
g57
(g58
g59
NtRp1087
(dp1088
g62
(dp1089
g70
I4
ssg71
g1083
sg64
(lp1090
S'text/html,application/xhtml+xml,application/xml;q=0.9,*/*;q=0.8'
p1091
asbasbasbag57
(g73
g59
NtRp1092
(dp1093
g62
(dp1094
sg71
g910
sg64
(lp1095
g57
(g78
g59
NtRp1096
(dp1097
g62
(dp1098
g82
g83
ssg71
g1092
sg64
(lp1099
S'http_accept_charset'
p1100
asbag57
(g78
g59
NtRp1101
(dp1102
g62
(dp1103
g89
g90
ssg71
g1092
sg64
(lp1104
S':'
asbag57
(g78
g59
NtRp1105
(dp1106
g62
(dp1107
sg71
g1092
sg64
(lp1108
g57
(g58
g59
NtRp1109
(dp1110
g62
(dp1111
g70
I4
ssg71
g1105
sg64
(lp1112
S'ISO-8859-1,utf-8;q=0.7,*;q=0.3'
p1113
asbasbasbag57
(g73
g59
NtRp1114
(dp1115
g62
(dp1116
sg71
g910
sg64
(lp1117
g57
(g78
g59
NtRp1118
(dp1119
g62
(dp1120
g82
g83
ssg71
g1114
sg64
(lp1121
S'http_accept_encoding'
p1122
asbag57
(g78
g59
NtRp1123
(dp1124
g62
(dp1125
g89
g90
ssg71
g1114
sg64
(lp1126
S':'
asbag57
(g78
g59
NtRp1127
(dp1128
g62
(dp1129
sg71
g1114
sg64
(lp1130
g57
(g58
g59
NtRp1131
(dp1132
g62
(dp1133
g70
I4
ssg71
g1127
sg64
(lp1134
S'gzip,deflate,sdch'
p1135
asbasbasbag57
(g73
g59
NtRp1136
(dp1137
g62
(dp1138
sg71
g910
sg64
(lp1139
g57
(g78
g59
NtRp1140
(dp1141
g62
(dp1142
g82
g83
ssg71
g1136
sg64
(lp1143
S'http_accept_language'
p1144
asbag57
(g78
g59
NtRp1145
(dp1146
g62
(dp1147
g89
g90
ssg71
g1136
sg64
(lp1148
S':'
asbag57
(g78
g59
NtRp1149
(dp1150
g62
(dp1151
sg71
g1136
sg64
(lp1152
g57
(g58
g59
NtRp1153
(dp1154
g62
(dp1155
g70
I4
ssg71
g1149
sg64
(lp1156
S'en-US,en;q=0.8'
p1157
asbasbasbag57
(g73
g59
NtRp1158
(dp1159
g62
(dp1160
sg71
g910
sg64
(lp1161
g57
(g78
g59
NtRp1162
(dp1163
g62
(dp1164
g82
g83
ssg71
g1158
sg64
(lp1165
S'http_cache_control'
p1166
asbag57
(g78
g59
NtRp1167
(dp1168
g62
(dp1169
g89
g90
ssg71
g1158
sg64
(lp1170
S':'
asbag57
(g78
g59
NtRp1171
(dp1172
g62
(dp1173
sg71
g1158
sg64
(lp1174
g57
(g58
g59
NtRp1175
(dp1176
g62
(dp1177
g70
I4
ssg71
g1171
sg64
(lp1178
S'max-age=0'
p1179
asbasbasbag57
(g73
g59
NtRp1180
(dp1181
g62
(dp1182
sg71
g910
sg64
(lp1183
g57
(g78
g59
NtRp1184
(dp1185
g62
(dp1186
g82
g83
ssg71
g1180
sg64
(lp1187
S'http_connection'
p1188
asbag57
(g78
g59
NtRp1189
(dp1190
g62
(dp1191
g89
g90
ssg71
g1180
sg64
(lp1192
S':'
asbag57
(g78
g59
NtRp1193
(dp1194
g62
(dp1195
sg71
g1180
sg64
(lp1196
g57
(g58
g59
NtRp1197
(dp1198
g62
(dp1199
g70
I4
ssg71
g1193
sg64
(lp1200
S'keep-alive'
p1201
asbasbasbag57
(g73
g59
NtRp1202
(dp1203
g62
(dp1204
sg71
g910
sg64
(lp1205
g57
(g78
g59
NtRp1206
(dp1207
g62
(dp1208
g82
g83
ssg71
g1202
sg64
(lp1209
S'http_cookie'
p1210
asbag57
(g78
g59
NtRp1211
(dp1212
g62
(dp1213
g89
g90
ssg71
g1202
sg64
(lp1214
S':'
asbag57
(g78
g59
NtRp1215
(dp1216
g62
(dp1217
sg71
g1202
sg64
(lp1218
g57
(g58
g59
NtRp1219
(dp1220
g62
(dp1221
g70
I4
ssg71
g1215
sg64
(lp1222
S'session_id_admin=127.0.0.1-7913f622-9f6f-44d0-ab66-1bae5c64cadb; session_id_dev_bootstrap=127.0.0.1-a1796202-350b-4fc4-ab8c-2e4e20b39f6f; session_id_dev_bootstrap_ch=127.0.0.1-270b038b-df00-4d5c-949a-e87692880510'
p1223
asbasbasbag57
(g73
g59
NtRp1224
(dp1225
g62
(dp1226
sg71
g910
sg64
(lp1227
g57
(g78
g59
NtRp1228
(dp1229
g62
(dp1230
g82
g83
ssg71
g1224
sg64
(lp1231
S'http_host'
p1232
asbag57
(g78
g59
NtRp1233
(dp1234
g62
(dp1235
g89
g90
ssg71
g1224
sg64
(lp1236
S':'
asbag57
(g78
g59
NtRp1237
(dp1238
g62
(dp1239
sg71
g1224
sg64
(lp1240
g57
(g58
g59
NtRp1241
(dp1242
g62
(dp1243
g70
I4
ssg71
g1237
sg64
(lp1244
S'127.0.0.1:8000'
p1245
asbasbasbag57
(g73
g59
NtRp1246
(dp1247
g62
(dp1248
sg71
g910
sg64
(lp1249
g57
(g78
g59
NtRp1250
(dp1251
g62
(dp1252
g82
g83
ssg71
g1246
sg64
(lp1253
S'http_referer'
p1254
asbag57
(g78
g59
NtRp1255
(dp1256
g62
(dp1257
g89
g90
ssg71
g1246
sg64
(lp1258
S':'
asbag57
(g78
g59
NtRp1259
(dp1260
g62
(dp1261
sg71
g1246
sg64
(lp1262
g57
(g58
g59
NtRp1263
(dp1264
g62
(dp1265
g70
I4
ssg71
g1259
sg64
(lp1266
S'http://127.0.0.1:8000/DEV_bootstrap_ch/default/list_all_dev_projects/project/experiment.project/1'
p1267
asbasbasbag57
(g73
g59
NtRp1268
(dp1269
g62
(dp1270
sg71
g910
sg64
(lp1271
g57
(g78
g59
NtRp1272
(dp1273
g62
(dp1274
g82
g83
ssg71
g1268
sg64
(lp1275
S'http_user_agent'
p1276
asbag57
(g78
g59
NtRp1277
(dp1278
g62
(dp1279
g89
g90
ssg71
g1268
sg64
(lp1280
S':'
asbag57
(g78
g59
NtRp1281
(dp1282
g62
(dp1283
sg71
g1268
sg64
(lp1284
g57
(g58
g59
NtRp1285
(dp1286
g62
(dp1287
g70
I4
ssg71
g1281
sg64
(lp1288
S'Mozilla/5.0 (X11; Linux i686) AppleWebKit/537.31 (KHTML, like Gecko) Chrome/26.0.1410.10 Safari/537.31'
p1289
asbasbasbag57
(g73
g59
NtRp1290
(dp1291
g62
(dp1292
sg71
g910
sg64
(lp1293
g57
(g78
g59
NtRp1294
(dp1295
g62
(dp1296
g82
g83
ssg71
g1290
sg64
(lp1297
S'is_jython'
p1298
asbag57
(g78
g59
NtRp1299
(dp1300
g62
(dp1301
g89
g90
ssg71
g1290
sg64
(lp1302
S':'
asbag57
(g78
g59
NtRp1303
(dp1304
g62
(dp1305
sg71
g1290
sg64
(lp1306
g57
(g58
g59
NtRp1307
(dp1308
g62
(dp1309
g70
I4
ssg71
g1303
sg64
(lp1310
g100
asbasbasbag57
(g73
g59
NtRp1311
(dp1312
g62
(dp1313
sg71
g910
sg64
(lp1314
g57
(g78
g59
NtRp1315
(dp1316
g62
(dp1317
g82
g83
ssg71
g1311
sg64
(lp1318
S'is_pypy'
p1319
asbag57
(g78
g59
NtRp1320
(dp1321
g62
(dp1322
g89
g90
ssg71
g1311
sg64
(lp1323
S':'
asbag57
(g78
g59
NtRp1324
(dp1325
g62
(dp1326
sg71
g1311
sg64
(lp1327
g57
(g58
g59
NtRp1328
(dp1329
g62
(dp1330
g70
I4
ssg71
g1324
sg64
(lp1331
g100
asbasbasbag57
(g73
g59
NtRp1332
(dp1333
g62
(dp1334
sg71
g910
sg64
(lp1335
g57
(g78
g59
NtRp1336
(dp1337
g62
(dp1338
g82
g83
ssg71
g1332
sg64
(lp1339
S'path_info'
p1340
asbag57
(g78
g59
NtRp1341
(dp1342
g62
(dp1343
g89
g90
ssg71
g1332
sg64
(lp1344
S':'
asbag57
(g78
g59
NtRp1345
(dp1346
g62
(dp1347
sg71
g1332
sg64
(lp1348
g57
(g58
g59
NtRp1349
(dp1350
g62
(dp1351
g70
I4
ssg71
g1345
sg64
(lp1352
S'/DEV_bootstrap_ch/default/list_all_dev_projects/project/experiment.project/1/sample.experiment/1'
p1353
asbasbasbag57
(g73
g59
NtRp1354
(dp1355
g62
(dp1356
sg71
g910
sg64
(lp1357
g57
(g78
g59
NtRp1358
(dp1359
g62
(dp1360
g82
g83
ssg71
g1354
sg64
(lp1361
S'query_string'
p1362
asbag57
(g78
g59
NtRp1363
(dp1364
g62
(dp1365
g89
g90
ssg71
g1354
sg64
(lp1366
S':'
asbag57
(g78
g59
NtRp1367
(dp1368
g62
(dp1369
sg71
g1354
sg64
(lp1370
g57
(g58
g59
NtRp1371
(dp1372
g62
(dp1373
g70
I4
ssg71
g1367
sg64
(lp1374
S'_signature=7ef83f1a1fbc1478046ec45b38081f44f469294d'
p1375
asbasbasbag57
(g73
g59
NtRp1376
(dp1377
g62
(dp1378
sg71
g910
sg64
(lp1379
g57
(g78
g59
NtRp1380
(dp1381
g62
(dp1382
g82
g83
ssg71
g1376
sg64
(lp1383
S'remote_addr'
p1384
asbag57
(g78
g59
NtRp1385
(dp1386
g62
(dp1387
g89
g90
ssg71
g1376
sg64
(lp1388
S':'
asbag57
(g78
g59
NtRp1389
(dp1390
g62
(dp1391
sg71
g1376
sg64
(lp1392
g57
(g58
g59
NtRp1393
(dp1394
g62
(dp1395
g70
I4
ssg71
g1389
sg64
(lp1396
g275
asbasbasbag57
(g73
g59
NtRp1397
(dp1398
g62
(dp1399
sg71
g910
sg64
(lp1400
g57
(g78
g59
NtRp1401
(dp1402
g62
(dp1403
g82
g83
ssg71
g1397
sg64
(lp1404
S'remote_port'
p1405
asbag57
(g78
g59
NtRp1406
(dp1407
g62
(dp1408
g89
g90
ssg71
g1397
sg64
(lp1409
S':'
asbag57
(g78
g59
NtRp1410
(dp1411
g62
(dp1412
sg71
g1397
sg64
(lp1413
g57
(g58
g59
NtRp1414
(dp1415
g62
(dp1416
g70
I4
ssg71
g1410
sg64
(lp1417
S'43407'
p1418
asbasbasbag57
(g73
g59
NtRp1419
(dp1420
g62
(dp1421
sg71
g910
sg64
(lp1422
g57
(g78
g59
NtRp1423
(dp1424
g62
(dp1425
g82
g83
ssg71
g1419
sg64
(lp1426
S'request_method'
p1427
asbag57
(g78
g59
NtRp1428
(dp1429
g62
(dp1430
g89
g90
ssg71
g1419
sg64
(lp1431
S':'
asbag57
(g78
g59
NtRp1432
(dp1433
g62
(dp1434
sg71
g1419
sg64
(lp1435
g57
(g58
g59
NtRp1436
(dp1437
g62
(dp1438
g70
I4
ssg71
g1432
sg64
(lp1439
S'GET'
p1440
asbasbasbag57
(g73
g59
NtRp1441
(dp1442
g62
(dp1443
sg71
g910
sg64
(lp1444
g57
(g78
g59
NtRp1445
(dp1446
g62
(dp1447
g82
g83
ssg71
g1441
sg64
(lp1448
S'request_uri'
p1449
asbag57
(g78
g59
NtRp1450
(dp1451
g62
(dp1452
g89
g90
ssg71
g1441
sg64
(lp1453
S':'
asbag57
(g78
g59
NtRp1454
(dp1455
g62
(dp1456
sg71
g1441
sg64
(lp1457
g57
(g58
g59
NtRp1458
(dp1459
g62
(dp1460
g70
I4
ssg71
g1454
sg64
(lp1461
S'/DEV_bootstrap_ch/default/list_all_dev_projects/project/experiment.project/1/sample.experiment/1?_signature=7ef83f1a1fbc1478046ec45b38081f44f469294d'
p1462
asbasbasbag57
(g73
g59
NtRp1463
(dp1464
g62
(dp1465
sg71
g910
sg64
(lp1466
g57
(g78
g59
NtRp1467
(dp1468
g62
(dp1469
g82
g83
ssg71
g1463
sg64
(lp1470
S'script_name'
p1471
asbag57
(g78
g59
NtRp1472
(dp1473
g62
(dp1474
g89
g90
ssg71
g1463
sg64
(lp1475
S':'
asbag57
(g78
g59
NtRp1476
(dp1477
g62
(dp1478
sg71
g1463
sg64
(lp1479
g57
(g58
g59
NtRp1480
(dp1481
g62
(dp1482
g70
I4
ssg71
g1476
sg64
(lp1483
S''
asbasbasbag57
(g73
g59
NtRp1484
(dp1485
g62
(dp1486
sg71
g910
sg64
(lp1487
g57
(g78
g59
NtRp1488
(dp1489
g62
(dp1490
g82
g83
ssg71
g1484
sg64
(lp1491
S'server_name'
p1492
asbag57
(g78
g59
NtRp1493
(dp1494
g62
(dp1495
g89
g90
ssg71
g1484
sg64
(lp1496
S':'
asbag57
(g78
g59
NtRp1497
(dp1498
g62
(dp1499
sg71
g1484
sg64
(lp1500
g57
(g58
g59
NtRp1501
(dp1502
g62
(dp1503
g70
I4
ssg71
g1497
sg64
(lp1504
S'anil-Inspiron-1525'
p1505
asbasbasbag57
(g73
g59
NtRp1506
(dp1507
g62
(dp1508
sg71
g910
sg64
(lp1509
g57
(g78
g59
NtRp1510
(dp1511
g62
(dp1512
g82
g83
ssg71
g1506
sg64
(lp1513
S'server_port'
p1514
asbag57
(g78
g59
NtRp1515
(dp1516
g62
(dp1517
g89
g90
ssg71
g1506
sg64
(lp1518
S':'
asbag57
(g78
g59
NtRp1519
(dp1520
g62
(dp1521
sg71
g1506
sg64
(lp1522
g57
(g58
g59
NtRp1523
(dp1524
g62
(dp1525
g70
I4
ssg71
g1519
sg64
(lp1526
S'8000'
p1527
asbasbasbag57
(g73
g59
NtRp1528
(dp1529
g62
(dp1530
sg71
g910
sg64
(lp1531
g57
(g78
g59
NtRp1532
(dp1533
g62
(dp1534
g82
g83
ssg71
g1528
sg64
(lp1535
S'server_protocol'
p1536
asbag57
(g78
g59
NtRp1537
(dp1538
g62
(dp1539
g89
g90
ssg71
g1528
sg64
(lp1540
S':'
asbag57
(g78
g59
NtRp1541
(dp1542
g62
(dp1543
sg71
g1528
sg64
(lp1544
g57
(g58
g59
NtRp1545
(dp1546
g62
(dp1547
g70
I4
ssg71
g1541
sg64
(lp1548
S'HTTP/1.1'
p1549
asbasbasbag57
(g73
g59
NtRp1550
(dp1551
g62
(dp1552
sg71
g910
sg64
(lp1553
g57
(g78
g59
NtRp1554
(dp1555
g62
(dp1556
g82
g83
ssg71
g1550
sg64
(lp1557
S'server_software'
p1558
asbag57
(g78
g59
NtRp1559
(dp1560
g62
(dp1561
g89
g90
ssg71
g1550
sg64
(lp1562
S':'
asbag57
(g78
g59
NtRp1563
(dp1564
g62
(dp1565
sg71
g1550
sg64
(lp1566
g57
(g58
g59
NtRp1567
(dp1568
g62
(dp1569
g70
I4
ssg71
g1563
sg64
(lp1570
S'Rocket 1.2.6'
p1571
asbasbasbag57
(g73
g59
NtRp1572
(dp1573
g62
(dp1574
sg71
g910
sg64
(lp1575
g57
(g78
g59
NtRp1576
(dp1577
g62
(dp1578
g82
g83
ssg71
g1572
sg64
(lp1579
S'web2py_path'
p1580
asbag57
(g78
g59
NtRp1581
(dp1582
g62
(dp1583
g89
g90
ssg71
g1572
sg64
(lp1584
S':'
asbag57
(g78
g59
NtRp1585
(dp1586
g62
(dp1587
sg71
g1572
sg64
(lp1588
g57
(g58
g59
NtRp1589
(dp1590
g62
(dp1591
g70
I4
ssg71
g1585
sg64
(lp1592
g957
asbasbasbag57
(g73
g59
NtRp1593
(dp1594
g62
(dp1595
sg71
g910
sg64
(lp1596
g57
(g78
g59
NtRp1597
(dp1598
g62
(dp1599
g82
g83
ssg71
g1593
sg64
(lp1600
S'web2py_version'
p1601
asbag57
(g78
g59
NtRp1602
(dp1603
g62
(dp1604
g89
g90
ssg71
g1593
sg64
(lp1605
S':'
asbag57
(g78
g59
NtRp1606
(dp1607
g62
(dp1608
sg71
g1593
sg64
(lp1609
g57
(g58
g59
NtRp1610
(dp1611
g62
(dp1612
g70
I4
ssg71
g1606
sg64
(lp1613
g57
(g66
g59
NtRp1614
(dp1615
g62
(dp1616
g70
I3
ssg71
Nsg64
(lp1617
g57
(g73
g59
NtRp1618
(dp1619
g62
(dp1620
sg71
g1614
sg64
(lp1621
g57
(g78
g59
NtRp1622
(dp1623
g62
(dp1624
sg71
g1618
sg64
(lp1625
g57
(g58
g59
NtRp1626
(dp1627
g62
(dp1628
g70
I3
ssg71
g1622
sg64
(lp1629
S'2'
asbasbasbag57
(g73
g59
NtRp1630
(dp1631
g62
(dp1632
sg71
g1614
sg64
(lp1633
g57
(g78
g59
NtRp1634
(dp1635
g62
(dp1636
sg71
g1630
sg64
(lp1637
g57
(g58
g59
NtRp1638
(dp1639
g62
(dp1640
g70
I3
ssg71
g1634
sg64
(lp1641
S'3'
asbasbasbag57
(g73
g59
NtRp1642
(dp1643
g62
(dp1644
sg71
g1614
sg64
(lp1645
g57
(g78
g59
NtRp1646
(dp1647
g62
(dp1648
sg71
g1642
sg64
(lp1649
g57
(g58
g59
NtRp1650
(dp1651
g62
(dp1652
g70
I3
ssg71
g1646
sg64
(lp1653
S'2'
asbasbasbag57
(g73
g59
NtRp1654
(dp1655
g62
(dp1656
sg71
g1614
sg64
(lp1657
g57
(g78
g59
NtRp1658
(dp1659
g62
(dp1660
sg71
g1654
sg64
(lp1661
g57
(g58
g59
NtRp1662
(dp1663
g62
(dp1664
g70
I3
ssg71
g1658
sg64
(lp1665
S'datetime.datetime(2012, 12, 17, 15, 3, 30)'
p1666
asbasbasbag57
(g73
g59
NtRp1667
(dp1668
g62
(dp1669
sg71
g1614
sg64
(lp1670
g57
(g78
g59
NtRp1671
(dp1672
g62
(dp1673
sg71
g1667
sg64
(lp1674
g57
(g58
g59
NtRp1675
(dp1676
g62
(dp1677
g70
I3
ssg71
g1671
sg64
(lp1678
S'stable'
p1679
asbasbasbasbasbasbasbag57
(g73
g59
NtRp1680
(dp1681
g62
(dp1682
sg71
g910
sg64
(lp1683
g57
(g78
g59
NtRp1684
(dp1685
g62
(dp1686
g82
g83
ssg71
g1680
sg64
(lp1687
S'wsgi_errors'
p1688
asbag57
(g78
g59
NtRp1689
(dp1690
g62
(dp1691
g89
g90
ssg71
g1680
sg64
(lp1692
S':'
asbag57
(g78
g59
NtRp1693
(dp1694
g62
(dp1695
sg71
g1680
sg64
(lp1696
g57
(g58
g59
NtRp1697
(dp1698
g62
(dp1699
g70
I4
ssg71
g1693
sg64
(lp1700
S"<open file '<stderr>', mode 'w' at 0xb72bc0d0>"
p1701
asbasbasbag57
(g73
g59
NtRp1702
(dp1703
g62
(dp1704
sg71
g910
sg64
(lp1705
g57
(g78
g59
NtRp1706
(dp1707
g62
(dp1708
g82
g83
ssg71
g1702
sg64
(lp1709
S'wsgi_file_wrapper'
p1710
asbag57
(g78
g59
NtRp1711
(dp1712
g62
(dp1713
g89
g90
ssg71
g1702
sg64
(lp1714
S':'
asbag57
(g78
g59
NtRp1715
(dp1716
g62
(dp1717
sg71
g1702
sg64
(lp1718
g57
(g58
g59
NtRp1719
(dp1720
g62
(dp1721
g70
I4
ssg71
g1715
sg64
(lp1722
S'<class wsgiref.util.FileWrapper at 0x8d82a1c>'
p1723
asbasbasbag57
(g73
g59
NtRp1724
(dp1725
g62
(dp1726
sg71
g910
sg64
(lp1727
g57
(g78
g59
NtRp1728
(dp1729
g62
(dp1730
g82
g83
ssg71
g1724
sg64
(lp1731
S'wsgi_input'
p1732
asbag57
(g78
g59
NtRp1733
(dp1734
g62
(dp1735
g89
g90
ssg71
g1724
sg64
(lp1736
S':'
asbag57
(g78
g59
NtRp1737
(dp1738
g62
(dp1739
sg71
g1724
sg64
(lp1740
g57
(g58
g59
NtRp1741
(dp1742
g62
(dp1743
g70
I4
ssg71
g1737
sg64
(lp1744
S'<socket._fileobject object at 0x8db9a6c>'
p1745
asbasbasbag57
(g73
g59
NtRp1746
(dp1747
g62
(dp1748
sg71
g910
sg64
(lp1749
g57
(g78
g59
NtRp1750
(dp1751
g62
(dp1752
g82
g83
ssg71
g1746
sg64
(lp1753
S'wsgi_multiprocess'
p1754
asbag57
(g78
g59
NtRp1755
(dp1756
g62
(dp1757
g89
g90
ssg71
g1746
sg64
(lp1758
S':'
asbag57
(g78
g59
NtRp1759
(dp1760
g62
(dp1761
sg71
g1746
sg64
(lp1762
g57
(g58
g59
NtRp1763
(dp1764
g62
(dp1765
g70
I4
ssg71
g1759
sg64
(lp1766
g100
asbasbasbag57
(g73
g59
NtRp1767
(dp1768
g62
(dp1769
sg71
g910
sg64
(lp1770
g57
(g78
g59
NtRp1771
(dp1772
g62
(dp1773
g82
g83
ssg71
g1767
sg64
(lp1774
S'wsgi_multithread'
p1775
asbag57
(g78
g59
NtRp1776
(dp1777
g62
(dp1778
g89
g90
ssg71
g1767
sg64
(lp1779
S':'
asbag57
(g78
g59
NtRp1780
(dp1781
g62
(dp1782
sg71
g1767
sg64
(lp1783
g57
(g58
g59
NtRp1784
(dp1785
g62
(dp1786
g70
I4
ssg71
g1780
sg64
(lp1787
S'True'
p1788
asbasbasbag57
(g73
g59
NtRp1789
(dp1790
g62
(dp1791
sg71
g910
sg64
(lp1792
g57
(g78
g59
NtRp1793
(dp1794
g62
(dp1795
g82
g83
ssg71
g1789
sg64
(lp1796
S'wsgi_run_once'
p1797
asbag57
(g78
g59
NtRp1798
(dp1799
g62
(dp1800
g89
g90
ssg71
g1789
sg64
(lp1801
S':'
asbag57
(g78
g59
NtRp1802
(dp1803
g62
(dp1804
sg71
g1789
sg64
(lp1805
g57
(g58
g59
NtRp1806
(dp1807
g62
(dp1808
g70
I4
ssg71
g1802
sg64
(lp1809
g100
asbasbasbag57
(g73
g59
NtRp1810
(dp1811
g62
(dp1812
sg71
g910
sg64
(lp1813
g57
(g78
g59
NtRp1814
(dp1815
g62
(dp1816
g82
g83
ssg71
g1810
sg64
(lp1817
S'wsgi_url_scheme'
p1818
asbag57
(g78
g59
NtRp1819
(dp1820
g62
(dp1821
g89
g90
ssg71
g1810
sg64
(lp1822
S':'
asbag57
(g78
g59
NtRp1823
(dp1824
g62
(dp1825
sg71
g1810
sg64
(lp1826
g57
(g58
g59
NtRp1827
(dp1828
g62
(dp1829
g70
I4
ssg71
g1823
sg64
(lp1830
S'http'
p1831
asbasbasbag57
(g73
g59
NtRp1832
(dp1833
g62
(dp1834
sg71
g910
sg64
(lp1835
g57
(g78
g59
NtRp1836
(dp1837
g62
(dp1838
g82
g83
ssg71
g1832
sg64
(lp1839
S'wsgi_version'
p1840
asbag57
(g78
g59
NtRp1841
(dp1842
g62
(dp1843
g89
g90
ssg71
g1832
sg64
(lp1844
S':'
asbag57
(g78
g59
NtRp1845
(dp1846
g62
(dp1847
sg71
g1832
sg64
(lp1848
g57
(g58
g59
NtRp1849
(dp1850
g62
(dp1851
g70
I4
ssg71
g1845
sg64
(lp1852
g57
(g66
g59
NtRp1853
(dp1854
g62
(dp1855
g70
I3
ssg71
Nsg64
(lp1856
g57
(g73
g59
NtRp1857
(dp1858
g62
(dp1859
sg71
g1853
sg64
(lp1860
g57
(g78
g59
NtRp1861
(dp1862
g62
(dp1863
sg71
g1857
sg64
(lp1864
g57
(g58
g59
NtRp1865
(dp1866
g62
(dp1867
g70
I3
ssg71
g1861
sg64
(lp1868
S'1'
asbasbasbag57
(g73
g59
NtRp1869
(dp1870
g62
(dp1871
sg71
g1853
sg64
(lp1872
g57
(g78
g59
NtRp1873
(dp1874
g62
(dp1875
sg71
g1869
sg64
(lp1876
g57
(g58
g59
NtRp1877
(dp1878
g62
(dp1879
g70
I3
ssg71
g1873
sg64
(lp1880
S'0'
asbasbasbasbasbasbasbasbasbasbasbag57
(g73
g59
NtRp1881
(dp1882
g62
(dp1883
sg71
g67
sg64
(lp1884
g57
(g78
g59
NtRp1885
(dp1886
g62
(dp1887
g82
g83
ssg71
g1881
sg64
(lp1888
S'extension'
p1889
asbag57
(g78
g59
NtRp1890
(dp1891
g62
(dp1892
g89
g90
ssg71
g1881
sg64
(lp1893
S':'
asbag57
(g78
g59
NtRp1894
(dp1895
g62
(dp1896
sg71
g1881
sg64
(lp1897
g57
(g58
g59
NtRp1898
(dp1899
g62
(dp1900
g70
I5
ssg71
g1894
sg64
(lp1901
S'html'
p1902
asbasbasbag57
(g73
g59
NtRp1903
(dp1904
g62
(dp1905
sg71
g67
sg64
(lp1906
g57
(g78
g59
NtRp1907
(dp1908
g62
(dp1909
g82
g83
ssg71
g1903
sg64
(lp1910
S'folder'
p1911
asbag57
(g78
g59
NtRp1912
(dp1913
g62
(dp1914
g89
g90
ssg71
g1903
sg64
(lp1915
S':'
asbag57
(g78
g59
NtRp1916
(dp1917
g62
(dp1918
sg71
g1903
sg64
(lp1919
g57
(g58
g59
NtRp1920
(dp1921
g62
(dp1922
g70
I5
ssg71
g1916
sg64
(lp1923
S'/home/anil/bootstrap/web2py/applications/DEV_bootstrap_ch/'
p1924
asbasbasbag57
(g73
g59
NtRp1925
(dp1926
g62
(dp1927
sg71
g67
sg64
(lp1928
g57
(g78
g59
NtRp1929
(dp1930
g62
(dp1931
g82
g83
ssg71
g1925
sg64
(lp1932
S'function'
p1933
asbag57
(g78
g59
NtRp1934
(dp1935
g62
(dp1936
g89
g90
ssg71
g1925
sg64
(lp1937
S':'
asbag57
(g78
g59
NtRp1938
(dp1939
g62
(dp1940
sg71
g1925
sg64
(lp1941
g57
(g58
g59
NtRp1942
(dp1943
g62
(dp1944
g70
I5
ssg71
g1938
sg64
(lp1945
S'list_all_dev_projects'
p1946
asbasbasbag57
(g73
g59
NtRp1947
(dp1948
g62
(dp1949
sg71
g67
sg64
(lp1950
g57
(g78
g59
NtRp1951
(dp1952
g62
(dp1953
g82
g83
ssg71
g1947
sg64
(lp1954
S'get_vars'
p1955
asbag57
(g78
g59
NtRp1956
(dp1957
g62
(dp1958
g89
g90
ssg71
g1947
sg64
(lp1959
S':'
asbag57
(g78
g59
NtRp1960
(dp1961
g62
(dp1962
sg71
g1947
sg64
(lp1963
g57
(g58
g59
NtRp1964
(dp1965
g62
(dp1966
g70
I5
ssg71
g1960
sg64
(lp1967
g57
(g66
g59
NtRp1968
(dp1969
g62
(dp1970
g70
I4
ssg71
Nsg64
(lp1971
sbasbasbasbag57
(g73
g59
NtRp1972
(dp1973
g62
(dp1974
sg71
g67
sg64
(lp1975
g57
(g78
g59
NtRp1976
(dp1977
g62
(dp1978
g82
g83
ssg71
g1972
sg64
(lp1979
S'global_settings'
p1980
asbag57
(g78
g59
NtRp1981
(dp1982
g62
(dp1983
g89
g90
ssg71
g1972
sg64
(lp1984
S':'
asbag57
(g78
g59
NtRp1985
(dp1986
g62
(dp1987
sg71
g1972
sg64
(lp1988
g57
(g58
g59
NtRp1989
(dp1990
g62
(dp1991
g70
I5
ssg71
g1985
sg64
(lp1992
g57
(g66
g59
NtRp1993
(dp1994
g62
(dp1995
g70
I4
ssg71
Nsg64
(lp1996
g57
(g73
g59
NtRp1997
(dp1998
g62
(dp1999
sg71
g1993
sg64
(lp2000
g57
(g78
g59
NtRp2001
(dp2002
g62
(dp2003
g82
g83
ssg71
g1997
sg64
(lp2004
g922
asbag57
(g78
g59
NtRp2005
(dp2006
g62
(dp2007
g89
g90
ssg71
g1997
sg64
(lp2008
S':'
asbag57
(g78
g59
NtRp2009
(dp2010
g62
(dp2011
sg71
g1997
sg64
(lp2012
g57
(g58
g59
NtRp2013
(dp2014
g62
(dp2015
g70
I4
ssg71
g2009
sg64
(lp2016
S"set(['/home/anil/bootstrap/web2py/applications/DEV_bootstrap_ch/'])"
p2017
asbasbasbag57
(g73
g59
NtRp2018
(dp2019
g62
(dp2020
sg71
g1993
sg64
(lp2021
g57
(g78
g59
NtRp2022
(dp2023
g62
(dp2024
g82
g83
ssg71
g2018
sg64
(lp2025
g944
asbag57
(g78
g59
NtRp2026
(dp2027
g62
(dp2028
g89
g90
ssg71
g2018
sg64
(lp2029
S':'
asbag57
(g78
g59
NtRp2030
(dp2031
g62
(dp2032
sg71
g2018
sg64
(lp2033
g57
(g58
g59
NtRp2034
(dp2035
g62
(dp2036
g70
I4
ssg71
g2030
sg64
(lp2037
g957
asbasbasbag57
(g73
g59
NtRp2038
(dp2039
g62
(dp2040
sg71
g1993
sg64
(lp2041
g57
(g78
g59
NtRp2042
(dp2043
g62
(dp2044
g82
g83
ssg71
g2038
sg64
(lp2045
g966
asbag57
(g78
g59
NtRp2046
(dp2047
g62
(dp2048
g89
g90
ssg71
g2038
sg64
(lp2049
S':'
asbag57
(g78
g59
NtRp2050
(dp2051
g62
(dp2052
sg71
g2038
sg64
(lp2053
g57
(g58
g59
NtRp2054
(dp2055
g62
(dp2056
g70
I4
ssg71
g2050
sg64
(lp2057
g57
(g66
g59
NtRp2058
(dp2059
g62
(dp2060
g70
I3
ssg71
Nsg64
(lp2061
sbasbasbasbag57
(g73
g59
NtRp2062
(dp2063
g62
(dp2064
sg71
g1993
sg64
(lp2065
g57
(g78
g59
NtRp2066
(dp2067
g62
(dp2068
g82
g83
ssg71
g2062
sg64
(lp2069
g991
asbag57
(g78
g59
NtRp2070
(dp2071
g62
(dp2072
g89
g90
ssg71
g2062
sg64
(lp2073
S':'
asbag57
(g78
g59
NtRp2074
(dp2075
g62
(dp2076
sg71
g2062
sg64
(lp2077
g57
(g58
g59
NtRp2078
(dp2079
g62
(dp2080
g70
I4
ssg71
g2074
sg64
(lp2081
S"<Values at 0x8d36fcc: {'verbose': False, 'ip': '127.0.0.1', 'with_scheduler': False, 'ips': [], 'shutdown_timeout': 5, 'taskbar': False, 'port': 8000, 'maxthreads': None, 'softcron': False, 'server_name': 'anil-Inspiron-1525', 'bpython': False, 'nogui': False, 'pid_filename': 'httpserver.pid', 'extcron': False, 'runcron': False, 'run_system_tests': False, 'test': None, 'folder': '/home/anil/bootstrap/web2py', 'config': '', 'import_models': False, 'winservice': '', 'shell': None, 'run': '', 'log_filename': 'httpserver.log', 'debuglevel': 30, 'args': [''], 'socket_timeout': 5, 'ssl_ca_certificate': None, 'scheduler': None, 'profiler_filename': None, 'ssl_private_key': '', 'scheduler_groups': None, 'password': '123', 'request_queue_size': 5, 'ssl_certificate': '', 'cronjob': False, 'numthreads': None, 'quiet': False, 'interfaces': None, 'minthreads': None, 'timeout': 10, 'plain': False, 'nobanner': False}>"
p2082
asbasbasbag57
(g73
g59
NtRp2083
(dp2084
g62
(dp2085
sg71
g1993
sg64
(lp2086
g57
(g78
g59
NtRp2087
(dp2088
g62
(dp2089
g82
g83
ssg71
g2083
sg64
(lp2090
g1013
asbag57
(g78
g59
NtRp2091
(dp2092
g62
(dp2093
g89
g90
ssg71
g2083
sg64
(lp2094
S':'
asbag57
(g78
g59
NtRp2095
(dp2096
g62
(dp2097
sg71
g2083
sg64
(lp2098
g57
(g58
g59
NtRp2099
(dp2100
g62
(dp2101
g70
I4
ssg71
g2095
sg64
(lp2102
S'set([])'
p2103
asbasbasbag57
(g73
g59
NtRp2104
(dp2105
g62
(dp2106
sg71
g1993
sg64
(lp2107
g57
(g78
g59
NtRp2108
(dp2109
g62
(dp2110
g82
g83
ssg71
g2104
sg64
(lp2111
g1035
asbag57
(g78
g59
NtRp2112
(dp2113
g62
(dp2114
g89
g90
ssg71
g2104
sg64
(lp2115
S':'
asbag57
(g78
g59
NtRp2116
(dp2117
g62
(dp2118
sg71
g2104
sg64
(lp2119
g57
(g58
g59
NtRp2120
(dp2121
g62
(dp2122
g70
I4
ssg71
g2116
sg64
(lp2123
g100
asbasbasbag57
(g73
g59
NtRp2124
(dp2125
g62
(dp2126
sg71
g1993
sg64
(lp2127
g57
(g78
g59
NtRp2128
(dp2129
g62
(dp2130
g82
g83
ssg71
g2124
sg64
(lp2131
g1056
asbag57
(g78
g59
NtRp2132
(dp2133
g62
(dp2134
g89
g90
ssg71
g2124
sg64
(lp2135
S':'
asbag57
(g78
g59
NtRp2136
(dp2137
g62
(dp2138
sg71
g2124
sg64
(lp2139
g57
(g58
g59
NtRp2140
(dp2141
g62
(dp2142
g70
I4
ssg71
g2136
sg64
(lp2143
g1069
asbasbasbag57
(g73
g59
NtRp2144
(dp2145
g62
(dp2146
sg71
g1993
sg64
(lp2147
g57
(g78
g59
NtRp2148
(dp2149
g62
(dp2150
g82
g83
ssg71
g2144
sg64
(lp2151
g1298
asbag57
(g78
g59
NtRp2152
(dp2153
g62
(dp2154
g89
g90
ssg71
g2144
sg64
(lp2155
S':'
asbag57
(g78
g59
NtRp2156
(dp2157
g62
(dp2158
sg71
g2144
sg64
(lp2159
g57
(g58
g59
NtRp2160
(dp2161
g62
(dp2162
g70
I4
ssg71
g2156
sg64
(lp2163
g100
asbasbasbag57
(g73
g59
NtRp2164
(dp2165
g62
(dp2166
sg71
g1993
sg64
(lp2167
g57
(g78
g59
NtRp2168
(dp2169
g62
(dp2170
g82
g83
ssg71
g2164
sg64
(lp2171
g1319
asbag57
(g78
g59
NtRp2172
(dp2173
g62
(dp2174
g89
g90
ssg71
g2164
sg64
(lp2175
S':'
asbag57
(g78
g59
NtRp2176
(dp2177
g62
(dp2178
sg71
g2164
sg64
(lp2179
g57
(g58
g59
NtRp2180
(dp2181
g62
(dp2182
g70
I4
ssg71
g2176
sg64
(lp2183
g100
asbasbasbag57
(g73
g59
NtRp2184
(dp2185
g62
(dp2186
sg71
g1993
sg64
(lp2187
g57
(g78
g59
NtRp2188
(dp2189
g62
(dp2190
g82
g83
ssg71
g2184
sg64
(lp2191
S'local_hosts'
p2192
asbag57
(g78
g59
NtRp2193
(dp2194
g62
(dp2195
g89
g90
ssg71
g2184
sg64
(lp2196
S':'
asbag57
(g78
g59
NtRp2197
(dp2198
g62
(dp2199
sg71
g2184
sg64
(lp2200
g57
(g58
g59
NtRp2201
(dp2202
g62
(dp2203
g70
I4
ssg71
g2197
sg64
(lp2204
g57
(g66
g59
NtRp2205
(dp2206
g62
(dp2207
g70
I3
ssg71
Nsg64
(lp2208
g57
(g73
g59
NtRp2209
(dp2210
g62
(dp2211
sg71
g2205
sg64
(lp2212
g57
(g78
g59
NtRp2213
(dp2214
g62
(dp2215
sg71
g2209
sg64
(lp2216
g57
(g58
g59
NtRp2217
(dp2218
g62
(dp2219
g70
I3
ssg71
g2213
sg64
(lp2220
S'::1'
p2221
asbasbasbag57
(g73
g59
NtRp2222
(dp2223
g62
(dp2224
sg71
g2205
sg64
(lp2225
g57
(g78
g59
NtRp2226
(dp2227
g62
(dp2228
sg71
g2222
sg64
(lp2229
g57
(g58
g59
NtRp2230
(dp2231
g62
(dp2232
g70
I3
ssg71
g2226
sg64
(lp2233
S'127.0.1.1'
p2234
asbasbasbag57
(g73
g59
NtRp2235
(dp2236
g62
(dp2237
sg71
g2205
sg64
(lp2238
g57
(g78
g59
NtRp2239
(dp2240
g62
(dp2241
sg71
g2235
sg64
(lp2242
g57
(g58
g59
NtRp2243
(dp2244
g62
(dp2245
g70
I3
ssg71
g2239
sg64
(lp2246
S'::ffff:127.0.0.1'
p2247
asbasbasbag57
(g73
g59
NtRp2248
(dp2249
g62
(dp2250
sg71
g2205
sg64
(lp2251
g57
(g78
g59
NtRp2252
(dp2253
g62
(dp2254
sg71
g2248
sg64
(lp2255
g57
(g58
g59
NtRp2256
(dp2257
g62
(dp2258
g70
I3
ssg71
g2252
sg64
(lp2259
S'127.0.0.1'
p2260
asbasbasbag57
(g73
g59
NtRp2261
(dp2262
g62
(dp2263
sg71
g2205
sg64
(lp2264
g57
(g78
g59
NtRp2265
(dp2266
g62
(dp2267
sg71
g2261
sg64
(lp2268
g57
(g58
g59
NtRp2269
(dp2270
g62
(dp2271
g70
I3
ssg71
g2265
sg64
(lp2272
S'anil-Inspiron-1525'
p2273
asbasbasbasbasbasbasbag57
(g73
g59
NtRp2274
(dp2275
g62
(dp2276
sg71
g1993
sg64
(lp2277
g57
(g78
g59
NtRp2278
(dp2279
g62
(dp2280
g82
g83
ssg71
g2274
sg64
(lp2281
g1601
asbag57
(g78
g59
NtRp2282
(dp2283
g62
(dp2284
g89
g90
ssg71
g2274
sg64
(lp2285
S':'
asbag57
(g78
g59
NtRp2286
(dp2287
g62
(dp2288
sg71
g2274
sg64
(lp2289
g57
(g58
g59
NtRp2290
(dp2291
g62
(dp2292
g70
I4
ssg71
g2286
sg64
(lp2293
g57
(g66
g59
NtRp2294
(dp2295
g62
(dp2296
g70
I3
ssg71
Nsg64
(lp2297
g57
(g73
g59
NtRp2298
(dp2299
g62
(dp2300
sg71
g2294
sg64
(lp2301
g57
(g78
g59
NtRp2302
(dp2303
g62
(dp2304
sg71
g2298
sg64
(lp2305
g57
(g58
g59
NtRp2306
(dp2307
g62
(dp2308
g70
I3
ssg71
g2302
sg64
(lp2309
S'2'
asbasbasbag57
(g73
g59
NtRp2310
(dp2311
g62
(dp2312
sg71
g2294
sg64
(lp2313
g57
(g78
g59
NtRp2314
(dp2315
g62
(dp2316
sg71
g2310
sg64
(lp2317
g57
(g58
g59
NtRp2318
(dp2319
g62
(dp2320
g70
I3
ssg71
g2314
sg64
(lp2321
S'3'
asbasbasbag57
(g73
g59
NtRp2322
(dp2323
g62
(dp2324
sg71
g2294
sg64
(lp2325
g57
(g78
g59
NtRp2326
(dp2327
g62
(dp2328
sg71
g2322
sg64
(lp2329
g57
(g58
g59
NtRp2330
(dp2331
g62
(dp2332
g70
I3
ssg71
g2326
sg64
(lp2333
S'2'
asbasbasbag57
(g73
g59
NtRp2334
(dp2335
g62
(dp2336
sg71
g2294
sg64
(lp2337
g57
(g78
g59
NtRp2338
(dp2339
g62
(dp2340
sg71
g2334
sg64
(lp2341
g57
(g58
g59
NtRp2342
(dp2343
g62
(dp2344
g70
I3
ssg71
g2338
sg64
(lp2345
S'datetime.datetime(2012, 12, 17, 15, 3, 30)'
p2346
asbasbasbag57
(g73
g59
NtRp2347
(dp2348
g62
(dp2349
sg71
g2294
sg64
(lp2350
g57
(g78
g59
NtRp2351
(dp2352
g62
(dp2353
sg71
g2347
sg64
(lp2354
g57
(g58
g59
NtRp2355
(dp2356
g62
(dp2357
g70
I3
ssg71
g2351
sg64
(lp2358
g1679
asbasbasbasbasbasbasbasbasbasbasbag57
(g73
g59
NtRp2359
(dp2360
g62
(dp2361
sg71
g67
sg64
(lp2362
g57
(g78
g59
NtRp2363
(dp2364
g62
(dp2365
g82
g83
ssg71
g2359
sg64
(lp2366
S'is_https'
p2367
asbag57
(g78
g59
NtRp2368
(dp2369
g62
(dp2370
g89
g90
ssg71
g2359
sg64
(lp2371
S':'
asbag57
(g78
g59
NtRp2372
(dp2373
g62
(dp2374
sg71
g2359
sg64
(lp2375
g57
(g58
g59
NtRp2376
(dp2377
g62
(dp2378
g70
I5
ssg71
g2372
sg64
(lp2379
g100
asbasbasbag57
(g73
g59
NtRp2380
(dp2381
g62
(dp2382
sg71
g67
sg64
(lp2383
g57
(g78
g59
NtRp2384
(dp2385
g62
(dp2386
g82
g83
ssg71
g2380
sg64
(lp2387
S'is_local'
p2388
asbag57
(g78
g59
NtRp2389
(dp2390
g62
(dp2391
g89
g90
ssg71
g2380
sg64
(lp2392
S':'
asbag57
(g78
g59
NtRp2393
(dp2394
g62
(dp2395
sg71
g2380
sg64
(lp2396
g57
(g58
g59
NtRp2397
(dp2398
g62
(dp2399
g70
I5
ssg71
g2393
sg64
(lp2400
g1788
asbasbasbag57
(g73
g59
NtRp2401
(dp2402
g62
(dp2403
sg71
g67
sg64
(lp2404
g57
(g78
g59
NtRp2405
(dp2406
g62
(dp2407
g82
g83
ssg71
g2401
sg64
(lp2408
S'is_restful'
p2409
asbag57
(g78
g59
NtRp2410
(dp2411
g62
(dp2412
g89
g90
ssg71
g2401
sg64
(lp2413
S':'
asbag57
(g78
g59
NtRp2414
(dp2415
g62
(dp2416
sg71
g2401
sg64
(lp2417
g57
(g58
g59
NtRp2418
(dp2419
g62
(dp2420
g70
I5
ssg71
g2414
sg64
(lp2421
g100
asbasbasbag57
(g73
g59
NtRp2422
(dp2423
g62
(dp2424
sg71
g67
sg64
(lp2425
g57
(g78
g59
NtRp2426
(dp2427
g62
(dp2428
g82
g83
ssg71
g2422
sg64
(lp2429
S'now'
p2430
asbag57
(g78
g59
NtRp2431
(dp2432
g62
(dp2433
g89
g90
ssg71
g2422
sg64
(lp2434
S':'
asbag57
(g78
g59
NtRp2435
(dp2436
g62
(dp2437
sg71
g2422
sg64
(lp2438
g57
(g58
g59
NtRp2439
(dp2440
g62
(dp2441
g70
I5
ssg71
g2435
sg64
(lp2442
S'datetime.datetime(2013, 2, 25, 1, 50, 53, 493645)'
p2443
asbasbasbag57
(g73
g59
NtRp2444
(dp2445
g62
(dp2446
sg71
g67
sg64
(lp2447
g57
(g78
g59
NtRp2448
(dp2449
g62
(dp2450
g82
g83
ssg71
g2444
sg64
(lp2451
S'post_vars'
p2452
asbag57
(g78
g59
NtRp2453
(dp2454
g62
(dp2455
g89
g90
ssg71
g2444
sg64
(lp2456
S':'
asbag57
(g78
g59
NtRp2457
(dp2458
g62
(dp2459
sg71
g2444
sg64
(lp2460
g57
(g58
g59
NtRp2461
(dp2462
g62
(dp2463
g70
I5
ssg71
g2457
sg64
(lp2464
g57
(g66
g59
NtRp2465
(dp2466
g62
(dp2467
g70
I4
ssg71
Nsg64
(lp2468
sbasbasbasbag57
(g73
g59
NtRp2469
(dp2470
g62
(dp2471
sg71
g67
sg64
(lp2472
g57
(g78
g59
NtRp2473
(dp2474
g62
(dp2475
g82
g83
ssg71
g2469
sg64
(lp2476
S'raw_args'
p2477
asbag57
(g78
g59
NtRp2478
(dp2479
g62
(dp2480
g89
g90
ssg71
g2469
sg64
(lp2481
S':'
asbag57
(g78
g59
NtRp2482
(dp2483
g62
(dp2484
sg71
g2469
sg64
(lp2485
g57
(g58
g59
NtRp2486
(dp2487
g62
(dp2488
g70
I5
ssg71
g2482
sg64
(lp2489
S'project/experiment.project/1/sample.experiment/1'
p2490
asbasbasbag57
(g73
g59
NtRp2491
(dp2492
g62
(dp2493
sg71
g67
sg64
(lp2494
g57
(g78
g59
NtRp2495
(dp2496
g62
(dp2497
g82
g83
ssg71
g2491
sg64
(lp2498
S'raw_extension'
p2499
asbag57
(g78
g59
NtRp2500
(dp2501
g62
(dp2502
g89
g90
ssg71
g2491
sg64
(lp2503
S':'
asbag57
(g78
g59
NtRp2504
(dp2505
g62
(dp2506
sg71
g2491
sg64
(lp2507
g57
(g58
g59
NtRp2508
(dp2509
g62
(dp2510
g70
I5
ssg71
g2504
sg64
(lp2511
S'None'
p2512
asbasbasbag57
(g73
g59
NtRp2513
(dp2514
g62
(dp2515
sg71
g67
sg64
(lp2516
g57
(g78
g59
NtRp2517
(dp2518
g62
(dp2519
g82
g83
ssg71
g2513
sg64
(lp2520
S'url'
p2521
asbag57
(g78
g59
NtRp2522
(dp2523
g62
(dp2524
g89
g90
ssg71
g2513
sg64
(lp2525
S':'
asbag57
(g78
g59
NtRp2526
(dp2527
g62
(dp2528
sg71
g2513
sg64
(lp2529
g57
(g58
g59
NtRp2530
(dp2531
g62
(dp2532
g70
I5
ssg71
g2526
sg64
(lp2533
g1353
asbasbasbag57
(g73
g59
NtRp2534
(dp2535
g62
(dp2536
sg71
g67
sg64
(lp2537
g57
(g78
g59
NtRp2538
(dp2539
g62
(dp2540
g82
g83
ssg71
g2534
sg64
(lp2541
S'utcnow'
p2542
asbag57
(g78
g59
NtRp2543
(dp2544
g62
(dp2545
g89
g90
ssg71
g2534
sg64
(lp2546
S':'
asbag57
(g78
g59
NtRp2547
(dp2548
g62
(dp2549
sg71
g2534
sg64
(lp2550
g57
(g58
g59
NtRp2551
(dp2552
g62
(dp2553
g70
I5
ssg71
g2547
sg64
(lp2554
S'datetime.datetime(2013, 2, 24, 20, 20, 53, 493725)'
p2555
asbasbasbag57
(g73
g59
NtRp2556
(dp2557
g62
(dp2558
sg71
g67
sg64
(lp2559
g57
(g78
g59
NtRp2560
(dp2561
g62
(dp2562
g82
g83
ssg71
g2556
sg64
(lp2563
S'uuid'
p2564
asbag57
(g78
g59
NtRp2565
(dp2566
g62
(dp2567
g89
g90
ssg71
g2556
sg64
(lp2568
S':'
asbag57
(g78
g59
NtRp2569
(dp2570
g62
(dp2571
sg71
g2556
sg64
(lp2572
g57
(g58
g59
NtRp2573
(dp2574
g62
(dp2575
g70
I5
ssg71
g2569
sg64
(lp2576
S'DEV_bootstrap_ch/127.0.0.1.2013-02-25.01-50-53.61318f52-b43f-44a9-bd8b-136402f433eb'
p2577
asbasbasbag57
(g73
g59
NtRp2578
(dp2579
g62
(dp2580
sg71
g67
sg64
(lp2581
g57
(g78
g59
NtRp2582
(dp2583
g62
(dp2584
g82
g83
ssg71
g2578
sg64
(lp2585
S'vars'
p2586
asbag57
(g78
g59
NtRp2587
(dp2588
g62
(dp2589
g89
g90
ssg71
g2578
sg64
(lp2590
S':'
asbag57
(g78
g59
NtRp2591
(dp2592
g62
(dp2593
sg71
g2578
sg64
(lp2594
g57
(g58
g59
NtRp2595
(dp2596
g62
(dp2597
g70
I5
ssg71
g2591
sg64
(lp2598
g57
(g66
g59
NtRp2599
(dp2600
g62
(dp2601
g70
I4
ssg71
Nsg64
(lp2602
g57
(g73
g59
NtRp2603
(dp2604
g62
(dp2605
sg71
g2599
sg64
(lp2606
g57
(g78
g59
NtRp2607
(dp2608
g62
(dp2609
g82
g83
ssg71
g2603
sg64
(lp2610
S'records'
p2611
asbag57
(g78
g59
NtRp2612
(dp2613
g62
(dp2614
g89
g90
ssg71
g2603
sg64
(lp2615
S':'
asbag57
(g78
g59
NtRp2616
(dp2617
g62
(dp2618
sg71
g2603
sg64
(lp2619
g57
(g58
g59
NtRp2620
(dp2621
g62
(dp2622
g70
I4
ssg71
g2616
sg64
(lp2623
g57
(g66
g59
NtRp2624
(dp2625
g62
(dp2626
g70
I3
ssg71
Nsg64
(lp2627
sbasbasbasbasbasbasbasbag57
(g73
g59
NtRp2628
(dp2629
g62
(dp2630
sg71
g67
sg64
(lp2631
g57
(g78
g59
NtRp2632
(dp2633
g62
(dp2634
g82
g83
ssg71
g2628
sg64
(lp2635
S'wsgi'
p2636
asbag57
(g78
g59
NtRp2637
(dp2638
g62
(dp2639
g89
g90
ssg71
g2628
sg64
(lp2640
S':'
asbag57
(g78
g59
NtRp2641
(dp2642
g62
(dp2643
sg71
g2628
sg64
(lp2644
g57
(g58
g59
NtRp2645
(dp2646
g62
(dp2647
g70
I5
ssg71
g2641
sg64
(lp2648
g57
(g66
g59
NtRp2649
(dp2650
g62
(dp2651
g70
I4
ssg71
Nsg64
(lp2652
g57
(g73
g59
NtRp2653
(dp2654
g62
(dp2655
sg71
g2649
sg64
(lp2656
g57
(g78
g59
NtRp2657
(dp2658
g62
(dp2659
g82
g83
ssg71
g2653
sg64
(lp2660
S'environ'
p2661
asbag57
(g78
g59
NtRp2662
(dp2663
g62
(dp2664
g89
g90
ssg71
g2653
sg64
(lp2665
S':'
asbag57
(g78
g59
NtRp2666
(dp2667
g62
(dp2668
sg71
g2653
sg64
(lp2669
g57
(g58
g59
NtRp2670
(dp2671
g62
(dp2672
g70
I4
ssg71
g2666
sg64
(lp2673
g57
(g66
g59
NtRp2674
(dp2675
g62
(dp2676
g70
I3
ssg71
Nsg64
(lp2677
g57
(g73
g59
NtRp2678
(dp2679
g62
(dp2680
sg71
g2674
sg64
(lp2681
g57
(g78
g59
NtRp2682
(dp2683
g62
(dp2684
g82
g83
ssg71
g2678
sg64
(lp2685
S'HTTP_ACCEPT'
p2686
asbag57
(g78
g59
NtRp2687
(dp2688
g62
(dp2689
g89
g90
ssg71
g2678
sg64
(lp2690
S':'
asbag57
(g78
g59
NtRp2691
(dp2692
g62
(dp2693
sg71
g2678
sg64
(lp2694
g57
(g58
g59
NtRp2695
(dp2696
g62
(dp2697
g70
I3
ssg71
g2691
sg64
(lp2698
g1091
asbasbasbag57
(g73
g59
NtRp2699
(dp2700
g62
(dp2701
sg71
g2674
sg64
(lp2702
g57
(g78
g59
NtRp2703
(dp2704
g62
(dp2705
g82
g83
ssg71
g2699
sg64
(lp2706
S'HTTP_ACCEPT_CHARSET'
p2707
asbag57
(g78
g59
NtRp2708
(dp2709
g62
(dp2710
g89
g90
ssg71
g2699
sg64
(lp2711
S':'
asbag57
(g78
g59
NtRp2712
(dp2713
g62
(dp2714
sg71
g2699
sg64
(lp2715
g57
(g58
g59
NtRp2716
(dp2717
g62
(dp2718
g70
I3
ssg71
g2712
sg64
(lp2719
g1113
asbasbasbag57
(g73
g59
NtRp2720
(dp2721
g62
(dp2722
sg71
g2674
sg64
(lp2723
g57
(g78
g59
NtRp2724
(dp2725
g62
(dp2726
g82
g83
ssg71
g2720
sg64
(lp2727
S'HTTP_ACCEPT_ENCODING'
p2728
asbag57
(g78
g59
NtRp2729
(dp2730
g62
(dp2731
g89
g90
ssg71
g2720
sg64
(lp2732
S':'
asbag57
(g78
g59
NtRp2733
(dp2734
g62
(dp2735
sg71
g2720
sg64
(lp2736
g57
(g58
g59
NtRp2737
(dp2738
g62
(dp2739
g70
I3
ssg71
g2733
sg64
(lp2740
g1135
asbasbasbag57
(g73
g59
NtRp2741
(dp2742
g62
(dp2743
sg71
g2674
sg64
(lp2744
g57
(g78
g59
NtRp2745
(dp2746
g62
(dp2747
g82
g83
ssg71
g2741
sg64
(lp2748
S'HTTP_ACCEPT_LANGUAGE'
p2749
asbag57
(g78
g59
NtRp2750
(dp2751
g62
(dp2752
g89
g90
ssg71
g2741
sg64
(lp2753
S':'
asbag57
(g78
g59
NtRp2754
(dp2755
g62
(dp2756
sg71
g2741
sg64
(lp2757
g57
(g58
g59
NtRp2758
(dp2759
g62
(dp2760
g70
I3
ssg71
g2754
sg64
(lp2761
g1157
asbasbasbag57
(g73
g59
NtRp2762
(dp2763
g62
(dp2764
sg71
g2674
sg64
(lp2765
g57
(g78
g59
NtRp2766
(dp2767
g62
(dp2768
g82
g83
ssg71
g2762
sg64
(lp2769
S'HTTP_CACHE_CONTROL'
p2770
asbag57
(g78
g59
NtRp2771
(dp2772
g62
(dp2773
g89
g90
ssg71
g2762
sg64
(lp2774
S':'
asbag57
(g78
g59
NtRp2775
(dp2776
g62
(dp2777
sg71
g2762
sg64
(lp2778
g57
(g58
g59
NtRp2779
(dp2780
g62
(dp2781
g70
I3
ssg71
g2775
sg64
(lp2782
g1179
asbasbasbag57
(g73
g59
NtRp2783
(dp2784
g62
(dp2785
sg71
g2674
sg64
(lp2786
g57
(g78
g59
NtRp2787
(dp2788
g62
(dp2789
g82
g83
ssg71
g2783
sg64
(lp2790
S'HTTP_CONNECTION'
p2791
asbag57
(g78
g59
NtRp2792
(dp2793
g62
(dp2794
g89
g90
ssg71
g2783
sg64
(lp2795
S':'
asbag57
(g78
g59
NtRp2796
(dp2797
g62
(dp2798
sg71
g2783
sg64
(lp2799
g57
(g58
g59
NtRp2800
(dp2801
g62
(dp2802
g70
I3
ssg71
g2796
sg64
(lp2803
g1201
asbasbasbag57
(g73
g59
NtRp2804
(dp2805
g62
(dp2806
sg71
g2674
sg64
(lp2807
g57
(g78
g59
NtRp2808
(dp2809
g62
(dp2810
g82
g83
ssg71
g2804
sg64
(lp2811
S'HTTP_COOKIE'
p2812
asbag57
(g78
g59
NtRp2813
(dp2814
g62
(dp2815
g89
g90
ssg71
g2804
sg64
(lp2816
S':'
asbag57
(g78
g59
NtRp2817
(dp2818
g62
(dp2819
sg71
g2804
sg64
(lp2820
g57
(g58
g59
NtRp2821
(dp2822
g62
(dp2823
g70
I3
ssg71
g2817
sg64
(lp2824
g1223
asbasbasbag57
(g73
g59
NtRp2825
(dp2826
g62
(dp2827
sg71
g2674
sg64
(lp2828
g57
(g78
g59
NtRp2829
(dp2830
g62
(dp2831
g82
g83
ssg71
g2825
sg64
(lp2832
S'HTTP_HOST'
p2833
asbag57
(g78
g59
NtRp2834
(dp2835
g62
(dp2836
g89
g90
ssg71
g2825
sg64
(lp2837
S':'
asbag57
(g78
g59
NtRp2838
(dp2839
g62
(dp2840
sg71
g2825
sg64
(lp2841
g57
(g58
g59
NtRp2842
(dp2843
g62
(dp2844
g70
I3
ssg71
g2838
sg64
(lp2845
g1245
asbasbasbag57
(g73
g59
NtRp2846
(dp2847
g62
(dp2848
sg71
g2674
sg64
(lp2849
g57
(g78
g59
NtRp2850
(dp2851
g62
(dp2852
g82
g83
ssg71
g2846
sg64
(lp2853
S'HTTP_REFERER'
p2854
asbag57
(g78
g59
NtRp2855
(dp2856
g62
(dp2857
g89
g90
ssg71
g2846
sg64
(lp2858
S':'
asbag57
(g78
g59
NtRp2859
(dp2860
g62
(dp2861
sg71
g2846
sg64
(lp2862
g57
(g58
g59
NtRp2863
(dp2864
g62
(dp2865
g70
I3
ssg71
g2859
sg64
(lp2866
g1267
asbasbasbag57
(g73
g59
NtRp2867
(dp2868
g62
(dp2869
sg71
g2674
sg64
(lp2870
g57
(g78
g59
NtRp2871
(dp2872
g62
(dp2873
g82
g83
ssg71
g2867
sg64
(lp2874
S'HTTP_USER_AGENT'
p2875
asbag57
(g78
g59
NtRp2876
(dp2877
g62
(dp2878
g89
g90
ssg71
g2867
sg64
(lp2879
S':'
asbag57
(g78
g59
NtRp2880
(dp2881
g62
(dp2882
sg71
g2867
sg64
(lp2883
g57
(g58
g59
NtRp2884
(dp2885
g62
(dp2886
g70
I3
ssg71
g2880
sg64
(lp2887
g1289
asbasbasbag57
(g73
g59
NtRp2888
(dp2889
g62
(dp2890
sg71
g2674
sg64
(lp2891
g57
(g78
g59
NtRp2892
(dp2893
g62
(dp2894
g82
g83
ssg71
g2888
sg64
(lp2895
S'PATH_INFO'
p2896
asbag57
(g78
g59
NtRp2897
(dp2898
g62
(dp2899
g89
g90
ssg71
g2888
sg64
(lp2900
S':'
asbag57
(g78
g59
NtRp2901
(dp2902
g62
(dp2903
sg71
g2888
sg64
(lp2904
g57
(g58
g59
NtRp2905
(dp2906
g62
(dp2907
g70
I3
ssg71
g2901
sg64
(lp2908
g1353
asbasbasbag57
(g73
g59
NtRp2909
(dp2910
g62
(dp2911
sg71
g2674
sg64
(lp2912
g57
(g78
g59
NtRp2913
(dp2914
g62
(dp2915
g82
g83
ssg71
g2909
sg64
(lp2916
S'QUERY_STRING'
p2917
asbag57
(g78
g59
NtRp2918
(dp2919
g62
(dp2920
g89
g90
ssg71
g2909
sg64
(lp2921
S':'
asbag57
(g78
g59
NtRp2922
(dp2923
g62
(dp2924
sg71
g2909
sg64
(lp2925
g57
(g58
g59
NtRp2926
(dp2927
g62
(dp2928
g70
I3
ssg71
g2922
sg64
(lp2929
g1375
asbasbasbag57
(g73
g59
NtRp2930
(dp2931
g62
(dp2932
sg71
g2674
sg64
(lp2933
g57
(g78
g59
NtRp2934
(dp2935
g62
(dp2936
g82
g83
ssg71
g2930
sg64
(lp2937
S'REMOTE_ADDR'
p2938
asbag57
(g78
g59
NtRp2939
(dp2940
g62
(dp2941
g89
g90
ssg71
g2930
sg64
(lp2942
S':'
asbag57
(g78
g59
NtRp2943
(dp2944
g62
(dp2945
sg71
g2930
sg64
(lp2946
g57
(g58
g59
NtRp2947
(dp2948
g62
(dp2949
g70
I3
ssg71
g2943
sg64
(lp2950
g275
asbasbasbag57
(g73
g59
NtRp2951
(dp2952
g62
(dp2953
sg71
g2674
sg64
(lp2954
g57
(g78
g59
NtRp2955
(dp2956
g62
(dp2957
g82
g83
ssg71
g2951
sg64
(lp2958
S'REMOTE_PORT'
p2959
asbag57
(g78
g59
NtRp2960
(dp2961
g62
(dp2962
g89
g90
ssg71
g2951
sg64
(lp2963
S':'
asbag57
(g78
g59
NtRp2964
(dp2965
g62
(dp2966
sg71
g2951
sg64
(lp2967
g57
(g58
g59
NtRp2968
(dp2969
g62
(dp2970
g70
I3
ssg71
g2964
sg64
(lp2971
g1418
asbasbasbag57
(g73
g59
NtRp2972
(dp2973
g62
(dp2974
sg71
g2674
sg64
(lp2975
g57
(g78
g59
NtRp2976
(dp2977
g62
(dp2978
g82
g83
ssg71
g2972
sg64
(lp2979
S'REQUEST_METHOD'
p2980
asbag57
(g78
g59
NtRp2981
(dp2982
g62
(dp2983
g89
g90
ssg71
g2972
sg64
(lp2984
S':'
asbag57
(g78
g59
NtRp2985
(dp2986
g62
(dp2987
sg71
g2972
sg64
(lp2988
g57
(g58
g59
NtRp2989
(dp2990
g62
(dp2991
g70
I3
ssg71
g2985
sg64
(lp2992
g1440
asbasbasbag57
(g73
g59
NtRp2993
(dp2994
g62
(dp2995
sg71
g2674
sg64
(lp2996
g57
(g78
g59
NtRp2997
(dp2998
g62
(dp2999
g82
g83
ssg71
g2993
sg64
(lp3000
S'REQUEST_URI'
p3001
asbag57
(g78
g59
NtRp3002
(dp3003
g62
(dp3004
g89
g90
ssg71
g2993
sg64
(lp3005
S':'
asbag57
(g78
g59
NtRp3006
(dp3007
g62
(dp3008
sg71
g2993
sg64
(lp3009
g57
(g58
g59
NtRp3010
(dp3011
g62
(dp3012
g70
I3
ssg71
g3006
sg64
(lp3013
g1462
asbasbasbag57
(g73
g59
NtRp3014
(dp3015
g62
(dp3016
sg71
g2674
sg64
(lp3017
g57
(g78
g59
NtRp3018
(dp3019
g62
(dp3020
g82
g83
ssg71
g3014
sg64
(lp3021
S'SCRIPT_NAME'
p3022
asbag57
(g78
g59
NtRp3023
(dp3024
g62
(dp3025
g89
g90
ssg71
g3014
sg64
(lp3026
S':'
asbag57
(g78
g59
NtRp3027
(dp3028
g62
(dp3029
sg71
g3014
sg64
(lp3030
g57
(g58
g59
NtRp3031
(dp3032
g62
(dp3033
g70
I3
ssg71
g3027
sg64
(lp3034
S''
asbasbasbag57
(g73
g59
NtRp3035
(dp3036
g62
(dp3037
sg71
g2674
sg64
(lp3038
g57
(g78
g59
NtRp3039
(dp3040
g62
(dp3041
g82
g83
ssg71
g3035
sg64
(lp3042
S'SERVER_NAME'
p3043
asbag57
(g78
g59
NtRp3044
(dp3045
g62
(dp3046
g89
g90
ssg71
g3035
sg64
(lp3047
S':'
asbag57
(g78
g59
NtRp3048
(dp3049
g62
(dp3050
sg71
g3035
sg64
(lp3051
g57
(g58
g59
NtRp3052
(dp3053
g62
(dp3054
g70
I3
ssg71
g3048
sg64
(lp3055
g1505
asbasbasbag57
(g73
g59
NtRp3056
(dp3057
g62
(dp3058
sg71
g2674
sg64
(lp3059
g57
(g78
g59
NtRp3060
(dp3061
g62
(dp3062
g82
g83
ssg71
g3056
sg64
(lp3063
S'SERVER_PORT'
p3064
asbag57
(g78
g59
NtRp3065
(dp3066
g62
(dp3067
g89
g90
ssg71
g3056
sg64
(lp3068
S':'
asbag57
(g78
g59
NtRp3069
(dp3070
g62
(dp3071
sg71
g3056
sg64
(lp3072
g57
(g58
g59
NtRp3073
(dp3074
g62
(dp3075
g70
I3
ssg71
g3069
sg64
(lp3076
g1527
asbasbasbag57
(g73
g59
NtRp3077
(dp3078
g62
(dp3079
sg71
g2674
sg64
(lp3080
g57
(g78
g59
NtRp3081
(dp3082
g62
(dp3083
g82
g83
ssg71
g3077
sg64
(lp3084
S'SERVER_PROTOCOL'
p3085
asbag57
(g78
g59
NtRp3086
(dp3087
g62
(dp3088
g89
g90
ssg71
g3077
sg64
(lp3089
S':'
asbag57
(g78
g59
NtRp3090
(dp3091
g62
(dp3092
sg71
g3077
sg64
(lp3093
g57
(g58
g59
NtRp3094
(dp3095
g62
(dp3096
g70
I3
ssg71
g3090
sg64
(lp3097
g1549
asbasbasbag57
(g73
g59
NtRp3098
(dp3099
g62
(dp3100
sg71
g2674
sg64
(lp3101
g57
(g78
g59
NtRp3102
(dp3103
g62
(dp3104
g82
g83
ssg71
g3098
sg64
(lp3105
S'SERVER_SOFTWARE'
p3106
asbag57
(g78
g59
NtRp3107
(dp3108
g62
(dp3109
g89
g90
ssg71
g3098
sg64
(lp3110
S':'
asbag57
(g78
g59
NtRp3111
(dp3112
g62
(dp3113
sg71
g3098
sg64
(lp3114
g57
(g58
g59
NtRp3115
(dp3116
g62
(dp3117
g70
I3
ssg71
g3111
sg64
(lp3118
g1571
asbasbasbag57
(g73
g59
NtRp3119
(dp3120
g62
(dp3121
sg71
g2674
sg64
(lp3122
g57
(g78
g59
NtRp3123
(dp3124
g62
(dp3125
g82
g83
ssg71
g3119
sg64
(lp3126
S'wsgi.errors'
p3127
asbag57
(g78
g59
NtRp3128
(dp3129
g62
(dp3130
g89
g90
ssg71
g3119
sg64
(lp3131
S':'
asbag57
(g78
g59
NtRp3132
(dp3133
g62
(dp3134
sg71
g3119
sg64
(lp3135
g57
(g58
g59
NtRp3136
(dp3137
g62
(dp3138
g70
I3
ssg71
g3132
sg64
(lp3139
S"<open file '<stderr>', mode 'w' at 0xb72bc0d0>"
p3140
asbasbasbag57
(g73
g59
NtRp3141
(dp3142
g62
(dp3143
sg71
g2674
sg64
(lp3144
g57
(g78
g59
NtRp3145
(dp3146
g62
(dp3147
g82
g83
ssg71
g3141
sg64
(lp3148
S'wsgi.file_wrapper'
p3149
asbag57
(g78
g59
NtRp3150
(dp3151
g62
(dp3152
g89
g90
ssg71
g3141
sg64
(lp3153
S':'
asbag57
(g78
g59
NtRp3154
(dp3155
g62
(dp3156
sg71
g3141
sg64
(lp3157
g57
(g58
g59
NtRp3158
(dp3159
g62
(dp3160
g70
I3
ssg71
g3154
sg64
(lp3161
S'<class wsgiref.util.FileWrapper at 0x8d82a1c>'
p3162
asbasbasbag57
(g73
g59
NtRp3163
(dp3164
g62
(dp3165
sg71
g2674
sg64
(lp3166
g57
(g78
g59
NtRp3167
(dp3168
g62
(dp3169
g82
g83
ssg71
g3163
sg64
(lp3170
S'wsgi.input'
p3171
asbag57
(g78
g59
NtRp3172
(dp3173
g62
(dp3174
g89
g90
ssg71
g3163
sg64
(lp3175
S':'
asbag57
(g78
g59
NtRp3176
(dp3177
g62
(dp3178
sg71
g3163
sg64
(lp3179
g57
(g58
g59
NtRp3180
(dp3181
g62
(dp3182
g70
I3
ssg71
g3176
sg64
(lp3183
S'<cStringIO.StringO object at 0x8dc9fc0>'
p3184
asbasbasbag57
(g73
g59
NtRp3185
(dp3186
g62
(dp3187
sg71
g2674
sg64
(lp3188
g57
(g78
g59
NtRp3189
(dp3190
g62
(dp3191
g82
g83
ssg71
g3185
sg64
(lp3192
S'wsgi.multiprocess'
p3193
asbag57
(g78
g59
NtRp3194
(dp3195
g62
(dp3196
g89
g90
ssg71
g3185
sg64
(lp3197
S':'
asbag57
(g78
g59
NtRp3198
(dp3199
g62
(dp3200
sg71
g3185
sg64
(lp3201
g57
(g58
g59
NtRp3202
(dp3203
g62
(dp3204
g70
I3
ssg71
g3198
sg64
(lp3205
g100
asbasbasbag57
(g73
g59
NtRp3206
(dp3207
g62
(dp3208
sg71
g2674
sg64
(lp3209
g57
(g78
g59
NtRp3210
(dp3211
g62
(dp3212
g82
g83
ssg71
g3206
sg64
(lp3213
S'wsgi.multithread'
p3214
asbag57
(g78
g59
NtRp3215
(dp3216
g62
(dp3217
g89
g90
ssg71
g3206
sg64
(lp3218
S':'
asbag57
(g78
g59
NtRp3219
(dp3220
g62
(dp3221
sg71
g3206
sg64
(lp3222
g57
(g58
g59
NtRp3223
(dp3224
g62
(dp3225
g70
I3
ssg71
g3219
sg64
(lp3226
g1788
asbasbasbag57
(g73
g59
NtRp3227
(dp3228
g62
(dp3229
sg71
g2674
sg64
(lp3230
g57
(g78
g59
NtRp3231
(dp3232
g62
(dp3233
g82
g83
ssg71
g3227
sg64
(lp3234
S'wsgi.run_once'
p3235
asbag57
(g78
g59
NtRp3236
(dp3237
g62
(dp3238
g89
g90
ssg71
g3227
sg64
(lp3239
S':'
asbag57
(g78
g59
NtRp3240
(dp3241
g62
(dp3242
sg71
g3227
sg64
(lp3243
g57
(g58
g59
NtRp3244
(dp3245
g62
(dp3246
g70
I3
ssg71
g3240
sg64
(lp3247
g100
asbasbasbag57
(g73
g59
NtRp3248
(dp3249
g62
(dp3250
sg71
g2674
sg64
(lp3251
g57
(g78
g59
NtRp3252
(dp3253
g62
(dp3254
g82
g83
ssg71
g3248
sg64
(lp3255
S'wsgi.url_scheme'
p3256
asbag57
(g78
g59
NtRp3257
(dp3258
g62
(dp3259
g89
g90
ssg71
g3248
sg64
(lp3260
S':'
asbag57
(g78
g59
NtRp3261
(dp3262
g62
(dp3263
sg71
g3248
sg64
(lp3264
g57
(g58
g59
NtRp3265
(dp3266
g62
(dp3267
g70
I3
ssg71
g3261
sg64
(lp3268
g1831
asbasbasbag57
(g73
g59
NtRp3269
(dp3270
g62
(dp3271
sg71
g2674
sg64
(lp3272
g57
(g78
g59
NtRp3273
(dp3274
g62
(dp3275
g82
g83
ssg71
g3269
sg64
(lp3276
S'wsgi.version'
p3277
asbag57
(g78
g59
NtRp3278
(dp3279
g62
(dp3280
g89
g90
ssg71
g3269
sg64
(lp3281
S':'
asbag57
(g78
g59
NtRp3282
(dp3283
g62
(dp3284
sg71
g3269
sg64
(lp3285
g57
(g58
g59
NtRp3286
(dp3287
g62
(dp3288
g70
I3
ssg71
g3282
sg64
(lp3289
S'1'
asbasbasbasbasbasbasbasbasbasbasbasbasbsS'frames'
p3290
(lp3291
(dp3292
S'file'
p3293
S'/home/anil/bootstrap/web2py/gluon/restricted.py'
p3294
sS'dump'
p3295
(dp3296
S'environment'
p3297
S"{'A': <class 'gluon.html.A'>, 'Auth': <class 'gluon.tools.Auth'>, 'B': <class 'gluon.html.B'>, 'BEAUTIFY': <class 'gluon.html.BEAUTIFY'>, 'BODY': <class 'gluon.html.BODY'>, 'BR': <class 'gluon.html.BR'>, 'BUTTON': <class 'gluon.html.BUTTON'>, 'CAT': <class 'gluon.html.CAT'>, 'CENTER': <class 'gluon.html.CENTER'>, 'CLEANUP': <class 'gluon.validators.CLEANUP'>, ...}"
p3298
sS'ccode'
p3299
S'<code object <module> at 0xb03130b0, file "/home...DEV_bootstrap_ch/controllers/default.py", line 1>'
p3300
ssS'lnum'
p3301
I212
sS'lines'
p3302
(dp3303
I207
S'    try:'
p3304
sI208
S'        if isinstance(code, types.CodeType):'
p3305
sI209
S'            ccode = code'
p3306
sI210
S'        else:'
p3307
sI211
S'            ccode = compile2(code, layer)'
p3308
sI212
S'        exec ccode in environment'
p3309
sI213
S'    except HTTP:'
p3310
sI214
S'        raise'
p3311
sI215
S'    except RestrictedError:'
p3312
sI216
S'        # do not encapsulate (obfuscate) the original RestrictedError'
p3313
ssS'call'
p3314
S"(code='import rpy2.robjects as robjects\\n# -*- coding: u...se._vars=response._caller(list_all_dev_projects)\\n', environment={'A': <class 'gluon.html.A'>, 'Auth': <class 'gluon.tools.Auth'>, 'B': <class 'gluon.html.B'>, 'BEAUTIFY': <class 'gluon.html.BEAUTIFY'>, 'BODY': <class 'gluon.html.BODY'>, 'BR': <class 'gluon.html.BR'>, 'BUTTON': <class 'gluon.html.BUTTON'>, 'CAT': <class 'gluon.html.CAT'>, 'CENTER': <class 'gluon.html.CENTER'>, 'CLEANUP': <class 'gluon.validators.CLEANUP'>, ...}, layer='/home/anil/bootstrap/web2py/applications/DEV_bootstrap_ch/controllers/default.py')"
p3315
sS'func'
p3316
S'restricted'
p3317
sa(dp3318
g3293
S'/home/anil/bootstrap/web2py/applications/DEV_bootstrap_ch/controllers/default.py'
p3319
sg3295
(dp3320
sg3301
I1126
sg3302
(dp3321
I1120
S'   form = SQLFORM(db.sample_files)'
p3322
sI1121
S'   form.vars.sample = sid'
p3323
sI1122
S'   return locals()'
p3324
sI1123
S''
sI1124
S''
sI1115
S'   """allows an experimentalist to add multiple images and files and displays it in the consolidated sample view form """'
p3325
sI1116
S'   """ per sample . takes id of the sample as the input """'
p3326
sI1117
S'   sid = request.args(0)'
p3327
sI1118
S'   sample = db(db.sample.id == sid).select().first()'
p3328
sI1119
S'   old = db(db.sample_files.sample == sid).select(db.sample_files.ALL)'
p3329
ssg3314
S'()'
p3330
sg3316
S'<module>'
p3331
sa(dp3332
g3293
S'/home/anil/bootstrap/web2py/gluon/globals.py'
p3333
sg3295
(dp3334
S'self'
p3335
S'undefined'
p3336
sS'f'
S'<function list_all_dev_projects>'
p3337
ssg3301
I193
sg3302
(dp3338
I192
S'        self._vars = None'
p3339
sI193
S'        self._caller = lambda f: f()'
p3340
sI194
S'        self._view_environment = None'
p3341
sI195
S'        self._custom_commit = None'
p3342
sI196
S'        self._custom_rollback = None'
p3343
sI197
S''
sI188
S'        self.menu = []             # used by the default view layout'
p3344
sI189
S'        self.files = []            # used by web2py_ajax.html'
p3345
sI190
S'        self.generic_patterns = []  # patterns to allow generic views'
p3346
sI191
S"        self.delimiters = ('{{', '}}')"
p3347
ssg3314
S'(f=<function list_all_dev_projects>)'
p3348
sg3316
S'<lambda>'
p3349
sa(dp3350
g3293
S'/home/anil/bootstrap/web2py/applications/DEV_bootstrap_ch/controllers/default.py'
p3351
sg3295
(dp3352
S'global grid'
p3353
S'<function grid>'
p3354
sS'ck'
p3355
S"{'project': <Query (project.project_status = '0')>, 'sample': <Query (sample.experimentalist = 2)>}"
p3356
sS'links'
p3357
S"{'sample': [<function <lambda>>, {'body': <function <lambda>>, 'header': 'name'}, <function <lambda>>, <function <lambda>>, <function <lambda>>, <function <lambda>>, <function <lambda>>, <function <lambda>>, <function <lambda>>, <function <lambda>>, <function <lambda>>, <function <lambda>>]}"
p3358
sS'db.project'
p3359
S'<Table project (id,name,code,start_date,project_...name,project_publication_date,project_pubmed_id)>'
p3360
sS'global SQLFORM'
p3361
S"<class 'gluon.sqlhtml.SQLFORM'>"
p3362
sS'create'
p3363
g3336
sS'editable'
p3364
g3336
sS'linked_tables'
p3365
g3336
sS's'
S"{'sample': <function <lambda>>}"
p3366
sS'deletable'
p3367
g3336
sS'fields'
p3368
g3336
sS'global db'
p3369
S'<DAL uri="sqlite://storage.sqlite">'
p3370
sS'fi'
p3371
S'[<gluon.dal.Field object>, <gluon.dal.Field object>, <gluon.dal.Field object>, <gluon.dal.Field object>, <gluon.dal.Field object>, <gluon.dal.Field object>, <gluon.dal.Field object>, <gluon.dal.Field object>, <gluon.dal.Field object>, <gluon.dal.Field object>, <gluon.dal.Field object>, <gluon.dal.Field object>, <gluon.dal.Field object>, <gluon.dal.Field object>, <gluon.dal.Field object>, <gluon.dal.Field object>, <gluon.dal.Field object>, <gluon.dal.Field object>, <gluon.dal.Field object>, <gluon.dal.Field object>]'
p3372
sS'SQLFORM.smartgrid'
p3373
S'<function smartgrid>'
p3374
sS'create_dict'
p3375
S"{'project': False, 'sample': True}"
p3376
sS'selectable'
p3377
g3336
sS'edit_dict'
p3378
S"{'project': False}"
p3379
sS'delete_dict'
p3380
S"{'project': False}"
p3381
ssg3301
I323
sg3302
(dp3382
I320
S"    if 'view' in request.args or 'edit' in request.args or 'new' in request.args:"
p3383
sI321
S'     \trouter()'
p3384
sI322
S"    s={'sample':lambda ids : redirect(URL('default', 'mapping_multiple', vars=dict(id=ids)))}"
p3385
sI323
S"    grid = SQLFORM.smartgrid(db.project,ck,fields=fi,editable=edit_dict,create=create_dict,deletable=delete_dict,links=links,linked_tables=['experiment','sample','biosource','plant_growth_condition','treatments','harvests','extraction_preparation','gas_chromatography','liquid_chromatography','mass_spectroscopy','spectrophotometry','raw_data_storage_information'],selectable = s)"
p3386
sI324
S'    return locals()'
p3387
sI325
S''
sI326
S'#gets table name and rowid as input and creates another row with same details as rowid recod has'
p3388
sI327
S'def tes(a):'
p3389
sI318
S"    links={'sample':l1}"
p3390
sI319
S'#customized Views for certain forms using router'
p3391
ssg3314
S'()'
p3392
sg3316
S'list_all_dev_projects'
p3393
sa(dp3394
g3293
S'/home/anil/bootstrap/web2py/gluon/sqlhtml.py'
p3395
sg3295
(dp3396
S'user_signature'
p3397
g1788
sS'kwargs'
p3398
S"{'create': True, 'fields': [<gluon.dal.Field object>, <gluon.dal.Field object>, <gluon.dal.Field object>, <gluon.dal.Field object>, <gluon.dal.Field object>, <gluon.dal.Field object>, <gluon.dal.Field object>, <gluon.dal.Field object>, <gluon.dal.Field object>, <gluon.dal.Field object>, <gluon.dal.Field object>, <gluon.dal.Field object>, <gluon.dal.Field object>, <gluon.dal.Field object>, <gluon.dal.Field object>, <gluon.dal.Field object>, <gluon.dal.Field object>, <gluon.dal.Field object>, <gluon.dal.Field object>, <gluon.dal.Field object>], 'selectable': <function <lambda>>}"
p3399
ssg3301
I2491
sg3302
(dp3400
I2486
S'                        A(SPAN(t+ getcount(row,field_name,tb) ), _class=trap_class(), _href=url('
p3401
sI2487
S'                          args=[args0, row[id_field_name]])))'
p3402
sI2488
S''
sI2489
S'        grid = SQLFORM.grid(query, args=request.args[:nargs], links=links,'
p3403
sI2490
S'                            links_in_grid=links_in_grid,'
p3404
sI2491
S'                            user_signature=user_signature, **kwargs)'
p3405
sI2492
S'        if isinstance(grid, DIV):'
p3406
sI2493
S"            header = table._plural + (field and ' for ' + field.name or '')"
p3407
sI2494
S'            breadcrumbs.append(LI(A(T(header), _class=trap_class(),'
p3408
sI2495
S"                                    _href=url()), _class='active w2p_grid_breadcrumb_elem'))"
p3409
ssg3314
S"(table=<Table sample (id,experimentalist,name,code,desc...iment,working_status,replica,publication_status)>, constraints={'project': <Query (project.project_status = '0')>, 'sample': <Query (sample.experimentalist = 2)>}, linked_tables=['experiment', 'sample', 'biosource', 'plant_growth_condition', 'treatments', 'harvests', 'extraction_preparation', 'gas_chromatography', 'liquid_chromatography', 'mass_spectroscopy', 'spectrophotometry', 'raw_data_storage_information'], links=[<function <lambda>>, {'body': <function <lambda>>, 'header': 'name'}, <function <lambda>>, <function <lambda>>, <function <lambda>>, <function <lambda>>, <function <lambda>>, <function <lambda>>, <function <lambda>>, <function <lambda>>, <function <lambda>>, <function <lambda>>], links_in_grid=True, args=[], user_signature=True, divider='>', breadcrumbs_class='', **kwargs={'create': True, 'fields': [<gluon.dal.Field object>, <gluon.dal.Field object>, <gluon.dal.Field object>, <gluon.dal.Field object>, <gluon.dal.Field object>, <gluon.dal.Field object>, <gluon.dal.Field object>, <gluon.dal.Field object>, <gluon.dal.Field object>, <gluon.dal.Field object>, <gluon.dal.Field object>, <gluon.dal.Field object>, <gluon.dal.Field object>, <gluon.dal.Field object>, <gluon.dal.Field object>, <gluon.dal.Field object>, <gluon.dal.Field object>, <gluon.dal.Field object>, <gluon.dal.Field object>, <gluon.dal.Field object>], 'selectable': <function <lambda>>})"
p3410
sg3316
S'smartgrid'
p3411
sa(dp3412
g3293
S'/home/anil/bootstrap/web2py/gluon/sqlhtml.py'
p3413
sg3295
(dp3414
S'link'
p3415
S'<function <lambda>>'
p3416
sS'row'
p3417
S"<Row {'publication_status': False, 'code': '32', 'replica': 'replicate', 'name': '12', 'id': 2}>"
p3418
ssg3301
I2258
sg3302
(dp3419
I2253
S'                    toadd = []'
p3420
sI2254
S'                    for link in links:'
p3421
sI2255
S'                        if isinstance(link, dict):'
p3422
sI2256
S"                            toadd.append(TD(link['body'](row)))"
p3423
sI2257
S'                        else:'
p3424
sI2258
S'                            if link(row):'
p3425
sI2259
S'                                row_buttons.append(link(row))'
p3426
sI2260
S"                    if links_placement in ['right', 'both']:"
p3427
sI2261
S'                        trcols.extend(toadd)'
p3428
sI2262
S"                    if links_placement in ['left', 'both']:"
p3429
ssg3314
S"(query=<Query ((sample.experiment = 1) AND (sample.experimentalist = 2))>, fields=[<gluon.dal.Field object>, <gluon.dal.Field object>, <gluon.dal.Field object>, <gluon.dal.Field object>, <gluon.dal.Field object>, <gluon.dal.Field object>, <gluon.dal.Field object>, <gluon.dal.Field object>, <gluon.dal.Field object>, <gluon.dal.Field object>, <gluon.dal.Field object>, <gluon.dal.Field object>, <gluon.dal.Field object>, <gluon.dal.Field object>, <gluon.dal.Field object>, <gluon.dal.Field object>, <gluon.dal.Field object>, <gluon.dal.Field object>, <gluon.dal.Field object>, <gluon.dal.Field object>], field_id=<gluon.dal.Field object>, left=None, headers={}, orderby=None, groupby=None, searchable=True, sortable=True, paginate=20, deletable=True, editable=True, details=True, selectable=<function <lambda>>, create=True, csv=True, links=[<function <lambda>>, {'body': <function <lambda>>, 'header': 'name'}, <function <lambda>>, <function <lambda>>, <function <lambda>>, <function <lambda>>, <function <lambda>>, <function <lambda>>, <function <lambda>>, <function <lambda>>, <function <lambda>>, <function <lambda>>], links_in_grid=True, upload=<function <lambda>>, args=['project', 'experiment.project', '1', 'sample.experiment', '1'], user_signature=True, maxtextlengths={}, maxtextlength=20, onvalidation=None, oncreate=None, onupdate=None, ondelete=None, sorter_icons=(<gluon.html.XML object>, <gluon.html.XML object>), ui={'button': 'ui-button-text-icon-primary', 'buttonadd': 'ui-icon ui-icon-plusthick', 'buttonback': 'ui-icon ui-icon-arrowreturnthick-1-w', 'buttondelete': 'ui-icon ui-icon-trash', 'buttonedit': 'ui-icon ui-icon-pencil', 'buttonexport': 'ui-icon ui-icon-transferthick-e-w', 'buttontable': 'ui-icon ui-icon-triangle-1-e', 'buttontext': 'ui-button-text', 'buttonview': 'ui-icon ui-icon-zoomin', 'content': 'ui-widget-content', ...}, showbuttontext=True, _class='web2py_grid', formname='web2py_grid', search_widget=<function <lambda>>, ignore_rw=False, formstyle='table3cols', exportclasses=None, formargs={}, createargs={}, editargs={}, viewargs={}, buttons_placement='right', links_placement='right')"
p3430
sg3316
S'grid'
p3431
sa(dp3432
g3293
S'/home/anil/bootstrap/web2py/gluon/sqlhtml.py'
p3433
sg3295
(dp3434
S'id_field_name'
p3435
S"'id'"
p3436
sS'_href'
p3437
g3336
sS'url'
p3438
S'<function url>'
p3439
sS'global A'
p3440
S"<class 'gluon.html.A'>"
p3441
sS'args'
p3442
g3336
sS'tb'
p3443
S'<Table treatments (id,sample_name,treament_bioti...,treatment_description,treatment_before_harvest)>'
p3444
sS'global SPAN'
p3445
S"<class 'gluon.html.SPAN'>"
p3446
sS'global trap_class'
p3447
S'<function trap_class>'
p3448
sS't'
S"<lazyT 'Biosource'>"
p3449
sS'args0'
p3450
S"'biosource.sample_name'"
p3451
sS'getcount'
p3452
S'<function getcount>'
p3453
sS'_class'
p3454
g3336
sS'field_name'
p3455
g3336
sS'row'
p3456
S"<Row {'publication_status': False, 'code': '32', 'replica': 'replicate', 'name': '12', 'id': 2}>"
p3457
ssg3301
I2486
sg3302
(dp3458
I2481
S"                    args0 = tablename + '.' + fieldname"
p3459
sI2482
S'                    def getcount(row,id_field_name,tb):'
p3460
sI2483
S'                        return id_field_name'
p3461
sI2484
S'                    links.append('
p3462
sI2485
S'                        lambda row, t=t, nargs=nargs, args0=args0:'
p3463
sI2486
S'                        A(SPAN(t+ getcount(row,field_name,tb) ), _class=trap_class(), _href=url('
p3464
sI2487
S'                          args=[args0, row[id_field_name]])))'
p3465
sI2488
S''
sI2489
S'        grid = SQLFORM.grid(query, args=request.args[:nargs], links=links,'
p3466
sI2490
S'                            links_in_grid=links_in_grid,'
p3467
ssg3314
S"(row=<Row {'publication_status': False, 'code': '32', 'replica': 'replicate', 'name': '12', 'id': 2}>, t=<lazyT 'Biosource'>, nargs=5, args0='biosource.sample_name')"
p3468
sg3316
g3349
sasS'pyver'
p3469
S'Python 2.7.3: /usr/bin/python'
p3470
sS'session'
p3471
g57
(g58
g59
NtRp3472
(dp3473
g62
(dp3474
sg64
(lp3475
g57
(g66
g59
NtRp3476
(dp3477
g62
(dp3478
g70
I5
ssg71
Nsg64
(lp3479
g57
(g73
g59
NtRp3480
(dp3481
g62
(dp3482
sg71
g3476
sg64
(lp3483
g57
(g78
g59
NtRp3484
(dp3485
g62
(dp3486
g82
g83
ssg71
g3480
sg64
(lp3487
S'auth'
p3488
asbag57
(g78
g59
NtRp3489
(dp3490
g62
(dp3491
g89
g90
ssg71
g3480
sg64
(lp3492
S':'
asbag57
(g78
g59
NtRp3493
(dp3494
g62
(dp3495
sg71
g3480
sg64
(lp3496
g57
(g58
g59
NtRp3497
(dp3498
g62
(dp3499
g70
I5
ssg71
g3493
sg64
(lp3500
g57
(g66
g59
NtRp3501
(dp3502
g62
(dp3503
g70
I4
ssg71
Nsg64
(lp3504
g57
(g73
g59
NtRp3505
(dp3506
g62
(dp3507
sg71
g3501
sg64
(lp3508
g57
(g78
g59
NtRp3509
(dp3510
g62
(dp3511
g82
g83
ssg71
g3505
sg64
(lp3512
S'expiration'
p3513
asbag57
(g78
g59
NtRp3514
(dp3515
g62
(dp3516
g89
g90
ssg71
g3505
sg64
(lp3517
S':'
asbag57
(g78
g59
NtRp3518
(dp3519
g62
(dp3520
sg71
g3505
sg64
(lp3521
g57
(g58
g59
NtRp3522
(dp3523
g62
(dp3524
g70
I4
ssg71
g3518
sg64
(lp3525
S'2592000'
p3526
asbasbasbag57
(g73
g59
NtRp3527
(dp3528
g62
(dp3529
sg71
g3501
sg64
(lp3530
g57
(g78
g59
NtRp3531
(dp3532
g62
(dp3533
g82
g83
ssg71
g3527
sg64
(lp3534
S'hmac_key'
p3535
asbag57
(g78
g59
NtRp3536
(dp3537
g62
(dp3538
g89
g90
ssg71
g3527
sg64
(lp3539
S':'
asbag57
(g78
g59
NtRp3540
(dp3541
g62
(dp3542
sg71
g3527
sg64
(lp3543
g57
(g58
g59
NtRp3544
(dp3545
g62
(dp3546
g70
I4
ssg71
g3540
sg64
(lp3547
S'11fc622b-02bf-4f2a-8e07-fc63863907e8'
p3548
asbasbasbag57
(g73
g59
NtRp3549
(dp3550
g62
(dp3551
sg71
g3501
sg64
(lp3552
g57
(g78
g59
NtRp3553
(dp3554
g62
(dp3555
g82
g83
ssg71
g3549
sg64
(lp3556
S'last_visit'
p3557
asbag57
(g78
g59
NtRp3558
(dp3559
g62
(dp3560
g89
g90
ssg71
g3549
sg64
(lp3561
S':'
asbag57
(g78
g59
NtRp3562
(dp3563
g62
(dp3564
sg71
g3549
sg64
(lp3565
g57
(g58
g59
NtRp3566
(dp3567
g62
(dp3568
g70
I4
ssg71
g3562
sg64
(lp3569
S'datetime.datetime(2013, 2, 18, 0, 21, 50, 823546)'
p3570
asbasbasbag57
(g73
g59
NtRp3571
(dp3572
g62
(dp3573
sg71
g3501
sg64
(lp3574
g57
(g78
g59
NtRp3575
(dp3576
g62
(dp3577
g82
g83
ssg71
g3571
sg64
(lp3578
S'remember'
p3579
asbag57
(g78
g59
NtRp3580
(dp3581
g62
(dp3582
g89
g90
ssg71
g3571
sg64
(lp3583
S':'
asbag57
(g78
g59
NtRp3584
(dp3585
g62
(dp3586
sg71
g3571
sg64
(lp3587
g57
(g58
g59
NtRp3588
(dp3589
g62
(dp3590
g70
I4
ssg71
g3584
sg64
(lp3591
g1788
asbasbasbag57
(g73
g59
NtRp3592
(dp3593
g62
(dp3594
sg71
g3501
sg64
(lp3595
g57
(g78
g59
NtRp3596
(dp3597
g62
(dp3598
g82
g83
ssg71
g3592
sg64
(lp3599
S'user'
p3600
asbag57
(g78
g59
NtRp3601
(dp3602
g62
(dp3603
g89
g90
ssg71
g3592
sg64
(lp3604
S':'
asbag57
(g78
g59
NtRp3605
(dp3606
g62
(dp3607
sg71
g3592
sg64
(lp3608
g57
(g58
g59
NtRp3609
(dp3610
g62
(dp3611
g70
I4
ssg71
g3605
sg64
(lp3612
g57
(g66
g59
NtRp3613
(dp3614
g62
(dp3615
g70
I3
ssg71
Nsg64
(lp3616
g57
(g73
g59
NtRp3617
(dp3618
g62
(dp3619
sg71
g3613
sg64
(lp3620
g57
(g78
g59
NtRp3621
(dp3622
g62
(dp3623
g82
g83
ssg71
g3617
sg64
(lp3624
S'address'
p3625
asbag57
(g78
g59
NtRp3626
(dp3627
g62
(dp3628
g89
g90
ssg71
g3617
sg64
(lp3629
S':'
asbag57
(g78
g59
NtRp3630
(dp3631
g62
(dp3632
sg71
g3617
sg64
(lp3633
g57
(g58
g59
NtRp3634
(dp3635
g62
(dp3636
g70
I3
ssg71
g3630
sg64
(lp3637
S'a'
asbasbasbag57
(g73
g59
NtRp3638
(dp3639
g62
(dp3640
sg71
g3613
sg64
(lp3641
g57
(g78
g59
NtRp3642
(dp3643
g62
(dp3644
g82
g83
ssg71
g3638
sg64
(lp3645
S'affiliated_to'
p3646
asbag57
(g78
g59
NtRp3647
(dp3648
g62
(dp3649
g89
g90
ssg71
g3638
sg64
(lp3650
S':'
asbag57
(g78
g59
NtRp3651
(dp3652
g62
(dp3653
sg71
g3638
sg64
(lp3654
g57
(g58
g59
NtRp3655
(dp3656
g62
(dp3657
g70
I3
ssg71
g3651
sg64
(lp3658
S'a'
asbasbasbag57
(g73
g59
NtRp3659
(dp3660
g62
(dp3661
sg71
g3613
sg64
(lp3662
g57
(g78
g59
NtRp3663
(dp3664
g62
(dp3665
g82
g83
ssg71
g3659
sg64
(lp3666
S'city'
p3667
asbag57
(g78
g59
NtRp3668
(dp3669
g62
(dp3670
g89
g90
ssg71
g3659
sg64
(lp3671
S':'
asbag57
(g78
g59
NtRp3672
(dp3673
g62
(dp3674
sg71
g3659
sg64
(lp3675
g57
(g58
g59
NtRp3676
(dp3677
g62
(dp3678
g70
I3
ssg71
g3672
sg64
(lp3679
S'a'
asbasbasbag57
(g73
g59
NtRp3680
(dp3681
g62
(dp3682
sg71
g3613
sg64
(lp3683
g57
(g78
g59
NtRp3684
(dp3685
g62
(dp3686
g82
g83
ssg71
g3680
sg64
(lp3687
S'country'
p3688
asbag57
(g78
g59
NtRp3689
(dp3690
g62
(dp3691
g89
g90
ssg71
g3680
sg64
(lp3692
S':'
asbag57
(g78
g59
NtRp3693
(dp3694
g62
(dp3695
sg71
g3680
sg64
(lp3696
g57
(g58
g59
NtRp3697
(dp3698
g62
(dp3699
g70
I3
ssg71
g3693
sg64
(lp3700
S'India'
p3701
asbasbasbag57
(g73
g59
NtRp3702
(dp3703
g62
(dp3704
sg71
g3613
sg64
(lp3705
g57
(g78
g59
NtRp3706
(dp3707
g62
(dp3708
g82
g83
ssg71
g3702
sg64
(lp3709
S'email'
p3710
asbag57
(g78
g59
NtRp3711
(dp3712
g62
(dp3713
g89
g90
ssg71
g3702
sg64
(lp3714
S':'
asbag57
(g78
g59
NtRp3715
(dp3716
g62
(dp3717
sg71
g3702
sg64
(lp3718
g57
(g58
g59
NtRp3719
(dp3720
g62
(dp3721
g70
I3
ssg71
g3715
sg64
(lp3722
S'anil.iiith@gmail.com'
p3723
asbasbasbag57
(g73
g59
NtRp3724
(dp3725
g62
(dp3726
sg71
g3613
sg64
(lp3727
g57
(g78
g59
NtRp3728
(dp3729
g62
(dp3730
g82
g83
ssg71
g3724
sg64
(lp3731
S'first_name'
p3732
asbag57
(g78
g59
NtRp3733
(dp3734
g62
(dp3735
g89
g90
ssg71
g3724
sg64
(lp3736
S':'
asbag57
(g78
g59
NtRp3737
(dp3738
g62
(dp3739
sg71
g3724
sg64
(lp3740
g57
(g58
g59
NtRp3741
(dp3742
g62
(dp3743
g70
I3
ssg71
g3737
sg64
(lp3744
S'anil'
p3745
asbasbasbag57
(g73
g59
NtRp3746
(dp3747
g62
(dp3748
sg71
g3613
sg64
(lp3749
g57
(g78
g59
NtRp3750
(dp3751
g62
(dp3752
g82
g83
ssg71
g3746
sg64
(lp3753
S'id'
p3754
asbag57
(g78
g59
NtRp3755
(dp3756
g62
(dp3757
g89
g90
ssg71
g3746
sg64
(lp3758
S':'
asbag57
(g78
g59
NtRp3759
(dp3760
g62
(dp3761
sg71
g3746
sg64
(lp3762
g57
(g58
g59
NtRp3763
(dp3764
g62
(dp3765
g70
I3
ssg71
g3759
sg64
(lp3766
S'2'
asbasbasbag57
(g73
g59
NtRp3767
(dp3768
g62
(dp3769
sg71
g3613
sg64
(lp3770
g57
(g78
g59
NtRp3771
(dp3772
g62
(dp3773
g82
g83
ssg71
g3767
sg64
(lp3774
S'last_name'
p3775
asbag57
(g78
g59
NtRp3776
(dp3777
g62
(dp3778
g89
g90
ssg71
g3767
sg64
(lp3779
S':'
asbag57
(g78
g59
NtRp3780
(dp3781
g62
(dp3782
sg71
g3767
sg64
(lp3783
g57
(g58
g59
NtRp3784
(dp3785
g62
(dp3786
g70
I3
ssg71
g3780
sg64
(lp3787
S'n'
asbasbasbag57
(g73
g59
NtRp3788
(dp3789
g62
(dp3790
sg71
g3613
sg64
(lp3791
g57
(g78
g59
NtRp3792
(dp3793
g62
(dp3794
g82
g83
ssg71
g3788
sg64
(lp3795
S'mobile'
p3796
asbag57
(g78
g59
NtRp3797
(dp3798
g62
(dp3799
g89
g90
ssg71
g3788
sg64
(lp3800
S':'
asbag57
(g78
g59
NtRp3801
(dp3802
g62
(dp3803
sg71
g3788
sg64
(lp3804
g57
(g58
g59
NtRp3805
(dp3806
g62
(dp3807
g70
I3
ssg71
g3801
sg64
(lp3808
S'1233'
p3809
asbasbasbag57
(g73
g59
NtRp3810
(dp3811
g62
(dp3812
sg71
g3613
sg64
(lp3813
g57
(g78
g59
NtRp3814
(dp3815
g62
(dp3816
g82
g83
ssg71
g3810
sg64
(lp3817
S'phone'
p3818
asbag57
(g78
g59
NtRp3819
(dp3820
g62
(dp3821
g89
g90
ssg71
g3810
sg64
(lp3822
S':'
asbag57
(g78
g59
NtRp3823
(dp3824
g62
(dp3825
sg71
g3810
sg64
(lp3826
g57
(g58
g59
NtRp3827
(dp3828
g62
(dp3829
g70
I3
ssg71
g3823
sg64
(lp3830
S'123'
p3831
asbasbasbag57
(g73
g59
NtRp3832
(dp3833
g62
(dp3834
sg71
g3613
sg64
(lp3835
g57
(g78
g59
NtRp3836
(dp3837
g62
(dp3838
g82
g83
ssg71
g3832
sg64
(lp3839
S'position'
p3840
asbag57
(g78
g59
NtRp3841
(dp3842
g62
(dp3843
g89
g90
ssg71
g3832
sg64
(lp3844
S':'
asbag57
(g78
g59
NtRp3845
(dp3846
g62
(dp3847
sg71
g3832
sg64
(lp3848
g57
(g58
g59
NtRp3849
(dp3850
g62
(dp3851
g70
I3
ssg71
g3845
sg64
(lp3852
S'0'
asbasbasbag57
(g73
g59
NtRp3853
(dp3854
g62
(dp3855
sg71
g3613
sg64
(lp3856
g57
(g78
g59
NtRp3857
(dp3858
g62
(dp3859
g82
g83
ssg71
g3853
sg64
(lp3860
S'postal_code'
p3861
asbag57
(g78
g59
NtRp3862
(dp3863
g62
(dp3864
g89
g90
ssg71
g3853
sg64
(lp3865
S':'
asbag57
(g78
g59
NtRp3866
(dp3867
g62
(dp3868
sg71
g3853
sg64
(lp3869
g57
(g58
g59
NtRp3870
(dp3871
g62
(dp3872
g70
I3
ssg71
g3866
sg64
(lp3873
S'123'
p3874
asbasbasbag57
(g73
g59
NtRp3875
(dp3876
g62
(dp3877
sg71
g3613
sg64
(lp3878
g57
(g78
g59
NtRp3879
(dp3880
g62
(dp3881
g82
g83
ssg71
g3875
sg64
(lp3882
S'registration_at'
p3883
asbag57
(g78
g59
NtRp3884
(dp3885
g62
(dp3886
g89
g90
ssg71
g3875
sg64
(lp3887
S':'
asbag57
(g78
g59
NtRp3888
(dp3889
g62
(dp3890
sg71
g3875
sg64
(lp3891
g57
(g58
g59
NtRp3892
(dp3893
g62
(dp3894
g70
I3
ssg71
g3888
sg64
(lp3895
S'0'
asbasbasbag57
(g73
g59
NtRp3896
(dp3897
g62
(dp3898
sg71
g3613
sg64
(lp3899
g57
(g78
g59
NtRp3900
(dp3901
g62
(dp3902
g82
g83
ssg71
g3896
sg64
(lp3903
S'registration_id'
p3904
asbag57
(g78
g59
NtRp3905
(dp3906
g62
(dp3907
g89
g90
ssg71
g3896
sg64
(lp3908
S':'
asbag57
(g78
g59
NtRp3909
(dp3910
g62
(dp3911
sg71
g3896
sg64
(lp3912
g57
(g58
g59
NtRp3913
(dp3914
g62
(dp3915
g70
I3
ssg71
g3909
sg64
(lp3916
S''
asbasbasbag57
(g73
g59
NtRp3917
(dp3918
g62
(dp3919
sg71
g3613
sg64
(lp3920
g57
(g78
g59
NtRp3921
(dp3922
g62
(dp3923
g82
g83
ssg71
g3917
sg64
(lp3924
S'registration_key'
p3925
asbag57
(g78
g59
NtRp3926
(dp3927
g62
(dp3928
g89
g90
ssg71
g3917
sg64
(lp3929
S':'
asbag57
(g78
g59
NtRp3930
(dp3931
g62
(dp3932
sg71
g3917
sg64
(lp3933
g57
(g58
g59
NtRp3934
(dp3935
g62
(dp3936
g70
I3
ssg71
g3930
sg64
(lp3937
S''
asbasbasbag57
(g73
g59
NtRp3938
(dp3939
g62
(dp3940
sg71
g3613
sg64
(lp3941
g57
(g78
g59
NtRp3942
(dp3943
g62
(dp3944
g82
g83
ssg71
g3938
sg64
(lp3945
S'reset_password_key'
p3946
asbag57
(g78
g59
NtRp3947
(dp3948
g62
(dp3949
g89
g90
ssg71
g3938
sg64
(lp3950
S':'
asbag57
(g78
g59
NtRp3951
(dp3952
g62
(dp3953
sg71
g3938
sg64
(lp3954
g57
(g58
g59
NtRp3955
(dp3956
g62
(dp3957
g70
I3
ssg71
g3951
sg64
(lp3958
S''
asbasbasbag57
(g73
g59
NtRp3959
(dp3960
g62
(dp3961
sg71
g3613
sg64
(lp3962
g57
(g78
g59
NtRp3963
(dp3964
g62
(dp3965
g82
g83
ssg71
g3959
sg64
(lp3966
S'title'
p3967
asbag57
(g78
g59
NtRp3968
(dp3969
g62
(dp3970
g89
g90
ssg71
g3959
sg64
(lp3971
S':'
asbag57
(g78
g59
NtRp3972
(dp3973
g62
(dp3974
sg71
g3959
sg64
(lp3975
g57
(g58
g59
NtRp3976
(dp3977
g62
(dp3978
g70
I3
ssg71
g3972
sg64
(lp3979
S'0'
asbasbasbasbasbasbasbag57
(g73
g59
NtRp3980
(dp3981
g62
(dp3982
sg71
g3501
sg64
(lp3983
g57
(g78
g59
NtRp3984
(dp3985
g62
(dp3986
g82
g83
ssg71
g3980
sg64
(lp3987
S'user_groups'
p3988
asbag57
(g78
g59
NtRp3989
(dp3990
g62
(dp3991
g89
g90
ssg71
g3980
sg64
(lp3992
S':'
asbag57
(g78
g59
NtRp3993
(dp3994
g62
(dp3995
sg71
g3980
sg64
(lp3996
g57
(g58
g59
NtRp3997
(dp3998
g62
(dp3999
g70
I4
ssg71
g3993
sg64
(lp4000
g57
(g66
g59
NtRp4001
(dp4002
g62
(dp4003
g70
I3
ssg71
Nsg64
(lp4004
g57
(g73
g59
NtRp4005
(dp4006
g62
(dp4007
sg71
g4001
sg64
(lp4008
g57
(g78
g59
NtRp4009
(dp4010
g62
(dp4011
g82
g83
ssg71
g4005
sg64
(lp4012
S'9'
asbag57
(g78
g59
NtRp4013
(dp4014
g62
(dp4015
g89
g90
ssg71
g4005
sg64
(lp4016
S':'
asbag57
(g78
g59
NtRp4017
(dp4018
g62
(dp4019
sg71
g4005
sg64
(lp4020
g57
(g58
g59
NtRp4021
(dp4022
g62
(dp4023
g70
I3
ssg71
g4017
sg64
(lp4024
S'user_2'
p4025
asbasbasbasbasbasbasbasbasbasbasbag57
(g73
g59
NtRp4026
(dp4027
g62
(dp4028
sg71
g3476
sg64
(lp4029
g57
(g78
g59
NtRp4030
(dp4031
g62
(dp4032
g82
g83
ssg71
g4026
sg64
(lp4033
S'flash'
p4034
asbag57
(g78
g59
NtRp4035
(dp4036
g62
(dp4037
g89
g90
ssg71
g4026
sg64
(lp4038
S':'
asbag57
(g78
g59
NtRp4039
(dp4040
g62
(dp4041
sg71
g4026
sg64
(lp4042
g57
(g58
g59
NtRp4043
(dp4044
g62
(dp4045
g70
I5
ssg71
g4039
sg64
(lp4046
S'None'
p4047
asbasbasbag57
(g73
g59
NtRp4048
(dp4049
g62
(dp4050
sg71
g3476
sg64
(lp4051
g57
(g78
g59
NtRp4052
(dp4053
g62
(dp4054
g82
g83
ssg71
g4048
sg64
(lp4055
S'last_orderby'
p4056
asbag57
(g78
g59
NtRp4057
(dp4058
g62
(dp4059
g89
g90
ssg71
g4048
sg64
(lp4060
S':'
asbag57
(g78
g59
NtRp4061
(dp4062
g62
(dp4063
sg71
g4048
sg64
(lp4064
g57
(g58
g59
NtRp4065
(dp4066
g62
(dp4067
g70
I5
ssg71
g4061
sg64
(lp4068
S'None'
p4069
asbasbasbag57
(g73
g59
NtRp4070
(dp4071
g62
(dp4072
sg71
g3476
sg64
(lp4073
g57
(g78
g59
NtRp4074
(dp4075
g62
(dp4076
g82
g83
ssg71
g4070
sg64
(lp4077
S'last_query'
p4078
asbag57
(g78
g59
NtRp4079
(dp4080
g62
(dp4081
g89
g90
ssg71
g4070
sg64
(lp4082
S':'
asbag57
(g78
g59
NtRp4083
(dp4084
g62
(dp4085
sg71
g4070
sg64
(lp4086
g57
(g58
g59
NtRp4087
(dp4088
g62
(dp4089
g70
I5
ssg71
g4083
sg64
(lp4090
S'db.project.id>0'
p4091
asbasbasbasbasbsS'etype'
p4092
S"<type 'exceptions.NameError'>"
p4093
sS'date'
p4094
S'Mon Feb 25 01:50:54 2013'
p4095
sS'response'
p4096
g57
(g58
g59
NtRp4097
(dp4098
g62
(dp4099
sg64
(lp4100
g57
(g66
g59
NtRp4101
(dp4102
g62
(dp4103
g70
I5
ssg71
Nsg64
(lp4104
g57
(g73
g59
NtRp4105
(dp4106
g62
(dp4107
sg71
g4101
sg64
(lp4108
g57
(g78
g59
NtRp4109
(dp4110
g62
(dp4111
g82
g83
ssg71
g4105
sg64
(lp4112
g218
asbag57
(g78
g59
NtRp4113
(dp4114
g62
(dp4115
g89
g90
ssg71
g4105
sg64
(lp4116
S':'
asbag57
(g78
g59
NtRp4117
(dp4118
g62
(dp4119
sg71
g4105
sg64
(lp4120
g57
(g58
g59
NtRp4121
(dp4122
g62
(dp4123
g70
I5
ssg71
g4117
sg64
(lp4124
S'<cStringIO.StringO object at 0x8dc97a0>'
p4125
asbasbasbag57
(g73
g59
NtRp4126
(dp4127
g62
(dp4128
sg71
g4101
sg64
(lp4129
g57
(g78
g59
NtRp4130
(dp4131
g62
(dp4132
g82
g83
ssg71
g4126
sg64
(lp4133
g306
asbag57
(g78
g59
NtRp4134
(dp4135
g62
(dp4136
g89
g90
ssg71
g4126
sg64
(lp4137
S':'
asbag57
(g78
g59
NtRp4138
(dp4139
g62
(dp4140
sg71
g4126
sg64
(lp4141
g57
(g58
g59
NtRp4142
(dp4143
g62
(dp4144
g70
I5
ssg71
g4138
sg64
(lp4145
g57
(g66
g59
NtRp4146
(dp4147
g62
(dp4148
g70
I4
ssg71
Nsg64
(lp4149
g57
(g73
g59
NtRp4150
(dp4151
g62
(dp4152
sg71
g4146
sg64
(lp4153
g57
(g78
g59
NtRp4154
(dp4155
g62
(dp4156
g82
g83
ssg71
g4150
sg64
(lp4157
S'session_id_dev_bootstrap_ch'
p4158
asbag57
(g78
g59
NtRp4159
(dp4160
g62
(dp4161
g89
g90
ssg71
g4150
sg64
(lp4162
S':'
asbag57
(g78
g59
NtRp4163
(dp4164
g62
(dp4165
sg71
g4150
sg64
(lp4166
g57
(g58
g59
NtRp4167
(dp4168
g62
(dp4169
g70
I4
ssg71
g4163
sg64
(lp4170
g724
ag57
(g66
g59
NtRp4171
(dp4172
g62
(dp4173
g70
I3
ssg71
Nsg64
(lp4174
g57
(g73
g59
NtRp4175
(dp4176
g62
(dp4177
sg71
g4171
sg64
(lp4178
g57
(g78
g59
NtRp4179
(dp4180
g62
(dp4181
g82
g83
ssg71
g4175
sg64
(lp4182
g357
asbag57
(g78
g59
NtRp4183
(dp4184
g62
(dp4185
g89
g90
ssg71
g4175
sg64
(lp4186
S':'
asbag57
(g78
g59
NtRp4187
(dp4188
g62
(dp4189
sg71
g4175
sg64
(lp4190
g57
(g58
g59
NtRp4191
(dp4192
g62
(dp4193
g70
I3
ssg71
g4187
sg64
(lp4194
S''
asbasbasbag57
(g73
g59
NtRp4195
(dp4196
g62
(dp4197
sg71
g4171
sg64
(lp4198
g57
(g78
g59
NtRp4199
(dp4200
g62
(dp4201
g82
g83
ssg71
g4195
sg64
(lp4202
g378
asbag57
(g78
g59
NtRp4203
(dp4204
g62
(dp4205
g89
g90
ssg71
g4195
sg64
(lp4206
S':'
asbag57
(g78
g59
NtRp4207
(dp4208
g62
(dp4209
sg71
g4195
sg64
(lp4210
g57
(g58
g59
NtRp4211
(dp4212
g62
(dp4213
g70
I3
ssg71
g4207
sg64
(lp4214
S''
asbasbasbag57
(g73
g59
NtRp4215
(dp4216
g62
(dp4217
sg71
g4171
sg64
(lp4218
g57
(g78
g59
NtRp4219
(dp4220
g62
(dp4221
g82
g83
ssg71
g4215
sg64
(lp4222
g399
asbag57
(g78
g59
NtRp4223
(dp4224
g62
(dp4225
g89
g90
ssg71
g4215
sg64
(lp4226
S':'
asbag57
(g78
g59
NtRp4227
(dp4228
g62
(dp4229
sg71
g4215
sg64
(lp4230
g57
(g58
g59
NtRp4231
(dp4232
g62
(dp4233
g70
I3
ssg71
g4227
sg64
(lp4234
S'2592000'
p4235
asbasbasbag57
(g73
g59
NtRp4236
(dp4237
g62
(dp4238
sg71
g4171
sg64
(lp4239
g57
(g78
g59
NtRp4240
(dp4241
g62
(dp4242
g82
g83
ssg71
g4236
sg64
(lp4243
g420
asbag57
(g78
g59
NtRp4244
(dp4245
g62
(dp4246
g89
g90
ssg71
g4236
sg64
(lp4247
S':'
asbag57
(g78
g59
NtRp4248
(dp4249
g62
(dp4250
sg71
g4236
sg64
(lp4251
g57
(g58
g59
NtRp4252
(dp4253
g62
(dp4254
g70
I3
ssg71
g4248
sg64
(lp4255
S''
asbasbasbag57
(g73
g59
NtRp4256
(dp4257
g62
(dp4258
sg71
g4171
sg64
(lp4259
g57
(g78
g59
NtRp4260
(dp4261
g62
(dp4262
g82
g83
ssg71
g4256
sg64
(lp4263
g441
asbag57
(g78
g59
NtRp4264
(dp4265
g62
(dp4266
g89
g90
ssg71
g4256
sg64
(lp4267
S':'
asbag57
(g78
g59
NtRp4268
(dp4269
g62
(dp4270
sg71
g4256
sg64
(lp4271
g57
(g58
g59
NtRp4272
(dp4273
g62
(dp4274
g70
I3
ssg71
g4268
sg64
(lp4275
S''
asbasbasbag57
(g73
g59
NtRp4276
(dp4277
g62
(dp4278
sg71
g4171
sg64
(lp4279
g57
(g78
g59
NtRp4280
(dp4281
g62
(dp4282
g82
g83
ssg71
g4276
sg64
(lp4283
g462
asbag57
(g78
g59
NtRp4284
(dp4285
g62
(dp4286
g89
g90
ssg71
g4276
sg64
(lp4287
S':'
asbag57
(g78
g59
NtRp4288
(dp4289
g62
(dp4290
sg71
g4276
sg64
(lp4291
g57
(g58
g59
NtRp4292
(dp4293
g62
(dp4294
g70
I3
ssg71
g4288
sg64
(lp4295
S'/'
asbasbasbag57
(g73
g59
NtRp4296
(dp4297
g62
(dp4298
sg71
g4171
sg64
(lp4299
g57
(g78
g59
NtRp4300
(dp4301
g62
(dp4302
g82
g83
ssg71
g4296
sg64
(lp4303
g483
asbag57
(g78
g59
NtRp4304
(dp4305
g62
(dp4306
g89
g90
ssg71
g4296
sg64
(lp4307
S':'
asbag57
(g78
g59
NtRp4308
(dp4309
g62
(dp4310
sg71
g4296
sg64
(lp4311
g57
(g58
g59
NtRp4312
(dp4313
g62
(dp4314
g70
I3
ssg71
g4308
sg64
(lp4315
S''
asbasbasbag57
(g73
g59
NtRp4316
(dp4317
g62
(dp4318
sg71
g4171
sg64
(lp4319
g57
(g78
g59
NtRp4320
(dp4321
g62
(dp4322
g82
g83
ssg71
g4316
sg64
(lp4323
g504
asbag57
(g78
g59
NtRp4324
(dp4325
g62
(dp4326
g89
g90
ssg71
g4316
sg64
(lp4327
S':'
asbag57
(g78
g59
NtRp4328
(dp4329
g62
(dp4330
sg71
g4316
sg64
(lp4331
g57
(g58
g59
NtRp4332
(dp4333
g62
(dp4334
g70
I3
ssg71
g4328
sg64
(lp4335
S''
asbasbasbasbasbasbasbasbasbasbasbag57
(g73
g59
NtRp4336
(dp4337
g62
(dp4338
sg71
g4101
sg64
(lp4339
g57
(g78
g59
NtRp4340
(dp4341
g62
(dp4342
g82
g83
ssg71
g4336
sg64
(lp4343
S'delimiters'
p4344
asbag57
(g78
g59
NtRp4345
(dp4346
g62
(dp4347
g89
g90
ssg71
g4336
sg64
(lp4348
S':'
asbag57
(g78
g59
NtRp4349
(dp4350
g62
(dp4351
sg71
g4336
sg64
(lp4352
g57
(g58
g59
NtRp4353
(dp4354
g62
(dp4355
g70
I5
ssg71
g4349
sg64
(lp4356
g57
(g66
g59
NtRp4357
(dp4358
g62
(dp4359
g70
I4
ssg71
Nsg64
(lp4360
g57
(g73
g59
NtRp4361
(dp4362
g62
(dp4363
sg71
g4357
sg64
(lp4364
g57
(g78
g59
NtRp4365
(dp4366
g62
(dp4367
sg71
g4361
sg64
(lp4368
g57
(g58
g59
NtRp4369
(dp4370
g62
(dp4371
g70
I4
ssg71
g4365
sg64
(lp4372
S'{{'
p4373
asbasbasbag57
(g73
g59
NtRp4374
(dp4375
g62
(dp4376
sg71
g4357
sg64
(lp4377
g57
(g78
g59
NtRp4378
(dp4379
g62
(dp4380
sg71
g4374
sg64
(lp4381
g57
(g58
g59
NtRp4382
(dp4383
g62
(dp4384
g70
I4
ssg71
g4378
sg64
(lp4385
S'}}'
p4386
asbasbasbasbasbasbasbag57
(g73
g59
NtRp4387
(dp4388
g62
(dp4389
sg71
g4101
sg64
(lp4390
g57
(g78
g59
NtRp4391
(dp4392
g62
(dp4393
g82
g83
ssg71
g4387
sg64
(lp4394
S'files'
p4395
asbag57
(g78
g59
NtRp4396
(dp4397
g62
(dp4398
g89
g90
ssg71
g4387
sg64
(lp4399
S':'
asbag57
(g78
g59
NtRp4400
(dp4401
g62
(dp4402
sg71
g4387
sg64
(lp4403
g57
(g58
g59
NtRp4404
(dp4405
g62
(dp4406
g70
I5
ssg71
g4400
sg64
(lp4407
g57
(g66
g59
NtRp4408
(dp4409
g62
(dp4410
g70
I4
ssg71
Nsg64
(lp4411
g57
(g73
g59
NtRp4412
(dp4413
g62
(dp4414
sg71
g4408
sg64
(lp4415
g57
(g78
g59
NtRp4416
(dp4417
g62
(dp4418
sg71
g4412
sg64
(lp4419
g57
(g58
g59
NtRp4420
(dp4421
g62
(dp4422
g70
I4
ssg71
g4416
sg64
(lp4423
S'/DEV_bootstrap_ch/static/plugin_wiki/ui/css/redmond/jquery-ui-1.8.5.custom.css'
p4424
asbasbasbag57
(g73
g59
NtRp4425
(dp4426
g62
(dp4427
sg71
g4408
sg64
(lp4428
g57
(g78
g59
NtRp4429
(dp4430
g62
(dp4431
sg71
g4425
sg64
(lp4432
g57
(g58
g59
NtRp4433
(dp4434
g62
(dp4435
g70
I4
ssg71
g4429
sg64
(lp4436
S'/DEV_bootstrap_ch/static/plugin_wiki/ui/js/jquery-ui-1.8.5.custom.min.js'
p4437
asbasbasbag57
(g73
g59
NtRp4438
(dp4439
g62
(dp4440
sg71
g4408
sg64
(lp4441
g57
(g78
g59
NtRp4442
(dp4443
g62
(dp4444
sg71
g4438
sg64
(lp4445
g57
(g58
g59
NtRp4446
(dp4447
g62
(dp4448
g70
I4
ssg71
g4442
sg64
(lp4449
S'/DEV_bootstrap_ch/static/plugin_wiki/jqgrid/ui.jqgrid.css'
p4450
asbasbasbag57
(g73
g59
NtRp4451
(dp4452
g62
(dp4453
sg71
g4408
sg64
(lp4454
g57
(g78
g59
NtRp4455
(dp4456
g62
(dp4457
sg71
g4451
sg64
(lp4458
g57
(g58
g59
NtRp4459
(dp4460
g62
(dp4461
g70
I4
ssg71
g4455
sg64
(lp4462
S'/DEV_bootstrap_ch/static/plugin_wiki/jqgrid/i18n/grid.locale-en.js'
p4463
asbasbasbag57
(g73
g59
NtRp4464
(dp4465
g62
(dp4466
sg71
g4408
sg64
(lp4467
g57
(g78
g59
NtRp4468
(dp4469
g62
(dp4470
sg71
g4464
sg64
(lp4471
g57
(g58
g59
NtRp4472
(dp4473
g62
(dp4474
g70
I4
ssg71
g4468
sg64
(lp4475
S'/DEV_bootstrap_ch/static/plugin_wiki/jqgrid/jquery.jqGrid.min.js'
p4476
asbasbasbag57
(g73
g59
NtRp4477
(dp4478
g62
(dp4479
sg71
g4408
sg64
(lp4480
g57
(g78
g59
NtRp4481
(dp4482
g62
(dp4483
sg71
g4477
sg64
(lp4484
g57
(g58
g59
NtRp4485
(dp4486
g62
(dp4487
g70
I4
ssg71
g4481
sg64
(lp4488
S'/DEV_bootstrap_ch/static/plugin_wiki/slideshow/jquery.cycle.min.js'
p4489
asbasbasbag57
(g73
g59
NtRp4490
(dp4491
g62
(dp4492
sg71
g4408
sg64
(lp4493
g57
(g78
g59
NtRp4494
(dp4495
g62
(dp4496
sg71
g4490
sg64
(lp4497
g57
(g58
g59
NtRp4498
(dp4499
g62
(dp4500
g70
I4
ssg71
g4494
sg64
(lp4501
S'/DEV_bootstrap_ch/static/plugin_wiki/multiselect/jquery.multiselect.css'
p4502
asbasbasbag57
(g73
g59
NtRp4503
(dp4504
g62
(dp4505
sg71
g4408
sg64
(lp4506
g57
(g78
g59
NtRp4507
(dp4508
g62
(dp4509
sg71
g4503
sg64
(lp4510
g57
(g58
g59
NtRp4511
(dp4512
g62
(dp4513
g70
I4
ssg71
g4507
sg64
(lp4514
S'/DEV_bootstrap_ch/static/plugin_wiki/multiselect/jquery.multiselect.js'
p4515
asbasbasbag57
(g73
g59
NtRp4516
(dp4517
g62
(dp4518
sg71
g4408
sg64
(lp4519
g57
(g78
g59
NtRp4520
(dp4521
g62
(dp4522
sg71
g4516
sg64
(lp4523
g57
(g58
g59
NtRp4524
(dp4525
g62
(dp4526
g70
I4
ssg71
g4520
sg64
(lp4527
S'/DEV_bootstrap_ch/static/plugin_wiki/rating/jquery.rating.css'
p4528
asbasbasbag57
(g73
g59
NtRp4529
(dp4530
g62
(dp4531
sg71
g4408
sg64
(lp4532
g57
(g78
g59
NtRp4533
(dp4534
g62
(dp4535
sg71
g4529
sg64
(lp4536
g57
(g58
g59
NtRp4537
(dp4538
g62
(dp4539
g70
I4
ssg71
g4533
sg64
(lp4540
S'/DEV_bootstrap_ch/static/plugin_wiki/rating/jquery.rating.js'
p4541
asbasbasbasbasbasbasbag57
(g73
g59
NtRp4542
(dp4543
g62
(dp4544
sg71
g4101
sg64
(lp4545
g57
(g78
g59
NtRp4546
(dp4547
g62
(dp4548
g82
g83
ssg71
g4542
sg64
(lp4549
S'flash'
p4550
asbag57
(g78
g59
NtRp4551
(dp4552
g62
(dp4553
g89
g90
ssg71
g4542
sg64
(lp4554
S':'
asbag57
(g78
g59
NtRp4555
(dp4556
g62
(dp4557
sg71
g4542
sg64
(lp4558
g57
(g58
g59
NtRp4559
(dp4560
g62
(dp4561
g70
I5
ssg71
g4555
sg64
(lp4562
S''
asbasbasbag57
(g73
g59
NtRp4563
(dp4564
g62
(dp4565
sg71
g4101
sg64
(lp4566
g57
(g78
g59
NtRp4567
(dp4568
g62
(dp4569
g82
g83
ssg71
g4563
sg64
(lp4570
S'generic_patterns'
p4571
asbag57
(g78
g59
NtRp4572
(dp4573
g62
(dp4574
g89
g90
ssg71
g4563
sg64
(lp4575
S':'
asbag57
(g78
g59
NtRp4576
(dp4577
g62
(dp4578
sg71
g4563
sg64
(lp4579
g57
(g58
g59
NtRp4580
(dp4581
g62
(dp4582
g70
I5
ssg71
g4576
sg64
(lp4583
g57
(g66
g59
NtRp4584
(dp4585
g62
(dp4586
g70
I4
ssg71
Nsg64
(lp4587
g57
(g73
g59
NtRp4588
(dp4589
g62
(dp4590
sg71
g4584
sg64
(lp4591
g57
(g78
g59
NtRp4592
(dp4593
g62
(dp4594
sg71
g4588
sg64
(lp4595
g57
(g58
g59
NtRp4596
(dp4597
g62
(dp4598
g70
I4
ssg71
g4592
sg64
(lp4599
S'*'
asbasbasbasbasbasbasbag57
(g73
g59
NtRp4600
(dp4601
g62
(dp4602
sg71
g4101
sg64
(lp4603
g57
(g78
g59
NtRp4604
(dp4605
g62
(dp4606
g82
g83
ssg71
g4600
sg64
(lp4607
S'google_analytics_id'
p4608
asbag57
(g78
g59
NtRp4609
(dp4610
g62
(dp4611
g89
g90
ssg71
g4600
sg64
(lp4612
S':'
asbag57
(g78
g59
NtRp4613
(dp4614
g62
(dp4615
sg71
g4600
sg64
(lp4616
g57
(g58
g59
NtRp4617
(dp4618
g62
(dp4619
g70
I5
ssg71
g4613
sg64
(lp4620
S'None'
p4621
asbasbasbag57
(g73
g59
NtRp4622
(dp4623
g62
(dp4624
sg71
g4101
sg64
(lp4625
g57
(g78
g59
NtRp4626
(dp4627
g62
(dp4628
g82
g83
ssg71
g4622
sg64
(lp4629
S'headers'
p4630
asbag57
(g78
g59
NtRp4631
(dp4632
g62
(dp4633
g89
g90
ssg71
g4622
sg64
(lp4634
S':'
asbag57
(g78
g59
NtRp4635
(dp4636
g62
(dp4637
sg71
g4622
sg64
(lp4638
g57
(g58
g59
NtRp4639
(dp4640
g62
(dp4641
g70
I5
ssg71
g4635
sg64
(lp4642
g57
(g66
g59
NtRp4643
(dp4644
g62
(dp4645
g70
I4
ssg71
Nsg64
(lp4646
g57
(g73
g59
NtRp4647
(dp4648
g62
(dp4649
sg71
g4643
sg64
(lp4650
g57
(g78
g59
NtRp4651
(dp4652
g62
(dp4653
g82
g83
ssg71
g4647
sg64
(lp4654
S'X-Powered-By'
p4655
asbag57
(g78
g59
NtRp4656
(dp4657
g62
(dp4658
g89
g90
ssg71
g4647
sg64
(lp4659
S':'
asbag57
(g78
g59
NtRp4660
(dp4661
g62
(dp4662
sg71
g4647
sg64
(lp4663
g57
(g58
g59
NtRp4664
(dp4665
g62
(dp4666
g70
I4
ssg71
g4660
sg64
(lp4667
S'web2py'
p4668
asbasbasbasbasbasbasbag57
(g73
g59
NtRp4669
(dp4670
g62
(dp4671
sg71
g4101
sg64
(lp4672
g57
(g78
g59
NtRp4673
(dp4674
g62
(dp4675
g82
g83
ssg71
g4669
sg64
(lp4676
S'menu'
p4677
asbag57
(g78
g59
NtRp4678
(dp4679
g62
(dp4680
g89
g90
ssg71
g4669
sg64
(lp4681
S':'
asbag57
(g78
g59
NtRp4682
(dp4683
g62
(dp4684
sg71
g4669
sg64
(lp4685
g57
(g58
g59
NtRp4686
(dp4687
g62
(dp4688
g70
I5
ssg71
g4682
sg64
(lp4689
g57
(g66
g59
NtRp4690
(dp4691
g62
(dp4692
g70
I4
ssg71
Nsg64
(lp4693
g57
(g73
g59
NtRp4694
(dp4695
g62
(dp4696
sg71
g4690
sg64
(lp4697
g57
(g78
g59
NtRp4698
(dp4699
g62
(dp4700
sg71
g4694
sg64
(lp4701
g57
(g58
g59
NtRp4702
(dp4703
g62
(dp4704
g70
I4
ssg71
g4698
sg64
(lp4705
g57
(g66
g59
NtRp4706
(dp4707
g62
(dp4708
g70
I3
ssg71
Nsg64
(lp4709
g57
(g73
g59
NtRp4710
(dp4711
g62
(dp4712
sg71
g4706
sg64
(lp4713
g57
(g78
g59
NtRp4714
(dp4715
g62
(dp4716
sg71
g4710
sg64
(lp4717
g57
(g58
g59
NtRp4718
(dp4719
g62
(dp4720
g70
I3
ssg71
g4714
sg64
(lp4721
cgluon.languages
lazyT_unpickle
p4722
(S't\x04\x00\x00\x00Home'
tRp4723
asbasbasbag57
(g73
g59
NtRp4724
(dp4725
g62
(dp4726
sg71
g4706
sg64
(lp4727
g57
(g78
g59
NtRp4728
(dp4729
g62
(dp4730
sg71
g4724
sg64
(lp4731
g57
(g58
g59
NtRp4732
(dp4733
g62
(dp4734
g70
I3
ssg71
g4728
sg64
(lp4735
g100
asbasbasbag57
(g73
g59
NtRp4736
(dp4737
g62
(dp4738
sg71
g4706
sg64
(lp4739
g57
(g78
g59
NtRp4740
(dp4741
g62
(dp4742
sg71
g4736
sg64
(lp4743
g57
(g58
g59
NtRp4744
(dp4745
g62
(dp4746
g70
I3
ssg71
g4740
sg64
(lp4747
S'/DEV_bootstrap_ch/default/list_all_projects'
p4748
asbasbasbag57
(g73
g59
NtRp4749
(dp4750
g62
(dp4751
sg71
g4706
sg64
(lp4752
g57
(g78
g59
NtRp4753
(dp4754
g62
(dp4755
sg71
g4749
sg64
(lp4756
g57
(g58
g59
NtRp4757
(dp4758
g62
(dp4759
g70
I3
ssg71
g4753
sg64
(lp4760
g57
(g66
g59
NtRp4761
(dp4762
g62
(dp4763
g70
I2
ssg71
Nsg64
(lp4764
sbasbasbasbasbasbasbasbasbasbasbasbag57
(g73
g59
NtRp4765
(dp4766
g62
(dp4767
sg71
g4101
sg64
(lp4768
g57
(g78
g59
NtRp4769
(dp4770
g62
(dp4771
g82
g83
ssg71
g4765
sg64
(lp4772
S'meta'
p4773
asbag57
(g78
g59
NtRp4774
(dp4775
g62
(dp4776
g89
g90
ssg71
g4765
sg64
(lp4777
S':'
asbag57
(g78
g59
NtRp4778
(dp4779
g62
(dp4780
sg71
g4765
sg64
(lp4781
g57
(g58
g59
NtRp4782
(dp4783
g62
(dp4784
g70
I5
ssg71
g4778
sg64
(lp4785
g57
(g66
g59
NtRp4786
(dp4787
g62
(dp4788
g70
I4
ssg71
Nsg64
(lp4789
g57
(g73
g59
NtRp4790
(dp4791
g62
(dp4792
sg71
g4786
sg64
(lp4793
g57
(g78
g59
NtRp4794
(dp4795
g62
(dp4796
g82
g83
ssg71
g4790
sg64
(lp4797
S'author'
p4798
asbag57
(g78
g59
NtRp4799
(dp4800
g62
(dp4801
g89
g90
ssg71
g4790
sg64
(lp4802
S':'
asbag57
(g78
g59
NtRp4803
(dp4804
g62
(dp4805
sg71
g4790
sg64
(lp4806
g57
(g58
g59
NtRp4807
(dp4808
g62
(dp4809
g70
I4
ssg71
g4803
sg64
(lp4810
S'Vikram Pudi <vikram@iiit.ac.in>'
p4811
asbasbasbag57
(g73
g59
NtRp4812
(dp4813
g62
(dp4814
sg71
g4786
sg64
(lp4815
g57
(g78
g59
NtRp4816
(dp4817
g62
(dp4818
g82
g83
ssg71
g4812
sg64
(lp4819
S'copyright'
p4820
asbag57
(g78
g59
NtRp4821
(dp4822
g62
(dp4823
g89
g90
ssg71
g4812
sg64
(lp4824
S':'
asbag57
(g78
g59
NtRp4825
(dp4826
g62
(dp4827
sg71
g4812
sg64
(lp4828
g57
(g58
g59
NtRp4829
(dp4830
g62
(dp4831
g70
I4
ssg71
g4825
sg64
(lp4832
S'Copyright 2011'
p4833
asbasbasbag57
(g73
g59
NtRp4834
(dp4835
g62
(dp4836
sg71
g4786
sg64
(lp4837
g57
(g78
g59
NtRp4838
(dp4839
g62
(dp4840
g82
g83
ssg71
g4834
sg64
(lp4841
S'description'
p4842
asbag57
(g78
g59
NtRp4843
(dp4844
g62
(dp4845
g89
g90
ssg71
g4834
sg64
(lp4846
S':'
asbag57
(g78
g59
NtRp4847
(dp4848
g62
(dp4849
sg71
g4834
sg64
(lp4850
g57
(g58
g59
NtRp4851
(dp4852
g62
(dp4853
g70
I4
ssg71
g4847
sg64
(lp4854
S'Computational Core for Plant Metabolomics -- A project sanctioned by DBT, Govt. of India'
p4855
asbasbasbag57
(g73
g59
NtRp4856
(dp4857
g62
(dp4858
sg71
g4786
sg64
(lp4859
g57
(g78
g59
NtRp4860
(dp4861
g62
(dp4862
g82
g83
ssg71
g4856
sg64
(lp4863
S'generator'
p4864
asbag57
(g78
g59
NtRp4865
(dp4866
g62
(dp4867
g89
g90
ssg71
g4856
sg64
(lp4868
S':'
asbag57
(g78
g59
NtRp4869
(dp4870
g62
(dp4871
sg71
g4856
sg64
(lp4872
g57
(g58
g59
NtRp4873
(dp4874
g62
(dp4875
g70
I4
ssg71
g4869
sg64
(lp4876
S'Web2py Web Framework'
p4877
asbasbasbag57
(g73
g59
NtRp4878
(dp4879
g62
(dp4880
sg71
g4786
sg64
(lp4881
g57
(g78
g59
NtRp4882
(dp4883
g62
(dp4884
g82
g83
ssg71
g4878
sg64
(lp4885
S'keywords'
p4886
asbag57
(g78
g59
NtRp4887
(dp4888
g62
(dp4889
g89
g90
ssg71
g4878
sg64
(lp4890
S':'
asbag57
(g78
g59
NtRp4891
(dp4892
g62
(dp4893
sg71
g4878
sg64
(lp4894
g57
(g58
g59
NtRp4895
(dp4896
g62
(dp4897
g70
I4
ssg71
g4891
sg64
(lp4898
S'web2py, python, metabolome, metabolomics'
p4899
asbasbasbasbasbasbasbag57
(g73
g59
NtRp4900
(dp4901
g62
(dp4902
sg71
g4101
sg64
(lp4903
g57
(g78
g59
NtRp4904
(dp4905
g62
(dp4906
g82
g83
ssg71
g4900
sg64
(lp4907
S'models_to_run'
p4908
asbag57
(g78
g59
NtRp4909
(dp4910
g62
(dp4911
g89
g90
ssg71
g4900
sg64
(lp4912
S':'
asbag57
(g78
g59
NtRp4913
(dp4914
g62
(dp4915
sg71
g4900
sg64
(lp4916
g57
(g58
g59
NtRp4917
(dp4918
g62
(dp4919
g70
I5
ssg71
g4913
sg64
(lp4920
g57
(g66
g59
NtRp4921
(dp4922
g62
(dp4923
g70
I4
ssg71
Nsg64
(lp4924
g57
(g73
g59
NtRp4925
(dp4926
g62
(dp4927
sg71
g4921
sg64
(lp4928
g57
(g78
g59
NtRp4929
(dp4930
g62
(dp4931
sg71
g4925
sg64
(lp4932
g57
(g58
g59
NtRp4933
(dp4934
g62
(dp4935
g70
I4
ssg71
g4929
sg64
(lp4936
S'^\\w+\\.py$'
p4937
asbasbasbag57
(g73
g59
NtRp4938
(dp4939
g62
(dp4940
sg71
g4921
sg64
(lp4941
g57
(g78
g59
NtRp4942
(dp4943
g62
(dp4944
sg71
g4938
sg64
(lp4945
g57
(g58
g59
NtRp4946
(dp4947
g62
(dp4948
g70
I4
ssg71
g4942
sg64
(lp4949
S'^default/\\w+\\.py$'
p4950
asbasbasbag57
(g73
g59
NtRp4951
(dp4952
g62
(dp4953
sg71
g4921
sg64
(lp4954
g57
(g78
g59
NtRp4955
(dp4956
g62
(dp4957
sg71
g4951
sg64
(lp4958
g57
(g58
g59
NtRp4959
(dp4960
g62
(dp4961
g70
I4
ssg71
g4955
sg64
(lp4962
S'^default/list_all_dev_projects/\\w+\\.py$'
p4963
asbasbasbasbasbasbasbag57
(g73
g59
NtRp4964
(dp4965
g62
(dp4966
sg71
g4101
sg64
(lp4967
g57
(g78
g59
NtRp4968
(dp4969
g62
(dp4970
g82
g83
ssg71
g4964
sg64
(lp4971
S'postprocessing'
p4972
asbag57
(g78
g59
NtRp4973
(dp4974
g62
(dp4975
g89
g90
ssg71
g4964
sg64
(lp4976
S':'
asbag57
(g78
g59
NtRp4977
(dp4978
g62
(dp4979
sg71
g4964
sg64
(lp4980
g57
(g58
g59
NtRp4981
(dp4982
g62
(dp4983
g70
I5
ssg71
g4977
sg64
(lp4984
g57
(g66
g59
NtRp4985
(dp4986
g62
(dp4987
g70
I4
ssg71
Nsg64
(lp4988
sbasbasbasbag57
(g73
g59
NtRp4989
(dp4990
g62
(dp4991
sg71
g4101
sg64
(lp4992
g57
(g78
g59
NtRp4993
(dp4994
g62
(dp4995
g82
g83
ssg71
g4989
sg64
(lp4996
S'session_cookie_expires'
p4997
asbag57
(g78
g59
NtRp4998
(dp4999
g62
(dp5000
g89
g90
ssg71
g4989
sg64
(lp5001
S':'
asbag57
(g78
g59
NtRp5002
(dp5003
g62
(dp5004
sg71
g4989
sg64
(lp5005
g57
(g58
g59
NtRp5006
(dp5007
g62
(dp5008
g70
I5
ssg71
g5002
sg64
(lp5009
S'None'
p5010
asbasbasbag57
(g73
g59
NtRp5011
(dp5012
g62
(dp5013
sg71
g4101
sg64
(lp5014
g57
(g78
g59
NtRp5015
(dp5016
g62
(dp5017
g82
g83
ssg71
g5011
sg64
(lp5018
S'session_data_name'
p5019
asbag57
(g78
g59
NtRp5020
(dp5021
g62
(dp5022
g89
g90
ssg71
g5011
sg64
(lp5023
S':'
asbag57
(g78
g59
NtRp5024
(dp5025
g62
(dp5026
sg71
g5011
sg64
(lp5027
g57
(g58
g59
NtRp5028
(dp5029
g62
(dp5030
g70
I5
ssg71
g5024
sg64
(lp5031
S'session_data_dev_bootstrap_ch'
p5032
asbasbasbag57
(g73
g59
NtRp5033
(dp5034
g62
(dp5035
sg71
g4101
sg64
(lp5036
g57
(g78
g59
NtRp5037
(dp5038
g62
(dp5039
g82
g83
ssg71
g5033
sg64
(lp5040
S'session_file'
p5041
asbag57
(g78
g59
NtRp5042
(dp5043
g62
(dp5044
g89
g90
ssg71
g5033
sg64
(lp5045
S':'
asbag57
(g78
g59
NtRp5046
(dp5047
g62
(dp5048
sg71
g5033
sg64
(lp5049
g57
(g58
g59
NtRp5050
(dp5051
g62
(dp5052
g70
I5
ssg71
g5046
sg64
(lp5053
S"<open file '/home/anil/bootstrap/web2py/applications/DEV_bootstrap_ch/sessions/127.0.0.1-270b038b-df00-4d5c-949a-e87692880510', mode 'rb+' at 0x8df8128>"
p5054
asbasbasbag57
(g73
g59
NtRp5055
(dp5056
g62
(dp5057
sg71
g4101
sg64
(lp5058
g57
(g78
g59
NtRp5059
(dp5060
g62
(dp5061
g82
g83
ssg71
g5055
sg64
(lp5062
S'session_filename'
p5063
asbag57
(g78
g59
NtRp5064
(dp5065
g62
(dp5066
g89
g90
ssg71
g5055
sg64
(lp5067
S':'
asbag57
(g78
g59
NtRp5068
(dp5069
g62
(dp5070
sg71
g5055
sg64
(lp5071
g57
(g58
g59
NtRp5072
(dp5073
g62
(dp5074
g70
I5
ssg71
g5068
sg64
(lp5075
S'/home/anil/bootstrap/web2py/applications/DEV_bootstrap_ch/sessions/127.0.0.1-270b038b-df00-4d5c-949a-e87692880510'
p5076
asbasbasbag57
(g73
g59
NtRp5077
(dp5078
g62
(dp5079
sg71
g4101
sg64
(lp5080
g57
(g78
g59
NtRp5081
(dp5082
g62
(dp5083
g82
g83
ssg71
g5077
sg64
(lp5084
S'session_id'
p5085
asbag57
(g78
g59
NtRp5086
(dp5087
g62
(dp5088
g89
g90
ssg71
g5077
sg64
(lp5089
S':'
asbag57
(g78
g59
NtRp5090
(dp5091
g62
(dp5092
sg71
g5077
sg64
(lp5093
g57
(g58
g59
NtRp5094
(dp5095
g62
(dp5096
g70
I5
ssg71
g5090
sg64
(lp5097
g724
asbasbasbag57
(g73
g59
NtRp5098
(dp5099
g62
(dp5100
sg71
g4101
sg64
(lp5101
g57
(g78
g59
NtRp5102
(dp5103
g62
(dp5104
g82
g83
ssg71
g5098
sg64
(lp5105
S'session_id_name'
p5106
asbag57
(g78
g59
NtRp5107
(dp5108
g62
(dp5109
g89
g90
ssg71
g5098
sg64
(lp5110
S':'
asbag57
(g78
g59
NtRp5111
(dp5112
g62
(dp5113
sg71
g5098
sg64
(lp5114
g57
(g58
g59
NtRp5115
(dp5116
g62
(dp5117
g70
I5
ssg71
g5111
sg64
(lp5118
g4158
asbasbasbag57
(g73
g59
NtRp5119
(dp5120
g62
(dp5121
sg71
g4101
sg64
(lp5122
g57
(g78
g59
NtRp5123
(dp5124
g62
(dp5125
g82
g83
ssg71
g5119
sg64
(lp5126
S'session_locked'
p5127
asbag57
(g78
g59
NtRp5128
(dp5129
g62
(dp5130
g89
g90
ssg71
g5119
sg64
(lp5131
S':'
asbag57
(g78
g59
NtRp5132
(dp5133
g62
(dp5134
sg71
g5119
sg64
(lp5135
g57
(g58
g59
NtRp5136
(dp5137
g62
(dp5138
g70
I5
ssg71
g5132
sg64
(lp5139
g1788
asbasbasbag57
(g73
g59
NtRp5140
(dp5141
g62
(dp5142
sg71
g4101
sg64
(lp5143
g57
(g78
g59
NtRp5144
(dp5145
g62
(dp5146
g82
g83
ssg71
g5140
sg64
(lp5147
S'session_new'
p5148
asbag57
(g78
g59
NtRp5149
(dp5150
g62
(dp5151
g89
g90
ssg71
g5140
sg64
(lp5152
S':'
asbag57
(g78
g59
NtRp5153
(dp5154
g62
(dp5155
sg71
g5140
sg64
(lp5156
g57
(g58
g59
NtRp5157
(dp5158
g62
(dp5159
g70
I5
ssg71
g5153
sg64
(lp5160
g100
asbasbasbag57
(g73
g59
NtRp5161
(dp5162
g62
(dp5163
sg71
g4101
sg64
(lp5164
g57
(g78
g59
NtRp5165
(dp5166
g62
(dp5167
g82
g83
ssg71
g5161
sg64
(lp5168
S'session_storage_type'
p5169
asbag57
(g78
g59
NtRp5170
(dp5171
g62
(dp5172
g89
g90
ssg71
g5161
sg64
(lp5173
S':'
asbag57
(g78
g59
NtRp5174
(dp5175
g62
(dp5176
sg71
g5161
sg64
(lp5177
g57
(g58
g59
NtRp5178
(dp5179
g62
(dp5180
g70
I5
ssg71
g5174
sg64
(lp5181
g3293
asbasbasbag57
(g73
g59
NtRp5182
(dp5183
g62
(dp5184
sg71
g4101
sg64
(lp5185
g57
(g78
g59
NtRp5186
(dp5187
g62
(dp5188
g82
g83
ssg71
g5182
sg64
(lp5189
S'status'
p5190
asbag57
(g78
g59
NtRp5191
(dp5192
g62
(dp5193
g89
g90
ssg71
g5182
sg64
(lp5194
S':'
asbag57
(g78
g59
NtRp5195
(dp5196
g62
(dp5197
sg71
g5182
sg64
(lp5198
g57
(g58
g59
NtRp5199
(dp5200
g62
(dp5201
g70
I5
ssg71
g5195
sg64
(lp5202
S'200'
p5203
asbasbasbag57
(g73
g59
NtRp5204
(dp5205
g62
(dp5206
sg71
g4101
sg64
(lp5207
g57
(g78
g59
NtRp5208
(dp5209
g62
(dp5210
g82
g83
ssg71
g5204
sg64
(lp5211
S'subtitle'
p5212
asbag57
(g78
g59
NtRp5213
(dp5214
g62
(dp5215
g89
g90
ssg71
g5204
sg64
(lp5216
S':'
asbag57
(g78
g59
NtRp5217
(dp5218
g62
(dp5219
sg71
g5204
sg64
(lp5220
g57
(g58
g59
NtRp5221
(dp5222
g62
(dp5223
g70
I5
ssg71
g5217
sg64
(lp5224
g4722
(S's)\x00\x00\x00Computational Core for Plant Metabolomics'
tRp5225
asbasbasbag57
(g73
g59
NtRp5226
(dp5227
g62
(dp5228
sg71
g4101
sg64
(lp5229
g57
(g78
g59
NtRp5230
(dp5231
g62
(dp5232
g82
g83
ssg71
g5226
sg64
(lp5233
g3967
asbag57
(g78
g59
NtRp5234
(dp5235
g62
(dp5236
g89
g90
ssg71
g5226
sg64
(lp5237
S':'
asbag57
(g78
g59
NtRp5238
(dp5239
g62
(dp5240
sg71
g5226
sg64
(lp5241
g57
(g58
g59
NtRp5242
(dp5243
g62
(dp5244
g70
I5
ssg71
g5238
sg64
(lp5245
g122
asbasbasbag57
(g73
g59
NtRp5246
(dp5247
g62
(dp5248
sg71
g4101
sg64
(lp5249
g57
(g78
g59
NtRp5250
(dp5251
g62
(dp5252
g82
g83
ssg71
g5246
sg64
(lp5253
S'view'
p5254
asbag57
(g78
g59
NtRp5255
(dp5256
g62
(dp5257
g89
g90
ssg71
g5246
sg64
(lp5258
S':'
asbag57
(g78
g59
NtRp5259
(dp5260
g62
(dp5261
sg71
g5246
sg64
(lp5262
g57
(g58
g59
NtRp5263
(dp5264
g62
(dp5265
g70
I5
ssg71
g5259
sg64
(lp5266
S'default/list_all_dev_projects.html'
p5267
asbasbasbasbasbsS'locals'
p5268
(dp5269
S'id_field_name'
p5270
S"'id'"
p5271
sg2521
S'<function url>'
p5272
sS'nargs'
p5273
S'5'
sS't'
S"<lazyT 'Biosource'>"
p5274
sS'args0'
p5275
S"'biosource.sample_name'"
p5276
sS'getcount'
p5277
S'<function getcount>'
p5278
sS'tb'
p5279
S'<Table treatments (id,sample_name,treament_bioti...,treatment_description,treatment_before_harvest)>'
p5280
sS'row'
p5281
S"<Row {'publication_status': False, 'code': '32', 'replica': 'replicate', 'name': '12', 'id': 2}>"
p5282
sssS'traceback'
p5283
S'Traceback (most recent call last):\n  File "/home/anil/bootstrap/web2py/gluon/restricted.py", line 212, in restricted\n    exec ccode in environment\n  File "/home/anil/bootstrap/web2py/applications/DEV_bootstrap_ch/controllers/default.py", line 1126, in <module>\n  File "/home/anil/bootstrap/web2py/gluon/globals.py", line 193, in <lambda>\n    self._caller = lambda f: f()\n  File "/home/anil/bootstrap/web2py/applications/DEV_bootstrap_ch/controllers/default.py", line 323, in list_all_dev_projects\n    grid = SQLFORM.smartgrid(db.project,ck,fields=fi,editable=edit_dict,create=create_dict,deletable=delete_dict,links=links,linked_tables=[\'experiment\',\'sample\',\'biosource\',\'plant_growth_condition\',\'treatments\',\'harvests\',\'extraction_preparation\',\'gas_chromatography\',\'liquid_chromatography\',\'mass_spectroscopy\',\'spectrophotometry\',\'raw_data_storage_information\'],selectable = s)\n  File "/home/anil/bootstrap/web2py/gluon/sqlhtml.py", line 2491, in smartgrid\n    user_signature=user_signature, **kwargs)\n  File "/home/anil/bootstrap/web2py/gluon/sqlhtml.py", line 2258, in grid\n    if link(row):\n  File "/home/anil/bootstrap/web2py/gluon/sqlhtml.py", line 2486, in <lambda>\n    A(SPAN(t+ getcount(row,field_name,tb) ), _class=trap_class(), _href=url(\nNameError: global name \'field_name\' is not defined\n'
p5284
s.