(dp1
S'output'
p2
S"<type 'exceptions.SyntaxError'> invalid syntax (list_all_projects.html, line 102)"
p3
sS'layer'
p4
S'/home/anil/bootstrap/web2py/applications/DEV_bootstrap_ch/views/default/list_all_projects.html'
p5
sS'code'
p6
S'response.write(\'<!DOCTYPE html>\\n<html lang="\', escape=False)\nresponse.write(T.accepted_language or \'en\')\nresponse.write(\'" class="no-js"><!-- no-js need it for modernzr -->\\n  <head>\\n    \\n    <meta charset="utf-8" />        \\n    <!-- www.phpied.com/conditional-comments-block-downloads/ -->\\n    <!--[if IE]>\\n      <!-- Always force latest IE rendering engine \\n       (even in intranet) & Chrome Frame \\n       Remove this if you use the .htaccess -->\\n      <meta http-equiv="X-UA-Compatible" content="IE=edge,chrome=1">\\n    <![endif]-->    \\n\\n    <title>\', escape=False)\nresponse.write(response.title or request.application)\nresponse.write(\'</title>\\n    \\n    <!-- http://dev.w3.org/html5/markup/meta.name.html -->\\n    <meta name="application-name" content="\', escape=False)\nresponse.write(request.application)\nresponse.write(\'" /> \\n    \\n    <!-- Speaking of Google, don\\\'t forget to set your site up: \\n     http://google.com/webmasters -->\\n    <meta name="google-site-verification" content="" />\\n    \\n    <!--  Mobile Viewport Fix\\n      j.mp/mobileviewport & davidbcalhoun.com/2010/viewport-metatag \\n      device-width: Occupy full width of the screen in its current orientation\\n      initial-scale = 1.0 retains dimensions instead of zooming out if page height > device height\\n      maximum-scale = 1.0 retains dimensions instead of zooming in if page width < device width\\n      -->\\n    <meta name="viewport" content="width=device-width, initial-scale=1.0, maximum-scale=1.0">\\n    \\n    <!-- Place favicon.ico and apple-touch-icon.png in the root of your domain and delete these references -->\\n    <link rel="shortcut icon" href="\', escape=False)\nresponse.write(URL(\'static\',\'favicon.ico\'))\nresponse.write(\'" type="image/x-icon">\\n    <link rel="apple-touch-icon" href="\', escape=False)\nresponse.write(URL(\'static\',\'favicon.png\'))\nresponse.write(\'">\\n\\n    <!-- For the less-enabled mobile browsers like Opera Mini -->\\n    <link rel="stylesheet" media="handheld" href="\', escape=False)\nresponse.write(URL(\'static\',\'css/handheld.css\'))\nresponse.write(\'">\\n    \\n    <!-- All JavaScript at the bottom, except for Modernizr which enables HTML5 elements & feature detects -->\\n    <script src="\', escape=False)\nresponse.write(URL(\'static\',\'js/modernizr-1.7.min.js\'))\nresponse.write(\'"></script>\\n    \\n    \', escape=False)\n#------  require CSS and JS files for this page (read info in base.css) ------\nresponse.write(\'\\n    \', escape=False)\nresponse.files.append(URL(\'static\',\'css/base.css\'))\nresponse.write(\'\\n    \', escape=False)\nresponse.files.append(URL(\'static\',\'css/superfish.css\'))\nresponse.write(\'\\n    \', escape=False)\nresponse.files.append(URL(\'static\',\'js/superfish.js\'))\nresponse.write(\'\\n    \', escape=False)\n#------ include web2py specific js code (jquery, calendar, form stuff) ------\nresponse.write(\'\\n    \', escape=False)\nresponse.write(\'<script type="text/javascript"><!--\\n    // These variables are used by the web2py_ajax_init function in web2py_ajax.js (which is loaded below).\\n    var w2p_ajax_confirm_message = "\', escape=False)\nresponse.write(T(\'Are you sure you want to delete this object?\'))\nresponse.write(\'";\\n    var w2p_ajax_date_format = "\', escape=False)\nresponse.write(T(\'%d-%m-%Y\'))\nresponse.write(\'";\\n    var w2p_ajax_datetime_format = "\', escape=False)\nresponse.write(T(\'%d-%m-%Y %H:%M:%S\'))\nresponse.write(\'";\\n    //--></script>\\n\', escape=False)\nresponse.files.insert(0,URL(\'static\',\'js/jquery.js\'))\nresponse.files.insert(1,URL(\'static\',\'css/calendar.css\'))\nresponse.files.insert(2,URL(\'static\',\'js/calendar.js\'))\nresponse.files.insert(3,URL(\'static\',\'js/web2py.js\'))\nresponse.include_meta()\nresponse.include_files()\nresponse.write(\'\\n\', escape=False)\nresponse.write(\'\\n\\n    \', escape=False)\n#using sidebars need to know what sidebar you want to use\n#prior of using it, because of static width size of content, you can use\n#left_sidebar, right_sidebar, both or none (False left and right)\nleft_sidebar_enabled = globals().get(\'left_sidebar_enabled\',False)\nright_sidebar_enabled = globals().get(\'right_sidebar_enabled\',False)\nif left_sidebar_enabled and right_sidebar_enabled: width_content=\'63%\'\nelif left_sidebar_enabled != right_sidebar_enabled: width_content=\'740px\'\nelse: width_content=\'100%\'\nif left_sidebar_enabled: left_sidebar_style = \'style="display: block;"\'\nelse: left_sidebar_style = \'style="display: none;"\'\nif right_sidebar_enabled: right_sidebar_style = \'style="display: block;"\'\nelse: right_sidebar_style = \'style="display: none;"\'\nstyle_content = \'style="width: %s"\' % width_content\nresponse.write(\'\\n    \\n    <!-- uncomment here to load jquery-ui\\n    \\n    <link rel="stylesheet" href="http://ajax.googleapis.com/ajax/libs/jqueryui/1.8.16/themes/base/jquery-ui.css" type="text/css" media="all" />\\n    <script src="http://ajax.googleapis.com/ajax/libs/jqueryui/1.8.16/jquery-ui.min.js" type="text/javascript"></script>\\n    \\n    uncomment to load jquery-ui -->\\n    \\n  <!--script type="text/javascript"\\n   src="http://cdn.mathjax.org/mathjax/latest/MathJax.js?config=TeX-AMS-MML_HTMLorMML"></script-->\\n    \\n  </head>\\n  \\n  <!-- paulirish.com/2008/conditional-stylesheets-vs-css-hacks-answer-neither/ -->  \\n  <!--[if lt IE 7 ]> <body class="ie6"> <![endif]-->\\n  <!--[if IE 7 ]>    <body class="ie7"> <![endif]-->\\n  <!--[if IE 8 ]>    <body class="ie8"> <![endif]-->\\n  <!--[if IE 9 ]>    <body class="ie9"> <![endif]-->\\n  <!--[if (gt IE 9)|!(IE)]><!--> <body> <!--<![endif]-->\\n    \\n    <div class="flash">\', escape=False)\nresponse.write(response.flash or \'\')\nresponse.write(\'</div> <!-- notification div -->\\n\\n        \\n\\n    <div id="container">                        \\n      \\n      <div id="wrapper">        \\n      \', escape=False)\ntry:\n    response.write(\'\\n         \', escape=False)\n    bar=auth.navbar(action=URL(\'default\',\'user\'))\n    response.write(\'\\n         \', escape=False)\n    response.write(bar)\n    response.write(\'\\n      \', escape=False)\nexcept:pass\nresponse.write(\'\\n    \\n    <div id="header"> <!-- header and login nav -->\\n      \', escape=False)\nresponse.write(\' <!-- this is default header -->\\n      \\n      <h1>\\n        <span id="appname"><!--\', escape=False)\nresponse.write(request.application.capitalize())\nresponse.write(\'-->Computational Core for Plant Metabolomics</span>\\n      </h1>\\n      <div align="right">\\n      </div>\\n      <div style="clear: both;"></div><!-- Clear the divs -->\\n      \', escape=False)\nresponse.write(\'\\n    </div><!-- header  -->\\n    \\n    <div id="statusbar"><!-- statusbar is menu zone -->\\n      \', escape=False)\nresponse.write(\' <!-- this is default statusbar -->\\n      \', escape=False)\n#------ superfish menu ------\nresponse.write(\'\\n      \', escape=False)\nresponse.write(MENU(response.menu,_class=\'sf-menu\'))\nresponse.write(\'\\n      <script type="text/javascript">\\n        jQuery(document).ready(function(){\\n        jQuery(\\\'ul.sf-menu\\\').superfish();});\\n      </script>\\n\\n      <!-- AddToAny BEGIN\\n      <div style="padding: 7px; float:right;" class="a2a_kit a2a_default_style"><a class="a2a_dd" href="http://www.addtoany.com/share_save">Share</a></div><script type="text/javascript" src="http://static.addtoany.com/menu/page.js"></script>\\n      AddToAny END -->\\n\\n      <div style="clear: both;"></div><!-- Clear the divs -->   \\n      \', escape=False)\nresponse.write(\'               \\n    </div><!-- statusbar -->\\n    \\n    <div id="page"> <!-- Here my central body -->     \\n\\n      \', escape=False)\nif left_sidebar_enabled:\n    response.write(\'\\n          <div id="left_sidebar" \', escape=False)\n    response.write(XML(left_sidebar_style))\n    response.write(\' >\\n            <div style="padding: 4px;">\\n          \', escape=False)\n    response.write(\'Content Left Sidebar\', escape=False)\n    response.write(\'       \\n            </div>\\n          </div><!-- left_sidebar -->\\n      \', escape=False)\n    pass\nresponse.write(\'\\n\\n      <!-- content -->\\n      <div id="content" \', escape=False)\nresponse.write(XML(style_content))\nresponse.write(\' >\\n        \', escape=False)\nresponse.write(\'\\n<form class="navbar-form pull-right">\\n\', escape=False)\nresponse.write(form)\nresponse.write(\'\\n<form>\\n\', escape=False)\nif auth.user:\n    response.write(\'\\n\', escape=False)\n    if authenticated==\'\':\n        response.write(\'\\n  \', escape=False)\n        response.write((B(A(\' Add New Project\',_href=URL(\'add_project\')))))\n        response.write(\'\\n\', escape=False)\n        pass\n    response.write(\'\\n\', escape=False)\n    pass\nresponse.write(\'\\n<h4>List of All Published Projects  </h4>\\n\', escape=False)\nresponse.write(pi)\nresponse.write(\'\\n<ol>\\n\', escape=False)\nfor project in pub_projects:\n    response.write(\'\\n  \', escape=False)\n    response.write(LI(B( A(project.project.name,_href=URL(\'project_viewer\',args=project.project.id))),BR(),B("Project Code : "+project.project.code),B(" Coordinator: " A(project.auth_user.first_name,_href=URL(\'user_viewer\',args=project.project.project_coordinator)))))\n    response.write(\'\\n\', escape=False)\n    pass\nresponse.write(\'\\n</ol>\\n\', escape=False)\nif auth.user:\n    response.write(\'\\n<h4>List of All Unpublished Projects </h4>\\n<ol>\\n   \', escape=False)\n    for project in dev_projects:\n        response.write(\'\\n      \', escape=False)\n        response.write(LI(B(A(project.name,_href=URL(\'project_viewer\',args=project.id))),BR(),("Project Code : "+project.code)))\n        response.write(\'\\n   \', escape=False)\n        pass\n    response.write(\'\\n\', escape=False)\n    pass\nresponse.write(\'\\n</ol>\\n\', escape=False)\nresponse.write(\' \\n      </div>\\n      <!-- content -->\\n\\n      \', escape=False)\nif right_sidebar_enabled:\n    response.write(\'\\n          <div id="right_sidebar" \', escape=False)\n    response.write(XML(right_sidebar_style))\n    response.write(\' >\\n            <div style="padding: 4px;">\\n              \', escape=False)\n    response.write(\'Content Right Sidebar\', escape=False)\n    response.write(\'\\n            </div>\\n      </div><!-- right_sidebar -->\\n          \', escape=False)\n    pass\nresponse.write(\'\\n\\n\\n      <div style="clear: both;"></div><!-- Clear the divs -->\\n      \\n    </div><!-- page -->                         \\n    <div id="footer">\\n    </div><!-- footer -->\\n \\n      </div><!-- wrapper -->\\n    </div><!-- container -->        \\n    \\n    <!--[if lt IE 7 ]>\\n    <script src="\', escape=False)\nresponse.write(URL(\'static\',\'js/dd_belatedpng.js\'))\nresponse.write(\'"></script>\\n    <script> DD_belatedPNG.fix(\\\'img, .png_bg\\\'); //fix any <img> or .png_bg background-images </script>\\n    <![endif]-->\\n    \', escape=False)\nif response.google_analytics_id:\n    response.write("<script>/* http://mathiasbynens.be/notes/async-analytics-snippet */ var _gaq=[[\'_setAccount\',\'", escape=False)\n    response.write(response.google_analyitics_id)\n    response.write("\'],[\'_trackPageview\']];(function(d,t){var g=d.createElement(t),s=d.getElementsByTagName(t)[0];g.src=\'//www.google-analytics.com/ga.js\';s.parentNode.insertBefore(g,s)}(document,\'script\')) </script>", escape=False)\n    pass\nresponse.write(\'\\n  </body>\\n</html>\\n\', escape=False)'
p7
sS'snapshot'
p8
(dp9
S'exception'
p10
(dp11
S'__getslice__'
p12
S"<method-wrapper '__getslice__' of exceptions.SyntaxError object>"
p13
sS'text'
p14
S'"    response.write(LI(B( A(project.project.name,...r\',args=project.project.project_coordinator)))))\\n"'
p15
sS'__str__'
p16
S"<method-wrapper '__str__' of exceptions.SyntaxError object>"
p17
sS'__reduce__'
p18
S'<built-in method __reduce__ of exceptions.SyntaxError object>'
p19
sS'__dict__'
p20
S'{}'
p21
sS'__sizeof__'
p22
S'<built-in method __sizeof__ of exceptions.SyntaxError object>'
p23
sS'__init__'
p24
S"<method-wrapper '__init__' of exceptions.SyntaxError object>"
p25
sS'__setattr__'
p26
S"<method-wrapper '__setattr__' of exceptions.SyntaxError object>"
p27
sS'__reduce_ex__'
p28
S'<built-in method __reduce_ex__ of exceptions.SyntaxError object>'
p29
sS'__new__'
p30
S'<built-in method __new__ of type object>'
p31
sS'__format__'
p32
S'<built-in method __format__ of exceptions.SyntaxError object>'
p33
sS'__class__'
p34
S"<type 'exceptions.SyntaxError'>"
p35
sS'filename'
p36
S"'/home/anil/bootstrap/web2py/applications/DEV_bootstrap_ch/views/default/list_all_projects.html'"
p37
sS'lineno'
p38
S'102'
p39
sS'msg'
p40
S"'invalid syntax'"
p41
sS'__doc__'
p42
S"'Invalid syntax.'"
p43
sS'__getitem__'
p44
S"<method-wrapper '__getitem__' of exceptions.SyntaxError object>"
p45
sS'__setstate__'
p46
S'<built-in method __setstate__ of exceptions.SyntaxError object>'
p47
sS'__getattribute__'
p48
S"<method-wrapper '__getattribute__' of exceptions.SyntaxError object>"
p49
sS'print_file_and_line'
p50
S'None'
p51
sS'args'
p52
S'(\'invalid syntax\', (\'/home/anil/bootstrap/web2py/applications/DEV_bootstrap_ch/views/default/list_all_projects.html\', 102, 169, "    response.write(LI(B( A(project.project.name,...r\',args=project.project.project_coordinator)))))\\n"))'
p53
sS'__subclasshook__'
p54
S'<built-in method __subclasshook__ of type object>'
p55
sS'offset'
p56
S'169'
p57
sS'__unicode__'
p58
S'<built-in method __unicode__ of exceptions.SyntaxError object>'
p59
sS'__delattr__'
p60
S"<method-wrapper '__delattr__' of exceptions.SyntaxError object>"
p61
sS'__repr__'
p62
S"<method-wrapper '__repr__' of exceptions.SyntaxError object>"
p63
sS'__hash__'
p64
S"<method-wrapper '__hash__' of exceptions.SyntaxError object>"
p65
ssS'evalue'
p66
S'invalid syntax (list_all_projects.html, line 102)'
p67
sS'request'
p68
ccopy_reg
_reconstructor
p69
(cgluon.html
BEAUTIFY
p70
c__builtin__
object
p71
NtRp72
(dp73
S'attributes'
p74
(dp75
sS'components'
p76
(lp77
g69
(cgluon.html
TABLE
p78
g71
NtRp79
(dp80
g74
(dp81
S'level'
p82
I5
ssS'parent'
p83
Nsg76
(lp84
g69
(cgluon.html
TR
p85
g71
NtRp86
(dp87
g74
(dp88
sg83
g79
sg76
(lp89
g69
(cgluon.html
TD
p90
g71
NtRp91
(dp92
g74
(dp93
S'_style'
p94
S'font-weight:bold;vertical-align:top'
p95
ssg83
g86
sg76
(lp96
S'ajax'
p97
asbag69
(g90
g71
NtRp98
(dp99
g74
(dp100
S'_valign'
p101
S'top'
p102
ssg83
g86
sg76
(lp103
S':'
asbag69
(g90
g71
NtRp104
(dp105
g74
(dp106
sg83
g86
sg76
(lp107
g69
(g70
g71
NtRp108
(dp109
g74
(dp110
g82
I5
ssg83
g104
sg76
(lp111
S'False'
p112
asbasbasbag69
(g85
g71
NtRp113
(dp114
g74
(dp115
sg83
g79
sg76
(lp116
g69
(g90
g71
NtRp117
(dp118
g74
(dp119
g94
g95
ssg83
g113
sg76
(lp120
S'application'
p121
asbag69
(g90
g71
NtRp122
(dp123
g74
(dp124
g101
g102
ssg83
g113
sg76
(lp125
S':'
asbag69
(g90
g71
NtRp126
(dp127
g74
(dp128
sg83
g113
sg76
(lp129
g69
(g70
g71
NtRp130
(dp131
g74
(dp132
g82
I5
ssg83
g126
sg76
(lp133
S'DEV_bootstrap_ch'
p134
asbasbasbag69
(g85
g71
NtRp135
(dp136
g74
(dp137
sg83
g79
sg76
(lp138
g69
(g90
g71
NtRp139
(dp140
g74
(dp141
g94
g95
ssg83
g135
sg76
(lp142
g52
asbag69
(g90
g71
NtRp143
(dp144
g74
(dp145
g101
g102
ssg83
g135
sg76
(lp146
S':'
asbag69
(g90
g71
NtRp147
(dp148
g74
(dp149
sg83
g135
sg76
(lp150
g69
(g70
g71
NtRp151
(dp152
g74
(dp153
g82
I5
ssg83
g147
sg76
(lp154
g69
(g78
g71
NtRp155
(dp156
g74
(dp157
g82
I4
ssg83
Nsg76
(lp158
sbasbasbasbag69
(g85
g71
NtRp159
(dp160
g74
(dp161
sg83
g79
sg76
(lp162
g69
(g90
g71
NtRp163
(dp164
g74
(dp165
g94
g95
ssg83
g159
sg76
(lp166
S'body'
p167
asbag69
(g90
g71
NtRp168
(dp169
g74
(dp170
g101
g102
ssg83
g159
sg76
(lp171
S':'
asbag69
(g90
g71
NtRp172
(dp173
g74
(dp174
sg83
g159
sg76
(lp175
g69
(g70
g71
NtRp176
(dp177
g74
(dp178
g82
I5
ssg83
g172
sg76
(lp179
S'<cStringIO.StringO object at 0xadf858e0>'
p180
asbasbasbag69
(g85
g71
NtRp181
(dp182
g74
(dp183
sg83
g79
sg76
(lp184
g69
(g90
g71
NtRp185
(dp186
g74
(dp187
g94
g95
ssg83
g181
sg76
(lp188
S'cid'
p189
asbag69
(g90
g71
NtRp190
(dp191
g74
(dp192
g101
g102
ssg83
g181
sg76
(lp193
S':'
asbag69
(g90
g71
NtRp194
(dp195
g74
(dp196
sg83
g181
sg76
(lp197
g69
(g70
g71
NtRp198
(dp199
g74
(dp200
g82
I5
ssg83
g194
sg76
(lp201
S'None'
p202
asbasbasbag69
(g85
g71
NtRp203
(dp204
g74
(dp205
sg83
g79
sg76
(lp206
g69
(g90
g71
NtRp207
(dp208
g74
(dp209
g94
g95
ssg83
g203
sg76
(lp210
S'client'
p211
asbag69
(g90
g71
NtRp212
(dp213
g74
(dp214
g101
g102
ssg83
g203
sg76
(lp215
S':'
asbag69
(g90
g71
NtRp216
(dp217
g74
(dp218
sg83
g203
sg76
(lp219
g69
(g70
g71
NtRp220
(dp221
g74
(dp222
g82
I5
ssg83
g216
sg76
(lp223
S'127.0.0.1'
p224
asbasbasbag69
(g85
g71
NtRp225
(dp226
g74
(dp227
sg83
g79
sg76
(lp228
g69
(g90
g71
NtRp229
(dp230
g74
(dp231
g94
g95
ssg83
g225
sg76
(lp232
S'controller'
p233
asbag69
(g90
g71
NtRp234
(dp235
g74
(dp236
g101
g102
ssg83
g225
sg76
(lp237
S':'
asbag69
(g90
g71
NtRp238
(dp239
g74
(dp240
sg83
g225
sg76
(lp241
g69
(g70
g71
NtRp242
(dp243
g74
(dp244
g82
I5
ssg83
g238
sg76
(lp245
S'default'
p246
asbasbasbag69
(g85
g71
NtRp247
(dp248
g74
(dp249
sg83
g79
sg76
(lp250
g69
(g90
g71
NtRp251
(dp252
g74
(dp253
g94
g95
ssg83
g247
sg76
(lp254
S'cookies'
p255
asbag69
(g90
g71
NtRp256
(dp257
g74
(dp258
g101
g102
ssg83
g247
sg76
(lp259
S':'
asbag69
(g90
g71
NtRp260
(dp261
g74
(dp262
sg83
g247
sg76
(lp263
g69
(g70
g71
NtRp264
(dp265
g74
(dp266
g82
I5
ssg83
g260
sg76
(lp267
g69
(g78
g71
NtRp268
(dp269
g74
(dp270
g82
I4
ssg83
Nsg76
(lp271
g69
(g85
g71
NtRp272
(dp273
g74
(dp274
sg83
g268
sg76
(lp275
g69
(g90
g71
NtRp276
(dp277
g74
(dp278
g94
g95
ssg83
g272
sg76
(lp279
S'session_id_admin'
p280
asbag69
(g90
g71
NtRp281
(dp282
g74
(dp283
g101
g102
ssg83
g272
sg76
(lp284
S':'
asbag69
(g90
g71
NtRp285
(dp286
g74
(dp287
sg83
g272
sg76
(lp288
g69
(g70
g71
NtRp289
(dp290
g74
(dp291
g82
I4
ssg83
g285
sg76
(lp292
S'127.0.0.1-2ae7b64e-aa1a-435c-97d1-90fe7d1dab85'
p293
ag69
(g78
g71
NtRp294
(dp295
g74
(dp296
g82
I3
ssg83
Nsg76
(lp297
g69
(g85
g71
NtRp298
(dp299
g74
(dp300
sg83
g294
sg76
(lp301
g69
(g90
g71
NtRp302
(dp303
g74
(dp304
g94
g95
ssg83
g298
sg76
(lp305
S'comment'
p306
asbag69
(g90
g71
NtRp307
(dp308
g74
(dp309
g101
g102
ssg83
g298
sg76
(lp310
S':'
asbag69
(g90
g71
NtRp311
(dp312
g74
(dp313
sg83
g298
sg76
(lp314
g69
(g70
g71
NtRp315
(dp316
g74
(dp317
g82
I3
ssg83
g311
sg76
(lp318
S''
asbasbasbag69
(g85
g71
NtRp319
(dp320
g74
(dp321
sg83
g294
sg76
(lp322
g69
(g90
g71
NtRp323
(dp324
g74
(dp325
g94
g95
ssg83
g319
sg76
(lp326
S'domain'
p327
asbag69
(g90
g71
NtRp328
(dp329
g74
(dp330
g101
g102
ssg83
g319
sg76
(lp331
S':'
asbag69
(g90
g71
NtRp332
(dp333
g74
(dp334
sg83
g319
sg76
(lp335
g69
(g70
g71
NtRp336
(dp337
g74
(dp338
g82
I3
ssg83
g332
sg76
(lp339
S''
asbasbasbag69
(g85
g71
NtRp340
(dp341
g74
(dp342
sg83
g294
sg76
(lp343
g69
(g90
g71
NtRp344
(dp345
g74
(dp346
g94
g95
ssg83
g340
sg76
(lp347
S'expires'
p348
asbag69
(g90
g71
NtRp349
(dp350
g74
(dp351
g101
g102
ssg83
g340
sg76
(lp352
S':'
asbag69
(g90
g71
NtRp353
(dp354
g74
(dp355
sg83
g340
sg76
(lp356
g69
(g70
g71
NtRp357
(dp358
g74
(dp359
g82
I3
ssg83
g353
sg76
(lp360
S''
asbasbasbag69
(g85
g71
NtRp361
(dp362
g74
(dp363
sg83
g294
sg76
(lp364
g69
(g90
g71
NtRp365
(dp366
g74
(dp367
g94
g95
ssg83
g361
sg76
(lp368
S'httponly'
p369
asbag69
(g90
g71
NtRp370
(dp371
g74
(dp372
g101
g102
ssg83
g361
sg76
(lp373
S':'
asbag69
(g90
g71
NtRp374
(dp375
g74
(dp376
sg83
g361
sg76
(lp377
g69
(g70
g71
NtRp378
(dp379
g74
(dp380
g82
I3
ssg83
g374
sg76
(lp381
S''
asbasbasbag69
(g85
g71
NtRp382
(dp383
g74
(dp384
sg83
g294
sg76
(lp385
g69
(g90
g71
NtRp386
(dp387
g74
(dp388
g94
g95
ssg83
g382
sg76
(lp389
S'max-age'
p390
asbag69
(g90
g71
NtRp391
(dp392
g74
(dp393
g101
g102
ssg83
g382
sg76
(lp394
S':'
asbag69
(g90
g71
NtRp395
(dp396
g74
(dp397
sg83
g382
sg76
(lp398
g69
(g70
g71
NtRp399
(dp400
g74
(dp401
g82
I3
ssg83
g395
sg76
(lp402
S''
asbasbasbag69
(g85
g71
NtRp403
(dp404
g74
(dp405
sg83
g294
sg76
(lp406
g69
(g90
g71
NtRp407
(dp408
g74
(dp409
g94
g95
ssg83
g403
sg76
(lp410
S'path'
p411
asbag69
(g90
g71
NtRp412
(dp413
g74
(dp414
g101
g102
ssg83
g403
sg76
(lp415
S':'
asbag69
(g90
g71
NtRp416
(dp417
g74
(dp418
sg83
g403
sg76
(lp419
g69
(g70
g71
NtRp420
(dp421
g74
(dp422
g82
I3
ssg83
g416
sg76
(lp423
S''
asbasbasbag69
(g85
g71
NtRp424
(dp425
g74
(dp426
sg83
g294
sg76
(lp427
g69
(g90
g71
NtRp428
(dp429
g74
(dp430
g94
g95
ssg83
g424
sg76
(lp431
S'secure'
p432
asbag69
(g90
g71
NtRp433
(dp434
g74
(dp435
g101
g102
ssg83
g424
sg76
(lp436
S':'
asbag69
(g90
g71
NtRp437
(dp438
g74
(dp439
sg83
g424
sg76
(lp440
g69
(g70
g71
NtRp441
(dp442
g74
(dp443
g82
I3
ssg83
g437
sg76
(lp444
S''
asbasbasbag69
(g85
g71
NtRp445
(dp446
g74
(dp447
sg83
g294
sg76
(lp448
g69
(g90
g71
NtRp449
(dp450
g74
(dp451
g94
g95
ssg83
g445
sg76
(lp452
S'version'
p453
asbag69
(g90
g71
NtRp454
(dp455
g74
(dp456
g101
g102
ssg83
g445
sg76
(lp457
S':'
asbag69
(g90
g71
NtRp458
(dp459
g74
(dp460
sg83
g445
sg76
(lp461
g69
(g70
g71
NtRp462
(dp463
g74
(dp464
g82
I3
ssg83
g458
sg76
(lp465
S''
asbasbasbasbasbasbasbag69
(g85
g71
NtRp466
(dp467
g74
(dp468
sg83
g268
sg76
(lp469
g69
(g90
g71
NtRp470
(dp471
g74
(dp472
g94
g95
ssg83
g466
sg76
(lp473
S'session_id_dev_bootstrap_ch'
p474
asbag69
(g90
g71
NtRp475
(dp476
g74
(dp477
g101
g102
ssg83
g466
sg76
(lp478
S':'
asbag69
(g90
g71
NtRp479
(dp480
g74
(dp481
sg83
g466
sg76
(lp482
g69
(g70
g71
NtRp483
(dp484
g74
(dp485
g82
I4
ssg83
g479
sg76
(lp486
S'127.0.0.1-805e9983-ce12-4a37-9770-f73cf67f56ab'
p487
ag69
(g78
g71
NtRp488
(dp489
g74
(dp490
g82
I3
ssg83
Nsg76
(lp491
g69
(g85
g71
NtRp492
(dp493
g74
(dp494
sg83
g488
sg76
(lp495
g69
(g90
g71
NtRp496
(dp497
g74
(dp498
g94
g95
ssg83
g492
sg76
(lp499
g306
asbag69
(g90
g71
NtRp500
(dp501
g74
(dp502
g101
g102
ssg83
g492
sg76
(lp503
S':'
asbag69
(g90
g71
NtRp504
(dp505
g74
(dp506
sg83
g492
sg76
(lp507
g69
(g70
g71
NtRp508
(dp509
g74
(dp510
g82
I3
ssg83
g504
sg76
(lp511
S''
asbasbasbag69
(g85
g71
NtRp512
(dp513
g74
(dp514
sg83
g488
sg76
(lp515
g69
(g90
g71
NtRp516
(dp517
g74
(dp518
g94
g95
ssg83
g512
sg76
(lp519
g327
asbag69
(g90
g71
NtRp520
(dp521
g74
(dp522
g101
g102
ssg83
g512
sg76
(lp523
S':'
asbag69
(g90
g71
NtRp524
(dp525
g74
(dp526
sg83
g512
sg76
(lp527
g69
(g70
g71
NtRp528
(dp529
g74
(dp530
g82
I3
ssg83
g524
sg76
(lp531
S''
asbasbasbag69
(g85
g71
NtRp532
(dp533
g74
(dp534
sg83
g488
sg76
(lp535
g69
(g90
g71
NtRp536
(dp537
g74
(dp538
g94
g95
ssg83
g532
sg76
(lp539
g348
asbag69
(g90
g71
NtRp540
(dp541
g74
(dp542
g101
g102
ssg83
g532
sg76
(lp543
S':'
asbag69
(g90
g71
NtRp544
(dp545
g74
(dp546
sg83
g532
sg76
(lp547
g69
(g70
g71
NtRp548
(dp549
g74
(dp550
g82
I3
ssg83
g544
sg76
(lp551
S''
asbasbasbag69
(g85
g71
NtRp552
(dp553
g74
(dp554
sg83
g488
sg76
(lp555
g69
(g90
g71
NtRp556
(dp557
g74
(dp558
g94
g95
ssg83
g552
sg76
(lp559
g369
asbag69
(g90
g71
NtRp560
(dp561
g74
(dp562
g101
g102
ssg83
g552
sg76
(lp563
S':'
asbag69
(g90
g71
NtRp564
(dp565
g74
(dp566
sg83
g552
sg76
(lp567
g69
(g70
g71
NtRp568
(dp569
g74
(dp570
g82
I3
ssg83
g564
sg76
(lp571
S''
asbasbasbag69
(g85
g71
NtRp572
(dp573
g74
(dp574
sg83
g488
sg76
(lp575
g69
(g90
g71
NtRp576
(dp577
g74
(dp578
g94
g95
ssg83
g572
sg76
(lp579
g390
asbag69
(g90
g71
NtRp580
(dp581
g74
(dp582
g101
g102
ssg83
g572
sg76
(lp583
S':'
asbag69
(g90
g71
NtRp584
(dp585
g74
(dp586
sg83
g572
sg76
(lp587
g69
(g70
g71
NtRp588
(dp589
g74
(dp590
g82
I3
ssg83
g584
sg76
(lp591
S''
asbasbasbag69
(g85
g71
NtRp592
(dp593
g74
(dp594
sg83
g488
sg76
(lp595
g69
(g90
g71
NtRp596
(dp597
g74
(dp598
g94
g95
ssg83
g592
sg76
(lp599
g411
asbag69
(g90
g71
NtRp600
(dp601
g74
(dp602
g101
g102
ssg83
g592
sg76
(lp603
S':'
asbag69
(g90
g71
NtRp604
(dp605
g74
(dp606
sg83
g592
sg76
(lp607
g69
(g70
g71
NtRp608
(dp609
g74
(dp610
g82
I3
ssg83
g604
sg76
(lp611
S''
asbasbasbag69
(g85
g71
NtRp612
(dp613
g74
(dp614
sg83
g488
sg76
(lp615
g69
(g90
g71
NtRp616
(dp617
g74
(dp618
g94
g95
ssg83
g612
sg76
(lp619
g432
asbag69
(g90
g71
NtRp620
(dp621
g74
(dp622
g101
g102
ssg83
g612
sg76
(lp623
S':'
asbag69
(g90
g71
NtRp624
(dp625
g74
(dp626
sg83
g612
sg76
(lp627
g69
(g70
g71
NtRp628
(dp629
g74
(dp630
g82
I3
ssg83
g624
sg76
(lp631
S''
asbasbasbag69
(g85
g71
NtRp632
(dp633
g74
(dp634
sg83
g488
sg76
(lp635
g69
(g90
g71
NtRp636
(dp637
g74
(dp638
g94
g95
ssg83
g632
sg76
(lp639
g453
asbag69
(g90
g71
NtRp640
(dp641
g74
(dp642
g101
g102
ssg83
g632
sg76
(lp643
S':'
asbag69
(g90
g71
NtRp644
(dp645
g74
(dp646
sg83
g632
sg76
(lp647
g69
(g70
g71
NtRp648
(dp649
g74
(dp650
g82
I3
ssg83
g644
sg76
(lp651
S''
asbasbasbasbasbasbasbag69
(g85
g71
NtRp652
(dp653
g74
(dp654
sg83
g268
sg76
(lp655
g69
(g90
g71
NtRp656
(dp657
g74
(dp658
g94
g95
ssg83
g652
sg76
(lp659
S'session_id_welcome'
p660
asbag69
(g90
g71
NtRp661
(dp662
g74
(dp663
g101
g102
ssg83
g652
sg76
(lp664
S':'
asbag69
(g90
g71
NtRp665
(dp666
g74
(dp667
sg83
g652
sg76
(lp668
g69
(g70
g71
NtRp669
(dp670
g74
(dp671
g82
I4
ssg83
g665
sg76
(lp672
S'127.0.0.1-12149479-6aea-4c25-9c91-c10a464da86c'
p673
ag69
(g78
g71
NtRp674
(dp675
g74
(dp676
g82
I3
ssg83
Nsg76
(lp677
g69
(g85
g71
NtRp678
(dp679
g74
(dp680
sg83
g674
sg76
(lp681
g69
(g90
g71
NtRp682
(dp683
g74
(dp684
g94
g95
ssg83
g678
sg76
(lp685
g306
asbag69
(g90
g71
NtRp686
(dp687
g74
(dp688
g101
g102
ssg83
g678
sg76
(lp689
S':'
asbag69
(g90
g71
NtRp690
(dp691
g74
(dp692
sg83
g678
sg76
(lp693
g69
(g70
g71
NtRp694
(dp695
g74
(dp696
g82
I3
ssg83
g690
sg76
(lp697
S''
asbasbasbag69
(g85
g71
NtRp698
(dp699
g74
(dp700
sg83
g674
sg76
(lp701
g69
(g90
g71
NtRp702
(dp703
g74
(dp704
g94
g95
ssg83
g698
sg76
(lp705
g327
asbag69
(g90
g71
NtRp706
(dp707
g74
(dp708
g101
g102
ssg83
g698
sg76
(lp709
S':'
asbag69
(g90
g71
NtRp710
(dp711
g74
(dp712
sg83
g698
sg76
(lp713
g69
(g70
g71
NtRp714
(dp715
g74
(dp716
g82
I3
ssg83
g710
sg76
(lp717
S''
asbasbasbag69
(g85
g71
NtRp718
(dp719
g74
(dp720
sg83
g674
sg76
(lp721
g69
(g90
g71
NtRp722
(dp723
g74
(dp724
g94
g95
ssg83
g718
sg76
(lp725
g348
asbag69
(g90
g71
NtRp726
(dp727
g74
(dp728
g101
g102
ssg83
g718
sg76
(lp729
S':'
asbag69
(g90
g71
NtRp730
(dp731
g74
(dp732
sg83
g718
sg76
(lp733
g69
(g70
g71
NtRp734
(dp735
g74
(dp736
g82
I3
ssg83
g730
sg76
(lp737
S''
asbasbasbag69
(g85
g71
NtRp738
(dp739
g74
(dp740
sg83
g674
sg76
(lp741
g69
(g90
g71
NtRp742
(dp743
g74
(dp744
g94
g95
ssg83
g738
sg76
(lp745
g369
asbag69
(g90
g71
NtRp746
(dp747
g74
(dp748
g101
g102
ssg83
g738
sg76
(lp749
S':'
asbag69
(g90
g71
NtRp750
(dp751
g74
(dp752
sg83
g738
sg76
(lp753
g69
(g70
g71
NtRp754
(dp755
g74
(dp756
g82
I3
ssg83
g750
sg76
(lp757
S''
asbasbasbag69
(g85
g71
NtRp758
(dp759
g74
(dp760
sg83
g674
sg76
(lp761
g69
(g90
g71
NtRp762
(dp763
g74
(dp764
g94
g95
ssg83
g758
sg76
(lp765
g390
asbag69
(g90
g71
NtRp766
(dp767
g74
(dp768
g101
g102
ssg83
g758
sg76
(lp769
S':'
asbag69
(g90
g71
NtRp770
(dp771
g74
(dp772
sg83
g758
sg76
(lp773
g69
(g70
g71
NtRp774
(dp775
g74
(dp776
g82
I3
ssg83
g770
sg76
(lp777
S''
asbasbasbag69
(g85
g71
NtRp778
(dp779
g74
(dp780
sg83
g674
sg76
(lp781
g69
(g90
g71
NtRp782
(dp783
g74
(dp784
g94
g95
ssg83
g778
sg76
(lp785
g411
asbag69
(g90
g71
NtRp786
(dp787
g74
(dp788
g101
g102
ssg83
g778
sg76
(lp789
S':'
asbag69
(g90
g71
NtRp790
(dp791
g74
(dp792
sg83
g778
sg76
(lp793
g69
(g70
g71
NtRp794
(dp795
g74
(dp796
g82
I3
ssg83
g790
sg76
(lp797
S''
asbasbasbag69
(g85
g71
NtRp798
(dp799
g74
(dp800
sg83
g674
sg76
(lp801
g69
(g90
g71
NtRp802
(dp803
g74
(dp804
g94
g95
ssg83
g798
sg76
(lp805
g432
asbag69
(g90
g71
NtRp806
(dp807
g74
(dp808
g101
g102
ssg83
g798
sg76
(lp809
S':'
asbag69
(g90
g71
NtRp810
(dp811
g74
(dp812
sg83
g798
sg76
(lp813
g69
(g70
g71
NtRp814
(dp815
g74
(dp816
g82
I3
ssg83
g810
sg76
(lp817
S''
asbasbasbag69
(g85
g71
NtRp818
(dp819
g74
(dp820
sg83
g674
sg76
(lp821
g69
(g90
g71
NtRp822
(dp823
g74
(dp824
g94
g95
ssg83
g818
sg76
(lp825
g453
asbag69
(g90
g71
NtRp826
(dp827
g74
(dp828
g101
g102
ssg83
g818
sg76
(lp829
S':'
asbag69
(g90
g71
NtRp830
(dp831
g74
(dp832
sg83
g818
sg76
(lp833
g69
(g70
g71
NtRp834
(dp835
g74
(dp836
g82
I3
ssg83
g830
sg76
(lp837
S''
asbasbasbasbasbasbasbasbasbasbasbag69
(g85
g71
NtRp838
(dp839
g74
(dp840
sg83
g79
sg76
(lp841
g69
(g90
g71
NtRp842
(dp843
g74
(dp844
g94
g95
ssg83
g838
sg76
(lp845
S'env'
p846
asbag69
(g90
g71
NtRp847
(dp848
g74
(dp849
g101
g102
ssg83
g838
sg76
(lp850
S':'
asbag69
(g90
g71
NtRp851
(dp852
g74
(dp853
sg83
g838
sg76
(lp854
g69
(g70
g71
NtRp855
(dp856
g74
(dp857
g82
I5
ssg83
g851
sg76
(lp858
g69
(g78
g71
NtRp859
(dp860
g74
(dp861
g82
I4
ssg83
Nsg76
(lp862
g69
(g85
g71
NtRp863
(dp864
g74
(dp865
sg83
g859
sg76
(lp866
g69
(g90
g71
NtRp867
(dp868
g74
(dp869
g94
g95
ssg83
g863
sg76
(lp870
S'app_folders'
p871
asbag69
(g90
g71
NtRp872
(dp873
g74
(dp874
g101
g102
ssg83
g863
sg76
(lp875
S':'
asbag69
(g90
g71
NtRp876
(dp877
g74
(dp878
sg83
g863
sg76
(lp879
g69
(g70
g71
NtRp880
(dp881
g74
(dp882
g82
I4
ssg83
g876
sg76
(lp883
S"set(['/home/anil/bootstrap/web2py/applications/admin/', '/home/anil/bootstrap/web2py/applications/welcome/', '/home/anil/bootstrap/web2py/applications/DEV_bootstrap_ch/'])"
p884
asbasbasbag69
(g85
g71
NtRp885
(dp886
g74
(dp887
sg83
g859
sg76
(lp888
g69
(g90
g71
NtRp889
(dp890
g74
(dp891
g94
g95
ssg83
g885
sg76
(lp892
S'applications_parent'
p893
asbag69
(g90
g71
NtRp894
(dp895
g74
(dp896
g101
g102
ssg83
g885
sg76
(lp897
S':'
asbag69
(g90
g71
NtRp898
(dp899
g74
(dp900
sg83
g885
sg76
(lp901
g69
(g70
g71
NtRp902
(dp903
g74
(dp904
g82
I4
ssg83
g898
sg76
(lp905
S'/home/anil/bootstrap/web2py'
p906
asbasbasbag69
(g85
g71
NtRp907
(dp908
g74
(dp909
sg83
g859
sg76
(lp910
g69
(g90
g71
NtRp911
(dp912
g74
(dp913
g94
g95
ssg83
g907
sg76
(lp914
S'cmd_args'
p915
asbag69
(g90
g71
NtRp916
(dp917
g74
(dp918
g101
g102
ssg83
g907
sg76
(lp919
S':'
asbag69
(g90
g71
NtRp920
(dp921
g74
(dp922
sg83
g907
sg76
(lp923
g69
(g70
g71
NtRp924
(dp925
g74
(dp926
g82
I4
ssg83
g920
sg76
(lp927
g69
(g78
g71
NtRp928
(dp929
g74
(dp930
g82
I3
ssg83
Nsg76
(lp931
sbasbasbasbag69
(g85
g71
NtRp932
(dp933
g74
(dp934
sg83
g859
sg76
(lp935
g69
(g90
g71
NtRp936
(dp937
g74
(dp938
g94
g95
ssg83
g932
sg76
(lp939
S'cmd_options'
p940
asbag69
(g90
g71
NtRp941
(dp942
g74
(dp943
g101
g102
ssg83
g932
sg76
(lp944
S':'
asbag69
(g90
g71
NtRp945
(dp946
g74
(dp947
sg83
g932
sg76
(lp948
g69
(g70
g71
NtRp949
(dp950
g74
(dp951
g82
I4
ssg83
g945
sg76
(lp952
S"<Values at 0xa20e06c: {'verbose': False, 'ip': '127.0.0.1', 'with_scheduler': False, 'ips': [], 'shutdown_timeout': 5, 'taskbar': False, 'port': 8000, 'maxthreads': None, 'softcron': False, 'server_name': 'anil-Inspiron-1525', 'bpython': False, 'nogui': False, 'pid_filename': 'httpserver.pid', 'extcron': False, 'runcron': False, 'run_system_tests': False, 'test': None, 'folder': '/home/anil/bootstrap/web2py', 'config': '', 'import_models': False, 'winservice': '', 'shell': None, 'run': '', 'log_filename': 'httpserver.log', 'debuglevel': 30, 'args': [''], 'socket_timeout': 5, 'ssl_ca_certificate': None, 'scheduler': None, 'profiler_filename': None, 'ssl_private_key': '', 'scheduler_groups': None, 'password': '123', 'request_queue_size': 5, 'ssl_certificate': '', 'cronjob': False, 'numthreads': None, 'quiet': False, 'interfaces': None, 'minthreads': None, 'timeout': 10, 'plain': False, 'nobanner': False}>"
p953
asbasbasbag69
(g85
g71
NtRp954
(dp955
g74
(dp956
sg83
g859
sg76
(lp957
g69
(g90
g71
NtRp958
(dp959
g74
(dp960
g94
g95
ssg83
g954
sg76
(lp961
S'db_sessions'
p962
asbag69
(g90
g71
NtRp963
(dp964
g74
(dp965
g101
g102
ssg83
g954
sg76
(lp966
S':'
asbag69
(g90
g71
NtRp967
(dp968
g74
(dp969
sg83
g954
sg76
(lp970
g69
(g70
g71
NtRp971
(dp972
g74
(dp973
g82
I4
ssg83
g967
sg76
(lp974
S'set([])'
p975
asbasbasbag69
(g85
g71
NtRp976
(dp977
g74
(dp978
sg83
g859
sg76
(lp979
g69
(g90
g71
NtRp980
(dp981
g74
(dp982
g94
g95
ssg83
g976
sg76
(lp983
S'debugging'
p984
asbag69
(g90
g71
NtRp985
(dp986
g74
(dp987
g101
g102
ssg83
g976
sg76
(lp988
S':'
asbag69
(g90
g71
NtRp989
(dp990
g74
(dp991
sg83
g976
sg76
(lp992
g69
(g70
g71
NtRp993
(dp994
g74
(dp995
g82
I4
ssg83
g989
sg76
(lp996
g112
asbasbasbag69
(g85
g71
NtRp997
(dp998
g74
(dp999
sg83
g859
sg76
(lp1000
g69
(g90
g71
NtRp1001
(dp1002
g74
(dp1003
g94
g95
ssg83
g997
sg76
(lp1004
S'gluon_parent'
p1005
asbag69
(g90
g71
NtRp1006
(dp1007
g74
(dp1008
g101
g102
ssg83
g997
sg76
(lp1009
S':'
asbag69
(g90
g71
NtRp1010
(dp1011
g74
(dp1012
sg83
g997
sg76
(lp1013
g69
(g70
g71
NtRp1014
(dp1015
g74
(dp1016
g82
I4
ssg83
g1010
sg76
(lp1017
S'/home/anil/bootstrap/web2py'
p1018
asbasbasbag69
(g85
g71
NtRp1019
(dp1020
g74
(dp1021
sg83
g859
sg76
(lp1022
g69
(g90
g71
NtRp1023
(dp1024
g74
(dp1025
g94
g95
ssg83
g1019
sg76
(lp1026
S'http_accept'
p1027
asbag69
(g90
g71
NtRp1028
(dp1029
g74
(dp1030
g101
g102
ssg83
g1019
sg76
(lp1031
S':'
asbag69
(g90
g71
NtRp1032
(dp1033
g74
(dp1034
sg83
g1019
sg76
(lp1035
g69
(g70
g71
NtRp1036
(dp1037
g74
(dp1038
g82
I4
ssg83
g1032
sg76
(lp1039
S'text/html,application/xhtml+xml,application/xml;q=0.9,*/*;q=0.8'
p1040
asbasbasbag69
(g85
g71
NtRp1041
(dp1042
g74
(dp1043
sg83
g859
sg76
(lp1044
g69
(g90
g71
NtRp1045
(dp1046
g74
(dp1047
g94
g95
ssg83
g1041
sg76
(lp1048
S'http_accept_charset'
p1049
asbag69
(g90
g71
NtRp1050
(dp1051
g74
(dp1052
g101
g102
ssg83
g1041
sg76
(lp1053
S':'
asbag69
(g90
g71
NtRp1054
(dp1055
g74
(dp1056
sg83
g1041
sg76
(lp1057
g69
(g70
g71
NtRp1058
(dp1059
g74
(dp1060
g82
I4
ssg83
g1054
sg76
(lp1061
S'ISO-8859-1,utf-8;q=0.7,*;q=0.3'
p1062
asbasbasbag69
(g85
g71
NtRp1063
(dp1064
g74
(dp1065
sg83
g859
sg76
(lp1066
g69
(g90
g71
NtRp1067
(dp1068
g74
(dp1069
g94
g95
ssg83
g1063
sg76
(lp1070
S'http_accept_encoding'
p1071
asbag69
(g90
g71
NtRp1072
(dp1073
g74
(dp1074
g101
g102
ssg83
g1063
sg76
(lp1075
S':'
asbag69
(g90
g71
NtRp1076
(dp1077
g74
(dp1078
sg83
g1063
sg76
(lp1079
g69
(g70
g71
NtRp1080
(dp1081
g74
(dp1082
g82
I4
ssg83
g1076
sg76
(lp1083
S'gzip,deflate,sdch'
p1084
asbasbasbag69
(g85
g71
NtRp1085
(dp1086
g74
(dp1087
sg83
g859
sg76
(lp1088
g69
(g90
g71
NtRp1089
(dp1090
g74
(dp1091
g94
g95
ssg83
g1085
sg76
(lp1092
S'http_accept_language'
p1093
asbag69
(g90
g71
NtRp1094
(dp1095
g74
(dp1096
g101
g102
ssg83
g1085
sg76
(lp1097
S':'
asbag69
(g90
g71
NtRp1098
(dp1099
g74
(dp1100
sg83
g1085
sg76
(lp1101
g69
(g70
g71
NtRp1102
(dp1103
g74
(dp1104
g82
I4
ssg83
g1098
sg76
(lp1105
S'en-US,en;q=0.8'
p1106
asbasbasbag69
(g85
g71
NtRp1107
(dp1108
g74
(dp1109
sg83
g859
sg76
(lp1110
g69
(g90
g71
NtRp1111
(dp1112
g74
(dp1113
g94
g95
ssg83
g1107
sg76
(lp1114
S'http_cache_control'
p1115
asbag69
(g90
g71
NtRp1116
(dp1117
g74
(dp1118
g101
g102
ssg83
g1107
sg76
(lp1119
S':'
asbag69
(g90
g71
NtRp1120
(dp1121
g74
(dp1122
sg83
g1107
sg76
(lp1123
g69
(g70
g71
NtRp1124
(dp1125
g74
(dp1126
g82
I4
ssg83
g1120
sg76
(lp1127
S'max-age=0'
p1128
asbasbasbag69
(g85
g71
NtRp1129
(dp1130
g74
(dp1131
sg83
g859
sg76
(lp1132
g69
(g90
g71
NtRp1133
(dp1134
g74
(dp1135
g94
g95
ssg83
g1129
sg76
(lp1136
S'http_connection'
p1137
asbag69
(g90
g71
NtRp1138
(dp1139
g74
(dp1140
g101
g102
ssg83
g1129
sg76
(lp1141
S':'
asbag69
(g90
g71
NtRp1142
(dp1143
g74
(dp1144
sg83
g1129
sg76
(lp1145
g69
(g70
g71
NtRp1146
(dp1147
g74
(dp1148
g82
I4
ssg83
g1142
sg76
(lp1149
S'keep-alive'
p1150
asbasbasbag69
(g85
g71
NtRp1151
(dp1152
g74
(dp1153
sg83
g859
sg76
(lp1154
g69
(g90
g71
NtRp1155
(dp1156
g74
(dp1157
g94
g95
ssg83
g1151
sg76
(lp1158
S'http_cookie'
p1159
asbag69
(g90
g71
NtRp1160
(dp1161
g74
(dp1162
g101
g102
ssg83
g1151
sg76
(lp1163
S':'
asbag69
(g90
g71
NtRp1164
(dp1165
g74
(dp1166
sg83
g1151
sg76
(lp1167
g69
(g70
g71
NtRp1168
(dp1169
g74
(dp1170
g82
I4
ssg83
g1164
sg76
(lp1171
S'session_id_welcome=127.0.0.1-12149479-6aea-4c25-9c91-c10a464da86c; session_id_admin=127.0.0.1-2ae7b64e-aa1a-435c-97d1-90fe7d1dab85; session_id_dev_bootstrap_ch=127.0.0.1-805e9983-ce12-4a37-9770-f73cf67f56ab'
p1172
asbasbasbag69
(g85
g71
NtRp1173
(dp1174
g74
(dp1175
sg83
g859
sg76
(lp1176
g69
(g90
g71
NtRp1177
(dp1178
g74
(dp1179
g94
g95
ssg83
g1173
sg76
(lp1180
S'http_host'
p1181
asbag69
(g90
g71
NtRp1182
(dp1183
g74
(dp1184
g101
g102
ssg83
g1173
sg76
(lp1185
S':'
asbag69
(g90
g71
NtRp1186
(dp1187
g74
(dp1188
sg83
g1173
sg76
(lp1189
g69
(g70
g71
NtRp1190
(dp1191
g74
(dp1192
g82
I4
ssg83
g1186
sg76
(lp1193
S'127.0.0.1:8000'
p1194
asbasbasbag69
(g85
g71
NtRp1195
(dp1196
g74
(dp1197
sg83
g859
sg76
(lp1198
g69
(g90
g71
NtRp1199
(dp1200
g74
(dp1201
g94
g95
ssg83
g1195
sg76
(lp1202
S'http_referer'
p1203
asbag69
(g90
g71
NtRp1204
(dp1205
g74
(dp1206
g101
g102
ssg83
g1195
sg76
(lp1207
S':'
asbag69
(g90
g71
NtRp1208
(dp1209
g74
(dp1210
sg83
g1195
sg76
(lp1211
g69
(g70
g71
NtRp1212
(dp1213
g74
(dp1214
g82
I4
ssg83
g1208
sg76
(lp1215
S'http://127.0.0.1:8000/DEV_bootstrap_ch/default/project_viewer/4'
p1216
asbasbasbag69
(g85
g71
NtRp1217
(dp1218
g74
(dp1219
sg83
g859
sg76
(lp1220
g69
(g90
g71
NtRp1221
(dp1222
g74
(dp1223
g94
g95
ssg83
g1217
sg76
(lp1224
S'http_user_agent'
p1225
asbag69
(g90
g71
NtRp1226
(dp1227
g74
(dp1228
g101
g102
ssg83
g1217
sg76
(lp1229
S':'
asbag69
(g90
g71
NtRp1230
(dp1231
g74
(dp1232
sg83
g1217
sg76
(lp1233
g69
(g70
g71
NtRp1234
(dp1235
g74
(dp1236
g82
I4
ssg83
g1230
sg76
(lp1237
S'Mozilla/5.0 (X11; Linux i686) AppleWebKit/537.31 (KHTML, like Gecko) Chrome/26.0.1410.10 Safari/537.31'
p1238
asbasbasbag69
(g85
g71
NtRp1239
(dp1240
g74
(dp1241
sg83
g859
sg76
(lp1242
g69
(g90
g71
NtRp1243
(dp1244
g74
(dp1245
g94
g95
ssg83
g1239
sg76
(lp1246
S'is_jython'
p1247
asbag69
(g90
g71
NtRp1248
(dp1249
g74
(dp1250
g101
g102
ssg83
g1239
sg76
(lp1251
S':'
asbag69
(g90
g71
NtRp1252
(dp1253
g74
(dp1254
sg83
g1239
sg76
(lp1255
g69
(g70
g71
NtRp1256
(dp1257
g74
(dp1258
g82
I4
ssg83
g1252
sg76
(lp1259
g112
asbasbasbag69
(g85
g71
NtRp1260
(dp1261
g74
(dp1262
sg83
g859
sg76
(lp1263
g69
(g90
g71
NtRp1264
(dp1265
g74
(dp1266
g94
g95
ssg83
g1260
sg76
(lp1267
S'is_pypy'
p1268
asbag69
(g90
g71
NtRp1269
(dp1270
g74
(dp1271
g101
g102
ssg83
g1260
sg76
(lp1272
S':'
asbag69
(g90
g71
NtRp1273
(dp1274
g74
(dp1275
sg83
g1260
sg76
(lp1276
g69
(g70
g71
NtRp1277
(dp1278
g74
(dp1279
g82
I4
ssg83
g1273
sg76
(lp1280
g112
asbasbasbag69
(g85
g71
NtRp1281
(dp1282
g74
(dp1283
sg83
g859
sg76
(lp1284
g69
(g90
g71
NtRp1285
(dp1286
g74
(dp1287
g94
g95
ssg83
g1281
sg76
(lp1288
S'local_hosts'
p1289
asbag69
(g90
g71
NtRp1290
(dp1291
g74
(dp1292
g101
g102
ssg83
g1281
sg76
(lp1293
S':'
asbag69
(g90
g71
NtRp1294
(dp1295
g74
(dp1296
sg83
g1281
sg76
(lp1297
g69
(g70
g71
NtRp1298
(dp1299
g74
(dp1300
g82
I4
ssg83
g1294
sg76
(lp1301
g69
(g78
g71
NtRp1302
(dp1303
g74
(dp1304
g82
I3
ssg83
Nsg76
(lp1305
g69
(g85
g71
NtRp1306
(dp1307
g74
(dp1308
sg83
g1302
sg76
(lp1309
g69
(g90
g71
NtRp1310
(dp1311
g74
(dp1312
sg83
g1306
sg76
(lp1313
g69
(g70
g71
NtRp1314
(dp1315
g74
(dp1316
g82
I3
ssg83
g1310
sg76
(lp1317
S'::1'
p1318
asbasbasbag69
(g85
g71
NtRp1319
(dp1320
g74
(dp1321
sg83
g1302
sg76
(lp1322
g69
(g90
g71
NtRp1323
(dp1324
g74
(dp1325
sg83
g1319
sg76
(lp1326
g69
(g70
g71
NtRp1327
(dp1328
g74
(dp1329
g82
I3
ssg83
g1323
sg76
(lp1330
S'127.0.1.1'
p1331
asbasbasbag69
(g85
g71
NtRp1332
(dp1333
g74
(dp1334
sg83
g1302
sg76
(lp1335
g69
(g90
g71
NtRp1336
(dp1337
g74
(dp1338
sg83
g1332
sg76
(lp1339
g69
(g70
g71
NtRp1340
(dp1341
g74
(dp1342
g82
I3
ssg83
g1336
sg76
(lp1343
S'::ffff:127.0.0.1'
p1344
asbasbasbag69
(g85
g71
NtRp1345
(dp1346
g74
(dp1347
sg83
g1302
sg76
(lp1348
g69
(g90
g71
NtRp1349
(dp1350
g74
(dp1351
sg83
g1345
sg76
(lp1352
g69
(g70
g71
NtRp1353
(dp1354
g74
(dp1355
g82
I3
ssg83
g1349
sg76
(lp1356
S'127.0.0.1'
p1357
asbasbasbag69
(g85
g71
NtRp1358
(dp1359
g74
(dp1360
sg83
g1302
sg76
(lp1361
g69
(g90
g71
NtRp1362
(dp1363
g74
(dp1364
sg83
g1358
sg76
(lp1365
g69
(g70
g71
NtRp1366
(dp1367
g74
(dp1368
g82
I3
ssg83
g1362
sg76
(lp1369
S'anil-Inspiron-1525'
p1370
asbasbasbasbasbasbasbag69
(g85
g71
NtRp1371
(dp1372
g74
(dp1373
sg83
g859
sg76
(lp1374
g69
(g90
g71
NtRp1375
(dp1376
g74
(dp1377
g94
g95
ssg83
g1371
sg76
(lp1378
S'path_info'
p1379
asbag69
(g90
g71
NtRp1380
(dp1381
g74
(dp1382
g101
g102
ssg83
g1371
sg76
(lp1383
S':'
asbag69
(g90
g71
NtRp1384
(dp1385
g74
(dp1386
sg83
g1371
sg76
(lp1387
g69
(g70
g71
NtRp1388
(dp1389
g74
(dp1390
g82
I4
ssg83
g1384
sg76
(lp1391
S'/DEV_bootstrap_ch/default/list_all_projects'
p1392
asbasbasbag69
(g85
g71
NtRp1393
(dp1394
g74
(dp1395
sg83
g859
sg76
(lp1396
g69
(g90
g71
NtRp1397
(dp1398
g74
(dp1399
g94
g95
ssg83
g1393
sg76
(lp1400
S'query_string'
p1401
asbag69
(g90
g71
NtRp1402
(dp1403
g74
(dp1404
g101
g102
ssg83
g1393
sg76
(lp1405
S':'
asbag69
(g90
g71
NtRp1406
(dp1407
g74
(dp1408
sg83
g1393
sg76
(lp1409
g69
(g70
g71
NtRp1410
(dp1411
g74
(dp1412
g82
I4
ssg83
g1406
sg76
(lp1413
S''
asbasbasbag69
(g85
g71
NtRp1414
(dp1415
g74
(dp1416
sg83
g859
sg76
(lp1417
g69
(g90
g71
NtRp1418
(dp1419
g74
(dp1420
g94
g95
ssg83
g1414
sg76
(lp1421
S'remote_addr'
p1422
asbag69
(g90
g71
NtRp1423
(dp1424
g74
(dp1425
g101
g102
ssg83
g1414
sg76
(lp1426
S':'
asbag69
(g90
g71
NtRp1427
(dp1428
g74
(dp1429
sg83
g1414
sg76
(lp1430
g69
(g70
g71
NtRp1431
(dp1432
g74
(dp1433
g82
I4
ssg83
g1427
sg76
(lp1434
g224
asbasbasbag69
(g85
g71
NtRp1435
(dp1436
g74
(dp1437
sg83
g859
sg76
(lp1438
g69
(g90
g71
NtRp1439
(dp1440
g74
(dp1441
g94
g95
ssg83
g1435
sg76
(lp1442
S'remote_port'
p1443
asbag69
(g90
g71
NtRp1444
(dp1445
g74
(dp1446
g101
g102
ssg83
g1435
sg76
(lp1447
S':'
asbag69
(g90
g71
NtRp1448
(dp1449
g74
(dp1450
sg83
g1435
sg76
(lp1451
g69
(g70
g71
NtRp1452
(dp1453
g74
(dp1454
g82
I4
ssg83
g1448
sg76
(lp1455
S'40982'
p1456
asbasbasbag69
(g85
g71
NtRp1457
(dp1458
g74
(dp1459
sg83
g859
sg76
(lp1460
g69
(g90
g71
NtRp1461
(dp1462
g74
(dp1463
g94
g95
ssg83
g1457
sg76
(lp1464
S'request_method'
p1465
asbag69
(g90
g71
NtRp1466
(dp1467
g74
(dp1468
g101
g102
ssg83
g1457
sg76
(lp1469
S':'
asbag69
(g90
g71
NtRp1470
(dp1471
g74
(dp1472
sg83
g1457
sg76
(lp1473
g69
(g70
g71
NtRp1474
(dp1475
g74
(dp1476
g82
I4
ssg83
g1470
sg76
(lp1477
S'GET'
p1478
asbasbasbag69
(g85
g71
NtRp1479
(dp1480
g74
(dp1481
sg83
g859
sg76
(lp1482
g69
(g90
g71
NtRp1483
(dp1484
g74
(dp1485
g94
g95
ssg83
g1479
sg76
(lp1486
S'request_uri'
p1487
asbag69
(g90
g71
NtRp1488
(dp1489
g74
(dp1490
g101
g102
ssg83
g1479
sg76
(lp1491
S':'
asbag69
(g90
g71
NtRp1492
(dp1493
g74
(dp1494
sg83
g1479
sg76
(lp1495
g69
(g70
g71
NtRp1496
(dp1497
g74
(dp1498
g82
I4
ssg83
g1492
sg76
(lp1499
g1392
asbasbasbag69
(g85
g71
NtRp1500
(dp1501
g74
(dp1502
sg83
g859
sg76
(lp1503
g69
(g90
g71
NtRp1504
(dp1505
g74
(dp1506
g94
g95
ssg83
g1500
sg76
(lp1507
S'script_name'
p1508
asbag69
(g90
g71
NtRp1509
(dp1510
g74
(dp1511
g101
g102
ssg83
g1500
sg76
(lp1512
S':'
asbag69
(g90
g71
NtRp1513
(dp1514
g74
(dp1515
sg83
g1500
sg76
(lp1516
g69
(g70
g71
NtRp1517
(dp1518
g74
(dp1519
g82
I4
ssg83
g1513
sg76
(lp1520
S''
asbasbasbag69
(g85
g71
NtRp1521
(dp1522
g74
(dp1523
sg83
g859
sg76
(lp1524
g69
(g90
g71
NtRp1525
(dp1526
g74
(dp1527
g94
g95
ssg83
g1521
sg76
(lp1528
S'server_name'
p1529
asbag69
(g90
g71
NtRp1530
(dp1531
g74
(dp1532
g101
g102
ssg83
g1521
sg76
(lp1533
S':'
asbag69
(g90
g71
NtRp1534
(dp1535
g74
(dp1536
sg83
g1521
sg76
(lp1537
g69
(g70
g71
NtRp1538
(dp1539
g74
(dp1540
g82
I4
ssg83
g1534
sg76
(lp1541
S'anil-Inspiron-1525'
p1542
asbasbasbag69
(g85
g71
NtRp1543
(dp1544
g74
(dp1545
sg83
g859
sg76
(lp1546
g69
(g90
g71
NtRp1547
(dp1548
g74
(dp1549
g94
g95
ssg83
g1543
sg76
(lp1550
S'server_port'
p1551
asbag69
(g90
g71
NtRp1552
(dp1553
g74
(dp1554
g101
g102
ssg83
g1543
sg76
(lp1555
S':'
asbag69
(g90
g71
NtRp1556
(dp1557
g74
(dp1558
sg83
g1543
sg76
(lp1559
g69
(g70
g71
NtRp1560
(dp1561
g74
(dp1562
g82
I4
ssg83
g1556
sg76
(lp1563
S'8000'
p1564
asbasbasbag69
(g85
g71
NtRp1565
(dp1566
g74
(dp1567
sg83
g859
sg76
(lp1568
g69
(g90
g71
NtRp1569
(dp1570
g74
(dp1571
g94
g95
ssg83
g1565
sg76
(lp1572
S'server_protocol'
p1573
asbag69
(g90
g71
NtRp1574
(dp1575
g74
(dp1576
g101
g102
ssg83
g1565
sg76
(lp1577
S':'
asbag69
(g90
g71
NtRp1578
(dp1579
g74
(dp1580
sg83
g1565
sg76
(lp1581
g69
(g70
g71
NtRp1582
(dp1583
g74
(dp1584
g82
I4
ssg83
g1578
sg76
(lp1585
S'HTTP/1.1'
p1586
asbasbasbag69
(g85
g71
NtRp1587
(dp1588
g74
(dp1589
sg83
g859
sg76
(lp1590
g69
(g90
g71
NtRp1591
(dp1592
g74
(dp1593
g94
g95
ssg83
g1587
sg76
(lp1594
S'server_software'
p1595
asbag69
(g90
g71
NtRp1596
(dp1597
g74
(dp1598
g101
g102
ssg83
g1587
sg76
(lp1599
S':'
asbag69
(g90
g71
NtRp1600
(dp1601
g74
(dp1602
sg83
g1587
sg76
(lp1603
g69
(g70
g71
NtRp1604
(dp1605
g74
(dp1606
g82
I4
ssg83
g1600
sg76
(lp1607
S'Rocket 1.2.6'
p1608
asbasbasbag69
(g85
g71
NtRp1609
(dp1610
g74
(dp1611
sg83
g859
sg76
(lp1612
g69
(g90
g71
NtRp1613
(dp1614
g74
(dp1615
g94
g95
ssg83
g1609
sg76
(lp1616
S'web2py_path'
p1617
asbag69
(g90
g71
NtRp1618
(dp1619
g74
(dp1620
g101
g102
ssg83
g1609
sg76
(lp1621
S':'
asbag69
(g90
g71
NtRp1622
(dp1623
g74
(dp1624
sg83
g1609
sg76
(lp1625
g69
(g70
g71
NtRp1626
(dp1627
g74
(dp1628
g82
I4
ssg83
g1622
sg76
(lp1629
g906
asbasbasbag69
(g85
g71
NtRp1630
(dp1631
g74
(dp1632
sg83
g859
sg76
(lp1633
g69
(g90
g71
NtRp1634
(dp1635
g74
(dp1636
g94
g95
ssg83
g1630
sg76
(lp1637
S'web2py_version'
p1638
asbag69
(g90
g71
NtRp1639
(dp1640
g74
(dp1641
g101
g102
ssg83
g1630
sg76
(lp1642
S':'
asbag69
(g90
g71
NtRp1643
(dp1644
g74
(dp1645
sg83
g1630
sg76
(lp1646
g69
(g70
g71
NtRp1647
(dp1648
g74
(dp1649
g82
I4
ssg83
g1643
sg76
(lp1650
g69
(g78
g71
NtRp1651
(dp1652
g74
(dp1653
g82
I3
ssg83
Nsg76
(lp1654
g69
(g85
g71
NtRp1655
(dp1656
g74
(dp1657
sg83
g1651
sg76
(lp1658
g69
(g90
g71
NtRp1659
(dp1660
g74
(dp1661
sg83
g1655
sg76
(lp1662
g69
(g70
g71
NtRp1663
(dp1664
g74
(dp1665
g82
I3
ssg83
g1659
sg76
(lp1666
S'2'
asbasbasbag69
(g85
g71
NtRp1667
(dp1668
g74
(dp1669
sg83
g1651
sg76
(lp1670
g69
(g90
g71
NtRp1671
(dp1672
g74
(dp1673
sg83
g1667
sg76
(lp1674
g69
(g70
g71
NtRp1675
(dp1676
g74
(dp1677
g82
I3
ssg83
g1671
sg76
(lp1678
S'3'
asbasbasbag69
(g85
g71
NtRp1679
(dp1680
g74
(dp1681
sg83
g1651
sg76
(lp1682
g69
(g90
g71
NtRp1683
(dp1684
g74
(dp1685
sg83
g1679
sg76
(lp1686
g69
(g70
g71
NtRp1687
(dp1688
g74
(dp1689
g82
I3
ssg83
g1683
sg76
(lp1690
S'2'
asbasbasbag69
(g85
g71
NtRp1691
(dp1692
g74
(dp1693
sg83
g1651
sg76
(lp1694
g69
(g90
g71
NtRp1695
(dp1696
g74
(dp1697
sg83
g1691
sg76
(lp1698
g69
(g70
g71
NtRp1699
(dp1700
g74
(dp1701
g82
I3
ssg83
g1695
sg76
(lp1702
S'datetime.datetime(2012, 12, 17, 15, 3, 30)'
p1703
asbasbasbag69
(g85
g71
NtRp1704
(dp1705
g74
(dp1706
sg83
g1651
sg76
(lp1707
g69
(g90
g71
NtRp1708
(dp1709
g74
(dp1710
sg83
g1704
sg76
(lp1711
g69
(g70
g71
NtRp1712
(dp1713
g74
(dp1714
g82
I3
ssg83
g1708
sg76
(lp1715
S'stable'
p1716
asbasbasbasbasbasbasbag69
(g85
g71
NtRp1717
(dp1718
g74
(dp1719
sg83
g859
sg76
(lp1720
g69
(g90
g71
NtRp1721
(dp1722
g74
(dp1723
g94
g95
ssg83
g1717
sg76
(lp1724
S'wsgi_errors'
p1725
asbag69
(g90
g71
NtRp1726
(dp1727
g74
(dp1728
g101
g102
ssg83
g1717
sg76
(lp1729
S':'
asbag69
(g90
g71
NtRp1730
(dp1731
g74
(dp1732
sg83
g1717
sg76
(lp1733
g69
(g70
g71
NtRp1734
(dp1735
g74
(dp1736
g82
I4
ssg83
g1730
sg76
(lp1737
S"<open file '<stderr>', mode 'w' at 0xb73670d0>"
p1738
asbasbasbag69
(g85
g71
NtRp1739
(dp1740
g74
(dp1741
sg83
g859
sg76
(lp1742
g69
(g90
g71
NtRp1743
(dp1744
g74
(dp1745
g94
g95
ssg83
g1739
sg76
(lp1746
S'wsgi_file_wrapper'
p1747
asbag69
(g90
g71
NtRp1748
(dp1749
g74
(dp1750
g101
g102
ssg83
g1739
sg76
(lp1751
S':'
asbag69
(g90
g71
NtRp1752
(dp1753
g74
(dp1754
sg83
g1739
sg76
(lp1755
g69
(g70
g71
NtRp1756
(dp1757
g74
(dp1758
g82
I4
ssg83
g1752
sg76
(lp1759
S'<class wsgiref.util.FileWrapper at 0xa197bcc>'
p1760
asbasbasbag69
(g85
g71
NtRp1761
(dp1762
g74
(dp1763
sg83
g859
sg76
(lp1764
g69
(g90
g71
NtRp1765
(dp1766
g74
(dp1767
g94
g95
ssg83
g1761
sg76
(lp1768
S'wsgi_input'
p1769
asbag69
(g90
g71
NtRp1770
(dp1771
g74
(dp1772
g101
g102
ssg83
g1761
sg76
(lp1773
S':'
asbag69
(g90
g71
NtRp1774
(dp1775
g74
(dp1776
sg83
g1761
sg76
(lp1777
g69
(g70
g71
NtRp1778
(dp1779
g74
(dp1780
g82
I4
ssg83
g1774
sg76
(lp1781
S'<socket._fileobject object at 0xb646896c>'
p1782
asbasbasbag69
(g85
g71
NtRp1783
(dp1784
g74
(dp1785
sg83
g859
sg76
(lp1786
g69
(g90
g71
NtRp1787
(dp1788
g74
(dp1789
g94
g95
ssg83
g1783
sg76
(lp1790
S'wsgi_multiprocess'
p1791
asbag69
(g90
g71
NtRp1792
(dp1793
g74
(dp1794
g101
g102
ssg83
g1783
sg76
(lp1795
S':'
asbag69
(g90
g71
NtRp1796
(dp1797
g74
(dp1798
sg83
g1783
sg76
(lp1799
g69
(g70
g71
NtRp1800
(dp1801
g74
(dp1802
g82
I4
ssg83
g1796
sg76
(lp1803
g112
asbasbasbag69
(g85
g71
NtRp1804
(dp1805
g74
(dp1806
sg83
g859
sg76
(lp1807
g69
(g90
g71
NtRp1808
(dp1809
g74
(dp1810
g94
g95
ssg83
g1804
sg76
(lp1811
S'wsgi_multithread'
p1812
asbag69
(g90
g71
NtRp1813
(dp1814
g74
(dp1815
g101
g102
ssg83
g1804
sg76
(lp1816
S':'
asbag69
(g90
g71
NtRp1817
(dp1818
g74
(dp1819
sg83
g1804
sg76
(lp1820
g69
(g70
g71
NtRp1821
(dp1822
g74
(dp1823
g82
I4
ssg83
g1817
sg76
(lp1824
S'True'
p1825
asbasbasbag69
(g85
g71
NtRp1826
(dp1827
g74
(dp1828
sg83
g859
sg76
(lp1829
g69
(g90
g71
NtRp1830
(dp1831
g74
(dp1832
g94
g95
ssg83
g1826
sg76
(lp1833
S'wsgi_run_once'
p1834
asbag69
(g90
g71
NtRp1835
(dp1836
g74
(dp1837
g101
g102
ssg83
g1826
sg76
(lp1838
S':'
asbag69
(g90
g71
NtRp1839
(dp1840
g74
(dp1841
sg83
g1826
sg76
(lp1842
g69
(g70
g71
NtRp1843
(dp1844
g74
(dp1845
g82
I4
ssg83
g1839
sg76
(lp1846
g112
asbasbasbag69
(g85
g71
NtRp1847
(dp1848
g74
(dp1849
sg83
g859
sg76
(lp1850
g69
(g90
g71
NtRp1851
(dp1852
g74
(dp1853
g94
g95
ssg83
g1847
sg76
(lp1854
S'wsgi_url_scheme'
p1855
asbag69
(g90
g71
NtRp1856
(dp1857
g74
(dp1858
g101
g102
ssg83
g1847
sg76
(lp1859
S':'
asbag69
(g90
g71
NtRp1860
(dp1861
g74
(dp1862
sg83
g1847
sg76
(lp1863
g69
(g70
g71
NtRp1864
(dp1865
g74
(dp1866
g82
I4
ssg83
g1860
sg76
(lp1867
S'http'
p1868
asbasbasbag69
(g85
g71
NtRp1869
(dp1870
g74
(dp1871
sg83
g859
sg76
(lp1872
g69
(g90
g71
NtRp1873
(dp1874
g74
(dp1875
g94
g95
ssg83
g1869
sg76
(lp1876
S'wsgi_version'
p1877
asbag69
(g90
g71
NtRp1878
(dp1879
g74
(dp1880
g101
g102
ssg83
g1869
sg76
(lp1881
S':'
asbag69
(g90
g71
NtRp1882
(dp1883
g74
(dp1884
sg83
g1869
sg76
(lp1885
g69
(g70
g71
NtRp1886
(dp1887
g74
(dp1888
g82
I4
ssg83
g1882
sg76
(lp1889
g69
(g78
g71
NtRp1890
(dp1891
g74
(dp1892
g82
I3
ssg83
Nsg76
(lp1893
g69
(g85
g71
NtRp1894
(dp1895
g74
(dp1896
sg83
g1890
sg76
(lp1897
g69
(g90
g71
NtRp1898
(dp1899
g74
(dp1900
sg83
g1894
sg76
(lp1901
g69
(g70
g71
NtRp1902
(dp1903
g74
(dp1904
g82
I3
ssg83
g1898
sg76
(lp1905
S'1'
asbasbasbag69
(g85
g71
NtRp1906
(dp1907
g74
(dp1908
sg83
g1890
sg76
(lp1909
g69
(g90
g71
NtRp1910
(dp1911
g74
(dp1912
sg83
g1906
sg76
(lp1913
g69
(g70
g71
NtRp1914
(dp1915
g74
(dp1916
g82
I3
ssg83
g1910
sg76
(lp1917
S'0'
asbasbasbasbasbasbasbasbasbasbasbag69
(g85
g71
NtRp1918
(dp1919
g74
(dp1920
sg83
g79
sg76
(lp1921
g69
(g90
g71
NtRp1922
(dp1923
g74
(dp1924
g94
g95
ssg83
g1918
sg76
(lp1925
S'extension'
p1926
asbag69
(g90
g71
NtRp1927
(dp1928
g74
(dp1929
g101
g102
ssg83
g1918
sg76
(lp1930
S':'
asbag69
(g90
g71
NtRp1931
(dp1932
g74
(dp1933
sg83
g1918
sg76
(lp1934
g69
(g70
g71
NtRp1935
(dp1936
g74
(dp1937
g82
I5
ssg83
g1931
sg76
(lp1938
S'html'
p1939
asbasbasbag69
(g85
g71
NtRp1940
(dp1941
g74
(dp1942
sg83
g79
sg76
(lp1943
g69
(g90
g71
NtRp1944
(dp1945
g74
(dp1946
g94
g95
ssg83
g1940
sg76
(lp1947
S'folder'
p1948
asbag69
(g90
g71
NtRp1949
(dp1950
g74
(dp1951
g101
g102
ssg83
g1940
sg76
(lp1952
S':'
asbag69
(g90
g71
NtRp1953
(dp1954
g74
(dp1955
sg83
g1940
sg76
(lp1956
g69
(g70
g71
NtRp1957
(dp1958
g74
(dp1959
g82
I5
ssg83
g1953
sg76
(lp1960
S'/home/anil/bootstrap/web2py/applications/DEV_bootstrap_ch/'
p1961
asbasbasbag69
(g85
g71
NtRp1962
(dp1963
g74
(dp1964
sg83
g79
sg76
(lp1965
g69
(g90
g71
NtRp1966
(dp1967
g74
(dp1968
g94
g95
ssg83
g1962
sg76
(lp1969
S'function'
p1970
asbag69
(g90
g71
NtRp1971
(dp1972
g74
(dp1973
g101
g102
ssg83
g1962
sg76
(lp1974
S':'
asbag69
(g90
g71
NtRp1975
(dp1976
g74
(dp1977
sg83
g1962
sg76
(lp1978
g69
(g70
g71
NtRp1979
(dp1980
g74
(dp1981
g82
I5
ssg83
g1975
sg76
(lp1982
S'list_all_projects'
p1983
asbasbasbag69
(g85
g71
NtRp1984
(dp1985
g74
(dp1986
sg83
g79
sg76
(lp1987
g69
(g90
g71
NtRp1988
(dp1989
g74
(dp1990
g94
g95
ssg83
g1984
sg76
(lp1991
S'get_vars'
p1992
asbag69
(g90
g71
NtRp1993
(dp1994
g74
(dp1995
g101
g102
ssg83
g1984
sg76
(lp1996
S':'
asbag69
(g90
g71
NtRp1997
(dp1998
g74
(dp1999
sg83
g1984
sg76
(lp2000
g69
(g70
g71
NtRp2001
(dp2002
g74
(dp2003
g82
I5
ssg83
g1997
sg76
(lp2004
g69
(g78
g71
NtRp2005
(dp2006
g74
(dp2007
g82
I4
ssg83
Nsg76
(lp2008
sbasbasbasbag69
(g85
g71
NtRp2009
(dp2010
g74
(dp2011
sg83
g79
sg76
(lp2012
g69
(g90
g71
NtRp2013
(dp2014
g74
(dp2015
g94
g95
ssg83
g2009
sg76
(lp2016
S'global_settings'
p2017
asbag69
(g90
g71
NtRp2018
(dp2019
g74
(dp2020
g101
g102
ssg83
g2009
sg76
(lp2021
S':'
asbag69
(g90
g71
NtRp2022
(dp2023
g74
(dp2024
sg83
g2009
sg76
(lp2025
g69
(g70
g71
NtRp2026
(dp2027
g74
(dp2028
g82
I5
ssg83
g2022
sg76
(lp2029
g69
(g78
g71
NtRp2030
(dp2031
g74
(dp2032
g82
I4
ssg83
Nsg76
(lp2033
g69
(g85
g71
NtRp2034
(dp2035
g74
(dp2036
sg83
g2030
sg76
(lp2037
g69
(g90
g71
NtRp2038
(dp2039
g74
(dp2040
g94
g95
ssg83
g2034
sg76
(lp2041
g871
asbag69
(g90
g71
NtRp2042
(dp2043
g74
(dp2044
g101
g102
ssg83
g2034
sg76
(lp2045
S':'
asbag69
(g90
g71
NtRp2046
(dp2047
g74
(dp2048
sg83
g2034
sg76
(lp2049
g69
(g70
g71
NtRp2050
(dp2051
g74
(dp2052
g82
I4
ssg83
g2046
sg76
(lp2053
S"set(['/home/anil/bootstrap/web2py/applications/admin/', '/home/anil/bootstrap/web2py/applications/welcome/', '/home/anil/bootstrap/web2py/applications/DEV_bootstrap_ch/'])"
p2054
asbasbasbag69
(g85
g71
NtRp2055
(dp2056
g74
(dp2057
sg83
g2030
sg76
(lp2058
g69
(g90
g71
NtRp2059
(dp2060
g74
(dp2061
g94
g95
ssg83
g2055
sg76
(lp2062
g893
asbag69
(g90
g71
NtRp2063
(dp2064
g74
(dp2065
g101
g102
ssg83
g2055
sg76
(lp2066
S':'
asbag69
(g90
g71
NtRp2067
(dp2068
g74
(dp2069
sg83
g2055
sg76
(lp2070
g69
(g70
g71
NtRp2071
(dp2072
g74
(dp2073
g82
I4
ssg83
g2067
sg76
(lp2074
g906
asbasbasbag69
(g85
g71
NtRp2075
(dp2076
g74
(dp2077
sg83
g2030
sg76
(lp2078
g69
(g90
g71
NtRp2079
(dp2080
g74
(dp2081
g94
g95
ssg83
g2075
sg76
(lp2082
g915
asbag69
(g90
g71
NtRp2083
(dp2084
g74
(dp2085
g101
g102
ssg83
g2075
sg76
(lp2086
S':'
asbag69
(g90
g71
NtRp2087
(dp2088
g74
(dp2089
sg83
g2075
sg76
(lp2090
g69
(g70
g71
NtRp2091
(dp2092
g74
(dp2093
g82
I4
ssg83
g2087
sg76
(lp2094
g69
(g78
g71
NtRp2095
(dp2096
g74
(dp2097
g82
I3
ssg83
Nsg76
(lp2098
sbasbasbasbag69
(g85
g71
NtRp2099
(dp2100
g74
(dp2101
sg83
g2030
sg76
(lp2102
g69
(g90
g71
NtRp2103
(dp2104
g74
(dp2105
g94
g95
ssg83
g2099
sg76
(lp2106
g940
asbag69
(g90
g71
NtRp2107
(dp2108
g74
(dp2109
g101
g102
ssg83
g2099
sg76
(lp2110
S':'
asbag69
(g90
g71
NtRp2111
(dp2112
g74
(dp2113
sg83
g2099
sg76
(lp2114
g69
(g70
g71
NtRp2115
(dp2116
g74
(dp2117
g82
I4
ssg83
g2111
sg76
(lp2118
S"<Values at 0xa20e06c: {'verbose': False, 'ip': '127.0.0.1', 'with_scheduler': False, 'ips': [], 'shutdown_timeout': 5, 'taskbar': False, 'port': 8000, 'maxthreads': None, 'softcron': False, 'server_name': 'anil-Inspiron-1525', 'bpython': False, 'nogui': False, 'pid_filename': 'httpserver.pid', 'extcron': False, 'runcron': False, 'run_system_tests': False, 'test': None, 'folder': '/home/anil/bootstrap/web2py', 'config': '', 'import_models': False, 'winservice': '', 'shell': None, 'run': '', 'log_filename': 'httpserver.log', 'debuglevel': 30, 'args': [''], 'socket_timeout': 5, 'ssl_ca_certificate': None, 'scheduler': None, 'profiler_filename': None, 'ssl_private_key': '', 'scheduler_groups': None, 'password': '123', 'request_queue_size': 5, 'ssl_certificate': '', 'cronjob': False, 'numthreads': None, 'quiet': False, 'interfaces': None, 'minthreads': None, 'timeout': 10, 'plain': False, 'nobanner': False}>"
p2119
asbasbasbag69
(g85
g71
NtRp2120
(dp2121
g74
(dp2122
sg83
g2030
sg76
(lp2123
g69
(g90
g71
NtRp2124
(dp2125
g74
(dp2126
g94
g95
ssg83
g2120
sg76
(lp2127
g962
asbag69
(g90
g71
NtRp2128
(dp2129
g74
(dp2130
g101
g102
ssg83
g2120
sg76
(lp2131
S':'
asbag69
(g90
g71
NtRp2132
(dp2133
g74
(dp2134
sg83
g2120
sg76
(lp2135
g69
(g70
g71
NtRp2136
(dp2137
g74
(dp2138
g82
I4
ssg83
g2132
sg76
(lp2139
S'set([])'
p2140
asbasbasbag69
(g85
g71
NtRp2141
(dp2142
g74
(dp2143
sg83
g2030
sg76
(lp2144
g69
(g90
g71
NtRp2145
(dp2146
g74
(dp2147
g94
g95
ssg83
g2141
sg76
(lp2148
g984
asbag69
(g90
g71
NtRp2149
(dp2150
g74
(dp2151
g101
g102
ssg83
g2141
sg76
(lp2152
S':'
asbag69
(g90
g71
NtRp2153
(dp2154
g74
(dp2155
sg83
g2141
sg76
(lp2156
g69
(g70
g71
NtRp2157
(dp2158
g74
(dp2159
g82
I4
ssg83
g2153
sg76
(lp2160
g112
asbasbasbag69
(g85
g71
NtRp2161
(dp2162
g74
(dp2163
sg83
g2030
sg76
(lp2164
g69
(g90
g71
NtRp2165
(dp2166
g74
(dp2167
g94
g95
ssg83
g2161
sg76
(lp2168
g1005
asbag69
(g90
g71
NtRp2169
(dp2170
g74
(dp2171
g101
g102
ssg83
g2161
sg76
(lp2172
S':'
asbag69
(g90
g71
NtRp2173
(dp2174
g74
(dp2175
sg83
g2161
sg76
(lp2176
g69
(g70
g71
NtRp2177
(dp2178
g74
(dp2179
g82
I4
ssg83
g2173
sg76
(lp2180
g1018
asbasbasbag69
(g85
g71
NtRp2181
(dp2182
g74
(dp2183
sg83
g2030
sg76
(lp2184
g69
(g90
g71
NtRp2185
(dp2186
g74
(dp2187
g94
g95
ssg83
g2181
sg76
(lp2188
g1247
asbag69
(g90
g71
NtRp2189
(dp2190
g74
(dp2191
g101
g102
ssg83
g2181
sg76
(lp2192
S':'
asbag69
(g90
g71
NtRp2193
(dp2194
g74
(dp2195
sg83
g2181
sg76
(lp2196
g69
(g70
g71
NtRp2197
(dp2198
g74
(dp2199
g82
I4
ssg83
g2193
sg76
(lp2200
g112
asbasbasbag69
(g85
g71
NtRp2201
(dp2202
g74
(dp2203
sg83
g2030
sg76
(lp2204
g69
(g90
g71
NtRp2205
(dp2206
g74
(dp2207
g94
g95
ssg83
g2201
sg76
(lp2208
g1268
asbag69
(g90
g71
NtRp2209
(dp2210
g74
(dp2211
g101
g102
ssg83
g2201
sg76
(lp2212
S':'
asbag69
(g90
g71
NtRp2213
(dp2214
g74
(dp2215
sg83
g2201
sg76
(lp2216
g69
(g70
g71
NtRp2217
(dp2218
g74
(dp2219
g82
I4
ssg83
g2213
sg76
(lp2220
g112
asbasbasbag69
(g85
g71
NtRp2221
(dp2222
g74
(dp2223
sg83
g2030
sg76
(lp2224
g69
(g90
g71
NtRp2225
(dp2226
g74
(dp2227
g94
g95
ssg83
g2221
sg76
(lp2228
g1289
asbag69
(g90
g71
NtRp2229
(dp2230
g74
(dp2231
g101
g102
ssg83
g2221
sg76
(lp2232
S':'
asbag69
(g90
g71
NtRp2233
(dp2234
g74
(dp2235
sg83
g2221
sg76
(lp2236
g69
(g70
g71
NtRp2237
(dp2238
g74
(dp2239
g82
I4
ssg83
g2233
sg76
(lp2240
g69
(g78
g71
NtRp2241
(dp2242
g74
(dp2243
g82
I3
ssg83
Nsg76
(lp2244
g69
(g85
g71
NtRp2245
(dp2246
g74
(dp2247
sg83
g2241
sg76
(lp2248
g69
(g90
g71
NtRp2249
(dp2250
g74
(dp2251
sg83
g2245
sg76
(lp2252
g69
(g70
g71
NtRp2253
(dp2254
g74
(dp2255
g82
I3
ssg83
g2249
sg76
(lp2256
g1318
asbasbasbag69
(g85
g71
NtRp2257
(dp2258
g74
(dp2259
sg83
g2241
sg76
(lp2260
g69
(g90
g71
NtRp2261
(dp2262
g74
(dp2263
sg83
g2257
sg76
(lp2264
g69
(g70
g71
NtRp2265
(dp2266
g74
(dp2267
g82
I3
ssg83
g2261
sg76
(lp2268
g1331
asbasbasbag69
(g85
g71
NtRp2269
(dp2270
g74
(dp2271
sg83
g2241
sg76
(lp2272
g69
(g90
g71
NtRp2273
(dp2274
g74
(dp2275
sg83
g2269
sg76
(lp2276
g69
(g70
g71
NtRp2277
(dp2278
g74
(dp2279
g82
I3
ssg83
g2273
sg76
(lp2280
g1344
asbasbasbag69
(g85
g71
NtRp2281
(dp2282
g74
(dp2283
sg83
g2241
sg76
(lp2284
g69
(g90
g71
NtRp2285
(dp2286
g74
(dp2287
sg83
g2281
sg76
(lp2288
g69
(g70
g71
NtRp2289
(dp2290
g74
(dp2291
g82
I3
ssg83
g2285
sg76
(lp2292
g1357
asbasbasbag69
(g85
g71
NtRp2293
(dp2294
g74
(dp2295
sg83
g2241
sg76
(lp2296
g69
(g90
g71
NtRp2297
(dp2298
g74
(dp2299
sg83
g2293
sg76
(lp2300
g69
(g70
g71
NtRp2301
(dp2302
g74
(dp2303
g82
I3
ssg83
g2297
sg76
(lp2304
g1370
asbasbasbasbasbasbasbag69
(g85
g71
NtRp2305
(dp2306
g74
(dp2307
sg83
g2030
sg76
(lp2308
g69
(g90
g71
NtRp2309
(dp2310
g74
(dp2311
g94
g95
ssg83
g2305
sg76
(lp2312
g1638
asbag69
(g90
g71
NtRp2313
(dp2314
g74
(dp2315
g101
g102
ssg83
g2305
sg76
(lp2316
S':'
asbag69
(g90
g71
NtRp2317
(dp2318
g74
(dp2319
sg83
g2305
sg76
(lp2320
g69
(g70
g71
NtRp2321
(dp2322
g74
(dp2323
g82
I4
ssg83
g2317
sg76
(lp2324
g69
(g78
g71
NtRp2325
(dp2326
g74
(dp2327
g82
I3
ssg83
Nsg76
(lp2328
g69
(g85
g71
NtRp2329
(dp2330
g74
(dp2331
sg83
g2325
sg76
(lp2332
g69
(g90
g71
NtRp2333
(dp2334
g74
(dp2335
sg83
g2329
sg76
(lp2336
g69
(g70
g71
NtRp2337
(dp2338
g74
(dp2339
g82
I3
ssg83
g2333
sg76
(lp2340
S'2'
asbasbasbag69
(g85
g71
NtRp2341
(dp2342
g74
(dp2343
sg83
g2325
sg76
(lp2344
g69
(g90
g71
NtRp2345
(dp2346
g74
(dp2347
sg83
g2341
sg76
(lp2348
g69
(g70
g71
NtRp2349
(dp2350
g74
(dp2351
g82
I3
ssg83
g2345
sg76
(lp2352
S'3'
asbasbasbag69
(g85
g71
NtRp2353
(dp2354
g74
(dp2355
sg83
g2325
sg76
(lp2356
g69
(g90
g71
NtRp2357
(dp2358
g74
(dp2359
sg83
g2353
sg76
(lp2360
g69
(g70
g71
NtRp2361
(dp2362
g74
(dp2363
g82
I3
ssg83
g2357
sg76
(lp2364
S'2'
asbasbasbag69
(g85
g71
NtRp2365
(dp2366
g74
(dp2367
sg83
g2325
sg76
(lp2368
g69
(g90
g71
NtRp2369
(dp2370
g74
(dp2371
sg83
g2365
sg76
(lp2372
g69
(g70
g71
NtRp2373
(dp2374
g74
(dp2375
g82
I3
ssg83
g2369
sg76
(lp2376
S'datetime.datetime(2012, 12, 17, 15, 3, 30)'
p2377
asbasbasbag69
(g85
g71
NtRp2378
(dp2379
g74
(dp2380
sg83
g2325
sg76
(lp2381
g69
(g90
g71
NtRp2382
(dp2383
g74
(dp2384
sg83
g2378
sg76
(lp2385
g69
(g70
g71
NtRp2386
(dp2387
g74
(dp2388
g82
I3
ssg83
g2382
sg76
(lp2389
g1716
asbasbasbasbasbasbasbasbasbasbasbag69
(g85
g71
NtRp2390
(dp2391
g74
(dp2392
sg83
g79
sg76
(lp2393
g69
(g90
g71
NtRp2394
(dp2395
g74
(dp2396
g94
g95
ssg83
g2390
sg76
(lp2397
S'is_https'
p2398
asbag69
(g90
g71
NtRp2399
(dp2400
g74
(dp2401
g101
g102
ssg83
g2390
sg76
(lp2402
S':'
asbag69
(g90
g71
NtRp2403
(dp2404
g74
(dp2405
sg83
g2390
sg76
(lp2406
g69
(g70
g71
NtRp2407
(dp2408
g74
(dp2409
g82
I5
ssg83
g2403
sg76
(lp2410
g112
asbasbasbag69
(g85
g71
NtRp2411
(dp2412
g74
(dp2413
sg83
g79
sg76
(lp2414
g69
(g90
g71
NtRp2415
(dp2416
g74
(dp2417
g94
g95
ssg83
g2411
sg76
(lp2418
S'is_local'
p2419
asbag69
(g90
g71
NtRp2420
(dp2421
g74
(dp2422
g101
g102
ssg83
g2411
sg76
(lp2423
S':'
asbag69
(g90
g71
NtRp2424
(dp2425
g74
(dp2426
sg83
g2411
sg76
(lp2427
g69
(g70
g71
NtRp2428
(dp2429
g74
(dp2430
g82
I5
ssg83
g2424
sg76
(lp2431
g1825
asbasbasbag69
(g85
g71
NtRp2432
(dp2433
g74
(dp2434
sg83
g79
sg76
(lp2435
g69
(g90
g71
NtRp2436
(dp2437
g74
(dp2438
g94
g95
ssg83
g2432
sg76
(lp2439
S'is_restful'
p2440
asbag69
(g90
g71
NtRp2441
(dp2442
g74
(dp2443
g101
g102
ssg83
g2432
sg76
(lp2444
S':'
asbag69
(g90
g71
NtRp2445
(dp2446
g74
(dp2447
sg83
g2432
sg76
(lp2448
g69
(g70
g71
NtRp2449
(dp2450
g74
(dp2451
g82
I5
ssg83
g2445
sg76
(lp2452
g112
asbasbasbag69
(g85
g71
NtRp2453
(dp2454
g74
(dp2455
sg83
g79
sg76
(lp2456
g69
(g90
g71
NtRp2457
(dp2458
g74
(dp2459
g94
g95
ssg83
g2453
sg76
(lp2460
S'now'
p2461
asbag69
(g90
g71
NtRp2462
(dp2463
g74
(dp2464
g101
g102
ssg83
g2453
sg76
(lp2465
S':'
asbag69
(g90
g71
NtRp2466
(dp2467
g74
(dp2468
sg83
g2453
sg76
(lp2469
g69
(g70
g71
NtRp2470
(dp2471
g74
(dp2472
g82
I5
ssg83
g2466
sg76
(lp2473
S'datetime.datetime(2013, 2, 28, 15, 37, 50, 151832)'
p2474
asbasbasbag69
(g85
g71
NtRp2475
(dp2476
g74
(dp2477
sg83
g79
sg76
(lp2478
g69
(g90
g71
NtRp2479
(dp2480
g74
(dp2481
g94
g95
ssg83
g2475
sg76
(lp2482
S'post_vars'
p2483
asbag69
(g90
g71
NtRp2484
(dp2485
g74
(dp2486
g101
g102
ssg83
g2475
sg76
(lp2487
S':'
asbag69
(g90
g71
NtRp2488
(dp2489
g74
(dp2490
sg83
g2475
sg76
(lp2491
g69
(g70
g71
NtRp2492
(dp2493
g74
(dp2494
g82
I5
ssg83
g2488
sg76
(lp2495
g69
(g78
g71
NtRp2496
(dp2497
g74
(dp2498
g82
I4
ssg83
Nsg76
(lp2499
sbasbasbasbag69
(g85
g71
NtRp2500
(dp2501
g74
(dp2502
sg83
g79
sg76
(lp2503
g69
(g90
g71
NtRp2504
(dp2505
g74
(dp2506
g94
g95
ssg83
g2500
sg76
(lp2507
S'raw_args'
p2508
asbag69
(g90
g71
NtRp2509
(dp2510
g74
(dp2511
g101
g102
ssg83
g2500
sg76
(lp2512
S':'
asbag69
(g90
g71
NtRp2513
(dp2514
g74
(dp2515
sg83
g2500
sg76
(lp2516
g69
(g70
g71
NtRp2517
(dp2518
g74
(dp2519
g82
I5
ssg83
g2513
sg76
(lp2520
S''
asbasbasbag69
(g85
g71
NtRp2521
(dp2522
g74
(dp2523
sg83
g79
sg76
(lp2524
g69
(g90
g71
NtRp2525
(dp2526
g74
(dp2527
g94
g95
ssg83
g2521
sg76
(lp2528
S'raw_extension'
p2529
asbag69
(g90
g71
NtRp2530
(dp2531
g74
(dp2532
g101
g102
ssg83
g2521
sg76
(lp2533
S':'
asbag69
(g90
g71
NtRp2534
(dp2535
g74
(dp2536
sg83
g2521
sg76
(lp2537
g69
(g70
g71
NtRp2538
(dp2539
g74
(dp2540
g82
I5
ssg83
g2534
sg76
(lp2541
S'None'
p2542
asbasbasbag69
(g85
g71
NtRp2543
(dp2544
g74
(dp2545
sg83
g79
sg76
(lp2546
g69
(g90
g71
NtRp2547
(dp2548
g74
(dp2549
g94
g95
ssg83
g2543
sg76
(lp2550
S'url'
p2551
asbag69
(g90
g71
NtRp2552
(dp2553
g74
(dp2554
g101
g102
ssg83
g2543
sg76
(lp2555
S':'
asbag69
(g90
g71
NtRp2556
(dp2557
g74
(dp2558
sg83
g2543
sg76
(lp2559
g69
(g70
g71
NtRp2560
(dp2561
g74
(dp2562
g82
I5
ssg83
g2556
sg76
(lp2563
g1392
asbasbasbag69
(g85
g71
NtRp2564
(dp2565
g74
(dp2566
sg83
g79
sg76
(lp2567
g69
(g90
g71
NtRp2568
(dp2569
g74
(dp2570
g94
g95
ssg83
g2564
sg76
(lp2571
S'utcnow'
p2572
asbag69
(g90
g71
NtRp2573
(dp2574
g74
(dp2575
g101
g102
ssg83
g2564
sg76
(lp2576
S':'
asbag69
(g90
g71
NtRp2577
(dp2578
g74
(dp2579
sg83
g2564
sg76
(lp2580
g69
(g70
g71
NtRp2581
(dp2582
g74
(dp2583
g82
I5
ssg83
g2577
sg76
(lp2584
S'datetime.datetime(2013, 2, 28, 10, 7, 50, 151884)'
p2585
asbasbasbag69
(g85
g71
NtRp2586
(dp2587
g74
(dp2588
sg83
g79
sg76
(lp2589
g69
(g90
g71
NtRp2590
(dp2591
g74
(dp2592
g94
g95
ssg83
g2586
sg76
(lp2593
S'uuid'
p2594
asbag69
(g90
g71
NtRp2595
(dp2596
g74
(dp2597
g101
g102
ssg83
g2586
sg76
(lp2598
S':'
asbag69
(g90
g71
NtRp2599
(dp2600
g74
(dp2601
sg83
g2586
sg76
(lp2602
g69
(g70
g71
NtRp2603
(dp2604
g74
(dp2605
g82
I5
ssg83
g2599
sg76
(lp2606
S'DEV_bootstrap_ch/127.0.0.1.2013-02-28.15-37-50.9aa03ced-9282-4f10-9867-aa01411252fa'
p2607
asbasbasbag69
(g85
g71
NtRp2608
(dp2609
g74
(dp2610
sg83
g79
sg76
(lp2611
g69
(g90
g71
NtRp2612
(dp2613
g74
(dp2614
g94
g95
ssg83
g2608
sg76
(lp2615
S'vars'
p2616
asbag69
(g90
g71
NtRp2617
(dp2618
g74
(dp2619
g101
g102
ssg83
g2608
sg76
(lp2620
S':'
asbag69
(g90
g71
NtRp2621
(dp2622
g74
(dp2623
sg83
g2608
sg76
(lp2624
g69
(g70
g71
NtRp2625
(dp2626
g74
(dp2627
g82
I5
ssg83
g2621
sg76
(lp2628
g69
(g78
g71
NtRp2629
(dp2630
g74
(dp2631
g82
I4
ssg83
Nsg76
(lp2632
sbasbasbasbag69
(g85
g71
NtRp2633
(dp2634
g74
(dp2635
sg83
g79
sg76
(lp2636
g69
(g90
g71
NtRp2637
(dp2638
g74
(dp2639
g94
g95
ssg83
g2633
sg76
(lp2640
S'wsgi'
p2641
asbag69
(g90
g71
NtRp2642
(dp2643
g74
(dp2644
g101
g102
ssg83
g2633
sg76
(lp2645
S':'
asbag69
(g90
g71
NtRp2646
(dp2647
g74
(dp2648
sg83
g2633
sg76
(lp2649
g69
(g70
g71
NtRp2650
(dp2651
g74
(dp2652
g82
I5
ssg83
g2646
sg76
(lp2653
g69
(g78
g71
NtRp2654
(dp2655
g74
(dp2656
g82
I4
ssg83
Nsg76
(lp2657
g69
(g85
g71
NtRp2658
(dp2659
g74
(dp2660
sg83
g2654
sg76
(lp2661
g69
(g90
g71
NtRp2662
(dp2663
g74
(dp2664
g94
g95
ssg83
g2658
sg76
(lp2665
S'environ'
p2666
asbag69
(g90
g71
NtRp2667
(dp2668
g74
(dp2669
g101
g102
ssg83
g2658
sg76
(lp2670
S':'
asbag69
(g90
g71
NtRp2671
(dp2672
g74
(dp2673
sg83
g2658
sg76
(lp2674
g69
(g70
g71
NtRp2675
(dp2676
g74
(dp2677
g82
I4
ssg83
g2671
sg76
(lp2678
g69
(g78
g71
NtRp2679
(dp2680
g74
(dp2681
g82
I3
ssg83
Nsg76
(lp2682
g69
(g85
g71
NtRp2683
(dp2684
g74
(dp2685
sg83
g2679
sg76
(lp2686
g69
(g90
g71
NtRp2687
(dp2688
g74
(dp2689
g94
g95
ssg83
g2683
sg76
(lp2690
S'HTTP_ACCEPT'
p2691
asbag69
(g90
g71
NtRp2692
(dp2693
g74
(dp2694
g101
g102
ssg83
g2683
sg76
(lp2695
S':'
asbag69
(g90
g71
NtRp2696
(dp2697
g74
(dp2698
sg83
g2683
sg76
(lp2699
g69
(g70
g71
NtRp2700
(dp2701
g74
(dp2702
g82
I3
ssg83
g2696
sg76
(lp2703
g1040
asbasbasbag69
(g85
g71
NtRp2704
(dp2705
g74
(dp2706
sg83
g2679
sg76
(lp2707
g69
(g90
g71
NtRp2708
(dp2709
g74
(dp2710
g94
g95
ssg83
g2704
sg76
(lp2711
S'HTTP_ACCEPT_CHARSET'
p2712
asbag69
(g90
g71
NtRp2713
(dp2714
g74
(dp2715
g101
g102
ssg83
g2704
sg76
(lp2716
S':'
asbag69
(g90
g71
NtRp2717
(dp2718
g74
(dp2719
sg83
g2704
sg76
(lp2720
g69
(g70
g71
NtRp2721
(dp2722
g74
(dp2723
g82
I3
ssg83
g2717
sg76
(lp2724
g1062
asbasbasbag69
(g85
g71
NtRp2725
(dp2726
g74
(dp2727
sg83
g2679
sg76
(lp2728
g69
(g90
g71
NtRp2729
(dp2730
g74
(dp2731
g94
g95
ssg83
g2725
sg76
(lp2732
S'HTTP_ACCEPT_ENCODING'
p2733
asbag69
(g90
g71
NtRp2734
(dp2735
g74
(dp2736
g101
g102
ssg83
g2725
sg76
(lp2737
S':'
asbag69
(g90
g71
NtRp2738
(dp2739
g74
(dp2740
sg83
g2725
sg76
(lp2741
g69
(g70
g71
NtRp2742
(dp2743
g74
(dp2744
g82
I3
ssg83
g2738
sg76
(lp2745
g1084
asbasbasbag69
(g85
g71
NtRp2746
(dp2747
g74
(dp2748
sg83
g2679
sg76
(lp2749
g69
(g90
g71
NtRp2750
(dp2751
g74
(dp2752
g94
g95
ssg83
g2746
sg76
(lp2753
S'HTTP_ACCEPT_LANGUAGE'
p2754
asbag69
(g90
g71
NtRp2755
(dp2756
g74
(dp2757
g101
g102
ssg83
g2746
sg76
(lp2758
S':'
asbag69
(g90
g71
NtRp2759
(dp2760
g74
(dp2761
sg83
g2746
sg76
(lp2762
g69
(g70
g71
NtRp2763
(dp2764
g74
(dp2765
g82
I3
ssg83
g2759
sg76
(lp2766
g1106
asbasbasbag69
(g85
g71
NtRp2767
(dp2768
g74
(dp2769
sg83
g2679
sg76
(lp2770
g69
(g90
g71
NtRp2771
(dp2772
g74
(dp2773
g94
g95
ssg83
g2767
sg76
(lp2774
S'HTTP_CACHE_CONTROL'
p2775
asbag69
(g90
g71
NtRp2776
(dp2777
g74
(dp2778
g101
g102
ssg83
g2767
sg76
(lp2779
S':'
asbag69
(g90
g71
NtRp2780
(dp2781
g74
(dp2782
sg83
g2767
sg76
(lp2783
g69
(g70
g71
NtRp2784
(dp2785
g74
(dp2786
g82
I3
ssg83
g2780
sg76
(lp2787
g1128
asbasbasbag69
(g85
g71
NtRp2788
(dp2789
g74
(dp2790
sg83
g2679
sg76
(lp2791
g69
(g90
g71
NtRp2792
(dp2793
g74
(dp2794
g94
g95
ssg83
g2788
sg76
(lp2795
S'HTTP_CONNECTION'
p2796
asbag69
(g90
g71
NtRp2797
(dp2798
g74
(dp2799
g101
g102
ssg83
g2788
sg76
(lp2800
S':'
asbag69
(g90
g71
NtRp2801
(dp2802
g74
(dp2803
sg83
g2788
sg76
(lp2804
g69
(g70
g71
NtRp2805
(dp2806
g74
(dp2807
g82
I3
ssg83
g2801
sg76
(lp2808
g1150
asbasbasbag69
(g85
g71
NtRp2809
(dp2810
g74
(dp2811
sg83
g2679
sg76
(lp2812
g69
(g90
g71
NtRp2813
(dp2814
g74
(dp2815
g94
g95
ssg83
g2809
sg76
(lp2816
S'HTTP_COOKIE'
p2817
asbag69
(g90
g71
NtRp2818
(dp2819
g74
(dp2820
g101
g102
ssg83
g2809
sg76
(lp2821
S':'
asbag69
(g90
g71
NtRp2822
(dp2823
g74
(dp2824
sg83
g2809
sg76
(lp2825
g69
(g70
g71
NtRp2826
(dp2827
g74
(dp2828
g82
I3
ssg83
g2822
sg76
(lp2829
g1172
asbasbasbag69
(g85
g71
NtRp2830
(dp2831
g74
(dp2832
sg83
g2679
sg76
(lp2833
g69
(g90
g71
NtRp2834
(dp2835
g74
(dp2836
g94
g95
ssg83
g2830
sg76
(lp2837
S'HTTP_HOST'
p2838
asbag69
(g90
g71
NtRp2839
(dp2840
g74
(dp2841
g101
g102
ssg83
g2830
sg76
(lp2842
S':'
asbag69
(g90
g71
NtRp2843
(dp2844
g74
(dp2845
sg83
g2830
sg76
(lp2846
g69
(g70
g71
NtRp2847
(dp2848
g74
(dp2849
g82
I3
ssg83
g2843
sg76
(lp2850
g1194
asbasbasbag69
(g85
g71
NtRp2851
(dp2852
g74
(dp2853
sg83
g2679
sg76
(lp2854
g69
(g90
g71
NtRp2855
(dp2856
g74
(dp2857
g94
g95
ssg83
g2851
sg76
(lp2858
S'HTTP_REFERER'
p2859
asbag69
(g90
g71
NtRp2860
(dp2861
g74
(dp2862
g101
g102
ssg83
g2851
sg76
(lp2863
S':'
asbag69
(g90
g71
NtRp2864
(dp2865
g74
(dp2866
sg83
g2851
sg76
(lp2867
g69
(g70
g71
NtRp2868
(dp2869
g74
(dp2870
g82
I3
ssg83
g2864
sg76
(lp2871
g1216
asbasbasbag69
(g85
g71
NtRp2872
(dp2873
g74
(dp2874
sg83
g2679
sg76
(lp2875
g69
(g90
g71
NtRp2876
(dp2877
g74
(dp2878
g94
g95
ssg83
g2872
sg76
(lp2879
S'HTTP_USER_AGENT'
p2880
asbag69
(g90
g71
NtRp2881
(dp2882
g74
(dp2883
g101
g102
ssg83
g2872
sg76
(lp2884
S':'
asbag69
(g90
g71
NtRp2885
(dp2886
g74
(dp2887
sg83
g2872
sg76
(lp2888
g69
(g70
g71
NtRp2889
(dp2890
g74
(dp2891
g82
I3
ssg83
g2885
sg76
(lp2892
g1238
asbasbasbag69
(g85
g71
NtRp2893
(dp2894
g74
(dp2895
sg83
g2679
sg76
(lp2896
g69
(g90
g71
NtRp2897
(dp2898
g74
(dp2899
g94
g95
ssg83
g2893
sg76
(lp2900
S'PATH_INFO'
p2901
asbag69
(g90
g71
NtRp2902
(dp2903
g74
(dp2904
g101
g102
ssg83
g2893
sg76
(lp2905
S':'
asbag69
(g90
g71
NtRp2906
(dp2907
g74
(dp2908
sg83
g2893
sg76
(lp2909
g69
(g70
g71
NtRp2910
(dp2911
g74
(dp2912
g82
I3
ssg83
g2906
sg76
(lp2913
g1392
asbasbasbag69
(g85
g71
NtRp2914
(dp2915
g74
(dp2916
sg83
g2679
sg76
(lp2917
g69
(g90
g71
NtRp2918
(dp2919
g74
(dp2920
g94
g95
ssg83
g2914
sg76
(lp2921
S'QUERY_STRING'
p2922
asbag69
(g90
g71
NtRp2923
(dp2924
g74
(dp2925
g101
g102
ssg83
g2914
sg76
(lp2926
S':'
asbag69
(g90
g71
NtRp2927
(dp2928
g74
(dp2929
sg83
g2914
sg76
(lp2930
g69
(g70
g71
NtRp2931
(dp2932
g74
(dp2933
g82
I3
ssg83
g2927
sg76
(lp2934
S''
asbasbasbag69
(g85
g71
NtRp2935
(dp2936
g74
(dp2937
sg83
g2679
sg76
(lp2938
g69
(g90
g71
NtRp2939
(dp2940
g74
(dp2941
g94
g95
ssg83
g2935
sg76
(lp2942
S'REMOTE_ADDR'
p2943
asbag69
(g90
g71
NtRp2944
(dp2945
g74
(dp2946
g101
g102
ssg83
g2935
sg76
(lp2947
S':'
asbag69
(g90
g71
NtRp2948
(dp2949
g74
(dp2950
sg83
g2935
sg76
(lp2951
g69
(g70
g71
NtRp2952
(dp2953
g74
(dp2954
g82
I3
ssg83
g2948
sg76
(lp2955
g224
asbasbasbag69
(g85
g71
NtRp2956
(dp2957
g74
(dp2958
sg83
g2679
sg76
(lp2959
g69
(g90
g71
NtRp2960
(dp2961
g74
(dp2962
g94
g95
ssg83
g2956
sg76
(lp2963
S'REMOTE_PORT'
p2964
asbag69
(g90
g71
NtRp2965
(dp2966
g74
(dp2967
g101
g102
ssg83
g2956
sg76
(lp2968
S':'
asbag69
(g90
g71
NtRp2969
(dp2970
g74
(dp2971
sg83
g2956
sg76
(lp2972
g69
(g70
g71
NtRp2973
(dp2974
g74
(dp2975
g82
I3
ssg83
g2969
sg76
(lp2976
g1456
asbasbasbag69
(g85
g71
NtRp2977
(dp2978
g74
(dp2979
sg83
g2679
sg76
(lp2980
g69
(g90
g71
NtRp2981
(dp2982
g74
(dp2983
g94
g95
ssg83
g2977
sg76
(lp2984
S'REQUEST_METHOD'
p2985
asbag69
(g90
g71
NtRp2986
(dp2987
g74
(dp2988
g101
g102
ssg83
g2977
sg76
(lp2989
S':'
asbag69
(g90
g71
NtRp2990
(dp2991
g74
(dp2992
sg83
g2977
sg76
(lp2993
g69
(g70
g71
NtRp2994
(dp2995
g74
(dp2996
g82
I3
ssg83
g2990
sg76
(lp2997
g1478
asbasbasbag69
(g85
g71
NtRp2998
(dp2999
g74
(dp3000
sg83
g2679
sg76
(lp3001
g69
(g90
g71
NtRp3002
(dp3003
g74
(dp3004
g94
g95
ssg83
g2998
sg76
(lp3005
S'REQUEST_URI'
p3006
asbag69
(g90
g71
NtRp3007
(dp3008
g74
(dp3009
g101
g102
ssg83
g2998
sg76
(lp3010
S':'
asbag69
(g90
g71
NtRp3011
(dp3012
g74
(dp3013
sg83
g2998
sg76
(lp3014
g69
(g70
g71
NtRp3015
(dp3016
g74
(dp3017
g82
I3
ssg83
g3011
sg76
(lp3018
g1392
asbasbasbag69
(g85
g71
NtRp3019
(dp3020
g74
(dp3021
sg83
g2679
sg76
(lp3022
g69
(g90
g71
NtRp3023
(dp3024
g74
(dp3025
g94
g95
ssg83
g3019
sg76
(lp3026
S'SCRIPT_NAME'
p3027
asbag69
(g90
g71
NtRp3028
(dp3029
g74
(dp3030
g101
g102
ssg83
g3019
sg76
(lp3031
S':'
asbag69
(g90
g71
NtRp3032
(dp3033
g74
(dp3034
sg83
g3019
sg76
(lp3035
g69
(g70
g71
NtRp3036
(dp3037
g74
(dp3038
g82
I3
ssg83
g3032
sg76
(lp3039
S''
asbasbasbag69
(g85
g71
NtRp3040
(dp3041
g74
(dp3042
sg83
g2679
sg76
(lp3043
g69
(g90
g71
NtRp3044
(dp3045
g74
(dp3046
g94
g95
ssg83
g3040
sg76
(lp3047
S'SERVER_NAME'
p3048
asbag69
(g90
g71
NtRp3049
(dp3050
g74
(dp3051
g101
g102
ssg83
g3040
sg76
(lp3052
S':'
asbag69
(g90
g71
NtRp3053
(dp3054
g74
(dp3055
sg83
g3040
sg76
(lp3056
g69
(g70
g71
NtRp3057
(dp3058
g74
(dp3059
g82
I3
ssg83
g3053
sg76
(lp3060
g1542
asbasbasbag69
(g85
g71
NtRp3061
(dp3062
g74
(dp3063
sg83
g2679
sg76
(lp3064
g69
(g90
g71
NtRp3065
(dp3066
g74
(dp3067
g94
g95
ssg83
g3061
sg76
(lp3068
S'SERVER_PORT'
p3069
asbag69
(g90
g71
NtRp3070
(dp3071
g74
(dp3072
g101
g102
ssg83
g3061
sg76
(lp3073
S':'
asbag69
(g90
g71
NtRp3074
(dp3075
g74
(dp3076
sg83
g3061
sg76
(lp3077
g69
(g70
g71
NtRp3078
(dp3079
g74
(dp3080
g82
I3
ssg83
g3074
sg76
(lp3081
g1564
asbasbasbag69
(g85
g71
NtRp3082
(dp3083
g74
(dp3084
sg83
g2679
sg76
(lp3085
g69
(g90
g71
NtRp3086
(dp3087
g74
(dp3088
g94
g95
ssg83
g3082
sg76
(lp3089
S'SERVER_PROTOCOL'
p3090
asbag69
(g90
g71
NtRp3091
(dp3092
g74
(dp3093
g101
g102
ssg83
g3082
sg76
(lp3094
S':'
asbag69
(g90
g71
NtRp3095
(dp3096
g74
(dp3097
sg83
g3082
sg76
(lp3098
g69
(g70
g71
NtRp3099
(dp3100
g74
(dp3101
g82
I3
ssg83
g3095
sg76
(lp3102
g1586
asbasbasbag69
(g85
g71
NtRp3103
(dp3104
g74
(dp3105
sg83
g2679
sg76
(lp3106
g69
(g90
g71
NtRp3107
(dp3108
g74
(dp3109
g94
g95
ssg83
g3103
sg76
(lp3110
S'SERVER_SOFTWARE'
p3111
asbag69
(g90
g71
NtRp3112
(dp3113
g74
(dp3114
g101
g102
ssg83
g3103
sg76
(lp3115
S':'
asbag69
(g90
g71
NtRp3116
(dp3117
g74
(dp3118
sg83
g3103
sg76
(lp3119
g69
(g70
g71
NtRp3120
(dp3121
g74
(dp3122
g82
I3
ssg83
g3116
sg76
(lp3123
g1608
asbasbasbag69
(g85
g71
NtRp3124
(dp3125
g74
(dp3126
sg83
g2679
sg76
(lp3127
g69
(g90
g71
NtRp3128
(dp3129
g74
(dp3130
g94
g95
ssg83
g3124
sg76
(lp3131
S'wsgi.errors'
p3132
asbag69
(g90
g71
NtRp3133
(dp3134
g74
(dp3135
g101
g102
ssg83
g3124
sg76
(lp3136
S':'
asbag69
(g90
g71
NtRp3137
(dp3138
g74
(dp3139
sg83
g3124
sg76
(lp3140
g69
(g70
g71
NtRp3141
(dp3142
g74
(dp3143
g82
I3
ssg83
g3137
sg76
(lp3144
S"<open file '<stderr>', mode 'w' at 0xb73670d0>"
p3145
asbasbasbag69
(g85
g71
NtRp3146
(dp3147
g74
(dp3148
sg83
g2679
sg76
(lp3149
g69
(g90
g71
NtRp3150
(dp3151
g74
(dp3152
g94
g95
ssg83
g3146
sg76
(lp3153
S'wsgi.file_wrapper'
p3154
asbag69
(g90
g71
NtRp3155
(dp3156
g74
(dp3157
g101
g102
ssg83
g3146
sg76
(lp3158
S':'
asbag69
(g90
g71
NtRp3159
(dp3160
g74
(dp3161
sg83
g3146
sg76
(lp3162
g69
(g70
g71
NtRp3163
(dp3164
g74
(dp3165
g82
I3
ssg83
g3159
sg76
(lp3166
S'<class wsgiref.util.FileWrapper at 0xa197bcc>'
p3167
asbasbasbag69
(g85
g71
NtRp3168
(dp3169
g74
(dp3170
sg83
g2679
sg76
(lp3171
g69
(g90
g71
NtRp3172
(dp3173
g74
(dp3174
g94
g95
ssg83
g3168
sg76
(lp3175
S'wsgi.input'
p3176
asbag69
(g90
g71
NtRp3177
(dp3178
g74
(dp3179
g101
g102
ssg83
g3168
sg76
(lp3180
S':'
asbag69
(g90
g71
NtRp3181
(dp3182
g74
(dp3183
sg83
g3168
sg76
(lp3184
g69
(g70
g71
NtRp3185
(dp3186
g74
(dp3187
g82
I3
ssg83
g3181
sg76
(lp3188
S'<cStringIO.StringO object at 0xadf858e0>'
p3189
asbasbasbag69
(g85
g71
NtRp3190
(dp3191
g74
(dp3192
sg83
g2679
sg76
(lp3193
g69
(g90
g71
NtRp3194
(dp3195
g74
(dp3196
g94
g95
ssg83
g3190
sg76
(lp3197
S'wsgi.multiprocess'
p3198
asbag69
(g90
g71
NtRp3199
(dp3200
g74
(dp3201
g101
g102
ssg83
g3190
sg76
(lp3202
S':'
asbag69
(g90
g71
NtRp3203
(dp3204
g74
(dp3205
sg83
g3190
sg76
(lp3206
g69
(g70
g71
NtRp3207
(dp3208
g74
(dp3209
g82
I3
ssg83
g3203
sg76
(lp3210
g112
asbasbasbag69
(g85
g71
NtRp3211
(dp3212
g74
(dp3213
sg83
g2679
sg76
(lp3214
g69
(g90
g71
NtRp3215
(dp3216
g74
(dp3217
g94
g95
ssg83
g3211
sg76
(lp3218
S'wsgi.multithread'
p3219
asbag69
(g90
g71
NtRp3220
(dp3221
g74
(dp3222
g101
g102
ssg83
g3211
sg76
(lp3223
S':'
asbag69
(g90
g71
NtRp3224
(dp3225
g74
(dp3226
sg83
g3211
sg76
(lp3227
g69
(g70
g71
NtRp3228
(dp3229
g74
(dp3230
g82
I3
ssg83
g3224
sg76
(lp3231
g1825
asbasbasbag69
(g85
g71
NtRp3232
(dp3233
g74
(dp3234
sg83
g2679
sg76
(lp3235
g69
(g90
g71
NtRp3236
(dp3237
g74
(dp3238
g94
g95
ssg83
g3232
sg76
(lp3239
S'wsgi.run_once'
p3240
asbag69
(g90
g71
NtRp3241
(dp3242
g74
(dp3243
g101
g102
ssg83
g3232
sg76
(lp3244
S':'
asbag69
(g90
g71
NtRp3245
(dp3246
g74
(dp3247
sg83
g3232
sg76
(lp3248
g69
(g70
g71
NtRp3249
(dp3250
g74
(dp3251
g82
I3
ssg83
g3245
sg76
(lp3252
g112
asbasbasbag69
(g85
g71
NtRp3253
(dp3254
g74
(dp3255
sg83
g2679
sg76
(lp3256
g69
(g90
g71
NtRp3257
(dp3258
g74
(dp3259
g94
g95
ssg83
g3253
sg76
(lp3260
S'wsgi.url_scheme'
p3261
asbag69
(g90
g71
NtRp3262
(dp3263
g74
(dp3264
g101
g102
ssg83
g3253
sg76
(lp3265
S':'
asbag69
(g90
g71
NtRp3266
(dp3267
g74
(dp3268
sg83
g3253
sg76
(lp3269
g69
(g70
g71
NtRp3270
(dp3271
g74
(dp3272
g82
I3
ssg83
g3266
sg76
(lp3273
g1868
asbasbasbag69
(g85
g71
NtRp3274
(dp3275
g74
(dp3276
sg83
g2679
sg76
(lp3277
g69
(g90
g71
NtRp3278
(dp3279
g74
(dp3280
g94
g95
ssg83
g3274
sg76
(lp3281
S'wsgi.version'
p3282
asbag69
(g90
g71
NtRp3283
(dp3284
g74
(dp3285
g101
g102
ssg83
g3274
sg76
(lp3286
S':'
asbag69
(g90
g71
NtRp3287
(dp3288
g74
(dp3289
sg83
g3274
sg76
(lp3290
g69
(g70
g71
NtRp3291
(dp3292
g74
(dp3293
g82
I3
ssg83
g3287
sg76
(lp3294
S'1'
asbasbasbasbasbasbasbasbasbasbasbasbasbsS'frames'
p3295
(lp3296
(dp3297
S'file'
p3298
S'/home/anil/bootstrap/web2py/gluon/restricted.py'
p3299
sS'dump'
p3300
(dp3301
S'code'
p3302
S'\'response.write(\\\'<!DOCTYPE html>\\\\n<html lang="\\\', ...nse.write(\\\'\\\\n  </body>\\\\n</html>\\\\n\\\', escape=False)\''
p3303
sS'layer'
p3304
S"'/home/anil/bootstrap/web2py/applications/DEV_bootstrap_ch/views/default/list_all_projects.html'"
p3305
sS'global compile2'
p3306
S'<function compile2>'
p3307
sS'ccode'
p3308
S'undefined'
p3309
ssS'lnum'
p3310
I211
sS'lines'
p3311
(dp3312
I206
S"    environment['__name__'] = '__restricted__'"
p3313
sI207
S'    try:'
p3314
sI208
S'        if isinstance(code, types.CodeType):'
p3315
sI209
S'            ccode = code'
p3316
sI210
S'        else:'
p3317
sI211
S'            ccode = compile2(code, layer)'
p3318
sI212
S'        exec ccode in environment'
p3319
sI213
S'    except HTTP:'
p3320
sI214
S'        raise'
p3321
sI215
S'    except RestrictedError:'
p3322
ssS'call'
p3323
S'(code=\'response.write(\\\'<!DOCTYPE html>\\\\n<html lang="\\\', ...nse.write(\\\'\\\\n  </body>\\\\n</html>\\\\n\\\', escape=False)\', environment={\'A\': <class \'gluon.html.A\'>, \'Auth\': <class \'gluon.tools.Auth\'>, \'B\': <class \'gluon.html.B\'>, \'BEAUTIFY\': <class \'gluon.html.BEAUTIFY\'>, \'BODY\': <class \'gluon.html.BODY\'>, \'BR\': <class \'gluon.html.BR\'>, \'BUTTON\': <class \'gluon.html.BUTTON\'>, \'CAT\': <class \'gluon.html.CAT\'>, \'CENTER\': <class \'gluon.html.CENTER\'>, \'CLEANUP\': <class \'gluon.validators.CLEANUP\'>, ...}, layer=\'/home/anil/bootstrap/web2py/applications/DEV_bootstrap_ch/views/default/list_all_projects.html\')'
p3324
sS'func'
p3325
S'restricted'
p3326
sa(dp3327
g3298
S'/home/anil/bootstrap/web2py/gluon/restricted.py'
p3328
sg3300
(dp3329
S'builtincompile'
p3330
S'<built-in function compile>'
p3331
sS'code'
p3332
S'\'response.write(\\\'<!DOCTYPE html>\\\\n<html lang="\\\', ...nse.write(\\\'\\\\n  </body>\\\\n</html>\\\\n\\\', escape=False)\''
p3333
sS'code.rstrip'
p3334
S'<built-in method rstrip of str object>'
p3335
sS').replace'
p3336
g3309
sS'layer'
p3337
S"'/home/anil/bootstrap/web2py/applications/DEV_bootstrap_ch/views/default/list_all_projects.html'"
p3338
ssg3310
I194
sg3311
(dp3339
I192
S"    The +'\\n' is necessary else compile fails when code ends in a comment."
p3340
sI193
S'    """'
p3341
sI194
S"    return compile(code.rstrip().replace('\\r\\n', '\\n') + '\\n', layer, 'exec')"
p3342
sI195
S''
sI196
S''
sI197
S"def restricted(code, environment=None, layer='Unknown'):"
p3343
sI198
S'    """'
p3344
sI189
S''
sI190
S'def compile2(code, layer):'
p3345
sI191
S'    """'
p3346
ssg3323
S'(code=\'response.write(\\\'<!DOCTYPE html>\\\\n<html lang="\\\', ...nse.write(\\\'\\\\n  </body>\\\\n</html>\\\\n\\\', escape=False)\', layer=\'/home/anil/bootstrap/web2py/applications/DEV_bootstrap_ch/views/default/list_all_projects.html\')'
p3347
sg3325
S'compile2'
p3348
sasS'pyver'
p3349
S'Python 2.7.3: /usr/bin/python'
p3350
sS'session'
p3351
g69
(g70
g71
NtRp3352
(dp3353
g74
(dp3354
sg76
(lp3355
g69
(g78
g71
NtRp3356
(dp3357
g74
(dp3358
g82
I5
ssg83
Nsg76
(lp3359
g69
(g85
g71
NtRp3360
(dp3361
g74
(dp3362
sg83
g3356
sg76
(lp3363
g69
(g90
g71
NtRp3364
(dp3365
g74
(dp3366
g94
g95
ssg83
g3360
sg76
(lp3367
S'auth'
p3368
asbag69
(g90
g71
NtRp3369
(dp3370
g74
(dp3371
g101
g102
ssg83
g3360
sg76
(lp3372
S':'
asbag69
(g90
g71
NtRp3373
(dp3374
g74
(dp3375
sg83
g3360
sg76
(lp3376
g69
(g70
g71
NtRp3377
(dp3378
g74
(dp3379
g82
I5
ssg83
g3373
sg76
(lp3380
g69
(g78
g71
NtRp3381
(dp3382
g74
(dp3383
g82
I4
ssg83
Nsg76
(lp3384
g69
(g85
g71
NtRp3385
(dp3386
g74
(dp3387
sg83
g3381
sg76
(lp3388
g69
(g90
g71
NtRp3389
(dp3390
g74
(dp3391
g94
g95
ssg83
g3385
sg76
(lp3392
S'expiration'
p3393
asbag69
(g90
g71
NtRp3394
(dp3395
g74
(dp3396
g101
g102
ssg83
g3385
sg76
(lp3397
S':'
asbag69
(g90
g71
NtRp3398
(dp3399
g74
(dp3400
sg83
g3385
sg76
(lp3401
g69
(g70
g71
NtRp3402
(dp3403
g74
(dp3404
g82
I4
ssg83
g3398
sg76
(lp3405
S'3600'
p3406
asbasbasbag69
(g85
g71
NtRp3407
(dp3408
g74
(dp3409
sg83
g3381
sg76
(lp3410
g69
(g90
g71
NtRp3411
(dp3412
g74
(dp3413
g94
g95
ssg83
g3407
sg76
(lp3414
S'hmac_key'
p3415
asbag69
(g90
g71
NtRp3416
(dp3417
g74
(dp3418
g101
g102
ssg83
g3407
sg76
(lp3419
S':'
asbag69
(g90
g71
NtRp3420
(dp3421
g74
(dp3422
sg83
g3407
sg76
(lp3423
g69
(g70
g71
NtRp3424
(dp3425
g74
(dp3426
g82
I4
ssg83
g3420
sg76
(lp3427
S'ce161a6e-f8c5-4ea2-a2a0-fc9ff95435de'
p3428
asbasbasbag69
(g85
g71
NtRp3429
(dp3430
g74
(dp3431
sg83
g3381
sg76
(lp3432
g69
(g90
g71
NtRp3433
(dp3434
g74
(dp3435
g94
g95
ssg83
g3429
sg76
(lp3436
S'last_visit'
p3437
asbag69
(g90
g71
NtRp3438
(dp3439
g74
(dp3440
g101
g102
ssg83
g3429
sg76
(lp3441
S':'
asbag69
(g90
g71
NtRp3442
(dp3443
g74
(dp3444
sg83
g3429
sg76
(lp3445
g69
(g70
g71
NtRp3446
(dp3447
g74
(dp3448
g82
I4
ssg83
g3442
sg76
(lp3449
S'datetime.datetime(2013, 2, 28, 15, 36, 55, 32265)'
p3450
asbasbasbag69
(g85
g71
NtRp3451
(dp3452
g74
(dp3453
sg83
g3381
sg76
(lp3454
g69
(g90
g71
NtRp3455
(dp3456
g74
(dp3457
g94
g95
ssg83
g3451
sg76
(lp3458
S'remember'
p3459
asbag69
(g90
g71
NtRp3460
(dp3461
g74
(dp3462
g101
g102
ssg83
g3451
sg76
(lp3463
S':'
asbag69
(g90
g71
NtRp3464
(dp3465
g74
(dp3466
sg83
g3451
sg76
(lp3467
g69
(g70
g71
NtRp3468
(dp3469
g74
(dp3470
g82
I4
ssg83
g3464
sg76
(lp3471
g112
asbasbasbag69
(g85
g71
NtRp3472
(dp3473
g74
(dp3474
sg83
g3381
sg76
(lp3475
g69
(g90
g71
NtRp3476
(dp3477
g74
(dp3478
g94
g95
ssg83
g3472
sg76
(lp3479
S'user'
p3480
asbag69
(g90
g71
NtRp3481
(dp3482
g74
(dp3483
g101
g102
ssg83
g3472
sg76
(lp3484
S':'
asbag69
(g90
g71
NtRp3485
(dp3486
g74
(dp3487
sg83
g3472
sg76
(lp3488
g69
(g70
g71
NtRp3489
(dp3490
g74
(dp3491
g82
I4
ssg83
g3485
sg76
(lp3492
g69
(g78
g71
NtRp3493
(dp3494
g74
(dp3495
g82
I3
ssg83
Nsg76
(lp3496
g69
(g85
g71
NtRp3497
(dp3498
g74
(dp3499
sg83
g3493
sg76
(lp3500
g69
(g90
g71
NtRp3501
(dp3502
g74
(dp3503
g94
g95
ssg83
g3497
sg76
(lp3504
S'address'
p3505
asbag69
(g90
g71
NtRp3506
(dp3507
g74
(dp3508
g101
g102
ssg83
g3497
sg76
(lp3509
S':'
asbag69
(g90
g71
NtRp3510
(dp3511
g74
(dp3512
sg83
g3497
sg76
(lp3513
g69
(g70
g71
NtRp3514
(dp3515
g74
(dp3516
g82
I3
ssg83
g3510
sg76
(lp3517
S'123'
p3518
asbasbasbag69
(g85
g71
NtRp3519
(dp3520
g74
(dp3521
sg83
g3493
sg76
(lp3522
g69
(g90
g71
NtRp3523
(dp3524
g74
(dp3525
g94
g95
ssg83
g3519
sg76
(lp3526
S'affiliated_to'
p3527
asbag69
(g90
g71
NtRp3528
(dp3529
g74
(dp3530
g101
g102
ssg83
g3519
sg76
(lp3531
S':'
asbag69
(g90
g71
NtRp3532
(dp3533
g74
(dp3534
sg83
g3519
sg76
(lp3535
g69
(g70
g71
NtRp3536
(dp3537
g74
(dp3538
g82
I3
ssg83
g3532
sg76
(lp3539
S'iiit'
p3540
asbasbasbag69
(g85
g71
NtRp3541
(dp3542
g74
(dp3543
sg83
g3493
sg76
(lp3544
g69
(g90
g71
NtRp3545
(dp3546
g74
(dp3547
g94
g95
ssg83
g3541
sg76
(lp3548
S'city'
p3549
asbag69
(g90
g71
NtRp3550
(dp3551
g74
(dp3552
g101
g102
ssg83
g3541
sg76
(lp3553
S':'
asbag69
(g90
g71
NtRp3554
(dp3555
g74
(dp3556
sg83
g3541
sg76
(lp3557
g69
(g70
g71
NtRp3558
(dp3559
g74
(dp3560
g82
I3
ssg83
g3554
sg76
(lp3561
S'ongole'
p3562
asbasbasbag69
(g85
g71
NtRp3563
(dp3564
g74
(dp3565
sg83
g3493
sg76
(lp3566
g69
(g90
g71
NtRp3567
(dp3568
g74
(dp3569
g94
g95
ssg83
g3563
sg76
(lp3570
S'country'
p3571
asbag69
(g90
g71
NtRp3572
(dp3573
g74
(dp3574
g101
g102
ssg83
g3563
sg76
(lp3575
S':'
asbag69
(g90
g71
NtRp3576
(dp3577
g74
(dp3578
sg83
g3563
sg76
(lp3579
g69
(g70
g71
NtRp3580
(dp3581
g74
(dp3582
g82
I3
ssg83
g3576
sg76
(lp3583
S'India'
p3584
asbasbasbag69
(g85
g71
NtRp3585
(dp3586
g74
(dp3587
sg83
g3493
sg76
(lp3588
g69
(g90
g71
NtRp3589
(dp3590
g74
(dp3591
g94
g95
ssg83
g3585
sg76
(lp3592
S'email'
p3593
asbag69
(g90
g71
NtRp3594
(dp3595
g74
(dp3596
g101
g102
ssg83
g3585
sg76
(lp3597
S':'
asbag69
(g90
g71
NtRp3598
(dp3599
g74
(dp3600
sg83
g3585
sg76
(lp3601
g69
(g70
g71
NtRp3602
(dp3603
g74
(dp3604
g82
I3
ssg83
g3598
sg76
(lp3605
S'anil1in7@gmail.com'
p3606
asbasbasbag69
(g85
g71
NtRp3607
(dp3608
g74
(dp3609
sg83
g3493
sg76
(lp3610
g69
(g90
g71
NtRp3611
(dp3612
g74
(dp3613
g94
g95
ssg83
g3607
sg76
(lp3614
S'first_name'
p3615
asbag69
(g90
g71
NtRp3616
(dp3617
g74
(dp3618
g101
g102
ssg83
g3607
sg76
(lp3619
S':'
asbag69
(g90
g71
NtRp3620
(dp3621
g74
(dp3622
sg83
g3607
sg76
(lp3623
g69
(g70
g71
NtRp3624
(dp3625
g74
(dp3626
g82
I3
ssg83
g3620
sg76
(lp3627
S'Anil Kumar'
p3628
asbasbasbag69
(g85
g71
NtRp3629
(dp3630
g74
(dp3631
sg83
g3493
sg76
(lp3632
g69
(g90
g71
NtRp3633
(dp3634
g74
(dp3635
g94
g95
ssg83
g3629
sg76
(lp3636
S'id'
p3637
asbag69
(g90
g71
NtRp3638
(dp3639
g74
(dp3640
g101
g102
ssg83
g3629
sg76
(lp3641
S':'
asbag69
(g90
g71
NtRp3642
(dp3643
g74
(dp3644
sg83
g3629
sg76
(lp3645
g69
(g70
g71
NtRp3646
(dp3647
g74
(dp3648
g82
I3
ssg83
g3642
sg76
(lp3649
S'1'
asbasbasbag69
(g85
g71
NtRp3650
(dp3651
g74
(dp3652
sg83
g3493
sg76
(lp3653
g69
(g90
g71
NtRp3654
(dp3655
g74
(dp3656
g94
g95
ssg83
g3650
sg76
(lp3657
S'last_name'
p3658
asbag69
(g90
g71
NtRp3659
(dp3660
g74
(dp3661
g101
g102
ssg83
g3650
sg76
(lp3662
S':'
asbag69
(g90
g71
NtRp3663
(dp3664
g74
(dp3665
sg83
g3650
sg76
(lp3666
g69
(g70
g71
NtRp3667
(dp3668
g74
(dp3669
g82
I3
ssg83
g3663
sg76
(lp3670
S'Nalamalapu'
p3671
asbasbasbag69
(g85
g71
NtRp3672
(dp3673
g74
(dp3674
sg83
g3493
sg76
(lp3675
g69
(g90
g71
NtRp3676
(dp3677
g74
(dp3678
g94
g95
ssg83
g3672
sg76
(lp3679
S'mobile'
p3680
asbag69
(g90
g71
NtRp3681
(dp3682
g74
(dp3683
g101
g102
ssg83
g3672
sg76
(lp3684
S':'
asbag69
(g90
g71
NtRp3685
(dp3686
g74
(dp3687
sg83
g3672
sg76
(lp3688
g69
(g70
g71
NtRp3689
(dp3690
g74
(dp3691
g82
I3
ssg83
g3685
sg76
(lp3692
S'918885334113'
p3693
asbasbasbag69
(g85
g71
NtRp3694
(dp3695
g74
(dp3696
sg83
g3493
sg76
(lp3697
g69
(g90
g71
NtRp3698
(dp3699
g74
(dp3700
g94
g95
ssg83
g3694
sg76
(lp3701
S'phone'
p3702
asbag69
(g90
g71
NtRp3703
(dp3704
g74
(dp3705
g101
g102
ssg83
g3694
sg76
(lp3706
S':'
asbag69
(g90
g71
NtRp3707
(dp3708
g74
(dp3709
sg83
g3694
sg76
(lp3710
g69
(g70
g71
NtRp3711
(dp3712
g74
(dp3713
g82
I3
ssg83
g3707
sg76
(lp3714
S'918885334113'
p3715
asbasbasbag69
(g85
g71
NtRp3716
(dp3717
g74
(dp3718
sg83
g3493
sg76
(lp3719
g69
(g90
g71
NtRp3720
(dp3721
g74
(dp3722
g94
g95
ssg83
g3716
sg76
(lp3723
S'position'
p3724
asbag69
(g90
g71
NtRp3725
(dp3726
g74
(dp3727
g101
g102
ssg83
g3716
sg76
(lp3728
S':'
asbag69
(g90
g71
NtRp3729
(dp3730
g74
(dp3731
sg83
g3716
sg76
(lp3732
g69
(g70
g71
NtRp3733
(dp3734
g74
(dp3735
g82
I3
ssg83
g3729
sg76
(lp3736
S'2'
asbasbasbag69
(g85
g71
NtRp3737
(dp3738
g74
(dp3739
sg83
g3493
sg76
(lp3740
g69
(g90
g71
NtRp3741
(dp3742
g74
(dp3743
g94
g95
ssg83
g3737
sg76
(lp3744
S'postal_code'
p3745
asbag69
(g90
g71
NtRp3746
(dp3747
g74
(dp3748
g101
g102
ssg83
g3737
sg76
(lp3749
S':'
asbag69
(g90
g71
NtRp3750
(dp3751
g74
(dp3752
sg83
g3737
sg76
(lp3753
g69
(g70
g71
NtRp3754
(dp3755
g74
(dp3756
g82
I3
ssg83
g3750
sg76
(lp3757
S'523182'
p3758
asbasbasbag69
(g85
g71
NtRp3759
(dp3760
g74
(dp3761
sg83
g3493
sg76
(lp3762
g69
(g90
g71
NtRp3763
(dp3764
g74
(dp3765
g94
g95
ssg83
g3759
sg76
(lp3766
S'registration_at'
p3767
asbag69
(g90
g71
NtRp3768
(dp3769
g74
(dp3770
g101
g102
ssg83
g3759
sg76
(lp3771
S':'
asbag69
(g90
g71
NtRp3772
(dp3773
g74
(dp3774
sg83
g3759
sg76
(lp3775
g69
(g70
g71
NtRp3776
(dp3777
g74
(dp3778
g82
I3
ssg83
g3772
sg76
(lp3779
S'0'
asbasbasbag69
(g85
g71
NtRp3780
(dp3781
g74
(dp3782
sg83
g3493
sg76
(lp3783
g69
(g90
g71
NtRp3784
(dp3785
g74
(dp3786
g94
g95
ssg83
g3780
sg76
(lp3787
S'registration_id'
p3788
asbag69
(g90
g71
NtRp3789
(dp3790
g74
(dp3791
g101
g102
ssg83
g3780
sg76
(lp3792
S':'
asbag69
(g90
g71
NtRp3793
(dp3794
g74
(dp3795
sg83
g3780
sg76
(lp3796
g69
(g70
g71
NtRp3797
(dp3798
g74
(dp3799
g82
I3
ssg83
g3793
sg76
(lp3800
S''
asbasbasbag69
(g85
g71
NtRp3801
(dp3802
g74
(dp3803
sg83
g3493
sg76
(lp3804
g69
(g90
g71
NtRp3805
(dp3806
g74
(dp3807
g94
g95
ssg83
g3801
sg76
(lp3808
S'registration_key'
p3809
asbag69
(g90
g71
NtRp3810
(dp3811
g74
(dp3812
g101
g102
ssg83
g3801
sg76
(lp3813
S':'
asbag69
(g90
g71
NtRp3814
(dp3815
g74
(dp3816
sg83
g3801
sg76
(lp3817
g69
(g70
g71
NtRp3818
(dp3819
g74
(dp3820
g82
I3
ssg83
g3814
sg76
(lp3821
S''
asbasbasbag69
(g85
g71
NtRp3822
(dp3823
g74
(dp3824
sg83
g3493
sg76
(lp3825
g69
(g90
g71
NtRp3826
(dp3827
g74
(dp3828
g94
g95
ssg83
g3822
sg76
(lp3829
S'reset_password_key'
p3830
asbag69
(g90
g71
NtRp3831
(dp3832
g74
(dp3833
g101
g102
ssg83
g3822
sg76
(lp3834
S':'
asbag69
(g90
g71
NtRp3835
(dp3836
g74
(dp3837
sg83
g3822
sg76
(lp3838
g69
(g70
g71
NtRp3839
(dp3840
g74
(dp3841
g82
I3
ssg83
g3835
sg76
(lp3842
S''
asbasbasbag69
(g85
g71
NtRp3843
(dp3844
g74
(dp3845
sg83
g3493
sg76
(lp3846
g69
(g90
g71
NtRp3847
(dp3848
g74
(dp3849
g94
g95
ssg83
g3843
sg76
(lp3850
S'title'
p3851
asbag69
(g90
g71
NtRp3852
(dp3853
g74
(dp3854
g101
g102
ssg83
g3843
sg76
(lp3855
S':'
asbag69
(g90
g71
NtRp3856
(dp3857
g74
(dp3858
sg83
g3843
sg76
(lp3859
g69
(g70
g71
NtRp3860
(dp3861
g74
(dp3862
g82
I3
ssg83
g3856
sg76
(lp3863
S'0'
asbasbasbasbasbasbasbag69
(g85
g71
NtRp3864
(dp3865
g74
(dp3866
sg83
g3381
sg76
(lp3867
g69
(g90
g71
NtRp3868
(dp3869
g74
(dp3870
g94
g95
ssg83
g3864
sg76
(lp3871
S'user_groups'
p3872
asbag69
(g90
g71
NtRp3873
(dp3874
g74
(dp3875
g101
g102
ssg83
g3864
sg76
(lp3876
S':'
asbag69
(g90
g71
NtRp3877
(dp3878
g74
(dp3879
sg83
g3864
sg76
(lp3880
g69
(g70
g71
NtRp3881
(dp3882
g74
(dp3883
g82
I4
ssg83
g3877
sg76
(lp3884
g69
(g78
g71
NtRp3885
(dp3886
g74
(dp3887
g82
I3
ssg83
Nsg76
(lp3888
g69
(g85
g71
NtRp3889
(dp3890
g74
(dp3891
sg83
g3885
sg76
(lp3892
g69
(g90
g71
NtRp3893
(dp3894
g74
(dp3895
g94
g95
ssg83
g3889
sg76
(lp3896
S'8'
asbag69
(g90
g71
NtRp3897
(dp3898
g74
(dp3899
g101
g102
ssg83
g3889
sg76
(lp3900
S':'
asbag69
(g90
g71
NtRp3901
(dp3902
g74
(dp3903
sg83
g3889
sg76
(lp3904
g69
(g70
g71
NtRp3905
(dp3906
g74
(dp3907
g82
I3
ssg83
g3901
sg76
(lp3908
S'user_1'
p3909
asbasbasbasbasbasbasbasbasbasbasbag69
(g85
g71
NtRp3910
(dp3911
g74
(dp3912
sg83
g3356
sg76
(lp3913
g69
(g90
g71
NtRp3914
(dp3915
g74
(dp3916
g94
g95
ssg83
g3910
sg76
(lp3917
S'flash'
p3918
asbag69
(g90
g71
NtRp3919
(dp3920
g74
(dp3921
g101
g102
ssg83
g3910
sg76
(lp3922
S':'
asbag69
(g90
g71
NtRp3923
(dp3924
g74
(dp3925
sg83
g3910
sg76
(lp3926
g69
(g70
g71
NtRp3927
(dp3928
g74
(dp3929
g82
I5
ssg83
g3923
sg76
(lp3930
S'None'
p3931
asbasbasbag69
(g85
g71
NtRp3932
(dp3933
g74
(dp3934
sg83
g3356
sg76
(lp3935
g69
(g90
g71
NtRp3936
(dp3937
g74
(dp3938
g94
g95
ssg83
g3932
sg76
(lp3939
S'last_orderby'
p3940
asbag69
(g90
g71
NtRp3941
(dp3942
g74
(dp3943
g101
g102
ssg83
g3932
sg76
(lp3944
S':'
asbag69
(g90
g71
NtRp3945
(dp3946
g74
(dp3947
sg83
g3932
sg76
(lp3948
g69
(g70
g71
NtRp3949
(dp3950
g74
(dp3951
g82
I5
ssg83
g3945
sg76
(lp3952
S'None'
p3953
asbasbasbag69
(g85
g71
NtRp3954
(dp3955
g74
(dp3956
sg83
g3356
sg76
(lp3957
g69
(g90
g71
NtRp3958
(dp3959
g74
(dp3960
g94
g95
ssg83
g3954
sg76
(lp3961
S'last_query'
p3962
asbag69
(g90
g71
NtRp3963
(dp3964
g74
(dp3965
g101
g102
ssg83
g3954
sg76
(lp3966
S':'
asbag69
(g90
g71
NtRp3967
(dp3968
g74
(dp3969
sg83
g3954
sg76
(lp3970
g69
(g70
g71
NtRp3971
(dp3972
g74
(dp3973
g82
I5
ssg83
g3967
sg76
(lp3974
S'db.auth_user.id>0'
p3975
asbasbasbasbasbsS'etype'
p3976
S"<type 'exceptions.SyntaxError'>"
p3977
sS'date'
p3978
S'Thu Feb 28 15:37:50 2013'
p3979
sS'response'
p3980
g69
(g70
g71
NtRp3981
(dp3982
g74
(dp3983
sg76
(lp3984
g69
(g78
g71
NtRp3985
(dp3986
g74
(dp3987
g82
I5
ssg83
Nsg76
(lp3988
g69
(g85
g71
NtRp3989
(dp3990
g74
(dp3991
sg83
g3985
sg76
(lp3992
g69
(g90
g71
NtRp3993
(dp3994
g74
(dp3995
g94
g95
ssg83
g3989
sg76
(lp3996
g167
asbag69
(g90
g71
NtRp3997
(dp3998
g74
(dp3999
g101
g102
ssg83
g3989
sg76
(lp4000
S':'
asbag69
(g90
g71
NtRp4001
(dp4002
g74
(dp4003
sg83
g3989
sg76
(lp4004
g69
(g70
g71
NtRp4005
(dp4006
g74
(dp4007
g82
I5
ssg83
g4001
sg76
(lp4008
S'<cStringIO.StringO object at 0xa7c8720>'
p4009
asbasbasbag69
(g85
g71
NtRp4010
(dp4011
g74
(dp4012
sg83
g3985
sg76
(lp4013
g69
(g90
g71
NtRp4014
(dp4015
g74
(dp4016
g94
g95
ssg83
g4010
sg76
(lp4017
g255
asbag69
(g90
g71
NtRp4018
(dp4019
g74
(dp4020
g101
g102
ssg83
g4010
sg76
(lp4021
S':'
asbag69
(g90
g71
NtRp4022
(dp4023
g74
(dp4024
sg83
g4010
sg76
(lp4025
g69
(g70
g71
NtRp4026
(dp4027
g74
(dp4028
g82
I5
ssg83
g4022
sg76
(lp4029
g69
(g78
g71
NtRp4030
(dp4031
g74
(dp4032
g82
I4
ssg83
Nsg76
(lp4033
g69
(g85
g71
NtRp4034
(dp4035
g74
(dp4036
sg83
g4030
sg76
(lp4037
g69
(g90
g71
NtRp4038
(dp4039
g74
(dp4040
g94
g95
ssg83
g4034
sg76
(lp4041
S'session_id_dev_bootstrap_ch'
p4042
asbag69
(g90
g71
NtRp4043
(dp4044
g74
(dp4045
g101
g102
ssg83
g4034
sg76
(lp4046
S':'
asbag69
(g90
g71
NtRp4047
(dp4048
g74
(dp4049
sg83
g4034
sg76
(lp4050
g69
(g70
g71
NtRp4051
(dp4052
g74
(dp4053
g82
I4
ssg83
g4047
sg76
(lp4054
g487
ag69
(g78
g71
NtRp4055
(dp4056
g74
(dp4057
g82
I3
ssg83
Nsg76
(lp4058
g69
(g85
g71
NtRp4059
(dp4060
g74
(dp4061
sg83
g4055
sg76
(lp4062
g69
(g90
g71
NtRp4063
(dp4064
g74
(dp4065
g94
g95
ssg83
g4059
sg76
(lp4066
g306
asbag69
(g90
g71
NtRp4067
(dp4068
g74
(dp4069
g101
g102
ssg83
g4059
sg76
(lp4070
S':'
asbag69
(g90
g71
NtRp4071
(dp4072
g74
(dp4073
sg83
g4059
sg76
(lp4074
g69
(g70
g71
NtRp4075
(dp4076
g74
(dp4077
g82
I3
ssg83
g4071
sg76
(lp4078
S''
asbasbasbag69
(g85
g71
NtRp4079
(dp4080
g74
(dp4081
sg83
g4055
sg76
(lp4082
g69
(g90
g71
NtRp4083
(dp4084
g74
(dp4085
g94
g95
ssg83
g4079
sg76
(lp4086
g327
asbag69
(g90
g71
NtRp4087
(dp4088
g74
(dp4089
g101
g102
ssg83
g4079
sg76
(lp4090
S':'
asbag69
(g90
g71
NtRp4091
(dp4092
g74
(dp4093
sg83
g4079
sg76
(lp4094
g69
(g70
g71
NtRp4095
(dp4096
g74
(dp4097
g82
I3
ssg83
g4091
sg76
(lp4098
S''
asbasbasbag69
(g85
g71
NtRp4099
(dp4100
g74
(dp4101
sg83
g4055
sg76
(lp4102
g69
(g90
g71
NtRp4103
(dp4104
g74
(dp4105
g94
g95
ssg83
g4099
sg76
(lp4106
g348
asbag69
(g90
g71
NtRp4107
(dp4108
g74
(dp4109
g101
g102
ssg83
g4099
sg76
(lp4110
S':'
asbag69
(g90
g71
NtRp4111
(dp4112
g74
(dp4113
sg83
g4099
sg76
(lp4114
g69
(g70
g71
NtRp4115
(dp4116
g74
(dp4117
g82
I3
ssg83
g4111
sg76
(lp4118
S''
asbasbasbag69
(g85
g71
NtRp4119
(dp4120
g74
(dp4121
sg83
g4055
sg76
(lp4122
g69
(g90
g71
NtRp4123
(dp4124
g74
(dp4125
g94
g95
ssg83
g4119
sg76
(lp4126
g369
asbag69
(g90
g71
NtRp4127
(dp4128
g74
(dp4129
g101
g102
ssg83
g4119
sg76
(lp4130
S':'
asbag69
(g90
g71
NtRp4131
(dp4132
g74
(dp4133
sg83
g4119
sg76
(lp4134
g69
(g70
g71
NtRp4135
(dp4136
g74
(dp4137
g82
I3
ssg83
g4131
sg76
(lp4138
S''
asbasbasbag69
(g85
g71
NtRp4139
(dp4140
g74
(dp4141
sg83
g4055
sg76
(lp4142
g69
(g90
g71
NtRp4143
(dp4144
g74
(dp4145
g94
g95
ssg83
g4139
sg76
(lp4146
g390
asbag69
(g90
g71
NtRp4147
(dp4148
g74
(dp4149
g101
g102
ssg83
g4139
sg76
(lp4150
S':'
asbag69
(g90
g71
NtRp4151
(dp4152
g74
(dp4153
sg83
g4139
sg76
(lp4154
g69
(g70
g71
NtRp4155
(dp4156
g74
(dp4157
g82
I3
ssg83
g4151
sg76
(lp4158
S''
asbasbasbag69
(g85
g71
NtRp4159
(dp4160
g74
(dp4161
sg83
g4055
sg76
(lp4162
g69
(g90
g71
NtRp4163
(dp4164
g74
(dp4165
g94
g95
ssg83
g4159
sg76
(lp4166
g411
asbag69
(g90
g71
NtRp4167
(dp4168
g74
(dp4169
g101
g102
ssg83
g4159
sg76
(lp4170
S':'
asbag69
(g90
g71
NtRp4171
(dp4172
g74
(dp4173
sg83
g4159
sg76
(lp4174
g69
(g70
g71
NtRp4175
(dp4176
g74
(dp4177
g82
I3
ssg83
g4171
sg76
(lp4178
S'/'
asbasbasbag69
(g85
g71
NtRp4179
(dp4180
g74
(dp4181
sg83
g4055
sg76
(lp4182
g69
(g90
g71
NtRp4183
(dp4184
g74
(dp4185
g94
g95
ssg83
g4179
sg76
(lp4186
g432
asbag69
(g90
g71
NtRp4187
(dp4188
g74
(dp4189
g101
g102
ssg83
g4179
sg76
(lp4190
S':'
asbag69
(g90
g71
NtRp4191
(dp4192
g74
(dp4193
sg83
g4179
sg76
(lp4194
g69
(g70
g71
NtRp4195
(dp4196
g74
(dp4197
g82
I3
ssg83
g4191
sg76
(lp4198
S''
asbasbasbag69
(g85
g71
NtRp4199
(dp4200
g74
(dp4201
sg83
g4055
sg76
(lp4202
g69
(g90
g71
NtRp4203
(dp4204
g74
(dp4205
g94
g95
ssg83
g4199
sg76
(lp4206
g453
asbag69
(g90
g71
NtRp4207
(dp4208
g74
(dp4209
g101
g102
ssg83
g4199
sg76
(lp4210
S':'
asbag69
(g90
g71
NtRp4211
(dp4212
g74
(dp4213
sg83
g4199
sg76
(lp4214
g69
(g70
g71
NtRp4215
(dp4216
g74
(dp4217
g82
I3
ssg83
g4211
sg76
(lp4218
S''
asbasbasbasbasbasbasbasbasbasbasbag69
(g85
g71
NtRp4219
(dp4220
g74
(dp4221
sg83
g3985
sg76
(lp4222
g69
(g90
g71
NtRp4223
(dp4224
g74
(dp4225
g94
g95
ssg83
g4219
sg76
(lp4226
S'delimiters'
p4227
asbag69
(g90
g71
NtRp4228
(dp4229
g74
(dp4230
g101
g102
ssg83
g4219
sg76
(lp4231
S':'
asbag69
(g90
g71
NtRp4232
(dp4233
g74
(dp4234
sg83
g4219
sg76
(lp4235
g69
(g70
g71
NtRp4236
(dp4237
g74
(dp4238
g82
I5
ssg83
g4232
sg76
(lp4239
g69
(g78
g71
NtRp4240
(dp4241
g74
(dp4242
g82
I4
ssg83
Nsg76
(lp4243
g69
(g85
g71
NtRp4244
(dp4245
g74
(dp4246
sg83
g4240
sg76
(lp4247
g69
(g90
g71
NtRp4248
(dp4249
g74
(dp4250
sg83
g4244
sg76
(lp4251
g69
(g70
g71
NtRp4252
(dp4253
g74
(dp4254
g82
I4
ssg83
g4248
sg76
(lp4255
S'{{'
p4256
asbasbasbag69
(g85
g71
NtRp4257
(dp4258
g74
(dp4259
sg83
g4240
sg76
(lp4260
g69
(g90
g71
NtRp4261
(dp4262
g74
(dp4263
sg83
g4257
sg76
(lp4264
g69
(g70
g71
NtRp4265
(dp4266
g74
(dp4267
g82
I4
ssg83
g4261
sg76
(lp4268
S'}}'
p4269
asbasbasbasbasbasbasbag69
(g85
g71
NtRp4270
(dp4271
g74
(dp4272
sg83
g3985
sg76
(lp4273
g69
(g90
g71
NtRp4274
(dp4275
g74
(dp4276
g94
g95
ssg83
g4270
sg76
(lp4277
S'files'
p4278
asbag69
(g90
g71
NtRp4279
(dp4280
g74
(dp4281
g101
g102
ssg83
g4270
sg76
(lp4282
S':'
asbag69
(g90
g71
NtRp4283
(dp4284
g74
(dp4285
sg83
g4270
sg76
(lp4286
g69
(g70
g71
NtRp4287
(dp4288
g74
(dp4289
g82
I5
ssg83
g4283
sg76
(lp4290
g69
(g78
g71
NtRp4291
(dp4292
g74
(dp4293
g82
I4
ssg83
Nsg76
(lp4294
g69
(g85
g71
NtRp4295
(dp4296
g74
(dp4297
sg83
g4291
sg76
(lp4298
g69
(g90
g71
NtRp4299
(dp4300
g74
(dp4301
sg83
g4295
sg76
(lp4302
g69
(g70
g71
NtRp4303
(dp4304
g74
(dp4305
g82
I4
ssg83
g4299
sg76
(lp4306
S'/DEV_bootstrap_ch/static/plugin_wiki/ui/css/redmond/jquery-ui-1.8.5.custom.css'
p4307
asbasbasbag69
(g85
g71
NtRp4308
(dp4309
g74
(dp4310
sg83
g4291
sg76
(lp4311
g69
(g90
g71
NtRp4312
(dp4313
g74
(dp4314
sg83
g4308
sg76
(lp4315
g69
(g70
g71
NtRp4316
(dp4317
g74
(dp4318
g82
I4
ssg83
g4312
sg76
(lp4319
S'/DEV_bootstrap_ch/static/plugin_wiki/ui/js/jquery-ui-1.8.5.custom.min.js'
p4320
asbasbasbag69
(g85
g71
NtRp4321
(dp4322
g74
(dp4323
sg83
g4291
sg76
(lp4324
g69
(g90
g71
NtRp4325
(dp4326
g74
(dp4327
sg83
g4321
sg76
(lp4328
g69
(g70
g71
NtRp4329
(dp4330
g74
(dp4331
g82
I4
ssg83
g4325
sg76
(lp4332
S'/DEV_bootstrap_ch/static/plugin_wiki/jqgrid/ui.jqgrid.css'
p4333
asbasbasbag69
(g85
g71
NtRp4334
(dp4335
g74
(dp4336
sg83
g4291
sg76
(lp4337
g69
(g90
g71
NtRp4338
(dp4339
g74
(dp4340
sg83
g4334
sg76
(lp4341
g69
(g70
g71
NtRp4342
(dp4343
g74
(dp4344
g82
I4
ssg83
g4338
sg76
(lp4345
S'/DEV_bootstrap_ch/static/plugin_wiki/jqgrid/i18n/grid.locale-en.js'
p4346
asbasbasbag69
(g85
g71
NtRp4347
(dp4348
g74
(dp4349
sg83
g4291
sg76
(lp4350
g69
(g90
g71
NtRp4351
(dp4352
g74
(dp4353
sg83
g4347
sg76
(lp4354
g69
(g70
g71
NtRp4355
(dp4356
g74
(dp4357
g82
I4
ssg83
g4351
sg76
(lp4358
S'/DEV_bootstrap_ch/static/plugin_wiki/jqgrid/jquery.jqGrid.min.js'
p4359
asbasbasbag69
(g85
g71
NtRp4360
(dp4361
g74
(dp4362
sg83
g4291
sg76
(lp4363
g69
(g90
g71
NtRp4364
(dp4365
g74
(dp4366
sg83
g4360
sg76
(lp4367
g69
(g70
g71
NtRp4368
(dp4369
g74
(dp4370
g82
I4
ssg83
g4364
sg76
(lp4371
S'/DEV_bootstrap_ch/static/plugin_wiki/slideshow/jquery.cycle.min.js'
p4372
asbasbasbag69
(g85
g71
NtRp4373
(dp4374
g74
(dp4375
sg83
g4291
sg76
(lp4376
g69
(g90
g71
NtRp4377
(dp4378
g74
(dp4379
sg83
g4373
sg76
(lp4380
g69
(g70
g71
NtRp4381
(dp4382
g74
(dp4383
g82
I4
ssg83
g4377
sg76
(lp4384
S'/DEV_bootstrap_ch/static/plugin_wiki/multiselect/jquery.multiselect.css'
p4385
asbasbasbag69
(g85
g71
NtRp4386
(dp4387
g74
(dp4388
sg83
g4291
sg76
(lp4389
g69
(g90
g71
NtRp4390
(dp4391
g74
(dp4392
sg83
g4386
sg76
(lp4393
g69
(g70
g71
NtRp4394
(dp4395
g74
(dp4396
g82
I4
ssg83
g4390
sg76
(lp4397
S'/DEV_bootstrap_ch/static/plugin_wiki/multiselect/jquery.multiselect.js'
p4398
asbasbasbag69
(g85
g71
NtRp4399
(dp4400
g74
(dp4401
sg83
g4291
sg76
(lp4402
g69
(g90
g71
NtRp4403
(dp4404
g74
(dp4405
sg83
g4399
sg76
(lp4406
g69
(g70
g71
NtRp4407
(dp4408
g74
(dp4409
g82
I4
ssg83
g4403
sg76
(lp4410
S'/DEV_bootstrap_ch/static/plugin_wiki/rating/jquery.rating.css'
p4411
asbasbasbag69
(g85
g71
NtRp4412
(dp4413
g74
(dp4414
sg83
g4291
sg76
(lp4415
g69
(g90
g71
NtRp4416
(dp4417
g74
(dp4418
sg83
g4412
sg76
(lp4419
g69
(g70
g71
NtRp4420
(dp4421
g74
(dp4422
g82
I4
ssg83
g4416
sg76
(lp4423
S'/DEV_bootstrap_ch/static/plugin_wiki/rating/jquery.rating.js'
p4424
asbasbasbasbasbasbasbag69
(g85
g71
NtRp4425
(dp4426
g74
(dp4427
sg83
g3985
sg76
(lp4428
g69
(g90
g71
NtRp4429
(dp4430
g74
(dp4431
g94
g95
ssg83
g4425
sg76
(lp4432
S'flash'
p4433
asbag69
(g90
g71
NtRp4434
(dp4435
g74
(dp4436
g101
g102
ssg83
g4425
sg76
(lp4437
S':'
asbag69
(g90
g71
NtRp4438
(dp4439
g74
(dp4440
sg83
g4425
sg76
(lp4441
g69
(g70
g71
NtRp4442
(dp4443
g74
(dp4444
g82
I5
ssg83
g4438
sg76
(lp4445
S''
asbasbasbag69
(g85
g71
NtRp4446
(dp4447
g74
(dp4448
sg83
g3985
sg76
(lp4449
g69
(g90
g71
NtRp4450
(dp4451
g74
(dp4452
g94
g95
ssg83
g4446
sg76
(lp4453
S'generic_patterns'
p4454
asbag69
(g90
g71
NtRp4455
(dp4456
g74
(dp4457
g101
g102
ssg83
g4446
sg76
(lp4458
S':'
asbag69
(g90
g71
NtRp4459
(dp4460
g74
(dp4461
sg83
g4446
sg76
(lp4462
g69
(g70
g71
NtRp4463
(dp4464
g74
(dp4465
g82
I5
ssg83
g4459
sg76
(lp4466
g69
(g78
g71
NtRp4467
(dp4468
g74
(dp4469
g82
I4
ssg83
Nsg76
(lp4470
g69
(g85
g71
NtRp4471
(dp4472
g74
(dp4473
sg83
g4467
sg76
(lp4474
g69
(g90
g71
NtRp4475
(dp4476
g74
(dp4477
sg83
g4471
sg76
(lp4478
g69
(g70
g71
NtRp4479
(dp4480
g74
(dp4481
g82
I4
ssg83
g4475
sg76
(lp4482
S'*'
asbasbasbasbasbasbasbag69
(g85
g71
NtRp4483
(dp4484
g74
(dp4485
sg83
g3985
sg76
(lp4486
g69
(g90
g71
NtRp4487
(dp4488
g74
(dp4489
g94
g95
ssg83
g4483
sg76
(lp4490
S'google_analytics_id'
p4491
asbag69
(g90
g71
NtRp4492
(dp4493
g74
(dp4494
g101
g102
ssg83
g4483
sg76
(lp4495
S':'
asbag69
(g90
g71
NtRp4496
(dp4497
g74
(dp4498
sg83
g4483
sg76
(lp4499
g69
(g70
g71
NtRp4500
(dp4501
g74
(dp4502
g82
I5
ssg83
g4496
sg76
(lp4503
S'None'
p4504
asbasbasbag69
(g85
g71
NtRp4505
(dp4506
g74
(dp4507
sg83
g3985
sg76
(lp4508
g69
(g90
g71
NtRp4509
(dp4510
g74
(dp4511
g94
g95
ssg83
g4505
sg76
(lp4512
S'headers'
p4513
asbag69
(g90
g71
NtRp4514
(dp4515
g74
(dp4516
g101
g102
ssg83
g4505
sg76
(lp4517
S':'
asbag69
(g90
g71
NtRp4518
(dp4519
g74
(dp4520
sg83
g4505
sg76
(lp4521
g69
(g70
g71
NtRp4522
(dp4523
g74
(dp4524
g82
I5
ssg83
g4518
sg76
(lp4525
g69
(g78
g71
NtRp4526
(dp4527
g74
(dp4528
g82
I4
ssg83
Nsg76
(lp4529
g69
(g85
g71
NtRp4530
(dp4531
g74
(dp4532
sg83
g4526
sg76
(lp4533
g69
(g90
g71
NtRp4534
(dp4535
g74
(dp4536
g94
g95
ssg83
g4530
sg76
(lp4537
S'X-Powered-By'
p4538
asbag69
(g90
g71
NtRp4539
(dp4540
g74
(dp4541
g101
g102
ssg83
g4530
sg76
(lp4542
S':'
asbag69
(g90
g71
NtRp4543
(dp4544
g74
(dp4545
sg83
g4530
sg76
(lp4546
g69
(g70
g71
NtRp4547
(dp4548
g74
(dp4549
g82
I4
ssg83
g4543
sg76
(lp4550
S'web2py'
p4551
asbasbasbasbasbasbasbag69
(g85
g71
NtRp4552
(dp4553
g74
(dp4554
sg83
g3985
sg76
(lp4555
g69
(g90
g71
NtRp4556
(dp4557
g74
(dp4558
g94
g95
ssg83
g4552
sg76
(lp4559
S'menu'
p4560
asbag69
(g90
g71
NtRp4561
(dp4562
g74
(dp4563
g101
g102
ssg83
g4552
sg76
(lp4564
S':'
asbag69
(g90
g71
NtRp4565
(dp4566
g74
(dp4567
sg83
g4552
sg76
(lp4568
g69
(g70
g71
NtRp4569
(dp4570
g74
(dp4571
g82
I5
ssg83
g4565
sg76
(lp4572
g69
(g78
g71
NtRp4573
(dp4574
g74
(dp4575
g82
I4
ssg83
Nsg76
(lp4576
g69
(g85
g71
NtRp4577
(dp4578
g74
(dp4579
sg83
g4573
sg76
(lp4580
g69
(g90
g71
NtRp4581
(dp4582
g74
(dp4583
sg83
g4577
sg76
(lp4584
g69
(g70
g71
NtRp4585
(dp4586
g74
(dp4587
g82
I4
ssg83
g4581
sg76
(lp4588
g69
(g78
g71
NtRp4589
(dp4590
g74
(dp4591
g82
I3
ssg83
Nsg76
(lp4592
g69
(g85
g71
NtRp4593
(dp4594
g74
(dp4595
sg83
g4589
sg76
(lp4596
g69
(g90
g71
NtRp4597
(dp4598
g74
(dp4599
sg83
g4593
sg76
(lp4600
g69
(g70
g71
NtRp4601
(dp4602
g74
(dp4603
g82
I3
ssg83
g4597
sg76
(lp4604
cgluon.languages
lazyT_unpickle
p4605
(S't\x04\x00\x00\x00Home'
tRp4606
asbasbasbag69
(g85
g71
NtRp4607
(dp4608
g74
(dp4609
sg83
g4589
sg76
(lp4610
g69
(g90
g71
NtRp4611
(dp4612
g74
(dp4613
sg83
g4607
sg76
(lp4614
g69
(g70
g71
NtRp4615
(dp4616
g74
(dp4617
g82
I3
ssg83
g4611
sg76
(lp4618
g112
asbasbasbag69
(g85
g71
NtRp4619
(dp4620
g74
(dp4621
sg83
g4589
sg76
(lp4622
g69
(g90
g71
NtRp4623
(dp4624
g74
(dp4625
sg83
g4619
sg76
(lp4626
g69
(g70
g71
NtRp4627
(dp4628
g74
(dp4629
g82
I3
ssg83
g4623
sg76
(lp4630
S'/DEV_bootstrap_ch/default/index'
p4631
asbasbasbag69
(g85
g71
NtRp4632
(dp4633
g74
(dp4634
sg83
g4589
sg76
(lp4635
g69
(g90
g71
NtRp4636
(dp4637
g74
(dp4638
sg83
g4632
sg76
(lp4639
g69
(g70
g71
NtRp4640
(dp4641
g74
(dp4642
g82
I3
ssg83
g4636
sg76
(lp4643
g69
(g78
g71
NtRp4644
(dp4645
g74
(dp4646
g82
I2
ssg83
Nsg76
(lp4647
sbasbasbasbasbasbasbasbasbasbasbasbag69
(g85
g71
NtRp4648
(dp4649
g74
(dp4650
sg83
g3985
sg76
(lp4651
g69
(g90
g71
NtRp4652
(dp4653
g74
(dp4654
g94
g95
ssg83
g4648
sg76
(lp4655
S'meta'
p4656
asbag69
(g90
g71
NtRp4657
(dp4658
g74
(dp4659
g101
g102
ssg83
g4648
sg76
(lp4660
S':'
asbag69
(g90
g71
NtRp4661
(dp4662
g74
(dp4663
sg83
g4648
sg76
(lp4664
g69
(g70
g71
NtRp4665
(dp4666
g74
(dp4667
g82
I5
ssg83
g4661
sg76
(lp4668
g69
(g78
g71
NtRp4669
(dp4670
g74
(dp4671
g82
I4
ssg83
Nsg76
(lp4672
g69
(g85
g71
NtRp4673
(dp4674
g74
(dp4675
sg83
g4669
sg76
(lp4676
g69
(g90
g71
NtRp4677
(dp4678
g74
(dp4679
g94
g95
ssg83
g4673
sg76
(lp4680
S'author'
p4681
asbag69
(g90
g71
NtRp4682
(dp4683
g74
(dp4684
g101
g102
ssg83
g4673
sg76
(lp4685
S':'
asbag69
(g90
g71
NtRp4686
(dp4687
g74
(dp4688
sg83
g4673
sg76
(lp4689
g69
(g70
g71
NtRp4690
(dp4691
g74
(dp4692
g82
I4
ssg83
g4686
sg76
(lp4693
S'Vikram Pudi <vikram@iiit.ac.in>'
p4694
asbasbasbag69
(g85
g71
NtRp4695
(dp4696
g74
(dp4697
sg83
g4669
sg76
(lp4698
g69
(g90
g71
NtRp4699
(dp4700
g74
(dp4701
g94
g95
ssg83
g4695
sg76
(lp4702
S'copyright'
p4703
asbag69
(g90
g71
NtRp4704
(dp4705
g74
(dp4706
g101
g102
ssg83
g4695
sg76
(lp4707
S':'
asbag69
(g90
g71
NtRp4708
(dp4709
g74
(dp4710
sg83
g4695
sg76
(lp4711
g69
(g70
g71
NtRp4712
(dp4713
g74
(dp4714
g82
I4
ssg83
g4708
sg76
(lp4715
S'Copyright 2011'
p4716
asbasbasbag69
(g85
g71
NtRp4717
(dp4718
g74
(dp4719
sg83
g4669
sg76
(lp4720
g69
(g90
g71
NtRp4721
(dp4722
g74
(dp4723
g94
g95
ssg83
g4717
sg76
(lp4724
S'description'
p4725
asbag69
(g90
g71
NtRp4726
(dp4727
g74
(dp4728
g101
g102
ssg83
g4717
sg76
(lp4729
S':'
asbag69
(g90
g71
NtRp4730
(dp4731
g74
(dp4732
sg83
g4717
sg76
(lp4733
g69
(g70
g71
NtRp4734
(dp4735
g74
(dp4736
g82
I4
ssg83
g4730
sg76
(lp4737
S'Computational Core for Plant Metabolomics -- A project sanctioned by DBT, Govt. of India'
p4738
asbasbasbag69
(g85
g71
NtRp4739
(dp4740
g74
(dp4741
sg83
g4669
sg76
(lp4742
g69
(g90
g71
NtRp4743
(dp4744
g74
(dp4745
g94
g95
ssg83
g4739
sg76
(lp4746
S'generator'
p4747
asbag69
(g90
g71
NtRp4748
(dp4749
g74
(dp4750
g101
g102
ssg83
g4739
sg76
(lp4751
S':'
asbag69
(g90
g71
NtRp4752
(dp4753
g74
(dp4754
sg83
g4739
sg76
(lp4755
g69
(g70
g71
NtRp4756
(dp4757
g74
(dp4758
g82
I4
ssg83
g4752
sg76
(lp4759
S'Web2py Web Framework'
p4760
asbasbasbag69
(g85
g71
NtRp4761
(dp4762
g74
(dp4763
sg83
g4669
sg76
(lp4764
g69
(g90
g71
NtRp4765
(dp4766
g74
(dp4767
g94
g95
ssg83
g4761
sg76
(lp4768
S'keywords'
p4769
asbag69
(g90
g71
NtRp4770
(dp4771
g74
(dp4772
g101
g102
ssg83
g4761
sg76
(lp4773
S':'
asbag69
(g90
g71
NtRp4774
(dp4775
g74
(dp4776
sg83
g4761
sg76
(lp4777
g69
(g70
g71
NtRp4778
(dp4779
g74
(dp4780
g82
I4
ssg83
g4774
sg76
(lp4781
S'web2py, python, metabolome, metabolomics'
p4782
asbasbasbasbasbasbasbag69
(g85
g71
NtRp4783
(dp4784
g74
(dp4785
sg83
g3985
sg76
(lp4786
g69
(g90
g71
NtRp4787
(dp4788
g74
(dp4789
g94
g95
ssg83
g4783
sg76
(lp4790
S'models_to_run'
p4791
asbag69
(g90
g71
NtRp4792
(dp4793
g74
(dp4794
g101
g102
ssg83
g4783
sg76
(lp4795
S':'
asbag69
(g90
g71
NtRp4796
(dp4797
g74
(dp4798
sg83
g4783
sg76
(lp4799
g69
(g70
g71
NtRp4800
(dp4801
g74
(dp4802
g82
I5
ssg83
g4796
sg76
(lp4803
g69
(g78
g71
NtRp4804
(dp4805
g74
(dp4806
g82
I4
ssg83
Nsg76
(lp4807
g69
(g85
g71
NtRp4808
(dp4809
g74
(dp4810
sg83
g4804
sg76
(lp4811
g69
(g90
g71
NtRp4812
(dp4813
g74
(dp4814
sg83
g4808
sg76
(lp4815
g69
(g70
g71
NtRp4816
(dp4817
g74
(dp4818
g82
I4
ssg83
g4812
sg76
(lp4819
S'^\\w+\\.py$'
p4820
asbasbasbag69
(g85
g71
NtRp4821
(dp4822
g74
(dp4823
sg83
g4804
sg76
(lp4824
g69
(g90
g71
NtRp4825
(dp4826
g74
(dp4827
sg83
g4821
sg76
(lp4828
g69
(g70
g71
NtRp4829
(dp4830
g74
(dp4831
g82
I4
ssg83
g4825
sg76
(lp4832
S'^default/\\w+\\.py$'
p4833
asbasbasbag69
(g85
g71
NtRp4834
(dp4835
g74
(dp4836
sg83
g4804
sg76
(lp4837
g69
(g90
g71
NtRp4838
(dp4839
g74
(dp4840
sg83
g4834
sg76
(lp4841
g69
(g70
g71
NtRp4842
(dp4843
g74
(dp4844
g82
I4
ssg83
g4838
sg76
(lp4845
S'^default/list_all_projects/\\w+\\.py$'
p4846
asbasbasbasbasbasbasbag69
(g85
g71
NtRp4847
(dp4848
g74
(dp4849
sg83
g3985
sg76
(lp4850
g69
(g90
g71
NtRp4851
(dp4852
g74
(dp4853
g94
g95
ssg83
g4847
sg76
(lp4854
S'postprocessing'
p4855
asbag69
(g90
g71
NtRp4856
(dp4857
g74
(dp4858
g101
g102
ssg83
g4847
sg76
(lp4859
S':'
asbag69
(g90
g71
NtRp4860
(dp4861
g74
(dp4862
sg83
g4847
sg76
(lp4863
g69
(g70
g71
NtRp4864
(dp4865
g74
(dp4866
g82
I5
ssg83
g4860
sg76
(lp4867
g69
(g78
g71
NtRp4868
(dp4869
g74
(dp4870
g82
I4
ssg83
Nsg76
(lp4871
sbasbasbasbag69
(g85
g71
NtRp4872
(dp4873
g74
(dp4874
sg83
g3985
sg76
(lp4875
g69
(g90
g71
NtRp4876
(dp4877
g74
(dp4878
g94
g95
ssg83
g4872
sg76
(lp4879
S'session_cookie_expires'
p4880
asbag69
(g90
g71
NtRp4881
(dp4882
g74
(dp4883
g101
g102
ssg83
g4872
sg76
(lp4884
S':'
asbag69
(g90
g71
NtRp4885
(dp4886
g74
(dp4887
sg83
g4872
sg76
(lp4888
g69
(g70
g71
NtRp4889
(dp4890
g74
(dp4891
g82
I5
ssg83
g4885
sg76
(lp4892
S'None'
p4893
asbasbasbag69
(g85
g71
NtRp4894
(dp4895
g74
(dp4896
sg83
g3985
sg76
(lp4897
g69
(g90
g71
NtRp4898
(dp4899
g74
(dp4900
g94
g95
ssg83
g4894
sg76
(lp4901
S'session_data_name'
p4902
asbag69
(g90
g71
NtRp4903
(dp4904
g74
(dp4905
g101
g102
ssg83
g4894
sg76
(lp4906
S':'
asbag69
(g90
g71
NtRp4907
(dp4908
g74
(dp4909
sg83
g4894
sg76
(lp4910
g69
(g70
g71
NtRp4911
(dp4912
g74
(dp4913
g82
I5
ssg83
g4907
sg76
(lp4914
S'session_data_dev_bootstrap_ch'
p4915
asbasbasbag69
(g85
g71
NtRp4916
(dp4917
g74
(dp4918
sg83
g3985
sg76
(lp4919
g69
(g90
g71
NtRp4920
(dp4921
g74
(dp4922
g94
g95
ssg83
g4916
sg76
(lp4923
S'session_file'
p4924
asbag69
(g90
g71
NtRp4925
(dp4926
g74
(dp4927
g101
g102
ssg83
g4916
sg76
(lp4928
S':'
asbag69
(g90
g71
NtRp4929
(dp4930
g74
(dp4931
sg83
g4916
sg76
(lp4932
g69
(g70
g71
NtRp4933
(dp4934
g74
(dp4935
g82
I5
ssg83
g4929
sg76
(lp4936
S"<open file '/home/anil/bootstrap/web2py/applications/DEV_bootstrap_ch/sessions/127.0.0.1-805e9983-ce12-4a37-9770-f73cf67f56ab', mode 'rb+' at 0xae1a1bd0>"
p4937
asbasbasbag69
(g85
g71
NtRp4938
(dp4939
g74
(dp4940
sg83
g3985
sg76
(lp4941
g69
(g90
g71
NtRp4942
(dp4943
g74
(dp4944
g94
g95
ssg83
g4938
sg76
(lp4945
S'session_filename'
p4946
asbag69
(g90
g71
NtRp4947
(dp4948
g74
(dp4949
g101
g102
ssg83
g4938
sg76
(lp4950
S':'
asbag69
(g90
g71
NtRp4951
(dp4952
g74
(dp4953
sg83
g4938
sg76
(lp4954
g69
(g70
g71
NtRp4955
(dp4956
g74
(dp4957
g82
I5
ssg83
g4951
sg76
(lp4958
S'/home/anil/bootstrap/web2py/applications/DEV_bootstrap_ch/sessions/127.0.0.1-805e9983-ce12-4a37-9770-f73cf67f56ab'
p4959
asbasbasbag69
(g85
g71
NtRp4960
(dp4961
g74
(dp4962
sg83
g3985
sg76
(lp4963
g69
(g90
g71
NtRp4964
(dp4965
g74
(dp4966
g94
g95
ssg83
g4960
sg76
(lp4967
S'session_id'
p4968
asbag69
(g90
g71
NtRp4969
(dp4970
g74
(dp4971
g101
g102
ssg83
g4960
sg76
(lp4972
S':'
asbag69
(g90
g71
NtRp4973
(dp4974
g74
(dp4975
sg83
g4960
sg76
(lp4976
g69
(g70
g71
NtRp4977
(dp4978
g74
(dp4979
g82
I5
ssg83
g4973
sg76
(lp4980
g487
asbasbasbag69
(g85
g71
NtRp4981
(dp4982
g74
(dp4983
sg83
g3985
sg76
(lp4984
g69
(g90
g71
NtRp4985
(dp4986
g74
(dp4987
g94
g95
ssg83
g4981
sg76
(lp4988
S'session_id_name'
p4989
asbag69
(g90
g71
NtRp4990
(dp4991
g74
(dp4992
g101
g102
ssg83
g4981
sg76
(lp4993
S':'
asbag69
(g90
g71
NtRp4994
(dp4995
g74
(dp4996
sg83
g4981
sg76
(lp4997
g69
(g70
g71
NtRp4998
(dp4999
g74
(dp5000
g82
I5
ssg83
g4994
sg76
(lp5001
g4042
asbasbasbag69
(g85
g71
NtRp5002
(dp5003
g74
(dp5004
sg83
g3985
sg76
(lp5005
g69
(g90
g71
NtRp5006
(dp5007
g74
(dp5008
g94
g95
ssg83
g5002
sg76
(lp5009
S'session_locked'
p5010
asbag69
(g90
g71
NtRp5011
(dp5012
g74
(dp5013
g101
g102
ssg83
g5002
sg76
(lp5014
S':'
asbag69
(g90
g71
NtRp5015
(dp5016
g74
(dp5017
sg83
g5002
sg76
(lp5018
g69
(g70
g71
NtRp5019
(dp5020
g74
(dp5021
g82
I5
ssg83
g5015
sg76
(lp5022
g1825
asbasbasbag69
(g85
g71
NtRp5023
(dp5024
g74
(dp5025
sg83
g3985
sg76
(lp5026
g69
(g90
g71
NtRp5027
(dp5028
g74
(dp5029
g94
g95
ssg83
g5023
sg76
(lp5030
S'session_new'
p5031
asbag69
(g90
g71
NtRp5032
(dp5033
g74
(dp5034
g101
g102
ssg83
g5023
sg76
(lp5035
S':'
asbag69
(g90
g71
NtRp5036
(dp5037
g74
(dp5038
sg83
g5023
sg76
(lp5039
g69
(g70
g71
NtRp5040
(dp5041
g74
(dp5042
g82
I5
ssg83
g5036
sg76
(lp5043
g112
asbasbasbag69
(g85
g71
NtRp5044
(dp5045
g74
(dp5046
sg83
g3985
sg76
(lp5047
g69
(g90
g71
NtRp5048
(dp5049
g74
(dp5050
g94
g95
ssg83
g5044
sg76
(lp5051
S'session_storage_type'
p5052
asbag69
(g90
g71
NtRp5053
(dp5054
g74
(dp5055
g101
g102
ssg83
g5044
sg76
(lp5056
S':'
asbag69
(g90
g71
NtRp5057
(dp5058
g74
(dp5059
sg83
g5044
sg76
(lp5060
g69
(g70
g71
NtRp5061
(dp5062
g74
(dp5063
g82
I5
ssg83
g5057
sg76
(lp5064
g3298
asbasbasbag69
(g85
g71
NtRp5065
(dp5066
g74
(dp5067
sg83
g3985
sg76
(lp5068
g69
(g90
g71
NtRp5069
(dp5070
g74
(dp5071
g94
g95
ssg83
g5065
sg76
(lp5072
S'status'
p5073
asbag69
(g90
g71
NtRp5074
(dp5075
g74
(dp5076
g101
g102
ssg83
g5065
sg76
(lp5077
S':'
asbag69
(g90
g71
NtRp5078
(dp5079
g74
(dp5080
sg83
g5065
sg76
(lp5081
g69
(g70
g71
NtRp5082
(dp5083
g74
(dp5084
g82
I5
ssg83
g5078
sg76
(lp5085
S'200'
p5086
asbasbasbag69
(g85
g71
NtRp5087
(dp5088
g74
(dp5089
sg83
g3985
sg76
(lp5090
g69
(g90
g71
NtRp5091
(dp5092
g74
(dp5093
g94
g95
ssg83
g5087
sg76
(lp5094
S'subtitle'
p5095
asbag69
(g90
g71
NtRp5096
(dp5097
g74
(dp5098
g101
g102
ssg83
g5087
sg76
(lp5099
S':'
asbag69
(g90
g71
NtRp5100
(dp5101
g74
(dp5102
sg83
g5087
sg76
(lp5103
g69
(g70
g71
NtRp5104
(dp5105
g74
(dp5106
g82
I5
ssg83
g5100
sg76
(lp5107
g4605
(S's)\x00\x00\x00Computational Core for Plant Metabolomics'
tRp5108
asbasbasbag69
(g85
g71
NtRp5109
(dp5110
g74
(dp5111
sg83
g3985
sg76
(lp5112
g69
(g90
g71
NtRp5113
(dp5114
g74
(dp5115
g94
g95
ssg83
g5109
sg76
(lp5116
g3851
asbag69
(g90
g71
NtRp5117
(dp5118
g74
(dp5119
g101
g102
ssg83
g5109
sg76
(lp5120
S':'
asbag69
(g90
g71
NtRp5121
(dp5122
g74
(dp5123
sg83
g5109
sg76
(lp5124
g69
(g70
g71
NtRp5125
(dp5126
g74
(dp5127
g82
I5
ssg83
g5121
sg76
(lp5128
g134
asbasbasbag69
(g85
g71
NtRp5129
(dp5130
g74
(dp5131
sg83
g3985
sg76
(lp5132
g69
(g90
g71
NtRp5133
(dp5134
g74
(dp5135
g94
g95
ssg83
g5129
sg76
(lp5136
S'view'
p5137
asbag69
(g90
g71
NtRp5138
(dp5139
g74
(dp5140
g101
g102
ssg83
g5129
sg76
(lp5141
S':'
asbag69
(g90
g71
NtRp5142
(dp5143
g74
(dp5144
sg83
g5129
sg76
(lp5145
g69
(g70
g71
NtRp5146
(dp5147
g74
(dp5148
g82
I5
ssg83
g5142
sg76
(lp5149
S'default/list_all_projects.html'
p5150
asbasbasbasbasbsS'locals'
p5151
(dp5152
g4
S"'/home/anil/bootstrap/web2py/applications/DEV_bootstrap_ch/views/default/list_all_projects.html'"
p5153
sg6
S'\'response.write(\\\'<!DOCTYPE html>\\\\n<html lang="\\\', ...nse.write(\\\'\\\\n  </body>\\\\n</html>\\\\n\\\', escape=False)\''
p5154
sssS'traceback'
p5155
S'Traceback (most recent call last):\n  File "/home/anil/bootstrap/web2py/gluon/restricted.py", line 211, in restricted\n    ccode = compile2(code, layer)\n  File "/home/anil/bootstrap/web2py/gluon/restricted.py", line 194, in compile2\n    return compile(code.rstrip().replace(\'\\r\\n\', \'\\n\') + \'\\n\', layer, \'exec\')\n  File "/home/anil/bootstrap/web2py/applications/DEV_bootstrap_ch/views/default/list_all_projects.html", line 102\n    response.write(LI(B( A(project.project.name,_href=URL(\'project_viewer\',args=project.project.id))),BR(),B("Project Code : "+project.project.code),B(" Coordinator: " A(project.auth_user.first_name,_href=URL(\'user_viewer\',args=project.project.project_coordinator)))))\n                                                                                                                                                                        ^\nSyntaxError: invalid syntax\n'
p5156
s.